	.arch armv8-m.main
	.arch_extension dsp
	.eabi_attribute 20, 1
	.eabi_attribute 21, 1
	.eabi_attribute 23, 3
	.eabi_attribute 24, 1
	.eabi_attribute 25, 1
	.eabi_attribute 26, 1
	.eabi_attribute 30, 2
	.eabi_attribute 34, 1
	.eabi_attribute 18, 4
	.file	"atcmd_wifi.c"
	.text
.Ltext0:
	.cfi_sections	.debug_frame
	.section	.text.fATWw,"ax",%progbits
	.align	1
	.p2align 2,,3
	.global	fATWw
	.syntax unified
	.thumb
	.thumb_func
	.fpu softvfp
	.type	fATWw, %function
fATWw:
.LFB182:
	.file 1 "../../../component/common/api/at_cmd/atcmd_wifi.c"
	.loc 1 1442 0
	.cfi_startproc
	@ args = 0, pretend = 0, frame = 0
	@ frame_needed = 0, uses_anonymous_args = 0
	@ link register save eliminated.
.LVL0:
	bx	lr
	.cfi_endproc
.LFE182:
	.size	fATWw, .-fATWw
	.section	.text.fATWW,"ax",%progbits
	.align	1
	.p2align 2,,3
	.global	fATWW
	.syntax unified
	.thumb
	.thumb_func
	.fpu softvfp
	.type	fATWW, %function
fATWW:
.LFB181:
	.loc 1 1423 0
	.cfi_startproc
	@ args = 0, pretend = 0, frame = 0
	@ frame_needed = 0, uses_anonymous_args = 0
	@ link register save eliminated.
.LVL1:
	.loc 1 1439 0
	ldr	r0, .L3
.LVL2:
	b	__wrap_printf
.LVL3:
.L4:
	.align	2
.L3:
	.word	.LC3
	.cfi_endproc
.LFE181:
	.size	fATWW, .-fATWW
	.section	.text.fATWL,"ax",%progbits
	.align	1
	.p2align 2,,3
	.global	fATWL
	.syntax unified
	.thumb
	.thumb_func
	.fpu softvfp
	.type	fATWL, %function
fATWL:
.LFB186:
	.loc 1 2905 0
	.cfi_startproc
	@ args = 0, pretend = 0, frame = 0
	@ frame_needed = 0, uses_anonymous_args = 0
	@ link register save eliminated.
.LVL4:
	.loc 1 2926 0
	ldr	r0, .L6
.LVL5:
	b	__wrap_printf
.LVL6:
.L7:
	.align	2
.L6:
	.word	.LC4
	.cfi_endproc
.LFE186:
	.size	fATWL, .-fATWL
	.section	.text.fATWT,"ax",%progbits
	.align	1
	.p2align 2,,3
	.global	fATWT
	.syntax unified
	.thumb
	.thumb_func
	.fpu softvfp
	.type	fATWT, %function
fATWT:
.LFB188:
	.loc 1 2954 0
	.cfi_startproc
	@ args = 0, pretend = 0, frame = 0
	@ frame_needed = 0, uses_anonymous_args = 0
	@ link register save eliminated.
.LVL7:
	.loc 1 2987 0
	ldr	r0, .L9
.LVL8:
	b	__wrap_printf
.LVL9:
.L10:
	.align	2
.L9:
	.word	.LC5
	.cfi_endproc
.LFE188:
	.size	fATWT, .-fATWT
	.section	.text.fATWU,"ax",%progbits
	.align	1
	.p2align 2,,3
	.global	fATWU
	.syntax unified
	.thumb
	.thumb_func
	.fpu softvfp
	.type	fATWU, %function
fATWU:
.LFB189:
	.loc 1 2992 0
	.cfi_startproc
	@ args = 0, pretend = 0, frame = 0
	@ frame_needed = 0, uses_anonymous_args = 0
	@ link register save eliminated.
.LVL10:
	.loc 1 3027 0
	ldr	r0, .L12
.LVL11:
	b	__wrap_printf
.LVL12:
.L13:
	.align	2
.L12:
	.word	.LC6
	.cfi_endproc
.LFE189:
	.size	fATWU, .-fATWU
	.section	.text.fATWQ,"ax",%progbits
	.align	1
	.p2align 2,,3
	.global	fATWQ
	.syntax unified
	.thumb
	.thumb_func
	.fpu softvfp
	.type	fATWQ, %function
fATWQ:
.LFB163:
	.loc 1 370 0
	.cfi_startproc
	@ args = 0, pretend = 0, frame = 8
	@ frame_needed = 0, uses_anonymous_args = 0
.LVL13:
	.loc 1 372 0
	movs	r3, #0
	.loc 1 370 0
	push	{r4, lr}
	.cfi_def_cfa_offset 8
	.cfi_offset 4, -8
	.cfi_offset 14, -4
	mov	r4, r0
	sub	sp, sp, #8
	.cfi_def_cfa_offset 16
	.loc 1 373 0
	ldr	r0, .L19
.LVL14:
	.loc 1 372 0
	str	r3, [sp]
	str	r3, [sp, #4]
	.loc 1 373 0
	bl	__wrap_printf
.LVL15:
	.loc 1 374 0
	ldr	r3, .L19+4
	str	r3, [sp]
	.loc 1 375 0
	cbz	r4, .L16
.LVL16:
	.loc 1 376 0
	movs	r0, #2
.LVL17:
	.loc 1 381 0
	mov	r1, sp
	.loc 1 376 0
	str	r4, [sp, #4]
	.loc 1 381 0
	bl	cmd_simple_config
.LVL18:
	.loc 1 382 0
	add	sp, sp, #8
	.cfi_remember_state
	.cfi_def_cfa_offset 8
	@ sp needed
	pop	{r4, pc}
.LVL19:
.L16:
	.cfi_restore_state
	.loc 1 374 0
	movs	r0, #1
.LVL20:
	.loc 1 381 0
	mov	r1, sp
	bl	cmd_simple_config
.LVL21:
	.loc 1 382 0
	add	sp, sp, #8
	.cfi_def_cfa_offset 8
	@ sp needed
	pop	{r4, pc}
.LVL22:
.L20:
	.align	2
.L19:
	.word	.LC7
	.word	.LC8
	.cfi_endproc
.LFE163:
	.size	fATWQ, .-fATWQ
	.section	.text.fATW5,"ax",%progbits
	.align	1
	.p2align 2,,3
	.global	fATW5
	.syntax unified
	.thumb
	.thumb_func
	.fpu softvfp
	.type	fATW5, %function
fATW5:
.LFB171:
	.loc 1 790 0
	.cfi_startproc
	@ args = 0, pretend = 0, frame = 8
	@ frame_needed = 0, uses_anonymous_args = 0
.LVL23:
	.loc 1 791 0
	movs	r3, #0
	.loc 1 790 0
	push	{lr}
	.cfi_def_cfa_offset 4
	.cfi_offset 14, -4
	sub	sp, sp, #12
	.cfi_def_cfa_offset 16
	.loc 1 791 0
	str	r3, [sp, #4]
	.loc 1 792 0
	ldr	r3, [sp, #4]
	.loc 1 793 0
	cbz	r0, .L25
	.loc 1 798 0
	bl	atoi
.LVL24:
	ldr	r2, .L26
	uxtb	r3, r0
	.loc 1 799 0
	mov	r1, r3
	ldr	r0, .L26+4
	.loc 1 798 0
	str	r3, [r2, #48]
	.loc 1 799 0
	bl	__wrap_printf
.LVL25:
	.loc 1 805 0
	add	sp, sp, #12
	.cfi_remember_state
	.cfi_def_cfa_offset 4
	@ sp needed
	ldr	pc, [sp], #4
.L23:
.LVL26:
.L25:
	.cfi_restore_state
	.loc 1 794 0
	ldr	r0, .L26+8
.LVL27:
	bl	__wrap_printf
.LVL28:
	.loc 1 795 0
	mvn	r3, #1
	str	r3, [sp, #4]
	.loc 1 805 0
	add	sp, sp, #12
	.cfi_def_cfa_offset 4
	@ sp needed
	ldr	pc, [sp], #4
.L27:
	.align	2
.L26:
	.word	.LANCHOR0
	.word	.LC10
	.word	.LC9
	.cfi_endproc
.LFE171:
	.size	fATW5, .-fATW5
	.section	.text.fATWS,"ax",%progbits
	.align	1
	.p2align 2,,3
	.global	fATWS
	.syntax unified
	.thumb
	.thumb_func
	.fpu softvfp
	.type	fATWS, %function
fATWS:
.LFB164:
	.loc 1 401 0
	.cfi_startproc
	@ args = 0, pretend = 0, frame = 88
	@ frame_needed = 0, uses_anonymous_args = 0
.LVL29:
	push	{r4, r5, r6, r7, r8, r9, r10, fp, lr}
	.cfi_def_cfa_offset 36
	.cfi_offset 4, -36
	.cfi_offset 5, -32
	.cfi_offset 6, -28
	.cfi_offset 7, -24
	.cfi_offset 8, -20
	.cfi_offset 9, -16
	.cfi_offset 10, -12
	.cfi_offset 11, -8
	.cfi_offset 14, -4
	sub	sp, sp, #92
	.cfi_def_cfa_offset 128
	.loc 1 401 0
	mov	r4, r0
	.loc 1 403 0
	movs	r2, #32
	movs	r1, #0
	add	r0, sp, #8
.LVL30:
	bl	memset
.LVL31:
	.loc 1 408 0
	movs	r1, #0
	movs	r2, #48
	add	r0, sp, #40
	bl	memset
.LVL32:
	.loc 1 409 0
	movs	r3, #0
	.loc 1 419 0
	ldr	r0, .L57
	.loc 1 409 0
	str	r3, [sp, #4]
	.loc 1 419 0
	bl	__wrap_printf
.LVL33:
	.loc 1 421 0
	mov	r1, r4
	.loc 1 420 0
	cmp	r4, #0
	beq	.L29
	.loc 1 421 0
	add	r0, sp, #8
	bl	strcpy
.LVL34:
	.loc 1 422 0
	add	r1, sp, #40
	add	r0, sp, #8
	bl	parse_param
.LVL35:
	.loc 1 423 0
	cmp	r0, #1
	.loc 1 422 0
	mov	r7, r0
.LVL36:
	.loc 1 423 0
	ble	.L53
	.loc 1 431 0
	ldr	r0, [sp, #44]
.LVL37:
	bl	atoi
.LVL38:
	mov	fp, r0
.LVL39:
	.loc 1 432 0
	bl	pvPortMalloc
.LVL40:
	.loc 1 433 0
	mov	r10, r0
	cmp	r0, #0
	beq	.L54
	.loc 1 442 0
	mov	r0, fp
.LVL41:
	bl	pvPortMalloc
.LVL42:
	.loc 1 443 0
	mov	r9, r0
	cmp	r0, #0
	beq	.L33
.LVL43:
	.loc 1 452 0 discriminator 1
	cmp	r7, #2
	beq	.L39
	.loc 1 454 0
	mov	r8, #1
	subs	r7, r7, #3
.LVL44:
	add	r7, r7, r10
.LVL45:
	add	r6, sp, #44
	add	r4, r10, #-1
.LVL46:
	subs	r5, r0, #1
.LVL47:
.L38:
	.loc 1 453 0 discriminator 3
	ldr	r0, [r6, #4]!
	bl	atoi
.LVL48:
	strb	r0, [r4, #1]!
	.loc 1 452 0 discriminator 3
	cmp	r7, r4
	.loc 1 454 0 discriminator 3
	strb	r8, [r5, #1]!
	.loc 1 452 0 discriminator 3
	bne	.L38
.L39:
	.loc 1 457 0
	uxtb	r2, fp
	mov	r1, r9
	mov	r0, r10
	bl	wifi_set_pscan_chan
.LVL49:
	cmp	r0, #0
	str	r0, [sp, #4]
	blt	.L55
	.loc 1 479 0
	movs	r1, #0
	ldr	r0, .L57+4
	bl	wifi_scan_networks
.LVL50:
	str	r0, [sp, #4]
	cbnz	r0, .L56
.L43:
	.loc 1 502 0
	mov	r0, r10
	bl	free
.LVL51:
	.loc 1 503 0
	cmp	r9, #0
	beq	.L28
	.loc 1 504 0
	mov	r0, r9
	bl	free
.LVL52:
	.loc 1 505 0
	add	sp, sp, #92
	.cfi_remember_state
	.cfi_def_cfa_offset 36
	@ sp needed
	pop	{r4, r5, r6, r7, r8, r9, r10, fp, pc}
.LVL53:
.L53:
	.cfi_restore_state
	.loc 1 424 0
	mvn	r3, #1
	str	r3, [sp, #4]
.LVL54:
.L28:
	.loc 1 505 0
	add	sp, sp, #92
	.cfi_remember_state
	.cfi_def_cfa_offset 36
	@ sp needed
	pop	{r4, r5, r6, r7, r8, r9, r10, fp, pc}
.LVL55:
.L56:
	.cfi_restore_state
	.loc 1 480 0
	ldr	r0, .L57+8
	bl	__wrap_printf
.LVL56:
	b	.L43
.LVL57:
.L29:
	.loc 1 479 0
	ldr	r0, .L57+4
	bl	wifi_scan_networks
.LVL58:
	str	r0, [sp, #4]
	cmp	r0, #0
	beq	.L28
	.loc 1 480 0
	ldr	r0, .L57+8
	bl	__wrap_printf
.LVL59:
	b	.L28
.LVL60:
.L54:
	.loc 1 434 0
	ldr	r0, .L57+12
.LVL61:
	bl	__wrap_printf
.LVL62:
	.loc 1 435 0
	movs	r3, #9
	str	r3, [sp, #4]
	.loc 1 439 0
	b	.L28
.LVL63:
.L55:
	.loc 1 458 0
	ldr	r0, .L57+16
	bl	__wrap_printf
.LVL64:
	.loc 1 462 0
	b	.L43
.LVL65:
.L33:
	.loc 1 444 0
	ldr	r0, .L57+20
.LVL66:
	bl	__wrap_printf
.LVL67:
	.loc 1 445 0
	movs	r3, #9
	str	r3, [sp, #4]
	.loc 1 449 0
	b	.L43
.L58:
	.align	2
.L57:
	.word	.LC11
	.word	app_scan_result_handler
	.word	.LC15
	.word	.LC12
	.word	.LC14
	.word	.LC13
	.cfi_endproc
.LFE164:
	.size	fATWS, .-fATWS
	.section	.text.fATWx,"ax",%progbits
	.align	1
	.p2align 2,,3
	.global	fATWx
	.syntax unified
	.thumb
	.thumb_func
	.fpu softvfp
	.type	fATWx, %function
fATWx:
.LFB165:
	.loc 1 518 0
	.cfi_startproc
	@ args = 0, pretend = 0, frame = 1152
	@ frame_needed = 0, uses_anonymous_args = 0
.LVL68:
	push	{r4, r5, r6, r7, r8, r9, r10, fp, lr}
	.cfi_def_cfa_offset 36
	.cfi_offset 4, -36
	.cfi_offset 5, -32
	.cfi_offset 6, -28
	.cfi_offset 7, -24
	.cfi_offset 8, -20
	.cfi_offset 9, -16
	.cfi_offset 10, -12
	.cfi_offset 11, -8
	.cfi_offset 14, -4
	.loc 1 524 0
	ldr	r0, .L78
.LVL69:
	.loc 1 518 0
	subw	sp, sp, #1172
	.cfi_def_cfa_offset 1208
	.loc 1 524 0
	bl	LwIP_GetMAC
.LVL70:
	.loc 1 525 0
	ldr	r0, .L78
	bl	LwIP_GetIP
.LVL71:
	.loc 1 531 0
	ldr	r0, .L78
	bl	LwIP_GetGW
.LVL72:
	.loc 1 532 0
	ldr	r0, .L78
	bl	LwIP_GetMASK
.LVL73:
	.loc 1 534 0
	ldr	r2, .L78+4
	ldr	r3, .L78+8
	.loc 1 537 0
	ldr	r0, .L78+12
	.loc 1 534 0
	str	r2, [sp, #28]
	str	r3, [sp, #32]
	.loc 1 545 0
	movs	r4, #0
	.loc 1 537 0
	bl	__wrap_printf
.LVL74:
	ldr	fp, .L78
	.loc 1 559 0
	ldr	r10, .L78+60
.LVL75:
.L69:
	.loc 1 546 0
	uxtb	r5, r4
	mov	r0, r5
	bl	rltk_wlan_running
.LVL76:
	cbnz	r0, .L76
.L61:
	.loc 1 545 0 discriminator 2
	adds	r4, r4, #1
.LVL77:
	cmp	r4, #2
	bne	.L69
.LBB4:
	.loc 1 654 0
	add	r0, sp, #144
	bl	vTaskList
.LVL78:
	.loc 1 655 0
	add	r1, sp, #144
	ldr	r0, .L78+16
	bl	__wrap_printf
.LVL79:
.LBE4:
	.loc 1 674 0
	addw	sp, sp, #1172
	.cfi_remember_state
	.cfi_def_cfa_offset 36
	@ sp needed
	pop	{r4, r5, r6, r7, r8, r9, r10, fp, pc}
.LVL80:
.L76:
	.cfi_restore_state
	add	r6, fp, r4, lsl #6
	.loc 1 548 0
	mov	r0, r6
	bl	LwIP_GetMAC
.LVL81:
	str	r0, [sp, #20]
.LVL82:
	.loc 1 549 0
	mov	r0, r6
.LVL83:
	bl	LwIP_GetIP
.LVL84:
	mov	r8, r0
.LVL85:
	.loc 1 555 0
	mov	r0, r6
.LVL86:
	bl	LwIP_GetGW
.LVL87:
	mov	r7, r0
.LVL88:
	.loc 1 556 0
	mov	r0, r6
.LVL89:
	bl	LwIP_GetMASK
.LVL90:
	mov	r6, r0
.LVL91:
	.loc 1 558 0
	add	r3, sp, #28
	ldr	r9, [r3, r4, lsl #2]
	ldr	r0, .L78+20
.LVL92:
	mov	r1, r9
	bl	__wrap_printf
.LVL93:
	.loc 1 559 0
	mov	r0, r10
	bl	__wrap_printf
.LVL94:
	.loc 1 561 0
	mov	r0, r5
	bl	rltk_wlan_statistic
.LVL95:
	.loc 1 563 0
	add	r1, sp, #36
	mov	r0, r9
	bl	wifi_get_setting
.LVL96:
	.loc 1 564 0
	add	r1, sp, #36
	mov	r0, r9
	bl	wifi_show_setting
.LVL97:
	.loc 1 578 0
	mov	r1, r9
	ldr	r0, .L78+24
	bl	__wrap_printf
.LVL98:
	.loc 1 579 0
	mov	r0, r10
	bl	__wrap_printf
.LVL99:
	.loc 1 580 0
	ldr	r2, [sp, #20]
	ldrb	r0, [r2, #5]	@ zero_extendqisi2
	ldrb	r3, [r2, #2]	@ zero_extendqisi2
	ldrb	r1, [r2]	@ zero_extendqisi2
	ldrb	r5, [r2, #1]	@ zero_extendqisi2
	str	r0, [sp, #8]
	ldrb	r0, [r2, #4]	@ zero_extendqisi2
	str	r0, [sp, #4]
	ldrb	r0, [r2, #3]	@ zero_extendqisi2
	mov	r2, r5
	str	r0, [sp]
	ldr	r0, .L78+28
	bl	__wrap_printf
.LVL100:
	.loc 1 581 0
	ldrb	r0, [r8, #3]	@ zero_extendqisi2
	ldrb	r3, [r8, #2]	@ zero_extendqisi2
	ldrb	r2, [r8, #1]	@ zero_extendqisi2
	ldrb	r1, [r8]	@ zero_extendqisi2
	str	r0, [sp]
	ldr	r0, .L78+32
	bl	__wrap_printf
.LVL101:
	.loc 1 589 0
	ldrb	r0, [r7, #3]	@ zero_extendqisi2
	ldrb	r3, [r7, #2]	@ zero_extendqisi2
	ldrb	r2, [r7, #1]	@ zero_extendqisi2
	ldrb	r1, [r7]	@ zero_extendqisi2
	str	r0, [sp]
	ldr	r0, .L78+36
	bl	__wrap_printf
.LVL102:
	.loc 1 590 0
	ldrb	r0, [r6, #3]	@ zero_extendqisi2
	ldrb	r3, [r6, #2]	@ zero_extendqisi2
	ldrb	r2, [r6, #1]	@ zero_extendqisi2
	ldrb	r1, [r6]	@ zero_extendqisi2
	str	r0, [sp]
	ldr	r0, .L78+40
	bl	__wrap_printf
.LVL103:
	.loc 1 592 0
	ldr	r3, [sp, #36]
	cmp	r3, #2
	beq	.L62
	.loc 1 592 0 is_stmt 0 discriminator 1
	cmp	r4, #1
	bne	.L61
.L62:
.LBB5:
	.loc 1 600 0 is_stmt 1
	movs	r3, #3
	.loc 1 601 0
	movs	r1, #24
	add	r0, sp, #144
	.loc 1 600 0
	str	r3, [sp, #144]
	.loc 1 601 0
	bl	wifi_get_associated_client_list
.LVL104:
	.loc 1 603 0
	ldr	r0, .L78+44
	bl	__wrap_printf
.LVL105:
	.loc 1 604 0
	mov	r0, r10
	bl	__wrap_printf
.LVL106:
	.loc 1 606 0
	ldr	r1, [sp, #144]
	cbz	r1, .L77
	.loc 1 610 0
	ldr	r0, .L78+48
	bl	__wrap_printf
.LVL107:
	.loc 1 611 0
	ldr	r3, [sp, #144]
	cmp	r3, #0
	ble	.L68
	movs	r6, #0
.LVL108:
	.loc 1 613 0
	ldr	r8, .L78+64
.LVL109:
	.loc 1 614 0
	ldr	r7, .L78+28
.LVL110:
	add	r5, sp, #144
.LVL111:
.L67:
	.loc 1 613 0 discriminator 3
	adds	r6, r6, #1
.LVL112:
	mov	r1, r6
	mov	r0, r8
	bl	__wrap_printf
.LVL113:
	.loc 1 614 0 discriminator 3
	ldrb	r0, [r5, #9]	@ zero_extendqisi2
	ldrb	r3, [r5, #6]	@ zero_extendqisi2
	ldrb	r2, [r5, #5]	@ zero_extendqisi2
	ldrb	r1, [r5, #4]	@ zero_extendqisi2
	ldrb	ip, [r5, #8]	@ zero_extendqisi2
	str	r0, [sp, #8]
	ldrb	r0, [r5, #7]	@ zero_extendqisi2
	adds	r5, r5, #6
	stm	sp, {r0, ip}
	mov	r0, r7
	bl	__wrap_printf
.LVL114:
	.loc 1 611 0 discriminator 3
	ldr	r3, [sp, #144]
	cmp	r3, r6
	bgt	.L67
.LVL115:
.L68:
	.loc 1 626 0
	ldr	r0, .L78+52
	bl	__wrap_printf
.LVL116:
	b	.L61
.LVL117:
.L77:
	.loc 1 607 0
	ldr	r0, .L78+56
	bl	__wrap_printf
.LVL118:
	b	.L61
.L79:
	.align	2
.L78:
	.word	xnetif
	.word	.LC0
	.word	.LC1
	.word	.LC16
	.word	.LC29
	.word	.LC17
	.word	.LC19
	.word	.LC20
	.word	.LC21
	.word	.LC22
	.word	.LC23
	.word	.LC24
	.word	.LC26
	.word	.LC27
	.word	.LC25
	.word	.LC18
	.word	.LC28
.LBE5:
	.cfi_endproc
.LFE165:
	.size	fATWx, .-fATWx
	.section	.text.fATW0,"ax",%progbits
	.align	1
	.p2align 2,,3
	.global	fATW0
	.syntax unified
	.thumb
	.thumb_func
	.fpu softvfp
	.type	fATW0, %function
fATW0:
.LFB166:
	.loc 1 677 0
	.cfi_startproc
	@ args = 0, pretend = 0, frame = 8
	@ frame_needed = 0, uses_anonymous_args = 0
.LVL119:
	.loc 1 678 0
	movs	r3, #0
	.loc 1 677 0
	push	{r4, r5, lr}
	.cfi_def_cfa_offset 12
	.cfi_offset 4, -12
	.cfi_offset 5, -8
	.cfi_offset 14, -4
	sub	sp, sp, #12
	.cfi_def_cfa_offset 24
	.loc 1 678 0
	str	r3, [sp, #4]
	.loc 1 679 0
	ldr	r3, [sp, #4]
	.loc 1 680 0
	cbz	r0, .L84
	mov	r4, r0
	.loc 1 686 0
	ldr	r5, .L85
	.loc 1 685 0
	mov	r1, r0
	ldr	r0, .L85+4
.LVL120:
	bl	__wrap_printf
.LVL121:
	.loc 1 686 0
	mov	r1, r4
	adds	r0, r5, #1
	bl	strcpy
.LVL122:
	.loc 1 687 0
	mov	r0, r4
	bl	strlen
.LVL123:
	strb	r0, [r5]
	.loc 1 693 0
	add	sp, sp, #12
	.cfi_remember_state
	.cfi_def_cfa_offset 12
	@ sp needed
	pop	{r4, r5, pc}
.LVL124:
.L82:
.L84:
	.cfi_restore_state
	.loc 1 681 0
	ldr	r0, .L85+8
.LVL125:
	bl	__wrap_printf
.LVL126:
	.loc 1 682 0
	mvn	r3, #1
	str	r3, [sp, #4]
	.loc 1 693 0
	add	sp, sp, #12
	.cfi_def_cfa_offset 12
	@ sp needed
	pop	{r4, r5, pc}
.L86:
	.align	2
.L85:
	.word	.LANCHOR1
	.word	.LC31
	.word	.LC30
	.cfi_endproc
.LFE166:
	.size	fATW0, .-fATW0
	.section	.text.fATW1,"ax",%progbits
	.align	1
	.p2align 2,,3
	.global	fATW1
	.syntax unified
	.thumb
	.thumb_func
	.fpu softvfp
	.type	fATW1, %function
fATW1:
.LFB167:
	.loc 1 695 0
	.cfi_startproc
	@ args = 0, pretend = 0, frame = 8
	@ frame_needed = 0, uses_anonymous_args = 0
.LVL127:
	.loc 1 696 0
	movs	r3, #0
	.loc 1 695 0
	push	{r4, r5, r6, lr}
	.cfi_def_cfa_offset 16
	.cfi_offset 4, -16
	.cfi_offset 5, -12
	.cfi_offset 6, -8
	.cfi_offset 14, -4
	sub	sp, sp, #8
	.cfi_def_cfa_offset 24
	.loc 1 696 0
	str	r3, [sp, #4]
	.loc 1 697 0
	ldr	r3, [sp, #4]
	.loc 1 698 0
	cbz	r0, .L91
	mov	r4, r0
	.loc 1 713 0
	ldr	r6, .L92
	.loc 1 703 0
	mov	r1, r0
	ldr	r0, .L92+4
.LVL128:
	bl	__wrap_printf
.LVL129:
	.loc 1 714 0
	ldr	r5, .L92+8
	.loc 1 713 0
	mov	r1, r4
	mov	r0, r6
	bl	strcpy
.LVL130:
	.loc 1 715 0
	mov	r0, r4
	.loc 1 714 0
	str	r6, [r5, #44]
	.loc 1 715 0
	bl	strlen
.LVL131:
	str	r0, [r5, #48]
	.loc 1 721 0
	add	sp, sp, #8
	.cfi_remember_state
	.cfi_def_cfa_offset 16
	@ sp needed
	pop	{r4, r5, r6, pc}
.LVL132:
.L89:
.L91:
	.cfi_restore_state
	.loc 1 699 0
	ldr	r0, .L92+12
.LVL133:
	bl	__wrap_printf
.LVL134:
	.loc 1 700 0
	mvn	r3, #1
	str	r3, [sp, #4]
	.loc 1 721 0
	add	sp, sp, #8
	.cfi_def_cfa_offset 16
	@ sp needed
	pop	{r4, r5, r6, pc}
.L93:
	.align	2
.L92:
	.word	.LANCHOR2
	.word	.LC33
	.word	.LANCHOR1
	.word	.LC32
	.cfi_endproc
.LFE167:
	.size	fATW1, .-fATW1
	.section	.text.fATW4,"ax",%progbits
	.align	1
	.p2align 2,,3
	.global	fATW4
	.syntax unified
	.thumb
	.thumb_func
	.fpu softvfp
	.type	fATW4, %function
fATW4:
.LFB170:
	.loc 1 771 0
	.cfi_startproc
	@ args = 0, pretend = 0, frame = 8
	@ frame_needed = 0, uses_anonymous_args = 0
.LVL135:
	.loc 1 772 0
	movs	r3, #0
	.loc 1 771 0
	push	{r4, r5, r6, lr}
	.cfi_def_cfa_offset 16
	.cfi_offset 4, -16
	.cfi_offset 5, -12
	.cfi_offset 6, -8
	.cfi_offset 14, -4
	sub	sp, sp, #8
	.cfi_def_cfa_offset 24
	.loc 1 772 0
	str	r3, [sp, #4]
	.loc 1 773 0
	ldr	r3, [sp, #4]
	.loc 1 774 0
	cbz	r0, .L98
	mov	r4, r0
	.loc 1 779 0
	ldr	r5, .L99
	mov	r1, r0
	.loc 1 780 0
	ldr	r6, .L99+4
	.loc 1 779 0
	mov	r0, r5
.LVL136:
	bl	strcpy
.LVL137:
	.loc 1 781 0
	mov	r0, r4
	.loc 1 780 0
	str	r5, [r6, #40]
	.loc 1 781 0
	bl	strlen
.LVL138:
	.loc 1 782 0
	mov	r1, r5
	.loc 1 781 0
	str	r0, [r6, #44]
	.loc 1 782 0
	ldr	r0, .L99+8
	bl	__wrap_printf
.LVL139:
	.loc 1 788 0
	add	sp, sp, #8
	.cfi_remember_state
	.cfi_def_cfa_offset 16
	@ sp needed
	pop	{r4, r5, r6, pc}
.LVL140:
.L96:
.L98:
	.cfi_restore_state
	.loc 1 775 0
	ldr	r0, .L99+12
.LVL141:
	bl	__wrap_printf
.LVL142:
	.loc 1 776 0
	mvn	r3, #1
	str	r3, [sp, #4]
	.loc 1 788 0
	add	sp, sp, #8
	.cfi_def_cfa_offset 16
	@ sp needed
	pop	{r4, r5, r6, pc}
.L100:
	.align	2
.L99:
	.word	.LANCHOR2
	.word	.LANCHOR0
	.word	.LC35
	.word	.LC34
	.cfi_endproc
.LFE170:
	.size	fATW4, .-fATW4
	.section	.text.fATW6,"ax",%progbits
	.align	1
	.p2align 2,,3
	.global	fATW6
	.syntax unified
	.thumb
	.thumb_func
	.fpu softvfp
	.type	fATW6, %function
fATW6:
.LFB172:
	.loc 1 807 0
	.cfi_startproc
	@ args = 0, pretend = 0, frame = 24
	@ frame_needed = 0, uses_anonymous_args = 0
.LVL143:
	push	{r4, r5, r6, lr}
	.cfi_def_cfa_offset 16
	.cfi_offset 4, -16
	.cfi_offset 5, -12
	.cfi_offset 6, -8
	.cfi_offset 14, -4
	sub	sp, sp, #40
	.cfi_def_cfa_offset 56
	.loc 1 812 0
	cbz	r0, .L105
	mov	r4, r0
	.loc 1 817 0
	mov	r1, r0
	ldr	r0, .L106
.LVL144:
	bl	__wrap_printf
.LVL145:
	.loc 1 818 0
	add	r5, sp, #36
	add	r1, sp, #32
	add	r2, sp, #28
	add	r3, sp, #24
	str	r5, [sp, #12]
	str	r1, [sp, #8]
	str	r2, [sp, #4]
	str	r3, [sp]
	add	r2, sp, #16
	add	r3, sp, #20
	mov	r0, r4
	ldr	r1, .L106+4
	bl	sscanf
.LVL146:
	.loc 1 820 0
	ldr	r3, .L106+8
	ldr	r6, [sp, #16]
	ldr	r5, [sp, #20]
	ldr	r4, [sp, #24]
.LVL147:
	add	r0, sp, #28
	ldm	r0, {r0, r1, r2}
	strb	r6, [r3, #34]
.LVL148:
	strb	r5, [r3, #35]
.LVL149:
	strb	r4, [r3, #36]
.LVL150:
	strb	r0, [r3, #37]
.LVL151:
	strb	r1, [r3, #38]
.LVL152:
	strb	r2, [r3, #39]
.LVL153:
	.loc 1 826 0
	add	sp, sp, #40
	.cfi_remember_state
	.cfi_def_cfa_offset 16
	@ sp needed
	pop	{r4, r5, r6, pc}
.L103:
.LVL154:
.L105:
	.cfi_restore_state
	.loc 1 813 0
	ldr	r0, .L106+12
.LVL155:
	bl	__wrap_printf
.LVL156:
	.loc 1 826 0
	add	sp, sp, #40
	.cfi_def_cfa_offset 16
	@ sp needed
	pop	{r4, r5, r6, pc}
.L107:
	.align	2
.L106:
	.word	.LC37
	.word	.LC38
	.word	.LANCHOR1
	.word	.LC36
	.cfi_endproc
.LFE172:
	.size	fATW6, .-fATW6
	.section	.text.fATWR,"ax",%progbits
	.align	1
	.p2align 2,,3
	.global	fATWR
	.syntax unified
	.thumb
	.thumb_func
	.fpu softvfp
	.type	fATWR, %function
fATWR:
.LFB176:
	.loc 1 1250 0
	.cfi_startproc
	@ args = 0, pretend = 0, frame = 8
	@ frame_needed = 0, uses_anonymous_args = 0
.LVL157:
	.loc 1 1254 0
	movs	r3, #0
	.loc 1 1250 0
	push	{r4, lr}
	.cfi_def_cfa_offset 8
	.cfi_offset 4, -8
	.cfi_offset 14, -4
	sub	sp, sp, #8
	.cfi_def_cfa_offset 16
	.loc 1 1254 0
	add	r4, sp, #8
	str	r3, [r4, #-4]!
	.loc 1 1255 0
	ldr	r0, .L110
.LVL158:
	bl	__wrap_printf
.LVL159:
	.loc 1 1256 0
	mov	r0, r4
	bl	wifi_get_rssi
.LVL160:
	.loc 1 1257 0
	ldr	r1, [sp, #4]
	ldr	r0, .L110+4
	bl	__wrap_printf
.LVL161:
	.loc 1 1258 0
	ldr	r0, .L110+8
	bl	__wrap_printf
.LVL162:
	.loc 1 1259 0
	add	sp, sp, #8
	.cfi_def_cfa_offset 8
	@ sp needed
	pop	{r4, pc}
.L111:
	.align	2
.L110:
	.word	.LC39
	.word	.LC40
	.word	.LC27
	.cfi_endproc
.LFE176:
	.size	fATWR, .-fATWR
	.section	.text.fATWY,"ax",%progbits
	.align	1
	.p2align 2,,3
	.global	fATWY
	.syntax unified
	.thumb
	.thumb_func
	.fpu softvfp
	.type	fATWY, %function
fATWY:
.LFB177:
	.loc 1 1261 0
	.cfi_startproc
	@ args = 0, pretend = 0, frame = 8
	@ frame_needed = 0, uses_anonymous_args = 0
.LVL163:
	.loc 1 1262 0
	movs	r3, #0
	.loc 1 1261 0
	push	{r4, lr}
	.cfi_def_cfa_offset 8
	.cfi_offset 4, -8
	.cfi_offset 14, -4
	sub	sp, sp, #8
	.cfi_def_cfa_offset 16
	.loc 1 1262 0
	add	r4, sp, #8
	str	r3, [r4, #-4]!
	.loc 1 1263 0
	ldr	r0, .L114
.LVL164:
	bl	__wrap_printf
.LVL165:
	.loc 1 1264 0
	mov	r0, r4
	bl	wifi_get_snr
.LVL166:
	.loc 1 1265 0
	ldr	r1, [sp, #4]
	ldr	r0, .L114+4
	bl	__wrap_printf
.LVL167:
	.loc 1 1266 0
	ldr	r0, .L114+8
	bl	__wrap_printf
.LVL168:
	.loc 1 1267 0
	add	sp, sp, #8
	.cfi_def_cfa_offset 8
	@ sp needed
	pop	{r4, pc}
.L115:
	.align	2
.L114:
	.word	.LC41
	.word	.LC42
	.word	.LC27
	.cfi_endproc
.LFE177:
	.size	fATWY, .-fATWY
	.section	.text.fATWM,"ax",%progbits
	.align	1
	.p2align 2,,3
	.global	fATWM
	.syntax unified
	.thumb
	.thumb_func
	.fpu softvfp
	.type	fATWM, %function
fATWM:
.LFB180:
	.loc 1 1405 0
	.cfi_startproc
	@ args = 0, pretend = 0, frame = 48
	@ frame_needed = 0, uses_anonymous_args = 0
.LVL169:
	push	{r4, lr}
	.cfi_def_cfa_offset 8
	.cfi_offset 4, -8
	.cfi_offset 14, -4
	mov	r4, r0
	sub	sp, sp, #48
	.cfi_def_cfa_offset 56
	.loc 1 1407 0
	mov	r0, sp
.LVL170:
	movs	r2, #48
	movs	r1, #0
	bl	memset
.LVL171:
	.loc 1 1408 0
	ldr	r3, .L122
	.loc 1 1409 0
	ldr	r0, .L122+4
	.loc 1 1408 0
	str	r3, [sp]
	.loc 1 1409 0
	bl	__wrap_printf
.LVL172:
	.loc 1 1410 0
	cbz	r4, .L121
	.loc 1 1417 0
	mov	r0, r4
	mov	r1, sp
	bl	parse_param
.LVL173:
	cmp	r0, #1
	ble	.L116
	.loc 1 1418 0
	mov	r1, sp
	bl	cmd_promisc
.LVL174:
.L116:
	.loc 1 1420 0
	add	sp, sp, #48
	.cfi_remember_state
	.cfi_def_cfa_offset 8
	@ sp needed
	pop	{r4, pc}
.LVL175:
.L121:
	.cfi_restore_state
	.loc 1 1411 0
	ldr	r0, .L122+8
	bl	__wrap_printf
.LVL176:
	.loc 1 1420 0
	add	sp, sp, #48
	.cfi_def_cfa_offset 8
	@ sp needed
	pop	{r4, pc}
.LVL177:
.L123:
	.align	2
.L122:
	.word	.LC43
	.word	.LC44
	.word	.LC45
	.cfi_endproc
.LFE180:
	.size	fATWM, .-fATWM
	.section	.text.fATWZ,"ax",%progbits
	.align	1
	.p2align 2,,3
	.global	fATWZ
	.syntax unified
	.thumb
	.thumb_func
	.fpu softvfp
	.type	fATWZ, %function
fATWZ:
.LFB183:
	.loc 1 1569 0
	.cfi_startproc
	@ args = 0, pretend = 0, frame = 40
	@ frame_needed = 0, uses_anonymous_args = 0
.LVL178:
	push	{r4, r5, r6, lr}
	.cfi_def_cfa_offset 16
	.cfi_offset 4, -16
	.cfi_offset 5, -12
	.cfi_offset 6, -8
	.cfi_offset 14, -4
	sub	sp, sp, #40
	.cfi_def_cfa_offset 56
	.loc 1 1570 0
	add	r5, sp, #8
	.loc 1 1569 0
	mov	r4, r0
	.loc 1 1570 0
	movs	r2, #32
	mov	r0, r5
.LVL179:
	movs	r1, #0
	bl	memset
.LVL180:
	.loc 1 1574 0
	movs	r3, #0
	.loc 1 1577 0
	ldr	r0, .L142
	.loc 1 1574 0
	str	r3, [sp, #4]
	.loc 1 1575 0
	ldr	r3, [sp, #4]
	.loc 1 1577 0
	bl	__wrap_printf
.LVL181:
	.loc 1 1578 0
	cbz	r4, .L141
	.loc 1 1583 0
	mov	r1, r4
	mov	r0, r5
	bl	stpcpy
.LVL182:
	.loc 1 1587 0
	movs	r4, #32
.LVL183:
	.loc 1 1584 0
	mov	r3, r5
	.loc 1 1592 0
	mvns	r1, r5
	.loc 1 1583 0
	subs	r0, r0, r5
.LVL184:
	b	.L131
.LVL185:
.L127:
	.loc 1 1588 0
	cmp	r2, #93
	beq	.L129
	.loc 1 1588 0 is_stmt 0 discriminator 1
	cbz	r2, .L129
.LVL186:
	adds	r3, r3, #1
.LVL187:
	.loc 1 1592 0 is_stmt 1
	adds	r2, r1, r3
	cmp	r0, r2
	ble	.L130
.LVL188:
.L131:
	.loc 1 1586 0
	ldrb	r2, [r3]	@ zero_extendqisi2
	cmp	r2, #91
	bne	.L127
	.loc 1 1587 0
	strb	r4, [r3]
.LVL189:
	adds	r3, r3, #1
.LVL190:
	.loc 1 1592 0
	adds	r2, r1, r3
	cmp	r0, r2
	bgt	.L131
.LVL191:
.L130:
	.loc 1 1584 0
	mov	r3, r5
	.loc 1 1600 0
	mvns	r6, r5
	b	.L134
.LVL192:
.L132:
	cmp	r0, r4
	ble	.L133
.LVL193:
.L134:
	.loc 1 1596 0
	ldrb	r1, [r3]	@ zero_extendqisi2
	mov	r2, r3
	cmp	r1, #44
	add	r3, r3, #1
.LVL194:
	.loc 1 1600 0
	add	r4, r6, r3
	.loc 1 1596 0
	bne	.L132
	.loc 1 1597 0
	movs	r3, #32
.LVL195:
	strb	r3, [r2]
.L133:
	.loc 1 1608 0
	mov	r1, r5
	movs	r2, #1
.LVL196:
	ldr	r0, .L142+4
.LVL197:
	bl	wext_private_command
.LVL198:
	.loc 1 1616 0
	add	sp, sp, #40
	.cfi_remember_state
	.cfi_def_cfa_offset 16
	@ sp needed
	pop	{r4, r5, r6, pc}
.LVL199:
.L126:
.L129:
	.cfi_restore_state
	.loc 1 1589 0
	movs	r2, #0
	strb	r2, [r3]
	.loc 1 1590 0
	b	.L130
.LVL200:
.L141:
	.loc 1 1579 0
	ldr	r0, .L142+8
	bl	__wrap_printf
.LVL201:
	.loc 1 1580 0
	mvn	r3, #1
	str	r3, [sp, #4]
	.loc 1 1616 0
	add	sp, sp, #40
	.cfi_def_cfa_offset 16
	@ sp needed
	pop	{r4, r5, r6, pc}
.LVL202:
.L143:
	.align	2
.L142:
	.word	.LC46
	.word	.LC0
	.word	.LC47
	.cfi_endproc
.LFE183:
	.size	fATWZ, .-fATWZ
	.section	.text.fATXP,"ax",%progbits
	.align	1
	.p2align 2,,3
	.global	fATXP
	.syntax unified
	.thumb
	.thumb_func
	.fpu softvfp
	.type	fATXP, %function
fATXP:
.LFB184:
	.loc 1 1620 0
	.cfi_startproc
	@ args = 0, pretend = 0, frame = 56
	@ frame_needed = 0, uses_anonymous_args = 0
.LVL203:
	push	{r4, r5, r6, r7, lr}
	.cfi_def_cfa_offset 20
	.cfi_offset 4, -20
	.cfi_offset 5, -16
	.cfi_offset 6, -12
	.cfi_offset 7, -8
	.cfi_offset 14, -4
	mov	r4, r0
	sub	sp, sp, #68
	.cfi_def_cfa_offset 88
	.loc 1 1622 0
	add	r0, sp, #16
.LVL204:
	movs	r2, #48
	movs	r1, #0
	bl	memset
.LVL205:
	.loc 1 1632 0
	ldr	r0, .L172
	bl	__wrap_printf
.LVL206:
	.loc 1 1634 0
	cmp	r4, #0
	beq	.L147
	.loc 1 1639 0
	add	r1, sp, #16
	mov	r0, r4
	bl	parse_param
.LVL207:
	.loc 1 1640 0
	cmp	r0, #2
	.loc 1 1639 0
	mov	r5, r0
.LVL208:
	.loc 1 1640 0
	ble	.L147
	.loc 1 1647 0
	ldr	r4, [sp, #20]
.LVL209:
	ldr	r1, .L172+4
	mov	r0, r4
.LVL210:
	bl	strcmp
.LVL211:
	cmp	r0, #0
	beq	.L162
	.loc 1 1655 0
	ldr	r1, .L172+8
	mov	r0, r4
	bl	strcmp
.LVL212:
	cmp	r0, #0
	beq	.L163
.L150:
	.loc 1 1663 0
	ldr	r1, .L172+12
	mov	r0, r4
	bl	strcmp
.LVL213:
	cbz	r0, .L164
.L152:
	.loc 1 1674 0
	ldr	r1, .L172+16
	mov	r0, r4
	bl	strcmp
.LVL214:
	cmp	r0, #0
	beq	.L165
.LVL215:
.L153:
	.loc 1 1680 0
	ldr	r1, .L172+20
	mov	r0, r4
	bl	strcmp
.LVL216:
	cmp	r0, #0
	beq	.L166
.L154:
	.loc 1 1686 0
	ldr	r1, .L172+24
	mov	r0, r4
	bl	strcmp
.LVL217:
	cmp	r0, #0
	beq	.L167
.L155:
	.loc 1 1697 0
	mov	r0, r4
	ldr	r1, .L172+28
	bl	strcmp
.LVL218:
	cbnz	r0, .L144
	.loc 1 1705 0
	ldr	r1, .L172+16
	ldr	r0, [sp, #24]
	bl	strcmp
.LVL219:
	cmp	r0, #0
	beq	.L168
.L146:
.L144:
	.loc 1 1723 0
	add	sp, sp, #68
	.cfi_remember_state
	.cfi_def_cfa_offset 20
	@ sp needed
	pop	{r4, r5, r6, r7, pc}
.LVL220:
.L164:
	.cfi_restore_state
	.loc 1 1664 0
	cmp	r5, #5
	ble	.L152
	.loc 1 1665 0
	ldr	r0, [sp, #24]
	bl	atoi
.LVL221:
	mov	r4, r0
.LVL222:
	.loc 1 1666 0
	ldr	r0, [sp, #28]
.LVL223:
	bl	atoi
.LVL224:
	mov	r5, r0
.LVL225:
	.loc 1 1667 0
	ldr	r0, [sp, #32]
.LVL226:
	bl	atoi
.LVL227:
	mov	r6, r0
.LVL228:
	.loc 1 1668 0
	ldr	r0, [sp, #36]
.LVL229:
	bl	atoi
.LVL230:
	mov	r7, r0
.LVL231:
	.loc 1 1669 0
	mov	r1, r4
	mov	r3, r6
	str	r0, [sp]
	mov	r2, r5
	ldr	r0, .L172+32
.LVL232:
	bl	__wrap_printf
.LVL233:
	.loc 1 1670 0
	uxtb	r1, r5
	uxtb	r0, r4
	uxtb	r3, r7
	uxtb	r2, r6
	bl	wifi_set_tdma_param
.LVL234:
	ldr	r4, [sp, #20]
.LVL235:
	.loc 1 1674 0
	ldr	r1, .L172+16
	mov	r0, r4
	bl	strcmp
.LVL236:
	cmp	r0, #0
	bne	.L153
.LVL237:
.L165:
	.loc 1 1675 0
	ldr	r0, [sp, #24]
	bl	atoi
.LVL238:
	mov	r3, r0
	.loc 1 1676 0
	ldr	r0, .L172+36
	mov	r1, r3
	.loc 1 1675 0
	str	r3, [sp, #12]
	.loc 1 1676 0
	bl	__wrap_printf
.LVL239:
	.loc 1 1677 0
	ldrb	r0, [sp, #12]	@ zero_extendqisi2
	bl	wifi_set_lps_dtim
.LVL240:
	ldr	r4, [sp, #20]
	.loc 1 1680 0
	ldr	r1, .L172+20
	mov	r0, r4
	bl	strcmp
.LVL241:
	cmp	r0, #0
	bne	.L154
.L166:
	.loc 1 1681 0
	ldr	r0, [sp, #24]
	bl	atoi
.LVL242:
	mov	r4, r0
.LVL243:
	.loc 1 1682 0
	mov	r1, r0
	ldr	r0, .L172+40
.LVL244:
	bl	__wrap_printf
.LVL245:
	.loc 1 1683 0
	mov	r0, r4
	bl	wifi_set_beacon_mode
.LVL246:
	ldr	r4, [sp, #20]
.LVL247:
	.loc 1 1686 0
	ldr	r1, .L172+24
	mov	r0, r4
	bl	strcmp
.LVL248:
	cmp	r0, #0
	bne	.L155
.L167:
	.loc 1 1687 0
	ldr	r0, [sp, #24]
	bl	atoi
.LVL249:
	mov	r4, r0
.LVL250:
	.loc 1 1688 0
	ldr	r0, .L172+44
.LVL251:
	bl	__wrap_printf
.LVL252:
	.loc 1 1689 0
	cmp	r4, #0
	beq	.L169
	.loc 1 1691 0
	cmp	r4, #1
	.loc 1 1692 0
	ite	eq
	ldreq	r0, .L172+48
	.loc 1 1694 0
	ldrne	r0, .L172+52
	bl	__wrap_printf
.LVL253:
.L157:
	.loc 1 1695 0
	uxtb	r0, r4
	bl	wifi_set_lps_thresh
.LVL254:
	ldr	r4, [sp, #20]
.LVL255:
	b	.L155
.LVL256:
.L147:
	.loc 1 1635 0
	ldr	r0, .L172+56
	bl	__wrap_printf
.LVL257:
	.loc 1 1723 0
	add	sp, sp, #68
	.cfi_remember_state
	.cfi_def_cfa_offset 20
	@ sp needed
	pop	{r4, r5, r6, r7, pc}
.LVL258:
.L162:
	.cfi_restore_state
	.loc 1 1648 0
	ldr	r0, [sp, #24]
	bl	atoi
.LVL259:
	.loc 1 1649 0
	cmp	r0, #254
	.loc 1 1648 0
	mov	r4, r0
.LVL260:
	.loc 1 1649 0
	bls	.L170
.LVL261:
.L160:
	ldr	r4, [sp, #20]
.LVL262:
	.loc 1 1655 0
	ldr	r1, .L172+8
	mov	r0, r4
	bl	strcmp
.LVL263:
	cmp	r0, #0
	bne	.L150
.L163:
	.loc 1 1656 0
	ldr	r0, [sp, #24]
	bl	atoi
.LVL264:
	.loc 1 1657 0
	cmp	r0, #254
	.loc 1 1656 0
	mov	r4, r0
.LVL265:
	.loc 1 1657 0
	bls	.L171
.LVL266:
.L161:
	ldr	r4, [sp, #20]
.LVL267:
	b	.L150
.LVL268:
.L168:
	.loc 1 1706 0
	add	r0, sp, #12
	bl	wifi_get_lps_dtim
.LVL269:
	.loc 1 1707 0
	ldrb	r1, [sp, #12]	@ zero_extendqisi2
	ldr	r0, .L172+60
	bl	__wrap_printf
.LVL270:
	.loc 1 1723 0
	add	sp, sp, #68
	.cfi_remember_state
	.cfi_def_cfa_offset 20
	@ sp needed
	pop	{r4, r5, r6, r7, pc}
.LVL271:
.L170:
	.cfi_restore_state
	.loc 1 1650 0
	mov	r1, r0
	ldr	r0, .L172+64
.LVL272:
	bl	__wrap_printf
.LVL273:
	.loc 1 1651 0
	uxtb	r1, r4
	movs	r0, #255
	bl	wifi_set_power_mode
.LVL274:
	b	.L160
.LVL275:
.L171:
	.loc 1 1658 0
	mov	r1, r0
	ldr	r0, .L172+68
.LVL276:
	bl	__wrap_printf
.LVL277:
	.loc 1 1659 0
	uxtb	r0, r4
	movs	r1, #255
	bl	wifi_set_power_mode
.LVL278:
	b	.L161
.LVL279:
.L169:
	.loc 1 1690 0
	ldr	r0, .L172+72
	bl	__wrap_printf
.LVL280:
	b	.L157
.L173:
	.align	2
.L172:
	.word	.LC48
	.word	.LC50
	.word	.LC52
	.word	.LC54
	.word	.LC56
	.word	.LC58
	.word	.LC60
	.word	.LC65
	.word	.LC55
	.word	.LC57
	.word	.LC59
	.word	.LC61
	.word	.LC63
	.word	.LC64
	.word	.LC49
	.word	.LC66
	.word	.LC51
	.word	.LC53
	.word	.LC62
	.cfi_endproc
.LFE184:
	.size	fATXP, .-fATXP
	.section	.text.app_scan_result_handler,"ax",%progbits
	.align	1
	.p2align 2,,3
	.syntax unified
	.thumb
	.thumb_func
	.fpu softvfp
	.type	app_scan_result_handler, %function
app_scan_result_handler:
.LFB161:
	.loc 1 231 0
	.cfi_startproc
	@ args = 0, pretend = 0, frame = 0
	@ frame_needed = 0, uses_anonymous_args = 0
.LVL281:
	.loc 1 234 0
	ldr	r3, [r0, #60]
	cmp	r3, #1
	beq	.L175
	.loc 1 231 0
	push	{r4, r5, r6, r7, lr}
	.cfi_def_cfa_offset 20
	.cfi_offset 4, -20
	.cfi_offset 5, -16
	.cfi_offset 6, -12
	.cfi_offset 7, -8
	.cfi_offset 14, -4
	mov	r4, r0
.LVL282:
.LBB12:
.LBB13:
.LBB14:
	.loc 1 236 0
	movs	r0, #0
.LVL283:
	.loc 1 241 0
	ldr	r5, .L198
	.loc 1 236 0
	ldrb	r2, [r4]	@ zero_extendqisi2
	.loc 1 241 0
	ldr	r3, [r5]
	.loc 1 236 0
	add	r2, r2, r4
	.loc 1 241 0
	adds	r3, r3, #1
.LBE14:
.LBE13:
.LBE12:
	.loc 1 231 0
	sub	sp, sp, #20
	.cfi_def_cfa_offset 40
.LBB28:
.LBB25:
.LBB22:
	.loc 1 241 0
	mov	r1, r3
	.loc 1 236 0
	strb	r0, [r2, #1]
	.loc 1 241 0
	ldr	r0, .L198+4
	str	r3, [r5]
	bl	__wrap_printf
.LVL284:
.LBB15:
.LBB16:
	.loc 1 196 0
	ldr	r2, .L198+8
	ldr	r3, .L198+12
	ldrsb	r1, [r4, #42]
	ldr	r0, .L198+16
	cmp	r1, #1
	ite	ne
	movne	r1, r2
	moveq	r1, r3
	bl	__wrap_printf
.LVL285:
	.loc 1 197 0
	ldrb	r0, [r4, #37]	@ zero_extendqisi2
	ldrb	r6, [r4, #39]	@ zero_extendqisi2
	ldrb	r5, [r4, #38]	@ zero_extendqisi2
	ldrb	r3, [r4, #36]	@ zero_extendqisi2
	ldrb	r2, [r4, #35]	@ zero_extendqisi2
	ldrb	r1, [r4, #34]	@ zero_extendqisi2
	stm	sp, {r0, r5, r6}
	ldr	r0, .L198+20
	bl	__wrap_printf
.LVL286:
	.loc 1 198 0
	ldrsh	r1, [r4, #40]	@ unaligned
	ldr	r0, .L198+24
	bl	__wrap_printf
.LVL287:
	.loc 1 199 0
	ldr	r1, [r4, #51]	@ unaligned
	ldr	r0, .L198+28
	bl	__wrap_printf
.LVL288:
	.loc 1 200 0
	ldr	r1, [r4, #47]	@ unaligned
	ldr	r0, .L198+28
	bl	__wrap_printf
.LVL289:
	.loc 1 201 0
	ldr	r3, [r4, #43]	@ unaligned
	cbz	r3, .L182
	.loc 1 202 0
	cmp	r3, #1
	beq	.L183
	.loc 1 203 0
	ldr	r2, .L198+32
	cmp	r3, r2
	beq	.L184
	.loc 1 204 0
	adds	r2, r2, #2
	cmp	r3, r2
	beq	.L185
	.loc 1 205 0
	add	r2, r2, #2097152
	cmp	r3, r2
	beq	.L186
	.loc 1 206 0
	subs	r2, r2, #2
	cmp	r3, r2
	beq	.L187
	.loc 1 207 0
	adds	r2, r2, #4
	cmp	r3, r2
	beq	.L188
	.loc 1 208 0
	ldr	r1, .L198+36
	ldr	r2, .L198+40
	cmp	r3, #6291456
	it	eq
	moveq	r1, r2
	b	.L177
.LVL290:
.L175:
	.cfi_def_cfa_offset 0
	.cfi_restore 4
	.cfi_restore 5
	.cfi_restore 6
	.cfi_restore 7
	.cfi_restore 14
.LBE16:
.LBE15:
.LBE22:
.LBE25:
.LBE28:
	.loc 1 288 0
	movs	r2, #0
	ldr	r3, .L198
	.loc 1 291 0
	movs	r0, #0
.LVL291:
	.loc 1 288 0
	str	r2, [r3]
	.loc 1 291 0
	bx	lr
.LVL292:
.L182:
	.cfi_def_cfa_offset 40
	.cfi_offset 4, -20
	.cfi_offset 5, -16
	.cfi_offset 6, -12
	.cfi_offset 7, -8
	.cfi_offset 14, -4
.LBB29:
.LBB26:
.LBB23:
.LBB19:
.LBB17:
	.loc 1 201 0
	ldr	r1, .L198+44
.L177:
	ldr	r0, .L198+48
	.loc 1 214 0
	adds	r6, r4, #1
	.loc 1 201 0
	bl	__wrap_printf
.LVL293:
	.loc 1 214 0
	mov	r1, r6
	ldr	r0, .L198+52
	bl	__wrap_printf
.LVL294:
	.loc 1 215 0
	ldr	r0, .L198+56
	bl	__wrap_printf
.LVL295:
.LBE17:
.LBE19:
	.loc 1 245 0
	ldrb	r2, [r4]	@ zero_extendqisi2
	cbz	r2, .L178
	.loc 1 259 0
	ldr	r4, .L198+60
.LVL296:
	ldrb	r3, [r4]	@ zero_extendqisi2
	cmp	r3, #29
	bhi	.L197
.LBB20:
	.loc 1 263 0
	movs	r1, #1
	movs	r0, #20
	movs	r5, #0
	smlabb	r3, r0, r3, r1
	str	r5, [r4, r3]	@ unaligned
	.loc 1 264 0
	ldrb	r7, [r4]	@ zero_extendqisi2
	.loc 1 263 0
	add	r3, r3, r4
	.loc 1 264 0
	smlabb	r0, r0, r7, r1
	cmp	r2, #19
	.loc 1 263 0
	str	r5, [r3, #4]	@ unaligned
	str	r5, [r3, #8]	@ unaligned
	str	r5, [r3, #12]	@ unaligned
	str	r5, [r3, #16]	@ unaligned
	.loc 1 264 0
	it	cs
	movcs	r2, #19
	mov	r1, r6
	add	r0, r0, r4
	bl	memcpy
.LVL297:
	.loc 1 265 0
	ldrb	r3, [r4]	@ zero_extendqisi2
	adds	r3, r3, #1
	strb	r3, [r4]
.L178:
.LBE20:
.LBE23:
.LBE26:
.LBE29:
	.loc 1 291 0
	movs	r0, #0
	add	sp, sp, #20
	.cfi_remember_state
	.cfi_def_cfa_offset 20
	@ sp needed
	pop	{r4, r5, r6, r7, pc}
.LVL298:
.L197:
	.cfi_restore_state
.LBB30:
.LBB27:
.LBB24:
	.loc 1 260 0
	ldr	r0, .L198+64
	bl	__wrap_printf
.LVL299:
	b	.L178
.LVL300:
.L183:
.LBB21:
.LBB18:
	.loc 1 202 0
	ldr	r1, .L198+68
	b	.L177
.L185:
	.loc 1 204 0
	ldr	r1, .L198+72
	b	.L177
.L184:
	.loc 1 203 0
	ldr	r1, .L198+76
	b	.L177
.L186:
	.loc 1 205 0
	ldr	r1, .L198+80
	b	.L177
.L187:
	.loc 1 206 0
	ldr	r1, .L198+84
	b	.L177
.L188:
	.loc 1 207 0
	ldr	r1, .L198+88
	b	.L177
.L199:
	.align	2
.L198:
	.word	.LANCHOR3
	.word	.LC78
	.word	.LC68
	.word	.LC67
	.word	.LC79
	.word	.LC38
	.word	.LC80
	.word	.LC81
	.word	2097154
	.word	.LC77
	.word	.LC76
	.word	.LC69
	.word	.LC82
	.word	.LC83
	.word	.LC84
	.word	.LANCHOR4
	.word	.LC85
	.word	.LC70
	.word	.LC72
	.word	.LC71
	.word	.LC73
	.word	.LC74
	.word	.LC75
.LBE18:
.LBE21:
.LBE24:
.LBE27:
.LBE30:
	.cfi_endproc
.LFE161:
	.size	app_scan_result_handler, .-app_scan_result_handler
	.section	.text.fATW2,"ax",%progbits
	.align	1
	.p2align 2,,3
	.global	fATW2
	.syntax unified
	.thumb
	.thumb_func
	.fpu softvfp
	.type	fATW2, %function
fATW2:
.LFB168:
	.loc 1 723 0
	.cfi_startproc
	@ args = 0, pretend = 0, frame = 8
	@ frame_needed = 0, uses_anonymous_args = 0
.LVL301:
	.loc 1 724 0
	movs	r3, #0
	.loc 1 723 0
	push	{r4, lr}
	.cfi_def_cfa_offset 8
	.cfi_offset 4, -8
	.cfi_offset 14, -4
	sub	sp, sp, #8
	.cfi_def_cfa_offset 16
	.loc 1 724 0
	str	r3, [sp, #4]
	.loc 1 725 0
	ldr	r3, [sp, #4]
	.loc 1 726 0
	cbz	r0, .L206
	mov	r4, r0
	.loc 1 731 0
	mov	r1, r0
	ldr	r0, .L207
.LVL302:
	bl	__wrap_printf
.LVL303:
	.loc 1 732 0
	mov	r0, r4
	bl	strlen
.LVL304:
	cmp	r0, #1
	bne	.L203
	.loc 1 732 0 is_stmt 0 discriminator 1
	ldrb	r3, [r4]	@ zero_extendqisi2
	subs	r3, r3, #48
	cmp	r3, #3
	bls	.L204
.L203:
	.loc 1 733 0 is_stmt 1
	ldr	r0, .L207+4
	bl	__wrap_printf
.LVL305:
	.loc 1 734 0
	mvn	r3, #1
	str	r3, [sp, #4]
	.loc 1 743 0
	add	sp, sp, #8
	.cfi_remember_state
	.cfi_def_cfa_offset 8
	@ sp needed
	pop	{r4, pc}
.LVL306:
.L202:
.L204:
	.cfi_restore_state
.LBB33:
.LBB34:
	.loc 1 737 0
	mov	r0, r4
	bl	atoi
.LVL307:
	ldr	r3, .L207+8
	str	r0, [r3, #52]
.LDL1:
.LBE34:
.LBE33:
	.loc 1 743 0
	add	sp, sp, #8
	.cfi_remember_state
	.cfi_def_cfa_offset 8
	@ sp needed
	pop	{r4, pc}
.LVL308:
.L206:
	.cfi_restore_state
	.loc 1 727 0
	ldr	r0, .L207+12
.LVL309:
	bl	__wrap_printf
.LVL310:
	.loc 1 728 0
	mvn	r3, #1
	str	r3, [sp, #4]
	.loc 1 743 0
	add	sp, sp, #8
	.cfi_def_cfa_offset 8
	@ sp needed
	pop	{r4, pc}
.L208:
	.align	2
.L207:
	.word	.LC87
	.word	.LC88
	.word	.LANCHOR1
	.word	.LC86
	.cfi_endproc
.LFE168:
	.size	fATW2, .-fATW2
	.section	.text.fATW3,"ax",%progbits
	.align	1
	.p2align 2,,3
	.global	fATW3
	.syntax unified
	.thumb
	.thumb_func
	.fpu softvfp
	.type	fATW3, %function
fATW3:
.LFB169:
	.loc 1 745 0
	.cfi_startproc
	@ args = 0, pretend = 0, frame = 8
	@ frame_needed = 0, uses_anonymous_args = 0
.LVL311:
	.loc 1 746 0
	movs	r3, #0
	.loc 1 745 0
	push	{r4, r5, lr}
	.cfi_def_cfa_offset 12
	.cfi_offset 4, -12
	.cfi_offset 5, -8
	.cfi_offset 14, -4
	sub	sp, sp, #12
	.cfi_def_cfa_offset 24
	.loc 1 746 0
	str	r3, [sp, #4]
	.loc 1 747 0
	ldr	r3, [sp, #4]
	.loc 1 748 0
	cbz	r0, .L214
	mov	r5, r0
	.loc 1 754 0
	bl	strlen
.LVL312:
	ldr	r4, .L216
	uxtb	r0, r0
	.loc 1 756 0
	cmp	r0, #32
	.loc 1 754 0
	strb	r0, [r4]
	.loc 1 756 0
	bhi	.L215
.LVL313:
.LBB37:
.LBB38:
	.loc 1 761 0
	mov	r1, r5
	adds	r0, r4, #1
	bl	strcpy
.LVL314:
	.loc 1 763 0
	adds	r1, r4, #1
	ldr	r0, .L216+4
	bl	__wrap_printf
.LVL315:
.LDL2:
.L211:
.L209:
.LBE38:
.LBE37:
	.loc 1 769 0
	add	sp, sp, #12
	.cfi_remember_state
	.cfi_def_cfa_offset 12
	@ sp needed
	pop	{r4, r5, pc}
.LVL316:
.L215:
	.cfi_restore_state
	.loc 1 757 0
	ldr	r0, .L216+8
	bl	__wrap_printf
.LVL317:
	.loc 1 758 0
	mvn	r3, #1
	str	r3, [sp, #4]
	.loc 1 769 0
	add	sp, sp, #12
	.cfi_remember_state
	.cfi_def_cfa_offset 12
	@ sp needed
	pop	{r4, r5, pc}
.LVL318:
.L214:
	.cfi_restore_state
	.loc 1 749 0
	ldr	r0, .L216+12
.LVL319:
	bl	__wrap_printf
.LVL320:
	.loc 1 750 0
	mvn	r3, #1
	str	r3, [sp, #4]
	.loc 1 751 0
	b	.L209
.L217:
	.align	2
.L216:
	.word	.LANCHOR0
	.word	.LC91
	.word	.LC90
	.word	.LC89
	.cfi_endproc
.LFE169:
	.size	fATW3, .-fATW3
	.section	.text.fATW7,"ax",%progbits
	.align	1
	.p2align 2,,3
	.global	fATW7
	.syntax unified
	.thumb
	.thumb_func
	.fpu softvfp
	.type	fATW7, %function
fATW7:
.LFB173:
	.loc 1 829 0
	.cfi_startproc
	@ args = 0, pretend = 0, frame = 8
	@ frame_needed = 0, uses_anonymous_args = 0
.LVL321:
	push	{r4, lr}
	.cfi_def_cfa_offset 8
	.cfi_offset 4, -8
	.cfi_offset 14, -4
	sub	sp, sp, #8
	.cfi_def_cfa_offset 16
	.loc 1 830 0
	cbz	r0, .L224
	.loc 1 834 0
	movs	r3, #0
	mov	r4, r0
	.loc 1 836 0
	mov	r1, r0
	.loc 1 834 0
	str	r3, [sp, #4]
	.loc 1 836 0
	ldr	r0, .L225
.LVL322:
	.loc 1 835 0
	ldr	r3, [sp, #4]
	.loc 1 836 0
	bl	__wrap_printf
.LVL323:
	.loc 1 837 0
	mov	r0, r4
	bl	strlen
.LVL324:
	cmp	r0, #1
	bne	.L221
	.loc 1 837 0 is_stmt 0 discriminator 1
	ldrb	r3, [r4]	@ zero_extendqisi2
	subs	r3, r3, #48
	cmp	r3, #3
	bls	.L222
.L221:
	.loc 1 838 0 is_stmt 1
	ldr	r0, .L225+4
	bl	__wrap_printf
.LVL325:
	.loc 1 839 0
	mvn	r3, #1
	str	r3, [sp, #4]
	.loc 1 848 0
	add	sp, sp, #8
	.cfi_remember_state
	.cfi_def_cfa_offset 8
	@ sp needed
	pop	{r4, pc}
.LVL326:
.L220:
.L222:
	.cfi_restore_state
.LBB41:
.LBB42:
	.loc 1 842 0
	mov	r0, r4
	bl	atoi
.LVL327:
	ldr	r3, .L225+8
	str	r0, [r3]
.LDL3:
.LBE42:
.LBE41:
	.loc 1 848 0
	add	sp, sp, #8
	.cfi_remember_state
	.cfi_def_cfa_offset 8
	@ sp needed
	pop	{r4, pc}
.LVL328:
.L224:
	.cfi_restore_state
	.loc 1 831 0
	ldr	r0, .L225+12
.LVL329:
	bl	__wrap_printf
.LVL330:
	.loc 1 848 0
	add	sp, sp, #8
	.cfi_def_cfa_offset 8
	@ sp needed
	pop	{r4, pc}
.L226:
	.align	2
.L225:
	.word	.LC93
	.word	.LC94
	.word	.LANCHOR5
	.word	.LC92
	.cfi_endproc
.LFE173:
	.size	fATW7, .-fATW7
	.section	.text.fATWP,"ax",%progbits
	.align	1
	.p2align 2,,3
	.global	fATWP
	.syntax unified
	.thumb
	.thumb_func
	.fpu softvfp
	.type	fATWP, %function
fATWP:
.LFB178:
	.loc 1 1269 0
	.cfi_startproc
	@ args = 0, pretend = 0, frame = 0
	@ frame_needed = 0, uses_anonymous_args = 0
.LVL331:
	.loc 1 1270 0
	cbz	r0, .L236
	.loc 1 1269 0
	push	{r4, lr}
	.cfi_def_cfa_offset 8
	.cfi_offset 4, -8
	.cfi_offset 14, -4
	.loc 1 1274 0
	bl	atoi
.LVL332:
	.loc 1 1275 0
	mov	r4, r0
	cbz	r0, .L229
	.loc 1 1275 0 is_stmt 0 discriminator 4
	ldr	r1, .L239
	ldr	r0, .L239+4
.LVL333:
	bl	__wrap_printf
.LVL334:
	.loc 1 1276 0 is_stmt 1 discriminator 4
	cmp	r4, #1
	beq	.L237
	.loc 1 1287 0
	pop	{r4, lr}
	.cfi_remember_state
	.cfi_restore 14
	.cfi_restore 4
	.cfi_def_cfa_offset 0
.LVL335:
	.loc 1 1271 0
	ldr	r0, .L239+8
	b	__wrap_printf
.LVL336:
.L229:
	.cfi_restore_state
	.loc 1 1275 0
	ldr	r1, .L239+12
	ldr	r0, .L239+4
.LVL337:
	bl	__wrap_printf
.LVL338:
	.loc 1 1287 0
	pop	{r4, lr}
	.cfi_remember_state
	.cfi_restore 14
	.cfi_restore 4
	.cfi_def_cfa_offset 0
.LVL339:
	.loc 1 1283 0
	b	wifi_off
.LVL340:
.L237:
	.cfi_restore_state
.LBB45:
.LBB46:
	.loc 1 1277 0
	mov	r0, r4
	bl	wifi_on
.LVL341:
	cmp	r0, #0
	blt	.L238
	pop	{r4, pc}
.LVL342:
.L236:
	.cfi_def_cfa_offset 0
	.cfi_restore 4
	.cfi_restore 14
.LBE46:
.LBE45:
	.loc 1 1271 0
	ldr	r0, .L239+8
.LVL343:
	b	__wrap_printf
.LVL344:
.L238:
	.cfi_def_cfa_offset 8
	.cfi_offset 4, -8
	.cfi_offset 14, -4
.LBB49:
.LBB47:
	.loc 1 1278 0
	ldr	r0, .L239+16
.LBE47:
.LBE49:
	.loc 1 1287 0
	pop	{r4, lr}
	.cfi_restore 14
	.cfi_restore 4
	.cfi_def_cfa_offset 0
.LVL345:
.LBB50:
.LBB48:
	.loc 1 1278 0
	b	__wrap_printf
.LVL346:
.L240:
	.align	2
.L239:
	.word	.LC96
	.word	.LC97
	.word	.LC95
	.word	.LC99
	.word	.LC98
.LBE48:
.LBE50:
	.cfi_endproc
.LFE178:
	.size	fATWP, .-fATWP
	.section	.text.fATWI,"ax",%progbits
	.align	1
	.p2align 2,,3
	.global	fATWI
	.syntax unified
	.thumb
	.thumb_func
	.fpu softvfp
	.type	fATWI, %function
fATWI:
.LFB187:
	.loc 1 2930 0
	.cfi_startproc
	@ args = 0, pretend = 0, frame = 48
	@ frame_needed = 0, uses_anonymous_args = 0
.LVL347:
	push	{r4, lr}
	.cfi_def_cfa_offset 8
	.cfi_offset 4, -8
	.cfi_offset 14, -4
	mov	r4, r0
	sub	sp, sp, #48
	.cfi_def_cfa_offset 56
	.loc 1 2932 0
	mov	r0, sp
.LVL348:
	movs	r2, #48
	movs	r1, #0
	bl	memset
.LVL349:
	.loc 1 2934 0
	ldr	r0, .L247
	bl	__wrap_printf
.LVL350:
	.loc 1 2936 0
	cbz	r4, .L246
	.loc 1 2946 0
	ldr	r3, .L247+4
	.loc 1 2948 0
	mov	r0, r4
	mov	r1, sp
	.loc 1 2946 0
	str	r3, [sp]
	.loc 1 2948 0
	bl	parse_param
.LVL351:
	cmp	r0, #1
	ble	.L241
	.loc 1 2949 0
	mov	r1, sp
	bl	cmd_ping
.LVL352:
.L241:
	.loc 1 2951 0
	add	sp, sp, #48
	.cfi_remember_state
	.cfi_def_cfa_offset 8
	@ sp needed
	pop	{r4, pc}
.LVL353:
.L246:
	.cfi_restore_state
.LBB53:
.LBB54:
	.loc 1 2937 0
	ldr	r0, .L247+8
	bl	__wrap_printf
.LVL354:
	.loc 1 2938 0
	ldr	r0, .L247+12
	bl	__wrap_printf
.LVL355:
	.loc 1 2939 0
	ldr	r0, .L247+16
	bl	__wrap_printf
.LVL356:
	.loc 1 2940 0
	ldr	r0, .L247+20
	bl	__wrap_printf
.LVL357:
	.loc 1 2941 0
	ldr	r0, .L247+24
	bl	__wrap_printf
.LVL358:
	.loc 1 2942 0
	ldr	r0, .L247+28
	bl	__wrap_printf
.LVL359:
.LBE54:
.LBE53:
	.loc 1 2951 0
	add	sp, sp, #48
	.cfi_def_cfa_offset 8
	@ sp needed
	pop	{r4, pc}
.LVL360:
.L248:
	.align	2
.L247:
	.word	.LC100
	.word	.LC107
	.word	.LC101
	.word	.LC102
	.word	.LC103
	.word	.LC104
	.word	.LC105
	.word	.LC106
	.cfi_endproc
.LFE187:
	.size	fATWI, .-fATWI
	.section	.text.fATWD,"ax",%progbits
	.align	1
	.p2align 2,,3
	.global	fATWD
	.syntax unified
	.thumb
	.thumb_func
	.fpu softvfp
	.type	fATWD, %function
fATWD:
.LFB162:
	.loc 1 293 0
	.cfi_startproc
	@ args = 0, pretend = 0, frame = 40
	@ frame_needed = 0, uses_anonymous_args = 0
.LVL361:
	push	{r4, r5, r6, r7, lr}
	.cfi_def_cfa_offset 20
	.cfi_offset 4, -20
	.cfi_offset 5, -16
	.cfi_offset 6, -12
	.cfi_offset 7, -8
	.cfi_offset 14, -4
	.loc 1 299 0
	movs	r4, #0
	.loc 1 293 0
	sub	sp, sp, #44
	.cfi_def_cfa_offset 64
	.loc 1 304 0
	ldr	r0, .L262
.LVL362:
	.loc 1 299 0
	str	r4, [sp]
	.loc 1 304 0
	bl	__wrap_printf
.LVL363:
	.loc 1 305 0
	ldr	r0, .L262+4
	bl	__wrap_printf
.LVL364:
	.loc 1 307 0
	add	r1, sp, #4
	ldr	r0, .L262+8
	bl	wext_get_ssid
.LVL365:
	cmp	r0, r4
	blt	.L260
	.loc 1 314 0
	bl	wifi_disconnect
.LVL366:
	cmp	r0, #0
	str	r0, [sp]
	blt	.L252
	movs	r4, #21
	.loc 1 323 0
	ldr	r5, .L262+8
	b	.L253
.LVL367:
.L257:
	.loc 1 337 0
	mov	r0, #1000
	bl	vTaskDelay
.LVL368:
.L253:
	.loc 1 323 0
	add	r1, sp, #4
	mov	r0, r5
	bl	wext_get_ssid
.LVL369:
	cmp	r0, #0
	blt	.L261
	.loc 1 328 0
	subs	r4, r4, #1
	bne	.L257
	.loc 1 329 0
	ldr	r0, .L262+12
	bl	__wrap_printf
.LVL370:
	.loc 1 330 0
	movs	r3, #2
	str	r3, [sp]
.L256:
	.loc 1 340 0
	ldr	r0, .L262+16
	bl	__wrap_printf
.LVL371:
	.loc 1 343 0
	movs	r0, #0
	bl	LwIP_ReleaseIP
.LVL372:
.L254:
.LBB59:
.LBB60:
	.loc 1 166 0
	movs	r4, #0
	.loc 1 165 0
	ldr	r5, .L262+20
	movs	r2, #33
	mov	r1, r4
	adds	r0, r5, #1
	bl	memset
.LVL373:
	.loc 1 167 0
	mov	r1, r4
	movs	r2, #65
	ldr	r0, .L262+24
	.loc 1 166 0
	strh	r4, [r5, #38]	@ movhi
	str	r4, [r5, #34]	@ unaligned
	.loc 1 167 0
	bl	memset
.LVL374:
	.loc 1 171 0
	mov	r7, #-1
	.loc 1 172 0
	mov	r1, r4
	movs	r2, #33
	ldr	r6, .L262+28
	adds	r0, r6, #1
.L259:
	.loc 1 168 0
	strb	r4, [r5]
	.loc 1 169 0
	str	r4, [r5, #44]
	.loc 1 170 0
	str	r4, [r5, #48]
	.loc 1 171 0
	str	r7, [r5, #52]
	.loc 1 172 0
	bl	memset
.LVL375:
	.loc 1 176 0
	movs	r3, #1
	.loc 1 178 0
	ldr	r2, .L262+32
	.loc 1 173 0
	strb	r4, [r6]
	.loc 1 174 0
	str	r4, [r6, #40]
	.loc 1 175 0
	str	r4, [r6, #44]
	.loc 1 178 0
	str	r7, [r2]
	.loc 1 176 0
	str	r3, [r6, #48]
.LBE60:
.LBE59:
	.loc 1 367 0
	add	sp, sp, #44
	.cfi_remember_state
	.cfi_def_cfa_offset 20
	@ sp needed
	pop	{r4, r5, r6, r7, pc}
.L261:
	.cfi_restore_state
	.loc 1 324 0
	ldr	r0, .L262+36
	bl	__wrap_printf
.LVL376:
	.loc 1 325 0
	b	.L256
.LVL377:
.L260:
.LBB61:
.LBB62:
	.loc 1 165 0
	ldr	r5, .L262+20
.LBE62:
.LBE61:
	.loc 1 308 0
	ldr	r0, .L262+40
	bl	__wrap_printf
.LVL378:
.LDL4:
.LBB64:
.LBB63:
	.loc 1 172 0
	ldr	r6, .L262+28
	.loc 1 165 0
	movs	r2, #33
	mov	r1, r4
	adds	r0, r5, #1
	bl	memset
.LVL379:
	.loc 1 167 0
	movs	r2, #65
	mov	r1, r4
	ldr	r0, .L262+24
	.loc 1 166 0
	str	r4, [r5, #34]	@ unaligned
	strh	r4, [r5, #38]	@ movhi
	.loc 1 167 0
	bl	memset
.LVL380:
	.loc 1 171 0
	mov	r7, #-1
	.loc 1 172 0
	adds	r0, r6, #1
	movs	r2, #33
	mov	r1, r4
	b	.L259
.L252:
.LBE63:
.LBE64:
	.loc 1 315 0
	ldr	r0, .L262+44
	bl	__wrap_printf
.LVL381:
	.loc 1 319 0
	b	.L254
.L263:
	.align	2
.L262:
	.word	.LC108
	.word	.LC109
	.word	.LC0
	.word	.LC113
	.word	.LC27
	.word	.LANCHOR1
	.word	.LANCHOR2
	.word	.LANCHOR0
	.word	.LANCHOR5
	.word	.LC112
	.word	.LC110
	.word	.LC111
	.cfi_endproc
.LFE162:
	.size	fATWD, .-fATWD
	.section	.text.fATWB,"ax",%progbits
	.align	1
	.p2align 2,,3
	.global	fATWB
	.syntax unified
	.thumb
	.thumb_func
	.fpu softvfp
	.type	fATWB, %function
fATWB:
.LFB179:
	.loc 1 1307 0
	.cfi_startproc
	@ args = 0, pretend = 0, frame = 40
	@ frame_needed = 0, uses_anonymous_args = 0
.LVL382:
	.loc 1 1312 0
	movs	r3, #0
	.loc 1 1307 0
	push	{r4, r5, r6, r7, r8, lr}
	.cfi_def_cfa_offset 24
	.cfi_offset 4, -24
	.cfi_offset 5, -20
	.cfi_offset 6, -16
	.cfi_offset 7, -12
	.cfi_offset 8, -8
	.cfi_offset 14, -4
	.loc 1 1317 0
	ldr	r5, .L285
	.loc 1 1307 0
	sub	sp, sp, #48
	.cfi_def_cfa_offset 72
	.loc 1 1316 0
	ldr	r0, .L285+4
.LVL383:
	.loc 1 1312 0
	str	r3, [sp, #8]
.LVL384:
	.loc 1 1316 0
	bl	__wrap_printf
.LVL385:
	.loc 1 1317 0
	ldrb	r3, [r5, #1]	@ zero_extendqisi2
	cmp	r3, #0
	beq	.L280
	.loc 1 1322 0
	ldr	r0, [r5, #40]
	cmp	r0, #0
	beq	.L281
	.loc 1 1326 0
	ldr	r3, [r5, #44]
	sub	r2, r3, #8
	cmp	r2, #56
	bhi	.L269
	.loc 1 1328 0
	ldr	r2, .L285+8
	.loc 1 1329 0
	cmp	r3, #64
	.loc 1 1328 0
	str	r2, [r5, #36]
	.loc 1 1329 0
	beq	.L282
.L268:
	.loc 1 1349 0
	bl	dhcps_deinit
.LVL386:
	.loc 1 1352 0
	bl	wifi_off
.LVL387:
	.loc 1 1353 0
	movs	r0, #20
	bl	vTaskDelay
.LVL388:
	.loc 1 1354 0
	movs	r0, #3
	bl	wifi_on
.LVL389:
	cmp	r0, #0
	str	r0, [sp, #8]
	blt	.L283
	.loc 1 1360 0
	ldr	r0, .L285+12
	bl	__wrap_printf
.LVL390:
	.loc 1 1361 0
	ldr	r0, [r5, #44]
	ldr	r4, [r5, #48]
	ldrb	r3, [r5]	@ zero_extendqisi2
	stm	sp, {r0, r4}
	ldr	r2, [r5, #40]
	ldr	r1, [r5, #36]
	ldr	r0, .L285+16
	bl	wifi_start_ap
.LVL391:
	cmp	r0, #0
	str	r0, [sp, #8]
	blt	.L273
	movs	r4, #21
.LBB69:
	.loc 1 1368 0
	ldr	r7, .L285+20
	.loc 1 1369 0
	ldr	r8, .L285+16
	b	.L274
.LVL392:
.L277:
	.loc 1 1382 0
	mov	r0, #1000
	bl	vTaskDelay
.LVL393:
.L274:
	.loc 1 1368 0
	add	r1, sp, #12
	mov	r0, r7
	bl	wext_get_ssid
.LVL394:
	cmp	r0, #0
	ble	.L275
	.loc 1 1369 0
	mov	r1, r8
	add	r0, sp, #12
	bl	strcmp
.LVL395:
	mov	r6, r0
	cmp	r0, #0
	beq	.L284
.L275:
	.loc 1 1376 0
	subs	r4, r4, #1
	bne	.L277
	.loc 1 1377 0
	ldr	r0, .L285+24
	bl	__wrap_printf
.LVL396:
	.loc 1 1378 0
	movs	r3, #2
	str	r3, [sp, #8]
.L276:
.LBE69:
	.loc 1 1386 0
	ldr	r0, .L285+28
.LVL397:
	bl	LwIP_UseStaticIP
.LVL398:
	.loc 1 1390 0
	ldr	r0, .L285+28
.LVL399:
	bl	dhcps_init
.LVL400:
	b	.L266
.LVL401:
.L282:
	subs	r1, r0, #1
	adds	r0, r0, #63
	b	.L271
.LVL402:
.L270:
.LBB70:
	.loc 1 1331 0 discriminator 2
	cmp	r0, r1
	beq	.L268
.LVL403:
.L271:
	.loc 1 1332 0
	ldrb	r3, [r1, #1]!	@ zero_extendqisi2
.LVL404:
	.loc 1 1333 0
	bic	r2, r3, #32
	subs	r3, r3, #48
.LVL405:
	cmp	r3, #9
	sub	r2, r2, #65
	bls	.L270
	.loc 1 1333 0 is_stmt 0 discriminator 1
	cmp	r2, #5
	bls	.L270
.LVL406:
.L269:
.LBE70:
	.loc 1 1342 0 is_stmt 1
	ldr	r0, .L285+32
	bl	__wrap_printf
.LVL407:
	.loc 1 1343 0
	movs	r3, #4
	str	r3, [sp, #8]
.LVL408:
.L266:
.LBB71:
.LBB72:
	.loc 1 166 0
	movs	r4, #0
	.loc 1 171 0
	mov	r7, #-1
	.loc 1 165 0
	ldr	r6, .L285+36
	mov	r1, r4
	movs	r2, #33
	adds	r0, r6, #1
	bl	memset
.LVL409:
	.loc 1 167 0
	mov	r1, r4
	movs	r2, #65
	.loc 1 166 0
	strh	r4, [r6, #38]	@ movhi
	str	r4, [r6, #34]	@ unaligned
	.loc 1 167 0
	ldr	r0, .L285+40
	bl	memset
.LVL410:
	.loc 1 172 0
	mov	r1, r4
	movs	r2, #33
	ldr	r0, .L285+16
	.loc 1 168 0
	strb	r4, [r6]
	.loc 1 169 0
	str	r4, [r6, #44]
	.loc 1 170 0
	str	r4, [r6, #48]
	.loc 1 171 0
	str	r7, [r6, #52]
	.loc 1 172 0
	bl	memset
.LVL411:
	.loc 1 176 0
	movs	r3, #1
	.loc 1 178 0
	ldr	r2, .L285+44
	.loc 1 173 0
	strb	r4, [r5]
	.loc 1 174 0
	str	r4, [r5, #40]
	.loc 1 175 0
	str	r4, [r5, #44]
	.loc 1 178 0
	str	r7, [r2]
	.loc 1 176 0
	str	r3, [r5, #48]
.LBE72:
.LBE71:
	.loc 1 1401 0
	add	sp, sp, #48
	.cfi_remember_state
	.cfi_def_cfa_offset 24
	@ sp needed
	pop	{r4, r5, r6, r7, r8, pc}
.LVL412:
.L280:
	.cfi_restore_state
	.loc 1 1318 0
	ldr	r0, .L285+48
	bl	__wrap_printf
.LVL413:
	.loc 1 1319 0
	mvn	r3, #1
	str	r3, [sp, #8]
	.loc 1 1320 0
	b	.L266
.L283:
	.loc 1 1355 0
	ldr	r0, .L285+52
	bl	__wrap_printf
.LVL414:
	.loc 1 1356 0
	mov	r3, #-1
	str	r3, [sp, #8]
	.loc 1 1357 0
	b	.L266
.LVL415:
.L284:
.LBB73:
	.loc 1 1370 0
	ldr	r1, .L285+16
	ldr	r0, .L285+56
	bl	__wrap_printf
.LVL416:
	.loc 1 1371 0
	str	r6, [sp, #8]
	.loc 1 1372 0
	b	.L276
.LVL417:
.L281:
.LBE73:
	.loc 1 1323 0
	str	r0, [r5, #36]
	b	.L268
.L273:
	.loc 1 1362 0
	ldr	r0, .L285+60
	bl	__wrap_printf
.LVL418:
	.loc 1 1363 0
	b	.L266
.L286:
	.align	2
.L285:
	.word	.LANCHOR0
	.word	.LC114
	.word	4194308
	.word	.LC118
	.word	.LANCHOR0+1
	.word	.LC1
	.word	.LC120
	.word	xnetif+64
	.word	.LC116
	.word	.LANCHOR1
	.word	.LANCHOR2
	.word	.LANCHOR5
	.word	.LC115
	.word	.LC117
	.word	.LC119
	.word	.LC111
	.cfi_endproc
.LFE179:
	.size	fATWB, .-fATWB
	.section	.text.fATWC,"ax",%progbits
	.align	1
	.p2align 2,,3
	.global	fATWC
	.syntax unified
	.thumb
	.thumb_func
	.fpu softvfp
	.type	fATWC, %function
fATWC:
.LFB175:
	.loc 1 1048 0
	.cfi_startproc
	@ args = 0, pretend = 0, frame = 16
	@ frame_needed = 0, uses_anonymous_args = 0
.LVL419:
	push	{r4, r5, r6, r7, lr}
	.cfi_def_cfa_offset 20
	.cfi_offset 4, -20
	.cfi_offset 5, -16
	.cfi_offset 6, -12
	.cfi_offset 7, -8
	.cfi_offset 14, -4
	sub	sp, sp, #44
	.cfi_def_cfa_offset 64
	.loc 1 1053 0
	bl	xTaskGetTickCount
.LVL420:
	.loc 1 1055 0
	movs	r3, #0
	.loc 1 1058 0
	ldr	r4, .L306
	.loc 1 1053 0
	mov	r6, r0
.LVL421:
	.loc 1 1057 0
	ldr	r0, .L306+4
.LVL422:
	.loc 1 1055 0
	str	r3, [sp, #32]
	strh	r3, [sp, #36]	@ movhi
.LVL423:
	.loc 1 1057 0
	bl	__wrap_printf
.LVL424:
	.loc 1 1058 0
	add	r1, sp, #32
	add	r0, r4, #34
	movs	r2, #6
	bl	memcmp
.LVL425:
	cbnz	r0, .L298
	.loc 1 1060 0
	ldrb	r3, [r4, #1]	@ zero_extendqisi2
	cmp	r3, #0
	beq	.L301
	.loc 1 1065 0
	ldr	r3, [r4, #44]
	.loc 1 1055 0
	mov	r5, r0
.LVL426:
	.loc 1 1065 0
	cbnz	r3, .L302
.L290:
	.loc 1 1074 0
	str	r3, [r4, #40]
	b	.L292
.LVL427:
.L298:
	.loc 1 1065 0
	ldr	r3, [r4, #44]
	.loc 1 1059 0
	movs	r5, #1
.LVL428:
	.loc 1 1065 0
	cmp	r3, #0
	beq	.L290
.L302:
	.loc 1 1066 0
	ldr	r3, [r4, #52]
	cmp	r3, #3
	.loc 1 1067 0
	ite	ls
	movls	r3, #1
	.loc 1 1070 0
	ldrhi	r3, .L306+8
	str	r3, [r4, #40]
.L292:
	.loc 1 1077 0
	add	r1, sp, #28
	ldr	r0, .L306+12
	bl	wext_get_mode
.LVL429:
	.loc 1 1078 0
	ldr	r3, [sp, #28]
	cmp	r3, #3
	beq	.L303
.L293:
	.loc 1 1154 0
	cmp	r5, #0
	beq	.L294
	.loc 1 1155 0
	ldrb	r7, [r4, #39]	@ zero_extendqisi2
	ldrb	r5, [r4, #38]	@ zero_extendqisi2
.LVL430:
	ldrb	r0, [r4, #37]	@ zero_extendqisi2
	ldrb	r3, [r4, #36]	@ zero_extendqisi2
	stm	sp, {r0, r5, r7}
	ldrb	r2, [r4, #35]	@ zero_extendqisi2
	ldrb	r1, [r4, #34]	@ zero_extendqisi2
	ldr	r0, .L306+16
	bl	__wrap_printf
.LVL431:
	.loc 1 1156 0
	movs	r0, #0
	movs	r1, #6
	add	r2, r4, #40
	ldm	r2, {r2, r3, r5, r7}
	str	r0, [sp, #16]
	str	r1, [sp]
	ldrb	r0, [r4]	@ zero_extendqisi2
	ldr	r1, .L306+20
	str	r5, [sp, #8]
	str	r0, [sp, #4]
	str	r7, [sp, #12]
	add	r0, r1, #33
	bl	wifi_connect_bssid
.LVL432:
	mov	r5, r0
.LVL433:
	.loc 1 1164 0
	cmp	r5, #0
	beq	.L296
.L305:
	.loc 1 1165 0
	cmp	r5, #4
	beq	.L304
.LVL434:
.L297:
	.loc 1 1168 0
	ldr	r0, .L306+24
	bl	__wrap_printf
.LVL435:
	.loc 1 1169 0
	movs	r2, #1
	ldr	r3, .L306+28
	str	r2, [r3]
.LVL436:
.L289:
.LBB76:
.LBB77:
	.loc 1 166 0
	movs	r5, #0
	.loc 1 171 0
	mov	r7, #-1
	.loc 1 165 0
	mov	r1, r5
	movs	r2, #33
	ldr	r0, .L306+20
	bl	memset
.LVL437:
	.loc 1 166 0
	ldr	r3, .L306+32
	.loc 1 172 0
	ldr	r6, .L306+36
.LVL438:
	.loc 1 167 0
	mov	r1, r5
	.loc 1 166 0
	str	r5, [r4, #34]	@ unaligned
	.loc 1 167 0
	movs	r2, #65
	.loc 1 166 0
	strh	r5, [r3, #4]	@ movhi
	.loc 1 167 0
	ldr	r0, .L306+40
	bl	memset
.LVL439:
	.loc 1 172 0
	mov	r1, r5
	adds	r0, r6, #1
	movs	r2, #33
	.loc 1 168 0
	strb	r5, [r4]
	.loc 1 169 0
	str	r5, [r4, #44]
	.loc 1 170 0
	str	r5, [r4, #48]
	.loc 1 171 0
	str	r7, [r4, #52]
	.loc 1 172 0
	bl	memset
.LVL440:
	.loc 1 176 0
	movs	r2, #1
	.loc 1 178 0
	ldr	r3, .L306+44
	.loc 1 173 0
	strb	r5, [r6]
	.loc 1 174 0
	str	r5, [r6, #40]
	.loc 1 175 0
	str	r5, [r6, #44]
	.loc 1 176 0
	str	r2, [r6, #48]
	.loc 1 178 0
	str	r7, [r3]
.LBE77:
.LBE76:
	.loc 1 1188 0
	add	sp, sp, #44
	.cfi_remember_state
	.cfi_def_cfa_offset 20
	@ sp needed
	pop	{r4, r5, r6, r7, pc}
.LVL441:
.L294:
	.cfi_restore_state
	.loc 1 1159 0
	ldr	r1, .L306+20
	ldr	r0, .L306+48
	bl	__wrap_printf
.LVL442:
	.loc 1 1160 0
	ldr	r0, [r4, #48]
	ldr	r7, [r4, #52]
	str	r5, [sp, #8]
	stm	sp, {r0, r7}
	ldrb	r3, [r4]	@ zero_extendqisi2
	ldr	r2, [r4, #44]
	ldr	r1, [r4, #40]
	ldr	r0, .L306+20
	bl	wifi_connect
.LVL443:
	mov	r5, r0
.LVL444:
	.loc 1 1164 0
	cmp	r5, #0
	bne	.L305
.L296:
	.loc 1 1172 0
	bl	xTaskGetTickCount
.LVL445:
	.loc 1 1173 0
	subs	r1, r0, r6
	ldr	r0, .L306+52
.LVL446:
	bl	__wrap_printf
.LVL447:
	.loc 1 1176 0
	mov	r1, r5
	mov	r0, r5
	bl	LwIP_DHCP
.LVL448:
	.loc 1 1177 0
	bl	xTaskGetTickCount
.LVL449:
	.loc 1 1178 0
	subs	r1, r0, r6
	ldr	r0, .L306+56
.LVL450:
	bl	__wrap_printf
.LVL451:
	.loc 1 1179 0
	ldr	r3, .L306+28
	.loc 1 1181 0
	ldr	r0, .L306+60
	.loc 1 1179 0
	str	r5, [r3]
	.loc 1 1181 0
	bl	__wrap_printf
.LVL452:
	b	.L289
.LVL453:
.L303:
	.loc 1 1080 0
	bl	dhcps_deinit
.LVL454:
	.loc 1 1083 0
	movs	r0, #1
	bl	wifi_set_mode
.LVL455:
	cmp	r0, #0
	bge	.L293
	.loc 1 1084 0
	ldr	r0, .L306+64
	bl	__wrap_printf
.LVL456:
	.loc 1 1086 0
	b	.L289
.LVL457:
.L301:
	.loc 1 1061 0
	ldr	r0, .L306+68
	bl	__wrap_printf
.LVL458:
	.loc 1 1063 0
	b	.L289
.LVL459:
.L304:
	.loc 1 1166 0
	ldr	r0, .L306+72
.LVL460:
	bl	__wrap_printf
.LVL461:
	b	.L297
.L307:
	.align	2
.L306:
	.word	.LANCHOR1
	.word	.LC121
	.word	4194308
	.word	.LC0
	.word	.LC123
	.word	.LANCHOR1+1
	.word	.LC126
	.word	.LANCHOR6
	.word	.LANCHOR1+34
	.word	.LANCHOR0
	.word	.LANCHOR2
	.word	.LANCHOR5
	.word	.LC124
	.word	.LC127
	.word	.LC128
	.word	.LC27
	.word	.LC117
	.word	.LC122
	.word	.LC125
	.cfi_endproc
.LFE175:
	.size	fATWC, .-fATWC
	.section	.text.fATWA,"ax",%progbits
	.align	1
	.p2align 2,,3
	.global	fATWA
	.syntax unified
	.thumb
	.thumb_func
	.fpu softvfp
	.type	fATWA, %function
fATWA:
.LFB174:
	.loc 1 850 0
	.cfi_startproc
	@ args = 0, pretend = 0, frame = 56
	@ frame_needed = 0, uses_anonymous_args = 0
.LVL462:
	.loc 1 860 0
	movs	r3, #0
	.loc 1 850 0
	push	{r4, r5, r6, r7, r8, r9, lr}
	.cfi_def_cfa_offset 28
	.cfi_offset 4, -28
	.cfi_offset 5, -24
	.cfi_offset 6, -20
	.cfi_offset 7, -16
	.cfi_offset 8, -12
	.cfi_offset 9, -8
	.cfi_offset 14, -4
	.loc 1 862 0
	ldr	r5, .L336
	.loc 1 850 0
	sub	sp, sp, #68
	.cfi_def_cfa_offset 96
	.loc 1 861 0
	ldr	r0, .L336+4
.LVL463:
	.loc 1 860 0
	str	r3, [sp, #24]
	.loc 1 861 0
	bl	__wrap_printf
.LVL464:
	.loc 1 862 0
	ldrb	r3, [r5, #1]	@ zero_extendqisi2
	cmp	r3, #0
	beq	.L330
	.loc 1 867 0
	ldr	r0, [r5, #40]
	cmp	r0, #0
	beq	.L331
	.loc 1 871 0
	ldr	r3, [r5, #44]
	sub	r2, r3, #8
	cmp	r2, #56
	bls	.L332
	.loc 1 887 0
	cmp	r3, #5
	bne	.L316
	.loc 1 888 0
	movs	r3, #1
	str	r3, [r5, #36]
.L312:
	.loc 1 898 0
	ldr	r9, .L336+64
	ldr	r3, [r9]
	cbz	r3, .L329
	.loc 1 900 0
	cmp	r3, #1
	beq	.L329
	.loc 1 902 0
	cmp	r3, #2
	beq	.L333
	.loc 1 904 0
	cmp	r3, #3
	bne	.L318
	.loc 1 905 0
	ldr	r3, .L336+8
.L329:
	str	r3, [r5, #36]
.L318:
	.loc 1 912 0
	mvn	r6, #-16777216
	.loc 1 911 0
	ldr	r4, .L336+12
	.loc 1 909 0
	bl	dhcps_deinit
.LVL465:
	.loc 1 913 0
	add	r3, sp, #64
	.loc 1 914 0
	add	r2, sp, #16
	.loc 1 913 0
	str	r4, [r3, #-44]!
	.loc 1 914 0
	add	r1, sp, #12
	ldr	r0, .L336+16
	.loc 1 911 0
	str	r4, [sp, #12]
	.loc 1 912 0
	str	r6, [sp, #16]
	.loc 1 914 0
	bl	netif_set_addr
.LVL466:
	.loc 1 927 0
	movs	r0, #2
	bl	wifi_set_mode
.LVL467:
	cmp	r0, #0
	blt	.L334
	.loc 1 941 0
	ldr	r0, .L336+20
	bl	__wrap_printf
.LVL468:
	.loc 1 946 0
	ldr	r0, [r5, #44]
	ldr	r4, [r5, #48]
	ldrb	r3, [r5]	@ zero_extendqisi2
	stm	sp, {r0, r4}
	ldr	r2, [r5, #40]
	ldr	r1, [r5, #36]
	ldr	r0, .L336+24
	bl	wifi_start_ap
.LVL469:
	cmp	r0, #0
	str	r0, [sp, #24]
	blt	.L322
	movs	r4, #21
.LBB82:
	.loc 1 954 0
	ldr	r7, .L336+28
	.loc 1 955 0
	ldr	r8, .L336+24
	b	.L323
.LVL470:
.L326:
	.loc 1 968 0
	mov	r0, #1000
	bl	vTaskDelay
.LVL471:
.L323:
	.loc 1 954 0
	add	r1, sp, #28
	mov	r0, r7
	bl	wext_get_ssid
.LVL472:
	cmp	r0, #0
	ble	.L324
	.loc 1 955 0
	mov	r1, r8
	add	r0, sp, #28
	bl	strcmp
.LVL473:
	mov	r6, r0
	cmp	r0, #0
	beq	.L335
.L324:
	.loc 1 962 0
	subs	r4, r4, #1
	bne	.L326
	.loc 1 963 0
	ldr	r0, .L336+32
	bl	__wrap_printf
.LVL474:
	.loc 1 964 0
	movs	r3, #2
	str	r3, [sp, #24]
.L325:
.LBE82:
	.loc 1 978 0
	ldr	r0, .L336+16
	bl	dhcps_init
.LVL475:
	b	.L310
.LVL476:
.L332:
	.loc 1 873 0
	ldr	r2, .L336+8
	.loc 1 874 0
	cmp	r3, #64
	.loc 1 873 0
	str	r2, [r5, #36]
	.loc 1 874 0
	bne	.L312
	subs	r1, r0, #1
	adds	r0, r0, #63
	b	.L315
.LVL477:
.L314:
.LBB83:
	.loc 1 876 0 discriminator 2
	cmp	r0, r1
	beq	.L312
.LVL478:
.L315:
	.loc 1 877 0
	ldrb	r3, [r1, #1]!	@ zero_extendqisi2
.LVL479:
	.loc 1 878 0
	bic	r2, r3, #32
	subs	r3, r3, #48
.LVL480:
	cmp	r3, #9
	sub	r2, r2, #65
	bls	.L314
	.loc 1 878 0 is_stmt 0 discriminator 1
	cmp	r2, #5
	bls	.L314
.LVL481:
.L316:
.LBE83:
	.loc 1 892 0 is_stmt 1
	ldr	r0, .L336+36
	bl	__wrap_printf
.LVL482:
	.loc 1 893 0
	movs	r3, #4
	ldr	r9, .L336+64
	str	r3, [sp, #24]
.LVL483:
.L310:
.LBB84:
.LBB85:
	.loc 1 166 0
	movs	r4, #0
	.loc 1 171 0
	mov	r7, #-1
	.loc 1 165 0
	ldr	r6, .L336+40
	mov	r1, r4
	movs	r2, #33
	adds	r0, r6, #1
	bl	memset
.LVL484:
	.loc 1 167 0
	mov	r1, r4
	movs	r2, #65
	.loc 1 166 0
	strh	r4, [r6, #38]	@ movhi
	str	r4, [r6, #34]	@ unaligned
	.loc 1 167 0
	ldr	r0, .L336+44
	bl	memset
.LVL485:
	.loc 1 172 0
	mov	r1, r4
	movs	r2, #33
	ldr	r0, .L336+24
	.loc 1 168 0
	strb	r4, [r6]
	.loc 1 169 0
	str	r4, [r6, #44]
	.loc 1 170 0
	str	r4, [r6, #48]
	.loc 1 171 0
	str	r7, [r6, #52]
	.loc 1 172 0
	bl	memset
.LVL486:
	.loc 1 176 0
	movs	r3, #1
	.loc 1 178 0
	str	r7, [r9]
	.loc 1 173 0
	strb	r4, [r5]
	.loc 1 174 0
	str	r4, [r5, #40]
	.loc 1 175 0
	str	r4, [r5, #44]
	.loc 1 176 0
	str	r3, [r5, #48]
.LBE85:
.LBE84:
	.loc 1 986 0
	add	sp, sp, #68
	.cfi_remember_state
	.cfi_def_cfa_offset 28
	@ sp needed
	pop	{r4, r5, r6, r7, r8, r9, pc}
.LVL487:
.L330:
	.cfi_restore_state
	.loc 1 863 0
	ldr	r0, .L336+48
	bl	__wrap_printf
.LVL488:
	.loc 1 864 0
	mvn	r3, #1
	ldr	r9, .L336+64
	str	r3, [sp, #24]
	.loc 1 865 0
	b	.L310
.L333:
	.loc 1 903 0
	add	r3, r3, #4194304
	str	r3, [r5, #36]
	b	.L318
.LVL489:
.L335:
.LBB86:
	.loc 1 956 0
	ldr	r1, .L336+24
	ldr	r0, .L336+52
	bl	__wrap_printf
.LVL490:
	.loc 1 957 0
	str	r6, [sp, #24]
	.loc 1 958 0
	b	.L325
.LVL491:
.L331:
.LBE86:
	.loc 1 868 0
	str	r0, [r5, #36]
	b	.L312
.L334:
	.loc 1 928 0
	ldr	r0, .L336+56
	bl	__wrap_printf
.LVL492:
	.loc 1 929 0
	mov	r3, #-1
	str	r3, [sp, #24]
	.loc 1 930 0
	b	.L310
.L322:
	.loc 1 947 0
	ldr	r0, .L336+60
	bl	__wrap_printf
.LVL493:
	.loc 1 948 0
	b	.L310
.L337:
	.align	2
.L336:
	.word	.LANCHOR0
	.word	.LC129
	.word	4194308
	.word	16885952
	.word	xnetif
	.word	.LC118
	.word	.LANCHOR0+1
	.word	.LC0
	.word	.LC120
	.word	.LC131
	.word	.LANCHOR1
	.word	.LANCHOR2
	.word	.LC130
	.word	.LC119
	.word	.LC117
	.word	.LC111
	.word	.LANCHOR5
	.cfi_endproc
.LFE174:
	.size	fATWA, .-fATWA
	.section	.text.displayScannedSSIDS,"ax",%progbits
	.align	1
	.p2align 2,,3
	.global	displayScannedSSIDS
	.syntax unified
	.thumb
	.thumb_func
	.fpu softvfp
	.type	displayScannedSSIDS, %function
displayScannedSSIDS:
.LFB160:
	.loc 1 220 0
	.cfi_startproc
	@ args = 0, pretend = 0, frame = 0
	@ frame_needed = 0, uses_anonymous_args = 0
.LVL494:
	push	{r3, r4, r5, r6, r7, lr}
	.cfi_def_cfa_offset 24
	.cfi_offset 3, -24
	.cfi_offset 4, -20
	.cfi_offset 5, -16
	.cfi_offset 6, -12
	.cfi_offset 7, -8
	.cfi_offset 14, -4
.LBB87:
	.loc 1 221 0
	ldr	r6, .L344
	ldrb	r1, [r6]	@ zero_extendqisi2
	cbz	r1, .L338
	movs	r4, #0
	.loc 1 223 0
	ldr	r7, .L344+4
	adds	r5, r6, #1
.LVL495:
.L340:
	.loc 1 223 0 is_stmt 0 discriminator 3
	mov	r3, r5
	mov	r2, r4
	mov	r0, r7
	bl	__wrap_printf
.LVL496:
	.loc 1 221 0 is_stmt 1 discriminator 3
	ldrb	r1, [r6]	@ zero_extendqisi2
	adds	r4, r4, #1
.LVL497:
	cmp	r1, r4
	add	r5, r5, #20
	bgt	.L340
.LVL498:
.L338:
	pop	{r3, r4, r5, r6, r7, pc}
.L345:
	.align	2
.L344:
	.word	.LANCHOR4
	.word	.LC132
.LBE87:
	.cfi_endproc
.LFE160:
	.size	displayScannedSSIDS, .-displayScannedSSIDS
	.section	.text.print_wlan_help,"ax",%progbits
	.align	1
	.p2align 2,,3
	.global	print_wlan_help
	.syntax unified
	.thumb
	.thumb_func
	.fpu softvfp
	.type	print_wlan_help, %function
print_wlan_help:
.LFB185:
	.loc 1 1726 0
	.cfi_startproc
	@ args = 0, pretend = 0, frame = 0
	@ frame_needed = 0, uses_anonymous_args = 0
.LVL499:
	push	{r3, lr}
	.cfi_def_cfa_offset 8
	.cfi_offset 3, -8
	.cfi_offset 14, -4
	.loc 1 1730 0
	ldr	r0, .L348
.LVL500:
	bl	__wrap_printf
.LVL501:
	.loc 1 1731 0
	ldr	r0, .L348+4
	bl	__wrap_printf
.LVL502:
	.loc 1 1732 0
	ldr	r0, .L348+8
	bl	__wrap_printf
.LVL503:
	.loc 1 1733 0
	ldr	r0, .L348+12
	bl	__wrap_printf
.LVL504:
	.loc 1 1734 0
	ldr	r0, .L348+16
	bl	__wrap_printf
.LVL505:
	.loc 1 1735 0
	ldr	r0, .L348+20
	bl	__wrap_printf
.LVL506:
	.loc 1 1736 0
	ldr	r0, .L348+24
	bl	__wrap_printf
.LVL507:
	.loc 1 1737 0
	ldr	r0, .L348+28
	bl	__wrap_printf
.LVL508:
	.loc 1 1738 0
	ldr	r0, .L348+32
	bl	__wrap_printf
.LVL509:
	.loc 1 1739 0
	ldr	r0, .L348+36
	bl	__wrap_printf
.LVL510:
	.loc 1 1740 0
	ldr	r0, .L348+40
	bl	__wrap_printf
.LVL511:
	.loc 1 1741 0
	ldr	r0, .L348+44
	bl	__wrap_printf
.LVL512:
	.loc 1 1742 0
	ldr	r0, .L348+48
	bl	__wrap_printf
.LVL513:
	.loc 1 1743 0
	ldr	r0, .L348+52
	bl	__wrap_printf
.LVL514:
	.loc 1 1745 0
	pop	{r3, lr}
	.cfi_restore 14
	.cfi_restore 3
	.cfi_def_cfa_offset 0
	.loc 1 1744 0
	ldr	r0, .L348+56
	b	__wrap_printf
.LVL515:
.L349:
	.align	2
.L348:
	.word	.LC133
	.word	.LC18
	.word	.LC134
	.word	.LC135
	.word	.LC136
	.word	.LC137
	.word	.LC138
	.word	.LC139
	.word	.LC140
	.word	.LC141
	.word	.LC142
	.word	.LC143
	.word	.LC144
	.word	.LC145
	.word	.LC146
	.cfi_endproc
.LFE185:
	.size	print_wlan_help, .-print_wlan_help
	.section	.text.at_wifi_init,"ax",%progbits
	.align	1
	.p2align 2,,3
	.global	at_wifi_init
	.syntax unified
	.thumb
	.thumb_func
	.fpu softvfp
	.type	at_wifi_init, %function
at_wifi_init:
.LFB190:
	.loc 1 3149 0
	.cfi_startproc
	@ args = 0, pretend = 0, frame = 0
	@ frame_needed = 0, uses_anonymous_args = 0
	push	{r4, r5, r6, r7, r8, lr}
	.cfi_def_cfa_offset 24
	.cfi_offset 4, -24
	.cfi_offset 5, -20
	.cfi_offset 6, -16
	.cfi_offset 7, -12
	.cfi_offset 8, -8
	.cfi_offset 14, -4
.LBB90:
.LBB91:
	.loc 1 166 0
	movs	r4, #0
	.loc 1 165 0
	mov	r8, #33
	.loc 1 171 0
	mov	r7, #-1
	.loc 1 165 0
	ldr	r5, .L352
	.loc 1 172 0
	ldr	r6, .L352+4
	.loc 1 165 0
	mov	r2, r8
	mov	r1, r4
	adds	r0, r5, #1
	bl	memset
.LVL516:
	.loc 1 167 0
	mov	r1, r4
	movs	r2, #65
	ldr	r0, .L352+8
	.loc 1 166 0
	strh	r4, [r5, #38]	@ movhi
	str	r4, [r5, #34]	@ unaligned
	.loc 1 167 0
	bl	memset
.LVL517:
	.loc 1 172 0
	mov	r2, r8
	mov	r1, r4
	adds	r0, r6, #1
	.loc 1 168 0
	strb	r4, [r5]
	.loc 1 169 0
	str	r4, [r5, #44]
	.loc 1 170 0
	str	r4, [r5, #48]
	.loc 1 171 0
	str	r7, [r5, #52]
	.loc 1 172 0
	bl	memset
.LVL518:
	.loc 1 176 0
	movs	r2, #1
	.loc 1 178 0
	ldr	r3, .L352+12
	.loc 1 173 0
	strb	r4, [r6]
	.loc 1 174 0
	str	r4, [r6, #40]
	.loc 1 175 0
	str	r4, [r6, #44]
	.loc 1 176 0
	str	r2, [r6, #48]
	.loc 1 178 0
	str	r7, [r3]
.LBE91:
.LBE90:
	.loc 1 3153 0
	movs	r1, #28
	.loc 1 3154 0
	pop	{r4, r5, r6, r7, r8, lr}
	.cfi_restore 14
	.cfi_restore 8
	.cfi_restore 7
	.cfi_restore 6
	.cfi_restore 5
	.cfi_restore 4
	.cfi_def_cfa_offset 0
	.loc 1 3153 0
	ldr	r0, .L352+16
	b	log_service_add_table
.LVL519:
.L353:
	.align	2
.L352:
	.word	.LANCHOR1
	.word	.LANCHOR0
	.word	.LANCHOR2
	.word	.LANCHOR5
	.word	.LANCHOR7
	.cfi_endproc
.LFE190:
	.size	at_wifi_init, .-at_wifi_init
	.global	at_wifi_items
	.global	wifi_mode
	.global	security
	.global	scannedSSIDs
	.global	hoagsWifiStatus
	.section	.bss.ApNum.9381,"aw",%nobits
	.align	2
	.set	.LANCHOR3,. + 0
	.type	ApNum.9381, %object
	.size	ApNum.9381, 4
ApNum.9381:
	.space	4
	.section	.bss.ap,"aw",%nobits
	.align	2
	.set	.LANCHOR0,. + 0
	.type	ap, %object
	.size	ap, 52
ap:
	.space	52
	.section	.bss.hoagsWifiStatus,"aw",%nobits
	.align	2
	.set	.LANCHOR6,. + 0
	.type	hoagsWifiStatus, %object
	.size	hoagsWifiStatus, 4
hoagsWifiStatus:
	.space	4
	.section	.bss.password,"aw",%nobits
	.align	2
	.set	.LANCHOR2,. + 0
	.type	password, %object
	.size	password, 65
password:
	.space	65
	.section	.bss.scannedSSIDs,"aw",%nobits
	.align	2
	.set	.LANCHOR4,. + 0
	.type	scannedSSIDs, %object
	.size	scannedSSIDs, 601
scannedSSIDs:
	.space	601
	.section	.bss.wifi,"aw",%nobits
	.align	2
	.set	.LANCHOR1,. + 0
	.type	wifi, %object
	.size	wifi, 56
wifi:
	.space	56
	.section	.data.at_wifi_items,"aw",%progbits
	.align	2
	.set	.LANCHOR7,. + 0
	.type	at_wifi_items, %object
	.size	at_wifi_items, 448
at_wifi_items:
	.word	.LC147
	.word	fATWL
	.word	0
	.word	0
	.word	.LC148
	.word	fATWI
	.word	0
	.word	0
	.word	.LC149
	.word	fATWT
	.word	0
	.word	0
	.word	.LC150
	.word	fATWU
	.word	0
	.word	0
	.word	.LC151
	.word	fATW0
	.word	0
	.word	0
	.word	.LC152
	.word	fATW1
	.word	0
	.word	0
	.word	.LC153
	.word	fATW2
	.word	0
	.word	0
	.word	.LC154
	.word	fATW3
	.word	0
	.word	0
	.word	.LC155
	.word	fATW4
	.word	0
	.word	0
	.word	.LC156
	.word	fATW5
	.word	0
	.word	0
	.word	.LC157
	.word	fATW6
	.word	0
	.word	0
	.word	.LC158
	.word	fATW7
	.space	8
	.word	.LC159
	.word	fATWA
	.word	0
	.word	0
	.word	.LC160
	.word	fATWB
	.word	0
	.word	0
	.word	.LC161
	.word	fATWC
	.word	0
	.word	0
	.word	.LC162
	.word	fATWD
	.word	0
	.word	0
	.word	.LC163
	.word	fATWP
	.word	0
	.word	0
	.word	.LC164
	.word	fATWR
	.word	0
	.word	0
	.word	.LC165
	.word	fATWS
	.word	0
	.word	0
	.word	.LC166
	.word	fATWM
	.word	0
	.word	0
	.word	.LC167
	.word	fATWZ
	.word	0
	.word	0
	.word	.LC168
	.word	fATWQ
	.word	0
	.word	0
	.word	.LC169
	.word	fATWW
	.word	0
	.word	0
	.word	.LC170
	.word	fATWw
	.word	0
	.word	0
	.word	.LC171
	.word	fATWY
	.space	8
	.word	.LC172
	.word	fATWx
	.word	0
	.word	0
	.word	.LC173
	.word	fATWx
	.word	0
	.word	0
	.word	.LC174
	.word	fATXP
	.word	0
	.word	0
	.section	.data.security,"aw",%progbits
	.align	2
	.set	.LANCHOR5,. + 0
	.type	security, %object
	.size	security, 4
security:
	.word	-1
	.section	.data.wifi_mode,"aw",%progbits
	.align	2
	.type	wifi_mode, %object
	.size	wifi_mode, 4
wifi_mode:
	.word	1
	.section	.rodata.app_scan_result_handler.str1.4,"aMS",%progbits,1
	.align	2
.LC67:
	.ascii	"Adhoc\000"
	.space	2
.LC68:
	.ascii	"Infra\000"
	.space	2
.LC69:
	.ascii	"Open\000"
	.space	3
.LC70:
	.ascii	"WEP\000"
.LC71:
	.ascii	"WPA TKIP\000"
	.space	3
.LC72:
	.ascii	"WPA AES\000"
.LC73:
	.ascii	"WPA2 AES\000"
	.space	3
.LC74:
	.ascii	"WPA2 TKIP\000"
	.space	2
.LC75:
	.ascii	"WPA2 Mixed\000"
	.space	1
.LC76:
	.ascii	"WPA/WPA2 AES\000"
	.space	3
.LC77:
	.ascii	"Unknown\000"
.LC78:
	.ascii	"%d\011 \000"
	.space	3
.LC79:
	.ascii	"%s\011 \000"
	.space	3
.LC80:
	.ascii	" %d\011 \000"
	.space	2
.LC81:
	.ascii	" %d\011  \000"
	.space	1
.LC82:
	.ascii	"%s\011\011 \000"
	.space	2
.LC83:
	.ascii	" %s \000"
	.space	3
.LC84:
	.ascii	"\015\012\000"
	.space	1
.LC85:
	.ascii	"SSID list has been exceeded\012\000"
	.section	.rodata.displayScannedSSIDS.str1.4,"aMS",%progbits,1
	.align	2
.LC132:
	.ascii	"scannedSSIDs.len=%d scannedSSIDs.ssidList[%d]=%s\012"
	.ascii	"\000"
	.section	.rodata.fATW0.str1.4,"aMS",%progbits,1
	.align	2
.LC30:
	.ascii	"[ATW0]Usage: ATW0=SSID\012\015\000"
	.space	3
.LC31:
	.ascii	"[ATW0]: _AT_WLAN_SET_SSID_ [%s]\012\015\000"
	.section	.rodata.fATW1.str1.4,"aMS",%progbits,1
	.align	2
.LC32:
	.ascii	"[ATW1]Usage: ATW1=PASSPHRASE\012\015\000"
	.space	1
.LC33:
	.ascii	"[ATW1]: _AT_WLAN_SET_PASSPHRASE_ [%s]\012\015\000"
	.section	.rodata.fATW2.str1.4,"aMS",%progbits,1
	.align	2
.LC86:
	.ascii	"[ATW2]Usage: ATW2=KEYID\012\015\000"
	.space	2
.LC87:
	.ascii	"[ATW2]: _AT_WLAN_SET_KEY_ID_ [%s]\012\015\000"
.LC88:
	.ascii	"\012\015Wrong WEP key id. Must be one of 0,1,2, or "
	.ascii	"3.\000"
	.section	.rodata.fATW3.str1.4,"aMS",%progbits,1
	.align	2
.LC89:
	.ascii	"[ATW3]Usage: ATW3=SSID\012\015\000"
	.space	3
.LC90:
	.ascii	"[ATW3]Error: SSID length can't exceed 32\012\015\000"
	.space	1
.LC91:
	.ascii	"[ATW3]: _AT_WLAN_AP_SET_SSID_ [%s]\012\015\000"
	.section	.rodata.fATW4.str1.4,"aMS",%progbits,1
	.align	2
.LC34:
	.ascii	"[ATW4]Usage: ATW4=PASSWORD\012\015\000"
	.space	3
.LC35:
	.ascii	"[ATW4]: _AT_WLAN_AP_SET_SEC_KEY_ [%s]\012\015\000"
	.section	.rodata.fATW5.str1.4,"aMS",%progbits,1
	.align	2
.LC9:
	.ascii	"[ATW5]Usage: ATW5=CHANNEL\012\015\000"
.LC10:
	.ascii	"[ATW5]: _AT_WLAN_AP_SET_CHANNEL_ [channel %d]\012\015"
	.ascii	"\000"
	.section	.rodata.fATW6.str1.4,"aMS",%progbits,1
	.align	2
.LC36:
	.ascii	"[ATW6]Usage: ATW6=BSSID\012\015\000"
	.space	2
.LC37:
	.ascii	"[ATW6]: _AT_WLAN_SET_BSSID_ [%s]\012\015\000"
	.space	1
.LC38:
	.ascii	"%02x:%02x:%02x:%02x:%02x:%02x\000"
	.section	.rodata.fATW7.str1.4,"aMS",%progbits,1
	.align	2
.LC92:
	.ascii	"[ATW7]Usage: ATW7=0,1,2 or 3(open, WEP, TKIP or AES"
	.ascii	")\012\015\000"
	.space	1
.LC93:
	.ascii	"[ATW7]: _AT_WLAN_SET_SECURITY [%s]\012\015\000"
	.space	3
.LC94:
	.ascii	"\012\015Wrong num. Must be one of 0,1,2 or 3.\000"
	.section	.rodata.fATWA.str1.4,"aMS",%progbits,1
	.align	2
.LC129:
	.ascii	"[ATWA]: _AT_WLAN_AP_ACTIVATE_\012\015\000"
.LC130:
	.ascii	"[ATWA]Error: SSID can't be empty\012\015\000"
	.space	1
.LC131:
	.ascii	"[ATWA]Error: password should be 64 hex characters o"
	.ascii	"r 8-63 ASCII characters\012\015\000"
	.section	.rodata.fATWB.str1.4,"aMS",%progbits,1
	.align	2
.LC114:
	.ascii	"[ATWB](_AT_WLAN_AP_STA_ACTIVATE_)\012\015\000"
.LC115:
	.ascii	"[ATWB]Error: SSID can't be empty\012\015\000"
	.space	1
.LC116:
	.ascii	"[ATWB]Error: password should be 64 hex characters o"
	.ascii	"r 8-63 ASCII characters\012\015\000"
	.space	3
.LC117:
	.ascii	"\012\015ERROR: Wifi on failed!\000"
	.space	3
.LC118:
	.ascii	"\012\015Starting AP ...\000"
	.space	2
.LC119:
	.ascii	"\012\015%s started\012\000"
	.space	2
.LC120:
	.ascii	"\012\015ERROR: Start AP timeout!\000"
	.section	.rodata.fATWC.str1.4,"aMS",%progbits,1
	.align	2
.LC121:
	.ascii	"[ATWC]: _AT_WLAN_JOIN_NET_\012\015\000"
	.space	3
.LC122:
	.ascii	"[ATWC]Error: SSID can't be empty\012\015\000"
	.space	1
.LC123:
	.ascii	"\012\015Joining BSS by BSSID %02x:%02x:%02x:%02x:%0"
	.ascii	"2x:%02x ...\012\015\000"
	.space	1
.LC124:
	.ascii	"\012\015Joining BSS by SSID %s...\012\015\000"
	.space	2
.LC125:
	.ascii	"\012\015ERROR:Invalid Key \000"
	.space	3
.LC126:
	.ascii	"\012\015ERROR: Can't connect to AP\000"
	.space	3
.LC127:
	.ascii	"\015\012Connected after %dms.\012\000"
	.space	3
.LC128:
	.ascii	"\015\012\012Got IP after %dms.\012\000"
	.section	.rodata.fATWD.str1.4,"aMS",%progbits,1
	.align	2
.LC108:
	.ascii	"[ATWD]: _AT_WLAN_DISC_NET_\012\015\000"
	.space	3
.LC109:
	.ascii	"\012\015Deassociating AP ...\000"
	.space	1
.LC110:
	.ascii	"\012\015not connected yet\000"
.LC111:
	.ascii	"\012\015ERROR: Operation failed!\000"
	.space	1
.LC112:
	.ascii	"\012\015WIFI disconnect succeed\000"
	.space	2
.LC113:
	.ascii	"\012\015ERROR: Deassoc timeout!\000"
	.section	.rodata.fATWI.str1.4,"aMS",%progbits,1
	.align	2
.LC100:
	.ascii	"[ATWI]: _AT_WLAN_PING_TEST_\012\015\000"
	.space	2
.LC101:
	.ascii	"\012\015[ATWI] Usage: ATWI=[host],[options]\012\000"
	.space	1
.LC102:
	.ascii	"\012\015     -t        Ping the specified host unti"
	.ascii	"l stopped\012\000"
.LC103:
	.ascii	"  \015     -n    #   Number of echo requests to sen"
	.ascii	"d (default 4 times)\012\000"
	.space	3
.LC104:
	.ascii	"  \015     -l    #   Send buffer size (default 32 b"
	.ascii	"ytes)\012\000"
	.space	1
.LC105:
	.ascii	"\012\015   Example:\012\000"
	.space	1
.LC106:
	.ascii	"  \015     ATWI=192.168.1.2,-n,100,-l,5000\012\000"
	.space	3
.LC107:
	.ascii	"ping\000"
	.section	.rodata.fATWL.str1.4,"aMS",%progbits,1
	.align	2
.LC4:
	.ascii	"Please set CONFIG_SSL_CLIENT 1 in platform_opts.h t"
	.ascii	"o enable ATWL command\012\000"
	.section	.rodata.fATWM.str1.4,"aMS",%progbits,1
	.align	2
.LC43:
	.ascii	"wifi_promisc\000"
	.space	3
.LC44:
	.ascii	"[ATWM]: _AT_WLAN_PROMISC_\012\015\000"
.LC45:
	.ascii	"[ATWM]Usage: ATWM=DURATION_SECONDS[with_len]\000"
	.section	.rodata.fATWP.str1.4,"aMS",%progbits,1
	.align	2
.LC95:
	.ascii	"[ATWP]Usage: ATWP=0/1\012\015\000"
.LC96:
	.ascii	"ON\000"
	.space	1
.LC97:
	.ascii	"[ATWP]: _AT_WLAN_POWER_[%s]\012\015\000"
	.space	2
.LC98:
	.ascii	"\012\015ERROR: Wifi on failed!\012\000"
	.space	2
.LC99:
	.ascii	"OFF\000"
	.section	.rodata.fATWQ.str1.4,"aMS",%progbits,1
	.align	2
.LC7:
	.ascii	"[ATWQ]: _AT_WLAN_SIMPLE_CONFIG_\012\015\000"
	.space	2
.LC8:
	.ascii	"wifi_simple_config\000"
	.section	.rodata.fATWR.str1.4,"aMS",%progbits,1
	.align	2
.LC39:
	.ascii	"[ATWR]: _AT_WLAN_GET_RSSI_\012\015\000"
	.space	3
.LC40:
	.ascii	"\012\015wifi_get_rssi: rssi = %d\000"
	.section	.rodata.fATWS.str1.4,"aMS",%progbits,1
	.align	2
.LC11:
	.ascii	"[ATWS]: _AT_WLAN_SCAN_\012\015\000"
	.space	3
.LC12:
	.ascii	"[ATWS]ERROR: Can't malloc memory for channel list\012"
	.ascii	"\015\000"
.LC13:
	.ascii	"[ATWS]ERROR: Can't malloc memory for pscan_config\012"
	.ascii	"\015\000"
.LC14:
	.ascii	"[ATWS]ERROR: wifi set partial scan channel fail\012"
	.ascii	"\015\000"
	.space	2
.LC15:
	.ascii	"[ATWS]ERROR: wifi scan failed\012\015\000"
	.section	.rodata.fATWT.str1.4,"aMS",%progbits,1
	.align	2
.LC5:
	.ascii	"Please set CONFIG_BSD_TCP 1 in platform_opts.h to e"
	.ascii	"nable ATWT command\012\000"
	.section	.rodata.fATWU.str1.4,"aMS",%progbits,1
	.align	2
.LC6:
	.ascii	"Please set CONFIG_BSD_TCP 1 in platform_opts.h to e"
	.ascii	"nable ATWU command\012\000"
	.section	.rodata.fATWW.str1.4,"aMS",%progbits,1
	.align	2
.LC3:
	.ascii	"Please set CONFIG_ENABLE_WPS 1 in platform_opts.h t"
	.ascii	"o enable ATWW command\012\000"
	.section	.rodata.fATWY.str1.4,"aMS",%progbits,1
	.align	2
.LC41:
	.ascii	"[ATWY]: _AT_WLAN_GET_SNR_\012\015\000"
.LC42:
	.ascii	"\012\015snr = %d\000"
	.section	.rodata.fATWZ.str1.4,"aMS",%progbits,1
	.align	2
.LC46:
	.ascii	"[ATWZ]: _AT_WLAN_IWPRIV_\012\015\000"
	.space	1
.LC47:
	.ascii	"[ATWZ]Usage: ATWZ=COMMAND[PARAMETERS]\012\015\000"
	.section	.rodata.fATWx.str1.4,"aMS",%progbits,1
	.align	2
.LC16:
	.ascii	"[ATW?]: _AT_WLAN_INFO_\012\015\000"
	.space	3
.LC17:
	.ascii	"\012\015\012WIFI %s Status: Running\000"
	.space	1
.LC18:
	.ascii	"\012\015==============================\000"
	.space	3
.LC19:
	.ascii	"\012\015Interface (%s)\000"
	.space	3
.LC20:
	.ascii	"\012\015\011MAC => %02x:%02x:%02x:%02x:%02x:%02x\000"
.LC21:
	.ascii	"\012\015\011IP  => %d.%d.%d.%d\000"
	.space	2
.LC22:
	.ascii	"\012\015\011GW  => %d.%d.%d.%d\000"
	.space	2
.LC23:
	.ascii	"\012\015\011msk  => %d.%d.%d.%d\012\015\000"
	.space	3
.LC24:
	.ascii	"\012\015Associated Client List:\000"
	.space	2
.LC25:
	.ascii	"\012\015Client Num: 0\012\015\000"
	.space	2
.LC26:
	.ascii	"\012\015Client Num: %d\000"
	.space	3
.LC27:
	.ascii	"\012\015\000"
	.space	1
.LC28:
	.ascii	"\012\015Client %d:\000"
	.space	3
.LC29:
	.ascii	"\012\015Task List: \012\015%s\000"
	.section	.rodata.fATXP.str1.4,"aMS",%progbits,1
	.align	2
.LC48:
	.ascii	"[ATXP]: _AT_WLAN_POWER_MODE_\015\012\000"
	.space	1
.LC49:
	.ascii	"[ATXP] Usage: ATXP=lps/ips/dtim/tdma/bcn_mode[mode]"
	.ascii	"\015\012\000"
	.space	2
.LC50:
	.ascii	"lps\000"
.LC51:
	.ascii	"lps mode:%d\015\012\000"
	.space	2
.LC52:
	.ascii	"ips\000"
.LC53:
	.ascii	"ips mode:%d\015\012\000"
	.space	2
.LC54:
	.ascii	"tdma\000"
	.space	3
.LC55:
	.ascii	"tdma param: %d %d %d %d\015\012\000"
	.space	2
.LC56:
	.ascii	"dtim\000"
	.space	3
.LC57:
	.ascii	"dtim: %d\015\012\000"
	.space	1
.LC58:
	.ascii	"bcn_mode\000"
	.space	3
.LC59:
	.ascii	"Beacon mode: %d\015\012\000"
	.space	2
.LC60:
	.ascii	"lps_thresh\000"
	.space	1
.LC61:
	.ascii	"LPS thresh: \000"
	.space	3
.LC62:
	.ascii	"packet count threshold\012\015\000"
	.space	3
.LC63:
	.ascii	"enter lps directly\012\015\000"
	.space	3
.LC64:
	.ascii	"tp threshold\012\015\000"
	.space	1
.LC65:
	.ascii	"get\000"
.LC66:
	.ascii	"get dtim: %d\015\012\000"
	.section	.rodata.print_wlan_help.str1.4,"aMS",%progbits,1
	.align	2
.LC133:
	.ascii	"\012\015WLAN AT COMMAND SET:\000"
	.space	1
.LC134:
	.ascii	"\012\0151. Wlan Scan for Network Access Point\000"
.LC135:
	.ascii	"\012\015   # ATWS\000"
.LC136:
	.ascii	"\012\0152. Connect to an AES AP\000"
	.space	2
.LC137:
	.ascii	"\012\015   # ATW0=SSID\000"
	.space	3
.LC138:
	.ascii	"\012\015   # ATW1=PASSPHRASE\000"
	.space	1
.LC139:
	.ascii	"\012\015   # ATWC\000"
.LC140:
	.ascii	"\012\0153. Create an AES AP\000"
	.space	2
.LC141:
	.ascii	"\012\015   # ATW3=SSID\000"
	.space	3
.LC142:
	.ascii	"\012\015   # ATW4=PASSPHRASE\000"
	.space	1
.LC143:
	.ascii	"\012\015   # ATW5=CHANNEL\000"
.LC144:
	.ascii	"\012\015   # ATWA\000"
.LC145:
	.ascii	"\012\0154. Ping\000"
	.space	2
.LC146:
	.ascii	"\012\015   # ATWI=xxx.xxx.xxx.xxx\000"
	.section	.rodata.str1.4,"aMS",%progbits,1
	.align	2
.LC0:
	.ascii	"wlan0\000"
	.space	2
.LC1:
	.ascii	"wlan1\000"
	.space	2
.LC147:
	.ascii	"ATWL\000"
	.space	3
.LC148:
	.ascii	"ATWI\000"
	.space	3
.LC149:
	.ascii	"ATWT\000"
	.space	3
.LC150:
	.ascii	"ATWU\000"
	.space	3
.LC151:
	.ascii	"ATW0\000"
	.space	3
.LC152:
	.ascii	"ATW1\000"
	.space	3
.LC153:
	.ascii	"ATW2\000"
	.space	3
.LC154:
	.ascii	"ATW3\000"
	.space	3
.LC155:
	.ascii	"ATW4\000"
	.space	3
.LC156:
	.ascii	"ATW5\000"
	.space	3
.LC157:
	.ascii	"ATW6\000"
	.space	3
.LC158:
	.ascii	"ATW7\000"
	.space	3
.LC159:
	.ascii	"ATWA\000"
	.space	3
.LC160:
	.ascii	"ATWB\000"
	.space	3
.LC161:
	.ascii	"ATWC\000"
	.space	3
.LC162:
	.ascii	"ATWD\000"
	.space	3
.LC163:
	.ascii	"ATWP\000"
	.space	3
.LC164:
	.ascii	"ATWR\000"
	.space	3
.LC165:
	.ascii	"ATWS\000"
	.space	3
.LC166:
	.ascii	"ATWM\000"
	.space	3
.LC167:
	.ascii	"ATWZ\000"
	.space	3
.LC168:
	.ascii	"ATWQ\000"
	.space	3
.LC169:
	.ascii	"ATWW\000"
	.space	3
.LC170:
	.ascii	"ATWw\000"
	.space	3
.LC171:
	.ascii	"ATWY\000"
	.space	3
.LC172:
	.ascii	"ATW?\000"
	.space	3
.LC173:
	.ascii	"ATW+ABC\000"
.LC174:
	.ascii	"ATXP\000"
	.text
.Letext0:
	.file 2 "/cygdrive/d/PUYA/HE3/sdk-ameba-v7.1d/tools/arm-none-eabi-gcc/asdk/cygwin/newlib/arm-none-eabi/include/machine/_default_types.h"
	.file 3 "/cygdrive/d/PUYA/HE3/sdk-ameba-v7.1d/tools/arm-none-eabi-gcc/asdk/cygwin/newlib/lib/gcc/arm-none-eabi/6.5.0/include/stddef.h"
	.file 4 "/cygdrive/d/PUYA/HE3/sdk-ameba-v7.1d/tools/arm-none-eabi-gcc/asdk/cygwin/newlib/arm-none-eabi/include/sys/lock.h"
	.file 5 "/cygdrive/d/PUYA/HE3/sdk-ameba-v7.1d/tools/arm-none-eabi-gcc/asdk/cygwin/newlib/arm-none-eabi/include/sys/_types.h"
	.file 6 "/cygdrive/d/PUYA/HE3/sdk-ameba-v7.1d/tools/arm-none-eabi-gcc/asdk/cygwin/newlib/arm-none-eabi/include/sys/reent.h"
	.file 7 "<built-in>"
	.file 8 "/cygdrive/d/PUYA/HE3/sdk-ameba-v7.1d/tools/arm-none-eabi-gcc/asdk/cygwin/newlib/arm-none-eabi/include/sys/_stdint.h"
	.file 9 "/cygdrive/d/PUYA/HE3/sdk-ameba-v7.1d/tools/arm-none-eabi-gcc/asdk/cygwin/newlib/arm-none-eabi/include/time.h"
	.file 10 "../inc/FreeRTOSConfig.h"
	.file 11 "../../../component/soc/realtek/8710c/cmsis/rtl8710c/include/basic_types.h"
	.file 12 "/cygdrive/d/PUYA/HE3/sdk-ameba-v7.1d/tools/arm-none-eabi-gcc/asdk/cygwin/newlib/lib/gcc/arm-none-eabi/6.5.0/include/stdarg.h"
	.file 13 "../../../component/soc/realtek/8710c/app/rtl_printf/include/log_buf.h"
	.file 14 "../../../component/soc/realtek/8710c/app/stdio_port/stdio_port.h"
	.file 15 "../../../component/soc/realtek/8710c/app/rtl_printf/include/printf_entry.h"
	.file 16 "../../../component/soc/realtek/8710c/app/rtl_printf/include/rt_printf.h"
	.file 17 "../../../component/soc/realtek/8710c/misc/utilities/include/utility.h"
	.file 18 "../../../component/common/api/platform/dlist.h"
	.file 19 "/cygdrive/d/PUYA/HE3/sdk-ameba-v7.1d/tools/arm-none-eabi-gcc/asdk/cygwin/newlib/arm-none-eabi/include/stdlib.h"
	.file 20 "../../../component/common/api/at_cmd/log_service.h"
	.file 21 "../../../component/common/drivers/wlan/realtek/include/autoconf.h"
	.file 22 "../../../component/common/network/lwip/lwip_v2.0.2/port/realtek/arch/cc.h"
	.file 23 "../../../component/common/network/lwip/lwip_v2.0.2/src/include/lwip/err.h"
	.file 24 "../../../component/common/network/lwip/lwip_v2.0.2/src/include/lwip/timeouts.h"
	.file 25 "../../../component/common/network/lwip/lwip_v2.0.2/src/include/lwip/ip4_addr.h"
	.file 26 "../../../component/common/network/lwip/lwip_v2.0.2/src/include/lwip/ip_addr.h"
	.file 27 "../../../component/common/network/lwip/lwip_v2.0.2/src/include/lwip/pbuf.h"
	.file 28 "../../../component/common/network/lwip/lwip_v2.0.2/src/include/lwip/priv/memp_priv.h"
	.file 29 "../../../component/common/network/lwip/lwip_v2.0.2/src/include/lwip/memp.h"
	.file 30 "../../../component/common/network/lwip/lwip_v2.0.2/src/include/lwip/netif.h"
	.file 31 "../../../component/common/network/lwip/lwip_v2.0.2/src/include/lwip/prot/ip4.h"
	.file 32 "../../../component/common/network/lwip/lwip_v2.0.2/src/include/lwip/ip.h"
	.file 33 "../../../component/common/network/lwip/lwip_v2.0.2/src/include/lwip/udp.h"
	.file 34 "../../../component/common/network/lwip/lwip_v2.0.2/src/include/lwip/prot/ethernet.h"
	.file 35 "../../../component/common/network/lwip/lwip_v2.0.2/src/include/netif/ethernet.h"
	.file 36 "../../../component/common/network/dhcp/dhcps.h"
	.file 37 "../../../component/common/api/lwip_netconf.h"
	.file 38 "../../../component/common/drivers/wlan/realtek/include/wifi_constants.h"
	.file 39 "../../../component/common/drivers/wlan/realtek/include/wifi_structures.h"
	.file 40 "../../../component/common/drivers/wlan/realtek/src/osdep/wireless.h"
	.file 41 "../../../component/common/api/wifi/wifi_util.h"
	.file 42 "../../../component/common/network/lwip/lwip_v2.0.2/src/include/lwip/errno.h"
	.file 43 "../src/hoags/hoags_config.h"
	.file 44 "../../../component/common/api/platform/platform_stdlib_rtl8710c.h"
	.file 45 "/cygdrive/d/PUYA/HE3/sdk-ameba-v7.1d/tools/arm-none-eabi-gcc/asdk/cygwin/newlib/arm-none-eabi/include/string.h"
	.file 46 "../../../component/common/api/wifi/wifi_conf.h"
	.file 47 "../../../component/os/freertos/freertos_v10.0.1/Source/include/task.h"
	.file 48 "/cygdrive/d/PUYA/HE3/sdk-ameba-v7.1d/tools/arm-none-eabi-gcc/asdk/cygwin/newlib/arm-none-eabi/include/stdio.h"
	.file 49 "../../../component/common/drivers/wlan/realtek/src/osdep/wlan_intf.h"
	.file 50 "../../../component/os/freertos/freertos_v10.0.1/Source/include/portable.h"