	.arch armv8-m.main
	.arch_extension dsp
	.eabi_attribute 20, 1
	.eabi_attribute 21, 1
	.eabi_attribute 23, 3
	.eabi_attribute 24, 1
	.eabi_attribute 25, 1
	.eabi_attribute 26, 1
	.eabi_attribute 30, 2
	.eabi_attribute 34, 1
	.eabi_attribute 18, 4
	.file	"ble_app_main.c"
	.text
.Ltext0:
	.cfi_sections	.debug_frame
	.section	.text.bt_stack_config_init,"ax",%progbits
	.align	1
	.p2align 2,,3
	.global	bt_stack_config_init
	.syntax unified
	.thumb
	.thumb_func
	.fpu softvfp
	.type	bt_stack_config_init, %function
bt_stack_config_init:
.LFB158:
	.file 1 "../../../component/common/bluetooth/realtek/sdk/example/ble_peripheral/ble_app_main.c"
	.loc 1 233 0
	.cfi_startproc
	@ args = 0, pretend = 0, frame = 0
	@ frame_needed = 0, uses_anonymous_args = 0
	push	{r3, lr}
	.cfi_def_cfa_offset 8
	.cfi_offset 3, -8
	.cfi_offset 14, -4
	.loc 1 234 0
	movs	r0, #1
	bl	gap_config_max_le_link_num
.LVL0:
	.loc 1 236 0
	pop	{r3, lr}
	.cfi_restore 14
	.cfi_restore 3
	.cfi_def_cfa_offset 0
	.loc 1 235 0
	mov	r0, #280
	b	gap_config_hci_task_secure_context
.LVL1:
	.cfi_endproc
.LFE158:
	.size	bt_stack_config_init, .-bt_stack_config_init
	.section	.text.app_le_gap_init,"ax",%progbits
	.align	1
	.p2align 2,,3
	.global	app_le_gap_init
	.syntax unified
	.thumb
	.thumb_func
	.fpu softvfp
	.type	app_le_gap_init, %function
app_le_gap_init:
.LFB159:
	.loc 1 243 0
	.cfi_startproc
	@ args = 0, pretend = 0, frame = 72
	@ frame_needed = 0, uses_anonymous_args = 0
	push	{r4, r5, r6, r7, lr}
	.cfi_def_cfa_offset 20
	.cfi_offset 4, -20
	.cfi_offset 5, -16
	.cfi_offset 6, -12
	.cfi_offset 7, -8
	.cfi_offset 14, -4
	.loc 1 244 0
	ldr	r3, .L12
	.loc 1 243 0
	sub	sp, sp, #84
	.cfi_def_cfa_offset 104
	.loc 1 244 0
	ldrb	r3, [r3]	@ zero_extendqisi2
	cmp	r3, #0
	beq	.L11
.L4:
	.loc 1 251 0
	movs	r2, #40
	movs	r1, #0
	add	r0, sp, #40
	bl	memset
.LVL2:
	.loc 1 252 0
	add	r1, sp, #40
	ldr	r0, .L12+4
	bl	getEnvItem
.LVL3:
	.loc 1 253 0
	add	r3, sp, #40
	movs	r2, #253
	ldr	r1, .L12+8
	ldr	r0, .L12+12
	bl	__wrap_printf
.LVL4:
	.loc 1 255 0
	add	r0, sp, #40
	bl	strlen
.LVL5:
	add	r3, sp, #40
	str	r0, [sp]
	movs	r2, #255
	ldr	r1, .L12+8
	ldr	r0, .L12+16
	bl	__wrap_printf
.LVL6:
	.loc 1 257 0
	add	r0, sp, #40
	bl	strlen
.LVL7:
	cmp	r0, #12
	bls	.L5
	.loc 1 258 0
	ldr	r4, .L12+20
	add	r3, sp, #40
	ldmia	r3!, {r0, r1, r2}
	str	r0, [r4, #14]	@ unaligned
	str	r1, [r4, #18]	@ unaligned
	str	r2, [r4, #22]	@ unaligned
.L6:
	.loc 1 262 0
	ldr	r0, .L12+24
	bl	__wrap_printf
.LVL8:
	ldr	r4, .L12+28
.LBB10:
	.loc 1 265 0
	ldr	r6, .L12+32
	add	r5, r4, #26
.LVL9:
.L7:
	.loc 1 265 0 is_stmt 0 discriminator 3
	ldrb	r1, [r4, #1]!	@ zero_extendqisi2
.LVL10:
	mov	r0, r6
	bl	__wrap_printf
.LVL11:
	.loc 1 263 0 is_stmt 1 discriminator 3
	cmp	r4, r5
	bne	.L7
.LBE10:
	.loc 1 267 0
	ldr	r0, .L12+24
	bl	__wrap_printf
.LVL12:
	.loc 1 276 0
	movs	r0, #7
	.loc 1 268 0
	movs	r3, #0
	.loc 1 269 0
	movs	r4, #1
.LVL13:
	.loc 1 278 0
	mov	r7, #352
	.loc 1 279 0
	mov	r6, #384
	.loc 1 284 0
	movs	r5, #3
	.loc 1 294 0
	add	r2, sp, #40
	.loc 1 276 0
	strb	r0, [sp, #12]
	.loc 1 294 0
	movs	r1, #40
	movw	r0, #546
	.loc 1 268 0
	strh	r3, [sp, #18]	@ movhi
	.loc 1 273 0
	strb	r3, [sp, #10]
	.loc 1 274 0
	strb	r3, [sp, #11]
	.loc 1 275 0
	str	r3, [sp, #32]
	.loc 1 277 0
	strb	r3, [sp, #13]
	.loc 1 288 0
	strb	r3, [sp, #16]
	.loc 1 289 0
	str	r3, [sp, #28]
	.loc 1 275 0
	strh	r3, [sp, #36]	@ movhi
	.loc 1 269 0
	strb	r4, [sp, #9]
	.loc 1 282 0
	strb	r4, [sp, #14]
	.loc 1 283 0
	strh	r4, [sp, #24]	@ movhi
	.loc 1 290 0
	strb	r4, [sp, #17]
	.loc 1 291 0
	strh	r4, [sp, #26]	@ movhi
	.loc 1 278 0
	strh	r7, [sp, #20]	@ movhi
	.loc 1 279 0
	strh	r6, [sp, #22]	@ movhi
	.loc 1 284 0
	strb	r5, [sp, #15]
	.loc 1 294 0
	bl	le_set_gap_param
.LVL14:
	.loc 1 295 0
	add	r2, sp, #18
	movs	r1, #2
	movw	r0, #545
	bl	le_set_gap_param
.LVL15:
	.loc 1 296 0
	mov	r1, r4
	add	r2, sp, #9
	movw	r0, #547
	bl	le_set_gap_param
.LVL16:
	.loc 1 300 0
	mov	r1, r4
	add	r2, sp, #10
	movw	r0, #611
	bl	le_adv_set_param
.LVL17:
	.loc 1 301 0
	mov	r1, r4
	add	r2, sp, #11
	mov	r0, #612
	bl	le_adv_set_param
.LVL18:
	.loc 1 302 0
	add	r2, sp, #32
	movs	r1, #6
	movw	r0, #613
	bl	le_adv_set_param
.LVL19:
	.loc 1 303 0
	mov	r1, r4
	add	r2, sp, #12
	movw	r0, #614
	bl	le_adv_set_param
.LVL20:
	.loc 1 304 0
	mov	r1, r4
	add	r2, sp, #13
	movw	r0, #615
	bl	le_adv_set_param
.LVL21:
	.loc 1 305 0
	add	r2, sp, #20
	movs	r1, #2
	mov	r0, #616
	bl	le_adv_set_param
.LVL22:
	.loc 1 306 0
	add	r2, sp, #22
	movs	r1, #2
	movw	r0, #617
	bl	le_adv_set_param
.LVL23:
	.loc 1 307 0
	ldr	r2, .L12+20
	movs	r1, #26
	movw	r0, #609
	bl	le_adv_set_param
.LVL24:
	.loc 1 308 0
	ldr	r2, .L12+36
	movs	r1, #4
	movw	r0, #610
	bl	le_adv_set_param
.LVL25:
	.loc 1 311 0
	mov	r1, r4
	add	r2, sp, #14
	movw	r0, #514
	bl	gap_set_param
.LVL26:
	.loc 1 312 0
	add	r2, sp, #24
	movs	r1, #2
	movw	r0, #515
	bl	gap_set_param
.LVL27:
	.loc 1 313 0
	mov	r1, r4
	add	r2, sp, #15
	mov	r0, #516
	bl	gap_set_param
.LVL28:
	.loc 1 317 0
	add	r2, sp, #28
	movs	r1, #4
	movw	r0, #529
	bl	le_bond_set_param
.LVL29:
	.loc 1 318 0
	mov	r1, r4
	add	r2, sp, #16
	movw	r0, #530
	bl	le_bond_set_param
.LVL30:
	.loc 1 320 0
	mov	r1, r4
	add	r2, sp, #17
	movw	r0, #531
	bl	le_bond_set_param
.LVL31:
	.loc 1 321 0
	add	r2, sp, #26
	movs	r1, #2
	mov	r0, #532
	bl	le_bond_set_param
.LVL32:
	.loc 1 325 0
	ldr	r0, .L12+40
	bl	le_register_app_cb
.LVL33:
	.loc 1 326 0
	add	sp, sp, #84
	.cfi_remember_state
	.cfi_def_cfa_offset 20
	@ sp needed
	pop	{r4, r5, r6, r7, pc}
.L5:
	.cfi_restore_state
	.loc 1 260 0
	mov	r2, r0
	add	r1, sp, #40
	ldr	r0, .L12+44
	bl	memcpy
.LVL34:
	b	.L6
.L11:
	.loc 1 246 0
	movs	r2, #246
	ldr	r1, .L12+8
	ldr	r0, .L12+48
	bl	__wrap_printf
.LVL35:
	.loc 1 247 0
	mov	r0, #1000
	bl	vTaskDelay
.LVL36:
	b	.L4
.L13:
	.align	2
.L12:
	.word	isEnvInitialized
	.word	.LC1
	.word	.LANCHOR0
	.word	.LC2
	.word	.LC3
	.word	.LANCHOR1
	.word	.LC4
	.word	.LANCHOR1-1
	.word	.LC5
	.word	.LANCHOR2
	.word	app_gap_callback
	.word	.LANCHOR1+14
	.word	.LC0
	.cfi_endproc
.LFE159:
	.size	app_le_gap_init, .-app_le_gap_init
	.section	.text.app_le_profile_init,"ax",%progbits
	.align	1
	.p2align 2,,3
	.global	app_le_profile_init
	.syntax unified
	.thumb
	.thumb_func
	.fpu softvfp
	.type	app_le_profile_init, %function
app_le_profile_init:
.LFB160:
	.loc 1 333 0
	.cfi_startproc
	@ args = 0, pretend = 0, frame = 0
	@ frame_needed = 0, uses_anonymous_args = 0
	push	{r4, lr}
	.cfi_def_cfa_offset 8
	.cfi_offset 4, -8
	.cfi_offset 14, -4
	.loc 1 336 0
	ldr	r4, .L16
	.loc 1 334 0
	movs	r0, #2
	bl	server_init
.LVL37:
	.loc 1 336 0
	mov	r0, r4
	bl	simp_ble_service_add_service
.LVL38:
	ldr	r3, .L16+4
	strb	r0, [r3]
	.loc 1 337 0
	mov	r0, r4
	bl	bas_add_service
.LVL39:
	ldr	r3, .L16+8
	strb	r0, [r3]
	.loc 1 338 0
	mov	r0, r4
	.loc 1 339 0
	pop	{r4, lr}
	.cfi_restore 14
	.cfi_restore 4
	.cfi_def_cfa_offset 0
	.loc 1 338 0
	b	server_register_app_cb
.LVL40:
.L17:
	.align	2
.L16:
	.word	app_profile_callback
	.word	simp_srv_id
	.word	bas_srv_id
	.cfi_endproc
.LFE160:
	.size	app_le_profile_init, .-app_le_profile_init
	.section	.text.board_init,"ax",%progbits
	.align	1
	.p2align 2,,3
	.global	board_init
	.syntax unified
	.thumb
	.thumb_func
	.fpu softvfp
	.type	board_init, %function
board_init:
.LFB171:
	.cfi_startproc
	@ args = 0, pretend = 0, frame = 0
	@ frame_needed = 0, uses_anonymous_args = 0
	@ link register save eliminated.
	bx	lr
	.cfi_endproc
.LFE171:
	.size	board_init, .-board_init
	.section	.text.driver_init,"ax",%progbits
	.align	1
	.p2align 2,,3
	.global	driver_init
	.syntax unified
	.thumb
	.thumb_func
	.fpu softvfp
	.type	driver_init, %function
driver_init:
.LFB169:
	.cfi_startproc
	@ args = 0, pretend = 0, frame = 0
	@ frame_needed = 0, uses_anonymous_args = 0
	@ link register save eliminated.
	bx	lr
	.cfi_endproc
.LFE169:
	.size	driver_init, .-driver_init
	.section	.text.pwr_mgr_init,"ax",%progbits
	.align	1
	.p2align 2,,3
	.global	pwr_mgr_init
	.syntax unified
	.thumb
	.thumb_func
	.fpu softvfp
	.type	pwr_mgr_init, %function
pwr_mgr_init:
.LFB163:
	.loc 1 368 0
	.cfi_startproc
	@ args = 0, pretend = 0, frame = 0
	@ frame_needed = 0, uses_anonymous_args = 0
	@ link register save eliminated.
	bx	lr
	.cfi_endproc
.LFE163:
	.size	pwr_mgr_init, .-pwr_mgr_init
	.section	.text.task_init,"ax",%progbits
	.align	1
	.p2align 2,,3
	.global	task_init
	.syntax unified
	.thumb
	.thumb_func
	.fpu softvfp
	.type	task_init, %function
task_init:
.LFB164:
	.loc 1 377 0
	.cfi_startproc
	@ args = 0, pretend = 0, frame = 0
	@ frame_needed = 0, uses_anonymous_args = 0
	@ link register save eliminated.
	.loc 1 378 0
	b	app_task_init
.LVL41:
	.cfi_endproc
.LFE164:
	.size	task_init, .-task_init
	.section	.text.ble_app_main,"ax",%progbits
	.align	1
	.p2align 2,,3
	.global	ble_app_main
	.syntax unified
	.thumb
	.thumb_func
	.fpu softvfp
	.type	ble_app_main, %function
ble_app_main:
.LFB165:
	.loc 1 386 0
	.cfi_startproc
	@ args = 0, pretend = 0, frame = 0
	@ frame_needed = 0, uses_anonymous_args = 0
	push	{r4, lr}
	.cfi_def_cfa_offset 8
	.cfi_offset 4, -8
	.cfi_offset 14, -4
	.loc 1 387 0
	bl	bt_coex_init
.LVL42:
	.loc 1 388 0
	bl	bt_trace_init
.LVL43:
.LBB21:
.LBB22:
	.loc 1 234 0
	movs	r0, #1
	bl	gap_config_max_le_link_num
.LVL44:
	.loc 1 235 0
	mov	r0, #280
.LBE22:
.LBE21:
.LBB24:
.LBB25:
	.loc 1 336 0
	ldr	r4, .L24
.LBE25:
.LBE24:
.LBB27:
.LBB23:
	.loc 1 235 0
	bl	gap_config_hci_task_secure_context
.LVL45:
.LBE23:
.LBE27:
	.loc 1 390 0
	bl	bte_init
.LVL46:
	.loc 1 392 0
	movs	r0, #1
	bl	le_gap_init
.LVL47:
	.loc 1 393 0
	bl	app_le_gap_init
.LVL48:
.LBB28:
.LBB26:
	.loc 1 334 0
	movs	r0, #2
	bl	server_init
.LVL49:
	.loc 1 336 0
	mov	r0, r4
	bl	simp_ble_service_add_service
.LVL50:
	ldr	r3, .L24+4
	strb	r0, [r3]
	.loc 1 337 0
	mov	r0, r4
	bl	bas_add_service
.LVL51:
	ldr	r3, .L24+8
	strb	r0, [r3]
	.loc 1 338 0
	mov	r0, r4
	bl	server_register_app_cb
.LVL52:
.LBE26:
.LBE28:
.LBB29:
.LBB30:
	.loc 1 378 0
	bl	app_task_init
.LVL53:
.LBE30:
.LBE29:
	.loc 1 399 0
	movs	r0, #0
	pop	{r4, pc}
.L25:
	.align	2
.L24:
	.word	app_profile_callback
	.word	simp_srv_id
	.word	bas_srv_id
	.cfi_endproc
.LFE165:
	.size	ble_app_main, .-ble_app_main
	.section	.text.ble_app_init,"ax",%progbits
	.align	1
	.p2align 2,,3
	.global	ble_app_init
	.syntax unified
	.thumb
	.thumb_func
	.fpu softvfp
	.type	ble_app_init, %function
ble_app_init:
.LFB166:
	.loc 1 403 0
	.cfi_startproc
	@ args = 0, pretend = 0, frame = 8
	@ frame_needed = 0, uses_anonymous_args = 0
	push	{lr}
	.cfi_def_cfa_offset 4
	.cfi_offset 14, -4
	sub	sp, sp, #12
	.cfi_def_cfa_offset 16
	.loc 1 409 0
	b	.L27
.L28:
	.loc 1 409 0 is_stmt 0 discriminator 1
	movs	r0, #1
	bl	wifi_is_up
.LVL54:
	cbnz	r0, .L32
	.loc 1 410 0 is_stmt 1
	mov	r0, #1000
	bl	vTaskDelay
.LVL55:
.L27:
	.loc 1 409 0
	movs	r0, #0
	bl	wifi_is_up
.LVL56:
	cmp	r0, #0
	beq	.L28
.L32:
	.loc 1 414 0
	add	r1, sp, #4
	mov	r0, #544
	bl	le_get_gap_param
.LVL57:
	.loc 1 415 0
	ldrb	r3, [sp, #4]	@ zero_extendqisi2
	lsls	r2, r3, #31
	bmi	.L40
.LBB39:
.LBB40:
	.loc 1 387 0
	bl	bt_coex_init
.LVL58:
	.loc 1 388 0
	bl	bt_trace_init
.LVL59:
.LBB41:
.LBB42:
	.loc 1 234 0
	movs	r0, #1
	bl	gap_config_max_le_link_num
.LVL60:
	.loc 1 235 0
	mov	r0, #280
	bl	gap_config_hci_task_secure_context
.LVL61:
.LBE42:
.LBE41:
	.loc 1 390 0
	bl	bte_init
.LVL62:
	.loc 1 392 0
	movs	r0, #1
	bl	le_gap_init
.LVL63:
	.loc 1 393 0
	bl	app_le_gap_init
.LVL64:
.LBB43:
.LBB44:
	.loc 1 334 0
	movs	r0, #2
	bl	server_init
.LVL65:
	.loc 1 336 0
	ldr	r0, .L41
	bl	simp_ble_service_add_service
.LVL66:
	ldr	r3, .L41+4
	strb	r0, [r3]
	.loc 1 337 0
	ldr	r0, .L41
	bl	bas_add_service
.LVL67:
	ldr	r3, .L41+8
	strb	r0, [r3]
	.loc 1 338 0
	ldr	r0, .L41
	bl	server_register_app_cb
.LVL68:
.LBE44:
.LBE43:
.LBB45:
.LBB46:
	.loc 1 378 0
	bl	app_task_init
.LVL69:
.LBE46:
.LBE45:
.LBE40:
.LBE39:
	.loc 1 423 0
	bl	bt_coex_init
.LVL70:
.L34:
	.loc 1 427 0 discriminator 1
	movs	r0, #100
	bl	vTaskDelay
.LVL71:
	.loc 1 428 0 discriminator 1
	add	r1, sp, #4
	mov	r0, #544
	bl	le_get_gap_param
.LVL72:
	.loc 1 429 0 discriminator 1
	ldrb	r3, [sp, #4]	@ zero_extendqisi2
	lsls	r3, r3, #31
	bpl	.L34
	.loc 1 432 0
	bl	wifi_btcoex_set_bt_on
.LVL73:
	.loc 1 435 0
	movs	r0, #0
	add	sp, sp, #12
	.cfi_remember_state
	.cfi_def_cfa_offset 4
	@ sp needed
	ldr	pc, [sp], #4
.L40:
	.cfi_restore_state
	.loc 1 417 0
	ldr	r0, .L41+12
	bl	__wrap_printf
.LVL74:
	.loc 1 435 0
	movs	r0, #0
	add	sp, sp, #12
	.cfi_def_cfa_offset 4
	@ sp needed
	ldr	pc, [sp], #4
.L42:
	.align	2
.L41:
	.word	app_profile_callback
	.word	simp_srv_id
	.word	bas_srv_id
	.word	.LC6
	.cfi_endproc
.LFE166:
	.size	ble_app_init, .-ble_app_init
	.section	.text.ble_app_deinit,"ax",%progbits
	.align	1
	.p2align 2,,3
	.global	ble_app_deinit
	.syntax unified
	.thumb
	.thumb_func
	.fpu softvfp
	.type	ble_app_deinit, %function
ble_app_deinit:
.LFB167:
	.loc 1 442 0
	.cfi_startproc
	@ args = 0, pretend = 0, frame = 8
	@ frame_needed = 0, uses_anonymous_args = 0
	push	{lr}
	.cfi_def_cfa_offset 4
	.cfi_offset 14, -4
	sub	sp, sp, #12
	.cfi_def_cfa_offset 16
	.loc 1 443 0
	bl	app_task_deinit
.LVL75:
	.loc 1 446 0
	add	r1, sp, #4
	mov	r0, #544
	bl	le_get_gap_param
.LVL76:
	.loc 1 447 0
	ldrb	r3, [sp, #4]	@ zero_extendqisi2
	lsls	r3, r3, #31
	bpl	.L47
	.loc 1 452 0
	bl	bte_deinit
.LVL77:
	.loc 1 453 0
	bl	bt_trace_uninit
.LVL78:
	.loc 1 454 0
	movs	r2, #0
	ldr	r3, .L48
	.loc 1 455 0
	ldr	r0, .L48+4
	.loc 1 454 0
	strb	r2, [r3]
	.loc 1 455 0
	bl	__wrap_printf
.LVL79:
	.loc 1 458 0
	add	sp, sp, #12
	.cfi_remember_state
	.cfi_def_cfa_offset 4
	@ sp needed
	ldr	pc, [sp], #4
.L47:
	.cfi_restore_state
	.loc 1 448 0
	ldr	r0, .L48+8
	bl	__wrap_printf
.LVL80:
	.loc 1 458 0
	add	sp, sp, #12
	.cfi_def_cfa_offset 4
	@ sp needed
	ldr	pc, [sp], #4
.L49:
	.align	2
.L48:
	.word	gap_dev_state
	.word	.LC8
	.word	.LC7
	.cfi_endproc
.LFE167:
	.size	ble_app_deinit, .-ble_app_deinit
	.comm	fatfs_flash,4152,4
	.section	.data.adv_data,"aw",%progbits
	.align	2
	.set	.LANCHOR1,. + 0
	.type	adv_data, %object
	.size	adv_data, 26
adv_data:
	.byte	2
	.byte	1
	.byte	5
	.byte	3
	.byte	3
	.byte	10
	.byte	-96
	.byte	18
	.byte	9
	.byte	76
	.byte	86
	.byte	80
	.byte	82
	.byte	58
	.byte	0
	.byte	0
	.byte	0
	.byte	0
	.byte	0
	.byte	0
	.byte	0
	.byte	0
	.byte	0
	.byte	0
	.byte	0
	.byte	0
	.section	.rodata.__func__.9653,"a",%progbits
	.align	2
	.set	.LANCHOR0,. + 0
	.type	__func__.9653, %object
	.size	__func__.9653, 16
__func__.9653:
	.ascii	"app_le_gap_init\000"
	.section	.rodata.app_le_gap_init.str1.4,"aMS",%progbits,1
	.align	2
.LC0:
	.ascii	"%s:%d:Waiting for env to init\012\000"
	.space	1
.LC1:
	.ascii	"friendlyname\000"
	.space	3
.LC2:
	.ascii	"%s:%d:Friendlyname in ble is=%s\012\000"
	.space	3
.LC3:
	.ascii	"%s:%d:Friendlyname=%s strlen=%d\012\000"
	.space	3
.LC4:
	.ascii	"\012\000"
	.space	2
.LC5:
	.ascii	"%02x \000"
	.section	.rodata.ble_app_deinit.str1.4,"aMS",%progbits,1
	.align	2
.LC7:
	.ascii	"[BLE Peripheral]BT Stack is not running\012\015\000"
	.space	2
.LC8:
	.ascii	"[BLE Peripheral]BT Stack deinitalized\012\015\000"
	.section	.rodata.ble_app_init.str1.4,"aMS",%progbits,1
	.align	2
.LC6:
	.ascii	"[BLE Peripheral]BT Stack already on\012\015\000"
	.section	.rodata.scan_rsp_data,"a",%progbits
	.align	2
	.set	.LANCHOR2,. + 0
	.type	scan_rsp_data, %object
	.size	scan_rsp_data, 4
scan_rsp_data:
	.byte	3
	.byte	25
	.byte	0
	.byte	0
	.text
.Letext0:
	.file 2 "/cygdrive/d/PUYA/HE3/sdk-ameba-v7.1d/tools/arm-none-eabi-gcc/asdk/cygwin/newlib/arm-none-eabi/include/machine/_default_types.h"
	.file 3 "/cygdrive/d/PUYA/HE3/sdk-ameba-v7.1d/tools/arm-none-eabi-gcc/asdk/cygwin/newlib/lib/gcc/arm-none-eabi/6.5.0/include/stddef.h"
	.file 4 "/cygdrive/d/PUYA/HE3/sdk-ameba-v7.1d/tools/arm-none-eabi-gcc/asdk/cygwin/newlib/arm-none-eabi/include/sys/lock.h"
	.file 5 "/cygdrive/d/PUYA/HE3/sdk-ameba-v7.1d/tools/arm-none-eabi-gcc/asdk/cygwin/newlib/arm-none-eabi/include/sys/_types.h"
	.file 6 "/cygdrive/d/PUYA/HE3/sdk-ameba-v7.1d/tools/arm-none-eabi-gcc/asdk/cygwin/newlib/arm-none-eabi/include/sys/reent.h"
	.file 7 "<built-in>"
	.file 8 "/cygdrive/d/PUYA/HE3/sdk-ameba-v7.1d/tools/arm-none-eabi-gcc/asdk/cygwin/newlib/arm-none-eabi/include/sys/_stdint.h"
	.file 9 "/cygdrive/d/PUYA/HE3/sdk-ameba-v7.1d/tools/arm-none-eabi-gcc/asdk/cygwin/newlib/arm-none-eabi/include/time.h"
	.file 10 "../../../component/common/bluetooth/realtek/sdk/inc/bluetooth/gap/gap.h"
	.file 11 "../../../component/common/bluetooth/realtek/sdk/inc/bluetooth/gap/gap_le_types.h"
	.file 12 "../../../component/common/bluetooth/realtek/sdk/inc/bluetooth/gap/gap_storage_le.h"
	.file 13 "../../../component/common/bluetooth/realtek/sdk/inc/bluetooth/gap/gap_le.h"
	.file 14 "../../../component/common/bluetooth/realtek/sdk/inc/bluetooth/gap/gap_adv.h"
	.file 15 "../../../component/common/bluetooth/realtek/sdk/inc/bluetooth/gap/gap_bond_le.h"
	.file 16 "../../../component/common/bluetooth/realtek/sdk/inc/bluetooth/profile/profile_server.h"
	.file 17 "../../../component/common/bluetooth/realtek/sdk/inc/bluetooth/gap/gap_msg.h"
	.file 18 "../../../component/common/bluetooth/realtek/sdk/example/ble_peripheral/peripheral_app.h"
	.file 19 "/cygdrive/d/PUYA/HE3/sdk-ameba-v7.1d/tools/arm-none-eabi-gcc/asdk/cygwin/newlib/lib/gcc/arm-none-eabi/6.5.0/include/stdarg.h"
	.file 20 "/cygdrive/d/PUYA/HE3/sdk-ameba-v7.1d/tools/arm-none-eabi-gcc/asdk/cygwin/newlib/arm-none-eabi/include/stdio.h"
	.file 21 "/cygdrive/d/PUYA/HE3/sdk-ameba-v7.1d/tools/arm-none-eabi-gcc/asdk/cygwin/newlib/arm-none-eabi/include/stdlib.h"
	.file 22 "../../../component/soc/realtek/8710c/cmsis/rtl8710c/include/basic_types.h"
	.file 23 "../../../component/common/drivers/wlan/realtek/include/wifi_constants.h"
	.file 24 "../inc/FreeRTOSConfig.h"
	.file 25 "../../../component/soc/realtek/8710c/app/rtl_printf/include/log_buf.h"
	.file 26 "../../../component/soc/realtek/8710c/app/stdio_port/stdio_port.h"
	.file 27 "../../../component/soc/realtek/8710c/app/rtl_printf/include/printf_entry.h"
	.file 28 "../../../component/soc/realtek/8710c/app/rtl_printf/include/rt_printf.h"
	.file 29 "../../../component/soc/realtek/8710c/misc/utilities/include/utility.h"
	.file 30 "../../../component/os/freertos/freertos_v10.0.1/Source/portable/GCC/ARM_RTL8710C/portmacro.h"
	.file 31 "../../../component/common/drivers/wlan/realtek/src/osdep/wireless.h"
	.file 32 "../../../component/common/drivers/wlan/realtek/include/autoconf.h"
	.file 33 "../../../component/common/api/wifi/wifi_util.h"
	.file 34 "../../../component/common/network/lwip/lwip_v2.0.2/src/include/lwip/errno.h"
	.file 35 "../src/hoags/hoags_config.h"
	.file 36 "../../../component/common/file_system/fatfs/r0.10c/include/integer.h"
	.file 37 "../../../component/common/file_system/fatfs/r0.10c/include/ff.h"
	.file 38 "../../../component/common/file_system/fatfs/fatfs_flash_api.h"
	.file 39 "../src/hoags/env/include/env.h"
	.file 40 "../../../component/common/bluetooth/realtek/sdk/inc/stack/bte.h"
	.file 41 "../../../component/common/api/platform/platform_stdlib_rtl8710c.h"
	.file 42 "../../../component/common/bluetooth/realtek/sdk/inc/bluetooth/gap/gap_config.h"
	.file 43 "../../../component/common/bluetooth/realtek/sdk/inc/bluetooth/profile/server/simple_ble_service.h"
	.file 44 "../../../component/common/bluetooth/realtek/sdk/inc/bluetooth/profile/server/bas.h"
	.file 45 "../../../component/common/bluetooth/realtek/sdk/example/ble_peripheral/app_task.h"
	.file 46 "../../../component/common/bluetooth/realtek/sdk/board/amebaz2/src/rtk_coex.h"
	.file 47 "../../../component/common/bluetooth/realtek/sdk/inc/platform/trace_app.h"
	.file 48 "../../../component/common/api/wifi/wifi_conf.h"
	.file 49 "../../../component/os/freertos/freertos_v10.0.1/Source/include/task.h"
	.file 50 "/cygdrive/d/PUYA/HE3/sdk-ameba-v7.1d/tools/arm-none-eabi-gcc/asdk/cygwin/newlib/arm-none-eabi/include/string.h"