	.arch armv8-m.main
	.arch_extension dsp
	.eabi_attribute 20, 1
	.eabi_attribute 21, 1
	.eabi_attribute 23, 3
	.eabi_attribute 24, 1
	.eabi_attribute 25, 1
	.eabi_attribute 26, 1
	.eabi_attribute 30, 2
	.eabi_attribute 34, 1
	.eabi_attribute 18, 4
	.file	"cJSON.c"
	.text
.Ltext0:
	.cfi_sections	.debug_frame
	.section	.text.parse_hex4,"ax",%progbits
	.align	1
	.p2align 2,,3
	.syntax unified
	.thumb
	.thumb_func
	.fpu softvfp
	.type	parse_hex4, %function
parse_hex4:
.LFB9:
	.file 1 "../../../component/common/utilities/cJSON.c"
	.loc 1 141 0
	.cfi_startproc
	@ args = 0, pretend = 0, frame = 0
	@ frame_needed = 0, uses_anonymous_args = 0
	@ link register save eliminated.
.LVL0:
	.loc 1 143 0
	ldrb	r2, [r0]	@ zero_extendqisi2
	sub	r3, r2, #48
	uxtb	r1, r3
	cmp	r1, #9
	bls	.L3
	.loc 1 143 0 is_stmt 0 discriminator 2
	sub	r3, r2, #65
	cmp	r3, #5
	bhi	.L4
	.loc 1 143 0 discriminator 3
	sub	r3, r2, #55
.LVL1:
.L3:
	.loc 1 141 0 is_stmt 1
	push	{r4}
	.cfi_def_cfa_offset 4
	.cfi_offset 4, -4
	.loc 1 145 0
	ldrb	r2, [r0, #1]	@ zero_extendqisi2
	.loc 1 144 0
	lsls	r3, r3, #4
.LVL2:
	.loc 1 145 0
	sub	r1, r2, #48
	uxtb	r4, r1
	cmp	r4, #9
	bls	.L22
	.loc 1 145 0 is_stmt 0 discriminator 2
	sub	r1, r2, #65
	cmp	r1, #5
	bhi	.L8
	.loc 1 145 0 discriminator 3
	subs	r2, r2, #55
	add	r3, r3, r2
.LVL3:
.L7:
	.loc 1 147 0 is_stmt 1
	ldrb	r2, [r0, #2]	@ zero_extendqisi2
	.loc 1 146 0
	lsls	r3, r3, #4
.LVL4:
	.loc 1 147 0
	sub	r1, r2, #48
	uxtb	r4, r1
	cmp	r4, #9
	bhi	.L9
	.loc 1 147 0 is_stmt 0 discriminator 1
	add	r3, r3, r1
.LVL5:
.L10:
	.loc 1 149 0 is_stmt 1
	ldrb	r0, [r0, #3]	@ zero_extendqisi2
.LVL6:
	.loc 1 148 0
	lsls	r3, r3, #4
.LVL7:
	.loc 1 149 0
	sub	r2, r0, #48
	uxtb	r1, r2
	cmp	r1, #9
	bls	.L23
	.loc 1 149 0 is_stmt 0 discriminator 2
	sub	r2, r0, #65
	cmp	r2, #5
	bls	.L24
	.loc 1 149 0 discriminator 4
	sub	r2, r0, #97
	cmp	r2, #5
	bhi	.L17
	.loc 1 149 0 discriminator 5
	subs	r0, r0, #87
	add	r0, r0, r3
.LVL8:
	.loc 1 151 0 is_stmt 1 discriminator 5
	pop	{r4}
	.cfi_remember_state
	.cfi_restore 4
	.cfi_def_cfa_offset 0
	bx	lr
.LVL9:
.L22:
	.cfi_restore_state
	.loc 1 145 0 discriminator 1
	add	r3, r3, r1
.LVL10:
	b	.L7
.LVL11:
.L4:
	.cfi_def_cfa_offset 0
	.cfi_restore 4
	.loc 1 143 0 discriminator 4
	sub	r3, r2, #97
	cmp	r3, #5
	bhi	.L14
	.loc 1 143 0 is_stmt 0 discriminator 5
	sub	r3, r2, #87
.LVL12:
	b	.L3
.LVL13:
.L11:
	.cfi_def_cfa_offset 4
	.cfi_offset 4, -4
	.loc 1 147 0 is_stmt 1 discriminator 4
	sub	r1, r2, #97
	cmp	r1, #5
	bls	.L25
.LVL14:
.L17:
	.loc 1 143 0
	movs	r0, #0
	.loc 1 151 0
	pop	{r4}
	.cfi_remember_state
	.cfi_restore 4
	.cfi_def_cfa_offset 0
	bx	lr
.LVL15:
.L9:
	.cfi_restore_state
	.loc 1 147 0 discriminator 2
	sub	r1, r2, #65
	cmp	r1, #5
	bhi	.L11
	.loc 1 147 0 is_stmt 0 discriminator 3
	subs	r2, r2, #55
	add	r3, r3, r2
.LVL16:
	b	.L10
.LVL17:
.L23:
	.loc 1 149 0 is_stmt 1 discriminator 1
	adds	r0, r2, r3
.LVL18:
	.loc 1 151 0 discriminator 1
	pop	{r4}
	.cfi_remember_state
	.cfi_restore 4
	.cfi_def_cfa_offset 0
	bx	lr
.LVL19:
.L8:
	.cfi_restore_state
	.loc 1 145 0 discriminator 4
	sub	r1, r2, #97
	cmp	r1, #5
	bhi	.L17
	.loc 1 145 0 is_stmt 0 discriminator 5
	subs	r2, r2, #87
	add	r3, r3, r2
.LVL20:
	b	.L7
.LVL21:
.L25:
	.loc 1 147 0 is_stmt 1 discriminator 5
	subs	r2, r2, #87
	add	r3, r3, r2
.LVL22:
	b	.L10
.LVL23:
.L14:
	.cfi_def_cfa_offset 0
	.cfi_restore 4
	.loc 1 143 0
	movs	r0, #0
.LVL24:
	bx	lr
.LVL25:
.L24:
	.cfi_def_cfa_offset 4
	.cfi_offset 4, -4
	.loc 1 149 0 discriminator 3
	subs	r0, r0, #55
	add	r0, r0, r3
.LVL26:
	.loc 1 151 0 discriminator 3
	pop	{r4}
	.cfi_restore 4
	.cfi_def_cfa_offset 0
	bx	lr
	.cfi_endproc
.LFE9:
	.size	parse_hex4, .-parse_hex4
	.section	.text.print_string_ptr,"ax",%progbits
	.align	1
	.p2align 2,,3
	.syntax unified
	.thumb
	.thumb_func
	.fpu softvfp
	.type	print_string_ptr, %function
print_string_ptr:
.LFB11:
	.loc 1 216 0
	.cfi_startproc
	@ args = 0, pretend = 0, frame = 0
	@ frame_needed = 0, uses_anonymous_args = 0
.LVL27:
	push	{r3, r4, r5, r6, r7, r8, r9, lr}
	.cfi_def_cfa_offset 32
	.cfi_offset 3, -32
	.cfi_offset 4, -28
	.cfi_offset 5, -24
	.cfi_offset 6, -20
	.cfi_offset 7, -16
	.cfi_offset 8, -12
	.cfi_offset 9, -8
	.cfi_offset 14, -4
	.loc 1 219 0
	mov	r5, r0
	cmp	r0, #0
	beq	.L27
.LVL28:
	.loc 1 220 0 discriminator 8
	ldrb	r4, [r0]	@ zero_extendqisi2
.LVL29:
	movs	r0, #3
.LVL30:
	cbz	r4, .L29
	.loc 1 220 0 is_stmt 0 discriminator 9
	mov	r7, r5
	movs	r6, #0
	ldr	r8, .L71+4
	b	.L33
.LVL31:
.L34:
	.loc 1 220 0 discriminator 2
	ldrb	r4, [r7, #1]!	@ zero_extendqisi2
.LVL32:
	adds	r6, r6, #2
.LVL33:
	cbz	r4, .L67
.LVL34:
.L33:
	.loc 1 220 0 discriminator 9
	mov	r1, r4
	mov	r0, r8
	bl	strchr
.LVL35:
	cmp	r0, #0
	bne	.L34
	.loc 1 220 0 discriminator 3
	cmp	r4, #31
	ldrb	r4, [r7, #1]!	@ zero_extendqisi2
.LVL36:
	ite	hi
	addhi	r6, r6, #1
.LVL37:
	addls	r6, r6, #6
.LVL38:
	cmp	r4, #0
	bne	.L33
.L67:
	adds	r0, r6, #3
.LVL39:
.L29:
	.loc 1 222 0 is_stmt 1
	ldr	r3, .L71
	ldr	r3, [r3]
	blx	r3
.LVL40:
	.loc 1 223 0
	mov	r7, r0
	cbz	r0, .L26
.LVL41:
	.loc 1 226 0
	movs	r3, #34
	adds	r5, r5, #1
.LVL42:
	strb	r3, [r0]
	adds	r4, r0, #1
.LVL43:
	.loc 1 232 0
	movs	r6, #92
	.loc 1 238 0
	mov	r9, #102
	.loc 1 242 0
	ldr	r8, .L71+8
	.loc 1 227 0
	b	.L36
.LVL44:
.L69:
	.loc 1 229 0 discriminator 1
	cmp	r3, #34
	beq	.L37
	.loc 1 229 0 is_stmt 0 discriminator 2
	cmp	r3, #92
	beq	.L37
.LVL45:
	.loc 1 229 0 discriminator 3
	strb	r3, [r4]
	adds	r4, r4, #1
.LVL46:
.L38:
	adds	r5, r5, #1
.LVL47:
.L36:
	.loc 1 227 0 is_stmt 1
	ldrb	r3, [r5, #-1]	@ zero_extendqisi2
	cbz	r3, .L68
	.loc 1 229 0
	cmp	r3, #31
	bhi	.L69
.L37:
.LVL48:
	.loc 1 232 0
	strb	r6, [r4]
.LVL49:
	.loc 1 233 0
	ldrb	r2, [r5, #-1]	@ zero_extendqisi2
.LVL50:
	cmp	r2, #12
	beq	.L40
	bhi	.L41
	cmp	r2, #9
	beq	.L42
	cmp	r2, #10
	beq	.L43
	cmp	r2, #8
	beq	.L70
.L39:
	.loc 1 242 0
	adds	r0, r4, #1
	mov	r1, r8
	bl	sprintf
.LVL51:
	adds	r4, r4, #6
.LVL52:
	b	.L38
.LVL53:
.L41:
	.loc 1 233 0
	cmp	r2, #34
	beq	.L45
	cmp	r2, #92
	beq	.L45
	cmp	r2, #13
	bne	.L39
.LVL54:
	.loc 1 240 0
	movs	r3, #114
	adds	r4, r4, #2
.LVL55:
	strb	r3, [r4, #-1]
	b	.L38
.LVL56:
.L45:
	.loc 1 236 0
	strb	r2, [r4, #1]
	adds	r4, r4, #2
.LVL57:
	b	.L38
.LVL58:
.L27:
.LBB106:
.LBB107:
	.loc 1 55 0
	ldr	r3, .L71
	movs	r0, #1
.LVL59:
	ldr	r3, [r3]
	blx	r3
.LVL60:
	mov	r7, r0
	cbz	r0, .L26
	.loc 1 56 0
	strb	r5, [r0]
.LVL61:
.L26:
.LBE107:
.LBE106:
	.loc 1 248 0
	mov	r0, r7
	pop	{r3, r4, r5, r6, r7, r8, r9, pc}
.LVL62:
.L68:
	.loc 1 246 0
	movs	r2, #34
	strb	r3, [r4, #1]
	strb	r2, [r4]
.LVL63:
	.loc 1 248 0
	mov	r0, r7
	pop	{r3, r4, r5, r6, r7, r8, r9, pc}
.LVL64:
.L40:
	.loc 1 238 0
	strb	r9, [r4, #1]
	adds	r4, r4, #2
.LVL65:
	b	.L38
.LVL66:
.L70:
	.loc 1 237 0
	movs	r3, #98
	adds	r4, r4, #2
.LVL67:
	strb	r3, [r4, #-1]
	b	.L38
.LVL68:
.L43:
	.loc 1 239 0
	movs	r3, #110
	adds	r4, r4, #2
.LVL69:
	strb	r3, [r4, #-1]
	b	.L38
.LVL70:
.L42:
	.loc 1 241 0
	movs	r3, #116
	adds	r4, r4, #2
.LVL71:
	strb	r3, [r4, #-1]
	b	.L38
.L72:
	.align	2
.L71:
	.word	.LANCHOR0
	.word	.LC0
	.word	.LC1
	.cfi_endproc
.LFE11:
	.size	print_string_ptr, .-print_string_ptr
	.section	.text.parse_string.isra.0,"ax",%progbits
	.align	1
	.p2align 2,,3
	.syntax unified
	.thumb
	.thumb_func
	.fpu softvfp
	.type	parse_string.isra.0, %function
parse_string.isra.0:
.LFB53:
	.loc 1 155 0
	.cfi_startproc
	@ args = 0, pretend = 0, frame = 8
	@ frame_needed = 0, uses_anonymous_args = 0
.LVL72:
	push	{r4, r5, r6, r7, r8, r9, lr}
	.cfi_def_cfa_offset 28
	.cfi_offset 4, -28
	.cfi_offset 5, -24
	.cfi_offset 6, -20
	.cfi_offset 7, -16
	.cfi_offset 8, -12
	.cfi_offset 9, -8
	.cfi_offset 14, -4
	.loc 1 158 0
	ldrb	r3, [r2]	@ zero_extendqisi2
.LVL73:
	.loc 1 155 0
	sub	sp, sp, #12
	.cfi_def_cfa_offset 40
	.loc 1 158 0
	cmp	r3, #34
	bne	.L74
	adds	r5, r2, #1
.LVL74:
	mov	r4, r5
	movs	r6, #0
.LVL75:
.L75:
	.loc 1 160 0
	ldrb	r3, [r4]	@ zero_extendqisi2
	cmp	r3, #34
	beq	.L77
.L126:
	cbz	r3, .L77
	cmp	r3, #92
	add	r6, r6, #1
.LVL76:
	beq	.L78
	adds	r4, r4, #1
.LVL77:
	ldrb	r3, [r4]	@ zero_extendqisi2
	cmp	r3, #34
	bne	.L126
.L77:
	.loc 1 162 0
	ldr	r3, .L130
	mov	r7, r0
	ldr	r3, [r3]
	adds	r0, r6, #1
	mov	r8, r1
	mov	r4, r2
.LVL78:
	blx	r3
.LVL79:
	.loc 1 163 0
	mov	r6, r0
.LVL80:
	cmp	r0, #0
	beq	.L108
	ldrb	r3, [r4, #1]	@ zero_extendqisi2
	mov	r4, r0
.LVL81:
	.loc 1 189 0
	ldr	r9, .L130+8
.LVL82:
.L80:
	.loc 1 166 0
	cmp	r3, #34
	beq	.L103
.L127:
	cbz	r3, .L103
	.loc 1 168 0
	cmp	r3, #92
	beq	.L81
.LVL83:
	strb	r3, [r4]
	ldrb	r3, [r5, #1]	@ zero_extendqisi2
	adds	r4, r4, #1
.LVL84:
	.loc 1 166 0
	cmp	r3, #34
	.loc 1 168 0
	add	r5, r5, #1
.LVL85:
	.loc 1 166 0
	bne	.L127
.L103:
	.loc 1 207 0
	movs	r3, #0
	strb	r3, [r4]
	.loc 1 208 0
	ldrb	r3, [r5]	@ zero_extendqisi2
	.loc 1 209 0
	str	r6, [r8]
	.loc 1 208 0
	cmp	r3, #34
	.loc 1 210 0
	mov	r3, #4
	.loc 1 208 0
	it	eq
	addeq	r5, r5, #1
.LVL86:
	.loc 1 210 0
	str	r3, [r7]
.LVL87:
.L73:
	.loc 1 212 0
	mov	r0, r5
	add	sp, sp, #12
	.cfi_remember_state
	.cfi_def_cfa_offset 28
	@ sp needed
	pop	{r4, r5, r6, r7, r8, r9, pc}
.LVL88:
.L90:
	.cfi_restore_state
	.loc 1 180 0
	adds	r0, r5, #2
	bl	parse_hex4
.LVL89:
	.loc 1 182 0
	sub	r3, r0, #56320
	cmp	r3, #1024
	.loc 1 180 0
	mov	r1, r0
.LVL90:
	add	r2, r5, #5
.LVL91:
	.loc 1 182 0
	bcc	.L124
	.loc 1 184 0
	sub	r3, r0, #55296
	.loc 1 182 0
	cmp	r0, #0
	beq	.L124
	.loc 1 184 0
	cmp	r3, #1024
	bcs	.L94
	.loc 1 186 0
	ldrb	r3, [r5, #6]	@ zero_extendqisi2
	cmp	r3, #92
	bne	.L91
	ldrb	r3, [r5, #7]	@ zero_extendqisi2
	cmp	r3, #117
	beq	.L95
	.loc 1 204 0
	adds	r5, r5, #6
.LVL92:
.L81:
	.loc 1 172 0
	ldrb	r1, [r5, #1]	@ zero_extendqisi2
	.loc 1 171 0
	adds	r2, r5, #1
.LVL93:
	.loc 1 172 0
	sub	r3, r1, #98
	cmp	r3, #19
	bhi	.L83
	adr	r0, .L85
	ldr	pc, [r0, r3, lsl #2]
	.p2align 2
.L85:
	.word	.L84+1
	.word	.L83+1
	.word	.L83+1
	.word	.L83+1
	.word	.L86+1
	.word	.L83+1
	.word	.L83+1
	.word	.L83+1
	.word	.L83+1
	.word	.L83+1
	.word	.L83+1
	.word	.L83+1
	.word	.L87+1
	.word	.L83+1
	.word	.L83+1
	.word	.L83+1
	.word	.L88+1
	.word	.L83+1
	.word	.L89+1
	.word	.L90+1
.LVL94:
	.p2align 1
.L78:
	.loc 1 160 0
	adds	r4, r4, #2
.LVL95:
	b	.L75
.LVL96:
.L89:
	.loc 1 178 0
	movs	r3, #9
	strb	r3, [r4]
	ldrb	r3, [r5, #2]	@ zero_extendqisi2
	adds	r4, r4, #1
.LVL97:
.L91:
	.loc 1 204 0
	adds	r5, r2, #1
.LVL98:
	b	.L80
.LVL99:
.L84:
	.loc 1 174 0
	movs	r3, #8
	strb	r3, [r4]
	ldrb	r3, [r5, #2]	@ zero_extendqisi2
	adds	r4, r4, #1
.LVL100:
	b	.L91
.LVL101:
.L87:
	.loc 1 176 0
	movs	r3, #10
	strb	r3, [r4]
	ldrb	r3, [r5, #2]	@ zero_extendqisi2
	adds	r4, r4, #1
.LVL102:
	b	.L91
.LVL103:
.L86:
	.loc 1 175 0
	movs	r3, #12
	strb	r3, [r4]
	ldrb	r3, [r5, #2]	@ zero_extendqisi2
	adds	r4, r4, #1
.LVL104:
	b	.L91
.LVL105:
.L88:
	.loc 1 177 0
	movs	r3, #13
	strb	r3, [r4]
	ldrb	r3, [r5, #2]	@ zero_extendqisi2
	adds	r4, r4, #1
.LVL106:
	b	.L91
.LVL107:
.L83:
	.loc 1 202 0
	strb	r1, [r4]
	ldrb	r3, [r5, #2]	@ zero_extendqisi2
	adds	r4, r4, #1
.LVL108:
	b	.L91
.LVL109:
.L124:
	ldrb	r3, [r5, #6]	@ zero_extendqisi2
	b	.L91
.LVL110:
.L74:
	.loc 1 158 0
	movs	r5, #0
	.loc 1 212 0
	mov	r0, r5
	.loc 1 158 0
	ldr	r3, .L130+4
	str	r2, [r3]
	.loc 1 212 0
	add	sp, sp, #12
	.cfi_remember_state
	.cfi_def_cfa_offset 28
	@ sp needed
	pop	{r4, r5, r6, r7, r8, r9, pc}
.LVL111:
.L94:
	.cfi_restore_state
	.loc 1 192 0
	cmp	r0, #127
	bls	.L99
	cmp	r0, #2048
	bcs	.L98
.LVL112:
	movs	r0, #1
.LVL113:
	movs	r3, #192
	adds	r4, r4, #2
.LVL114:
.L107:
	.loc 1 197 0
	and	r5, r1, #63
	orn	r5, r5, #127
	strb	r5, [r4, #-1]
	lsrs	r1, r1, #6
.LVL115:
	subs	r4, r4, #1
.LVL116:
.L106:
	.loc 1 198 0
	orrs	r3, r3, r1
	strb	r3, [r4, #-1]
	ldrb	r3, [r2, #1]	@ zero_extendqisi2
	.loc 1 200 0
	add	r4, r4, r0
.LVL117:
	b	.L91
.LVL118:
.L99:
	.loc 1 192 0
	movs	r0, #0
.LVL119:
	adds	r4, r4, #1
.LVL120:
	mov	r3, r0
	b	.L106
.LVL121:
.L108:
	.loc 1 163 0
	mov	r5, r0
	b	.L73
.LVL122:
.L95:
	str	r0, [sp, #4]
	.loc 1 187 0
	add	r0, r5, #8
.LVL123:
	bl	parse_hex4
.LVL124:
	.loc 1 188 0
	sub	r3, r0, #56320
	cmp	r3, #1024
	.loc 1 187 0
	add	r2, r5, #11
.LVL125:
	.loc 1 188 0
	ldr	r1, [sp, #4]
	bcs	.L128
.LVL126:
	.loc 1 189 0
	and	r1, r9, r1, lsl #10
.LVL127:
	ubfx	r0, r0, #0, #10
.LVL128:
	orrs	r0, r0, r1
	add	r1, r0, #65536
.LVL129:
.L98:
	.loc 1 192 0
	cmp	r1, #65536
	bcs	.L129
.LVL130:
	movs	r0, #2
	movs	r3, #224
	adds	r4, r4, #3
.LVL131:
.L105:
	.loc 1 196 0
	and	r5, r1, #63
	orn	r5, r5, #127
	strb	r5, [r4, #-1]
	lsrs	r1, r1, #6
.LVL132:
	subs	r4, r4, #1
.LVL133:
	b	.L107
.LVL134:
.L129:
	.loc 1 195 0
	and	r3, r1, #63
	orn	r3, r3, #127
	strb	r3, [r4, #3]
	lsrs	r1, r1, #6
.LVL135:
	adds	r4, r4, #3
.LVL136:
	movs	r0, #3
	movs	r3, #240
	b	.L105
.LVL137:
.L128:
	ldrb	r3, [r5, #12]	@ zero_extendqisi2
	b	.L91
.L131:
	.align	2
.L130:
	.word	.LANCHOR0
	.word	.LANCHOR1
	.word	1047552
	.cfi_endproc
.LFE53:
	.size	parse_string.isra.0, .-parse_string.isra.0
	.global	__aeabi_i2d
	.global	__aeabi_dsub
	.global	__aeabi_dcmple
	.global	__aeabi_dcmpge
	.global	__aeabi_dcmplt
	.global	__aeabi_dcmpgt
	.section	.text.print_value,"ax",%progbits
	.align	1
	.p2align 2,,3
	.syntax unified
	.thumb
	.thumb_func
	.fpu softvfp
	.type	print_value, %function
print_value:
.LFB19:
	.loc 1 303 0
	.cfi_startproc
	@ args = 0, pretend = 0, frame = 40
	@ frame_needed = 0, uses_anonymous_args = 0
.LVL138:
	push	{r4, r5, r6, r7, r8, r9, r10, fp, lr}
	.cfi_def_cfa_offset 36
	.cfi_offset 4, -36
	.cfi_offset 5, -32
	.cfi_offset 6, -28
	.cfi_offset 7, -24
	.cfi_offset 8, -20
	.cfi_offset 9, -16
	.cfi_offset 10, -12
	.cfi_offset 11, -8
	.cfi_offset 14, -4
	sub	sp, sp, #44
	.cfi_def_cfa_offset 80
	.loc 1 305 0
	cmp	r0, #0
	beq	.L287
	.loc 1 306 0
	ldrb	r4, [r0, #12]	@ zero_extendqisi2
	mov	fp, r1
	mov	r5, r2
	mov	r8, r0
	cmp	r4, #6
	bhi	.L287
	tbh	[pc, r4, lsl #1]
.L136:
	.2byte	(.L135-.L136)/2
	.2byte	(.L137-.L136)/2
	.2byte	(.L138-.L136)/2
	.2byte	(.L139-.L136)/2
	.2byte	(.L140-.L136)/2
	.2byte	(.L141-.L136)/2
	.2byte	(.L142-.L136)/2
	.p2align 1
.L142:
.LVL139:
.LBB124:
.LBB125:
	.loc 1 446 0
	ldr	r4, [r0, #8]
.LVL140:
	.loc 1 449 0
	cmp	r4, #0
	beq	.L169
	movs	r7, #0
	b	.L170
.LVL141:
.L202:
	mov	r7, r6
.LVL142:
.L170:
	ldr	r4, [r4]
.LVL143:
	adds	r6, r7, #1
.LVL144:
	cmp	r4, #0
	bne	.L202
	.loc 1 461 0
	ldr	r3, .L295+24
	lsl	r9, r6, #2
	str	r3, [sp, #4]
	mov	r0, r9
.LVL145:
	ldr	r3, [r3]
	blx	r3
.LVL146:
	.loc 1 462 0
	str	r0, [sp, #8]
	cmp	r0, #0
	beq	.L287
	.loc 1 463 0
	ldr	r3, [sp, #4]
	mov	r0, r9
.LVL147:
	ldr	r3, [r3]
	blx	r3
.LVL148:
	.loc 1 464 0
	str	r0, [sp, #12]
	cmp	r0, #0
	beq	.L288
	.loc 1 465 0
	mov	r2, r9
	mov	r1, r4
	ldr	r0, [sp, #8]
.LVL149:
	bl	memset
.LVL150:
	.loc 1 466 0
	mov	r2, r9
	mov	r1, r4
	ldr	r0, [sp, #12]
	bl	memset
.LVL151:
	.loc 1 469 0
	add	r3, fp, #1
	str	r3, [sp]
	ldr	r8, [r8, #8]
.LVL152:
	cmp	r5, #0
	beq	.L203
	add	r3, fp, #8
.LVL153:
	mov	r0, r3
.LVL154:
.L175:
	.loc 1 470 0
	cmp	r8, #0
	beq	.L176
	ldr	r2, [sp, #12]
	cmp	r5, #0
	sub	r2, r2, #4
	.loc 1 474 0
	add	r3, fp, #3
	it	eq
	moveq	r3, #0
	str	r2, [sp, #36]
	mov	r10, r2
	movs	r2, #0
	ldr	r1, [sp, #8]
	adds	r3, r3, #2
	subs	r1, r1, #4
	mov	r4, r8
	str	r6, [sp, #24]
	str	r1, [sp, #32]
	mov	r9, r1
	str	r2, [sp, #16]
	str	r7, [sp, #20]
	mov	r6, r0
.LVL155:
	str	fp, [sp, #28]
	mov	r8, r3
.LVL156:
	b	.L178
.LVL157:
.L290:
	cbz	r0, .L205
	bl	strlen
.LVL158:
	mov	fp, r0
	mov	r0, r7
	bl	strlen
.LVL159:
	add	r6, r6, r8
.LVL160:
	add	r6, r6, fp
	add	r6, r6, r0
.LVL161:
.L177:
	.loc 1 475 0
	ldr	r4, [r4]
.LVL162:
	.loc 1 470 0
	cmp	r4, #0
	beq	.L289
.LVL163:
.L178:
	.loc 1 472 0
	ldr	r0, [r4, #32]
	bl	print_string_ptr
.LVL164:
	.loc 1 473 0
	mov	r2, r5
	.loc 1 472 0
	str	r0, [r10, #4]!
	mov	r7, r0
.LVL165:
	.loc 1 473 0
	ldr	r1, [sp]
	mov	r0, r4
.LVL166:
	bl	print_value
.LVL167:
	str	r0, [r9, #4]!
	.loc 1 474 0
	cmp	r7, #0
	bne	.L290
.L205:
	movs	r3, #1
	str	r3, [sp, #16]
	b	.L177
.LVL168:
.L135:
.LBE125:
.LBE124:
.LBB129:
.LBB130:
	.loc 1 55 0
	ldr	r3, .L295+24
	movs	r0, #6
.LVL169:
	ldr	r3, [r3]
	blx	r3
.LVL170:
	mov	r4, r0
	cbz	r0, .L132
	.loc 1 56 0
	ldr	r3, .L295+28
	ldr	r0, [r3]
.LVL171:
	ldrh	r3, [r3, #4]	@ unaligned
	str	r0, [r4]	@ unaligned
	strh	r3, [r4, #4]	@ unaligned
.LVL172:
.L132:
.LBE130:
.LBE129:
	.loc 1 317 0
	mov	r0, r4
	add	sp, sp, #44
	.cfi_remember_state
	.cfi_def_cfa_offset 36
	@ sp needed
	pop	{r4, r5, r6, r7, r8, r9, r10, fp, pc}
.LVL173:
.L137:
	.cfi_restore_state
.LBB131:
.LBB132:
	.loc 1 55 0
	ldr	r3, .L295+24
	movs	r0, #5
.LVL174:
	ldr	r3, [r3]
	blx	r3
.LVL175:
	mov	r4, r0
	cmp	r0, #0
	beq	.L132
	.loc 1 56 0
	ldr	r3, .L295+32
	ldr	r0, [r3]
.LVL176:
	ldrb	r3, [r3, #4]	@ zero_extendqisi2
	str	r0, [r4]	@ unaligned
.LBE132:
.LBE131:
	.loc 1 317 0
	mov	r0, r4
.LBB134:
.LBB133:
	.loc 1 56 0
	strb	r3, [r4, #4]
.LBE133:
.LBE134:
	.loc 1 317 0
	add	sp, sp, #44
	.cfi_remember_state
	.cfi_def_cfa_offset 36
	@ sp needed
	pop	{r4, r5, r6, r7, r8, r9, r10, fp, pc}
.LVL177:
.L138:
	.cfi_restore_state
.LBB135:
.LBB136:
	.loc 1 55 0
	ldr	r3, .L295+24
	movs	r0, #5
.LVL178:
	ldr	r3, [r3]
	blx	r3
.LVL179:
	mov	r4, r0
	cmp	r0, #0
	beq	.L132
	.loc 1 56 0
	ldr	r3, .L295+36
	ldr	r0, [r3]
.LVL180:
	ldrb	r3, [r3, #4]	@ zero_extendqisi2
	str	r0, [r4]	@ unaligned
.LBE136:
.LBE135:
	.loc 1 317 0
	mov	r0, r4
.LBB138:
.LBB137:
	.loc 1 56 0
	strb	r3, [r4, #4]
.LBE137:
.LBE138:
	.loc 1 317 0
	add	sp, sp, #44
	.cfi_remember_state
	.cfi_def_cfa_offset 36
	@ sp needed
	pop	{r4, r5, r6, r7, r8, r9, r10, fp, pc}
.LVL181:
.L139:
	.cfi_restore_state
.LBB139:
.LBB140:
	.loc 1 122 0
	ldr	r0, [r0, #20]
.LVL182:
	bl	__aeabi_i2d
.LVL183:
	.loc 1 121 0
	ldr	r5, [r8, #24]
.LVL184:
	ldr	r6, [r8, #28]
.LVL185:
	.loc 1 122 0
	mov	r2, r5
	mov	r3, r6
	bl	__aeabi_dsub
.LVL186:
	bic	r3, r1, #-2147483648
	mov	r1, r3
	movs	r2, #0
	ldr	r3, .L295+40
	bl	__aeabi_dcmple
.LVL187:
	cmp	r0, #0
	beq	.L143
	adr	r3, .L295
	ldrd	r2, [r3]
	mov	r0, r5
	mov	r1, r6
	bl	__aeabi_dcmple
.LVL188:
	cmp	r0, #0
	beq	.L143
	mov	r0, r5
	mov	r1, r6
	movs	r2, #0
	ldr	r3, .L295+44
	bl	__aeabi_dcmpge
.LVL189:
	cmp	r0, #0
	beq	.L143
	.loc 1 124 0
	ldr	r3, .L295+24
	movs	r0, #21
	ldr	r3, [r3]
	blx	r3
.LVL190:
	.loc 1 125 0
	mov	r4, r0
	cmp	r0, #0
	beq	.L132
	ldr	r2, [r8, #20]
	ldr	r1, .L295+48
	bl	sprintf
.LVL191:
	b	.L132
.LVL192:
.L140:
.LBE140:
.LBE139:
.LBB144:
.LBB145:
	.loc 1 250 0
	ldr	r0, [r0, #16]
.LVL193:
.LBE145:
.LBE144:
	.loc 1 317 0
	add	sp, sp, #44
	.cfi_remember_state
	.cfi_def_cfa_offset 36
	@ sp needed
	pop	{r4, r5, r6, r7, r8, r9, r10, fp, lr}
	.cfi_restore 14
	.cfi_restore 11
	.cfi_restore 10
	.cfi_restore 9
	.cfi_restore 8
	.cfi_restore 7
	.cfi_restore 6
	.cfi_restore 5
	.cfi_restore 4
	.cfi_def_cfa_offset 0
.LVL194:
.LBB147:
.LBB146:
	.loc 1 250 0
	b	print_string_ptr
.LVL195:
.L141:
	.cfi_restore_state
.LBE146:
.LBE147:
.LBB148:
.LBB149:
	.loc 1 352 0
	ldr	r1, [r0, #8]
.LVL196:
	.loc 1 356 0
	cmp	r1, #0
	beq	.L155
	movs	r7, #0
	b	.L156
.LVL197:
.L198:
	mov	r7, r6
.LVL198:
.L156:
	ldr	r1, [r1]
.LVL199:
	adds	r6, r7, #1
.LVL200:
	cmp	r1, #0
	bne	.L198
	.loc 1 365 0
	ldr	r3, .L295+24
	lsl	r10, r6, #2
	str	r3, [sp, #4]
	mov	r0, r10
.LVL201:
	ldr	r3, [r3]
	str	r1, [sp, #8]
	blx	r3
.LVL202:
	.loc 1 366 0
	ldr	r1, [sp, #8]
	str	r0, [sp]
	cmp	r0, #0
	beq	.L287
	.loc 1 367 0
	mov	r2, r10
	bl	memset
.LVL203:
	.loc 1 369 0
	ldr	r9, [r8, #8]
.LVL204:
	.loc 1 370 0
	cmp	r9, #0
	beq	.L199
	ldr	r3, [sp]
	add	fp, fp, #1
.LVL205:
	sub	r8, r3, #4
.LVL206:
	mov	r3, r9
	mov	r10, r8
	mov	r9, r7
.LVL207:
	mov	r7, r3
	b	.L160
.LVL208:
.L292:
	.loc 1 374 0
	adds	r4, r4, #2
	bl	strlen
.LVL209:
	cmp	r5, #0
	it	ne
	addne	r4, r4, #1
	.loc 1 375 0
	ldr	r7, [r7]
.LVL210:
	.loc 1 374 0
	add	r4, r4, r0
	mov	r0, r4
.LVL211:
	.loc 1 370 0
	cmp	r7, #0
	beq	.L291
.LVL212:
.L160:
	.loc 1 372 0
	mov	r2, r5
	mov	r1, fp
	mov	r0, r7
	bl	print_value
.LVL213:
	.loc 1 373 0
	str	r0, [r10, #4]!
	.loc 1 374 0
	cmp	r0, #0
	bne	.L292
.LVL214:
.L159:
	.loc 1 356 0
	movs	r4, #0
	ldr	r9, .L295+56
.L162:
.LVL215:
	.loc 1 386 0
	ldr	r0, [r8, #4]!
	adds	r4, r4, #1
.LVL216:
	cbz	r0, .L161
	ldr	r3, [r9]
	blx	r3
.LVL217:
.L161:
	cmp	r6, r4
	bne	.L162
	.loc 1 387 0
	ldr	r3, [r9]
	ldr	r0, [sp]
	blx	r3
.LVL218:
	.loc 1 388 0
	movs	r4, #0
.LVL219:
	b	.L132
.LVL220:
.L143:
.LBE149:
.LBE148:
.LBB153:
.LBB141:
	.loc 1 129 0
	ldr	r3, .L295+24
	movs	r0, #64
	ldr	r3, [r3]
	blx	r3
.LVL221:
	.loc 1 130 0
	mov	r4, r0
	cmp	r0, #0
	beq	.L287
	.loc 1 132 0
	mov	r0, r5
.LVL222:
	mov	r1, r6
	bl	floor
.LVL223:
	mov	r2, r5
	mov	r3, r6
	bl	__aeabi_dsub
.LVL224:
	bic	r3, r1, #-2147483648
	mov	r1, r3
	movs	r2, #0
	ldr	r3, .L295+40
	bl	__aeabi_dcmple
.LVL225:
	cmp	r0, #0
	bne	.L293
	bic	r7, r6, #-2147483648
.L150:
	.loc 1 133 0
	mov	r0, r5
	adr	r3, .L295+8
	ldrd	r2, [r3]
	mov	r1, r7
	bl	__aeabi_dcmplt
.LVL226:
	cbnz	r0, .L152
	adr	r3, .L295+16
	ldrd	r2, [r3]
	mov	r0, r5
	mov	r1, r7
	bl	__aeabi_dcmpgt
.LVL227:
	cmp	r0, #0
	beq	.L278
.L152:
	mov	r2, r5
	mov	r3, r6
	ldr	r1, .L295+52
	mov	r0, r4
	bl	sprintf
.LVL228:
	b	.L132
.L296:
	.align	3
.L295:
	.word	-4194304
	.word	1105199103
	.word	-1598689907
	.word	1051772663
	.word	0
	.word	1104006501
	.word	.LANCHOR0
	.word	.LC3
	.word	.LC4
	.word	.LC2
	.word	1018167296
	.word	-1042284544
	.word	.LC5
	.word	.LC7
	.word	.LANCHOR2
.LVL229:
.L169:
.LBE141:
.LBE153:
.LBB154:
.LBB126:
	.loc 1 453 0
	ldr	r3, .L297+8
	ldr	r3, [r3]
	cmp	r2, #0
	beq	.L172
	adds	r0, r1, #4
.LVL230:
	blx	r3
.LVL231:
	.loc 1 454 0
	mov	r4, r0
.LVL232:
	cmp	r0, #0
	beq	.L287
.LVL233:
	.loc 1 455 0
	movs	r1, #123
	mov	r3, r0
	.loc 1 456 0
	movs	r2, #10
	cmp	fp, #1
	.loc 1 455 0
	strb	r1, [r3], #2
.LVL234:
	.loc 1 456 0
	strb	r2, [r0, #1]
	ble	.L195
	add	fp, fp, #-1
.LVL235:
	mov	r0, r3
.LVL236:
	mov	r2, fp
	movs	r1, #9
	bl	memset
.LVL237:
	mov	r3, r0
	add	r3, r3, fp
	b	.L195
.LVL238:
.L155:
.LBE126:
.LBE154:
.LBB155:
.LBB150:
	.loc 1 360 0
	ldr	r3, .L297+8
	movs	r0, #3
.LVL239:
	ldr	r3, [r3]
	blx	r3
.LVL240:
	.loc 1 361 0
	mov	r4, r0
	cmp	r0, #0
	beq	.L132
	ldr	r3, .L297+12
	ldrh	r2, [r3]	@ unaligned
	ldrb	r3, [r3, #2]	@ zero_extendqisi2
	strh	r2, [r0]	@ unaligned
	strb	r3, [r0, #2]
	b	.L132
.LVL241:
.L293:
.LBE150:
.LBE155:
.LBB156:
.LBB142:
	.loc 1 132 0
	bic	r7, r6, #-2147483648
	adr	r3, .L297
	ldrd	r2, [r3]
	mov	r0, r5
	mov	r1, r7
	bl	__aeabi_dcmplt
.LVL242:
	cmp	r0, #0
	beq	.L150
	mov	r2, r5
	mov	r3, r6
	ldr	r1, .L297+16
	mov	r0, r4
	bl	sprintf
.LVL243:
	b	.L132
.LVL244:
.L172:
.LBE142:
.LBE156:
.LBB157:
.LBB127:
	.loc 1 453 0
	movs	r0, #3
.LVL245:
	blx	r3
.LVL246:
	.loc 1 454 0
	mov	r4, r0
.LVL247:
	cmp	r0, #0
	beq	.L287
.LVL248:
	.loc 1 455 0
	movs	r2, #123
	adds	r3, r4, #1
.LVL249:
	strb	r2, [r4]
.LVL250:
.L195:
	.loc 1 457 0
	movs	r1, #125
	movs	r2, #0
	strb	r1, [r3]
.LVL251:
	strb	r2, [r3, #1]
	b	.L132
.LVL252:
.L288:
	.loc 1 464 0
	ldr	r3, .L297+20
	ldr	r0, [sp, #8]
.LVL253:
	ldr	r3, [r3]
	blx	r3
.LVL254:
	b	.L132
.LVL255:
.L289:
	.loc 1 479 0
	ldr	r3, [sp, #16]
	mov	r0, r6
	ldr	r7, [sp, #20]
.LVL256:
	ldr	r6, [sp, #24]
.LVL257:
	ldr	fp, [sp, #28]
	cmp	r3, #0
	beq	.L176
.LVL258:
.L180:
	.loc 1 474 0
	movs	r4, #0
	ldr	r7, [sp, #36]
	ldr	r5, [sp, #32]
.LVL259:
	ldr	r9, .L297+20
.L179:
.LVL260:
	.loc 1 485 0
	ldr	r0, [r7, #4]!
	adds	r4, r4, #1
.LVL261:
	cbz	r0, .L182
	ldr	r3, [r9]
	blx	r3
.LVL262:
.L182:
	ldr	r0, [r5, #4]!
	cbz	r0, .L183
	ldr	r3, [r9]
	blx	r3
.LVL263:
.L183:
	cmp	r6, r4
	bne	.L179
	.loc 1 486 0
	ldr	r0, [sp, #12]
	ldr	r3, [r9]
	blx	r3
.LVL264:
	ldr	r3, [r9]
	ldr	r0, [sp, #8]
	blx	r3
.LVL265:
.L287:
	.loc 1 487 0
	movs	r4, #0
	b	.L132
.LVL266:
.L278:
.LBE127:
.LBE157:
.LBB158:
.LBB143:
	.loc 1 134 0
	mov	r2, r5
	mov	r3, r6
	ldr	r1, .L297+24
	mov	r0, r4
	bl	sprintf
.LVL267:
	b	.L132
.LVL268:
.L291:
	mov	r7, r9
.LVL269:
.L158:
.LBE143:
.LBE158:
.LBB159:
.LBB151:
	.loc 1 379 0
	ldr	r3, [sp, #4]
	ldr	r3, [r3]
	blx	r3
.LVL270:
	.loc 1 381 0
	mov	r4, r0
	cmp	r0, #0
	beq	.L159
	.loc 1 392 0
	movs	r1, #91
	mov	r10, r4
	.loc 1 393 0
	movs	r2, #0
	.loc 1 392 0
	strb	r1, [r10], #1
.LVL271:
	.loc 1 393 0
	strb	r2, [r4, #1]
.LVL272:
	cbnz	r5, .L163
	.loc 1 397 0
	mov	fp, #44
	ldr	r9, .L297+20
.LVL273:
.L165:
	.loc 1 396 0
	ldr	r1, [r8, #4]
	mov	r0, r10
	bl	strcpy
.LVL274:
	ldr	r0, [r8, #4]
	bl	strlen
.LVL275:
	.loc 1 397 0
	cmp	r7, r5
	.loc 1 396 0
	add	r3, r10, r0
.LVL276:
	.loc 1 397 0
	beq	.L200
	mov	r2, #0
	strb	fp, [r10, r0]
	strb	r2, [r3, #1]
	add	r10, r3, #1
.LVL277:
.L164:
	.loc 1 394 0
	adds	r5, r5, #1
.LVL278:
	.loc 1 398 0
	ldr	r3, [r9]
	ldr	r0, [r8, #4]!
	blx	r3
.LVL279:
	.loc 1 394 0
	cmp	r5, r6
	bne	.L165
.LVL280:
.L166:
	.loc 1 400 0
	ldr	r2, [r9]
	ldr	r0, [sp]
	blx	r2
.LVL281:
	.loc 1 401 0
	movs	r1, #93
	movs	r2, #0
	strb	r1, [r10]
.LVL282:
	strb	r2, [r10, #1]
	b	.L132
.LVL283:
.L163:
	mov	r5, r8
.LVL284:
	.loc 1 394 0
	mov	fp, r2
	.loc 1 397 0
	mov	r8, #32
	ldr	r9, .L297+20
.LVL285:
.L168:
	.loc 1 396 0
	ldr	r1, [r5, #4]
	mov	r0, r10
	bl	strcpy
.LVL286:
	ldr	r0, [r5, #4]
	bl	strlen
.LVL287:
	.loc 1 397 0
	cmp	r7, fp
	.loc 1 396 0
	add	r3, r10, r0
.LVL288:
	.loc 1 397 0
	beq	.L201
	mov	r2, #44
	strb	r2, [r10, r0]
	mov	r2, #0
	strb	r8, [r3, #1]
	strb	r2, [r3, #2]
	add	r10, r3, #2
.LVL289:
.L167:
	.loc 1 394 0
	add	fp, fp, #1
.LVL290:
	.loc 1 398 0
	ldr	r3, [r9]
	ldr	r0, [r5, #4]!
	blx	r3
.LVL291:
	.loc 1 394 0
	cmp	r6, fp
	bne	.L168
	b	.L166
.LVL292:
.L203:
.LBE151:
.LBE159:
.LBB160:
.LBB128:
	.loc 1 445 0
	movs	r3, #7
.LVL293:
	mov	r0, r3
	b	.L175
.LVL294:
.L176:
	.loc 1 479 0
	ldr	r3, [sp, #4]
	ldr	r3, [r3]
	blx	r3
.LVL295:
	.loc 1 480 0
	mov	r4, r0
	cmp	r0, #0
	beq	.L294
.LVL296:
	.loc 1 491 0
	movs	r3, #123
	strb	r3, [r0]
.LVL297:
	cmp	r5, #0
	bne	.L184
	add	r8, r0, #1
.LVL298:
.L185:
	movs	r2, #0
	ldr	r3, [sp, #8]
	str	r4, [sp, #16]
	str	fp, [sp, #20]
	mov	r4, r3
	mov	fp, r2
	strb	r2, [r8]
.LVL299:
	str	r7, [sp, #4]
	ldr	r10, [sp, #12]
	mov	r7, r8
	ldr	r9, .L297+20
	mov	r8, r6
.LVL300:
	ldr	r6, [sp]
.LVL301:
.L189:
	.loc 1 494 0
	cmp	r5, #0
	beq	.L186
	cmp	r6, #0
	ble	.L187
	mov	r0, r7
	mov	r2, r6
	movs	r1, #9
	bl	memset
.LVL302:
	add	r7, r7, r6
.LVL303:
.L187:
	.loc 1 495 0
	ldr	r1, [r10]
	mov	r0, r7
	bl	strcpy
.LVL304:
	ldr	r0, [r10]
	bl	strlen
.LVL305:
	.loc 1 496 0
	mov	r3, #58
	movs	r1, #9
	.loc 1 495 0
	adds	r2, r7, r0
.LVL306:
	.loc 1 496 0
	strb	r3, [r7, r0]
	adds	r7, r2, #2
.LVL307:
	strb	r1, [r2, #1]
	.loc 1 497 0
	ldr	r1, [r4]
	mov	r0, r7
	bl	strcpy
.LVL308:
	ldr	r0, [r4]
	bl	strlen
.LVL309:
	.loc 1 498 0
	ldr	r3, [sp, #4]
	.loc 1 497 0
	add	r0, r0, r7
.LVL310:
	.loc 1 498 0
	cmp	r3, fp
	.loc 1 497 0
	it	eq
	moveq	r7, r0
	.loc 1 498 0
	beq	.L192
.L191:
	mov	r3, #44
	adds	r7, r0, #1
.LVL311:
	strb	r3, [r0]
	.loc 1 499 0
	cbz	r5, .L188
.LVL312:
.L192:
	mov	r3, #10
	adds	r7, r7, #1
.LVL313:
	strb	r3, [r7, #-1]
.LVL314:
.L188:
	movs	r2, #0
	strb	r2, [r7]
	.loc 1 500 0
	ldr	r0, [r10], #4
	ldr	r2, [r9]
	blx	r2
.LVL315:
	.loc 1 492 0
	add	fp, fp, #1
.LVL316:
	.loc 1 500 0
	ldr	r2, [r9]
	ldr	r0, [r4], #4
	blx	r2
.LVL317:
	.loc 1 492 0
	cmp	r8, fp
	bne	.L189
	.loc 1 503 0
	add	r0, sp, #12
.LVL318:
	ldm	r0, {r0, r4, fp}
.LVL319:
	ldr	r2, [r9]
	blx	r2
.LVL320:
	ldr	r2, [r9]
	ldr	r0, [sp, #8]
	mov	r8, r7
	blx	r2
.LVL321:
	.loc 1 504 0
	cbz	r5, .L190
.LVL322:
	cmp	fp, #0
	ble	.L190
	mov	r2, fp
	movs	r1, #9
	mov	r0, r7
	bl	memset
.LVL323:
	add	r8, r8, fp
.LVL324:
.L190:
	.loc 1 505 0
	movs	r1, #125
	movs	r2, #0
	strb	r1, [r8]
.LVL325:
	strb	r2, [r8, #1]
	b	.L132
.LVL326:
.L186:
	.loc 1 495 0
	ldr	r1, [r10]
	mov	r0, r7
	bl	strcpy
.LVL327:
	ldr	r0, [r10]
	bl	strlen
.LVL328:
	.loc 1 496 0
	mov	r3, #58
	.loc 1 495 0
	adds	r2, r7, r0
.LVL329:
	.loc 1 496 0
	strb	r3, [r7, r0]
	adds	r7, r2, #1
.LVL330:
	.loc 1 497 0
	mov	r0, r7
	ldr	r1, [r4]
	bl	strcpy
.LVL331:
	ldr	r0, [r4]
	bl	strlen
.LVL332:
	.loc 1 498 0
	ldr	r3, [sp, #4]
	.loc 1 497 0
	add	r0, r0, r7
.LVL333:
	.loc 1 498 0
	cmp	r3, fp
	.loc 1 497 0
	it	eq
	moveq	r7, r0
	.loc 1 498 0
	bne	.L191
	b	.L188
.LVL334:
.L184:
	.loc 1 491 0
	movs	r3, #10
	add	r8, r0, #2
.LVL335:
	strb	r3, [r0, #1]
	b	.L185
.LVL336:
.L199:
	ldr	r3, [sp]
.LBE128:
.LBE160:
.LBB161:
.LBB152:
	.loc 1 370 0
	movs	r0, #5
	sub	r8, r3, #4
.LVL337:
	b	.L158
.LVL338:
.L200:
	.loc 1 396 0
	mov	r10, r3
	b	.L164
.L298:
	.align	3
.L297:
	.word	-456985788
	.word	1281616356
	.word	.LANCHOR0
	.word	.LC9
	.word	.LC6
	.word	.LANCHOR2
	.word	.LC8
.LVL339:
.L294:
	ldr	r3, [sp, #12]
	subs	r3, r3, #4
	str	r3, [sp, #36]
	ldr	r3, [sp, #8]
	subs	r3, r3, #4
	str	r3, [sp, #32]
	b	.L180
.LVL340:
.L201:
	mov	r10, r3
	b	.L167
.LBE152:
.LBE161:
	.cfi_endproc
.LFE19:
	.size	print_value, .-print_value
	.section	.text.cJSON_GetErrorPtr,"ax",%progbits
	.align	1
	.p2align 2,,3
	.global	cJSON_GetErrorPtr
	.syntax unified
	.thumb
	.thumb_func
	.fpu softvfp
	.type	cJSON_GetErrorPtr, %function
cJSON_GetErrorPtr:
.LFB1:
	.loc 1 37 0
	.cfi_startproc
	@ args = 0, pretend = 0, frame = 0
	@ frame_needed = 0, uses_anonymous_args = 0
	@ link register save eliminated.
	.loc 1 37 0
	ldr	r3, .L300
	ldr	r0, [r3]
	bx	lr
.L301:
	.align	2
.L300:
	.word	.LANCHOR1
	.cfi_endproc
.LFE1:
	.size	cJSON_GetErrorPtr, .-cJSON_GetErrorPtr
	.section	.text.cJSON_InitHooks,"ax",%progbits
	.align	1
	.p2align 2,,3
	.global	cJSON_InitHooks
	.syntax unified
	.thumb
	.thumb_func
	.fpu softvfp
	.type	cJSON_InitHooks, %function
cJSON_InitHooks:
.LFB4:
	.loc 1 61 0
	.cfi_startproc
	@ args = 0, pretend = 0, frame = 0
	@ frame_needed = 0, uses_anonymous_args = 0
	@ link register save eliminated.
.LVL341:
	.loc 1 62 0
	cbz	r0, .L309
	.loc 1 69 0
	ldm	r0, {r2, r3}
	ldr	r1, .L310
	.loc 1 68 0
	ldr	r0, .L310+4
.LVL342:
	.loc 1 69 0
	cmp	r3, #0
	it	eq
	moveq	r3, r1
	.loc 1 68 0
	cmp	r2, #0
	it	eq
	moveq	r2, r0
	.loc 1 69 0
	ldr	r1, .L310+8
	.loc 1 68 0
	ldr	r0, .L310+12
	.loc 1 69 0
	str	r3, [r1]
	.loc 1 68 0
	str	r2, [r0]
	bx	lr
.LVL343:
.L309:
	.loc 1 63 0
	ldr	r1, .L310+12
	ldr	r0, .L310+4
.LVL344:
	.loc 1 64 0
	ldr	r3, .L310+8
	ldr	r2, .L310
	.loc 1 63 0
	str	r0, [r1]
	.loc 1 64 0
	str	r2, [r3]
	.loc 1 65 0
	bx	lr
.L311:
	.align	2
.L310:
	.word	free
	.word	malloc
	.word	.LANCHOR2
	.word	.LANCHOR0
	.cfi_endproc
.LFE4:
	.size	cJSON_InitHooks, .-cJSON_InitHooks
	.section	.text.cJSON_Delete,"ax",%progbits
	.align	1
	.p2align 2,,3
	.global	cJSON_Delete
	.syntax unified
	.thumb
	.thumb_func
	.fpu softvfp
	.type	cJSON_Delete, %function
cJSON_Delete:
.LFB6:
	.loc 1 82 0
	.cfi_startproc
	@ args = 0, pretend = 0, frame = 48
	@ frame_needed = 0, uses_anonymous_args = 0
.LVL345:
	push	{r4, r5, r6, r7, r8, r9, r10, fp, lr}
	.cfi_def_cfa_offset 36
	.cfi_offset 4, -36
	.cfi_offset 5, -32
	.cfi_offset 6, -28
	.cfi_offset 7, -24
	.cfi_offset 8, -20
	.cfi_offset 9, -16
	.cfi_offset 10, -12
	.cfi_offset 11, -8
	.cfi_offset 14, -4
	sub	sp, sp, #52
	.cfi_def_cfa_offset 88
	.loc 1 84 0
	str	r0, [sp, #28]
	cmp	r0, #0
	beq	.L312
	ldr	r10, .L455
.LVL346:
.L385:
	.loc 1 87 0
	ldr	r1, [sp, #28]
	ldr	r3, [r1, #12]
	.loc 1 86 0
	ldr	r2, [r1]
	.loc 1 87 0
	lsls	r0, r3, #23
	.loc 1 86 0
	str	r2, [sp, #32]
.LVL347:
	.loc 1 87 0
	bmi	.L315
	.loc 1 87 0 is_stmt 0 discriminator 1
	ldr	r3, [r1, #8]
	str	r3, [sp, #16]
	cmp	r3, #0
	beq	.L383
.LVL348:
.L382:
.LBB178:
.LBB179:
	.loc 1 87 0
	ldr	r1, [sp, #16]
	.loc 1 86 0 is_stmt 1
	ldr	r2, [r1]
	.loc 1 87 0
	ldr	r3, [r1, #12]
	.loc 1 86 0
	str	r2, [sp, #36]
.LVL349:
	.loc 1 87 0
	lsls	r2, r3, #23
.LVL350:
	bmi	.L320
	ldr	r3, [r1, #8]
	str	r3, [sp, #20]
	cmp	r3, #0
	beq	.L380
.LVL351:
.L379:
.LBB180:
.LBB181:
	ldr	r1, [sp, #20]
	ldr	r3, [r1, #12]
	.loc 1 86 0
	ldr	r2, [r1]
	.loc 1 87 0
	lsls	r3, r3, #23
	.loc 1 86 0
	str	r2, [sp, #40]
.LVL352:
	.loc 1 87 0
	bmi	.L325
	ldr	r3, [r1, #8]
	str	r3, [sp, #24]
	cmp	r3, #0
	beq	.L377
.LVL353:
.L376:
.LBB182:
.LBB183:
	ldr	r1, [sp, #24]
	ldr	r3, [r1, #12]
	.loc 1 86 0
	ldr	r2, [r1]
	.loc 1 87 0
	lsls	r7, r3, #23
	.loc 1 86 0
	str	r2, [sp, #44]
.LVL354:
	.loc 1 87 0
	bmi	.L330
	ldr	r3, [r1, #8]
	str	r3, [sp, #8]
	cmp	r3, #0
	beq	.L374
.LVL355:
.L373:
.LBB184:
.LBB185:
	ldr	r1, [sp, #8]
	ldr	r3, [r1, #12]
	.loc 1 86 0
	ldr	r2, [r1]
	.loc 1 87 0
	lsls	r6, r3, #23
	.loc 1 86 0
	str	r2, [sp, #12]
.LVL356:
	.loc 1 87 0
	bmi	.L335
	ldr	r8, [r1, #8]
	cmp	r8, #0
	beq	.L371
.LVL357:
.L370:
.LBB186:
.LBB187:
	ldr	r3, [r8, #12]
	.loc 1 86 0
	ldr	r2, [r8]
	.loc 1 87 0
	lsls	r5, r3, #23
	.loc 1 86 0
	str	r2, [sp, #4]
.LVL358:
	.loc 1 87 0
	bmi	.L340
	ldr	r6, [r8, #8]
	cmp	r6, #0
	beq	.L368
.LVL359:
.L367:
.LBB188:
.LBB189:
	ldr	r3, [r6, #12]
	.loc 1 86 0
	ldr	fp, [r6]
.LVL360:
	.loc 1 87 0
	lsls	r4, r3, #23
	bmi	.L345
	ldr	r5, [r6, #8]
	cmp	r5, #0
	beq	.L365
	mov	r9, r6
.LVL361:
.L364:
.LBB190:
.LBB191:
	ldr	r3, [r5, #12]
	.loc 1 86 0
	ldr	r6, [r5]
.LVL362:
	.loc 1 87 0
	lsls	r0, r3, #23
	bmi	.L350
	ldr	r4, [r5, #8]
	cbz	r4, .L362
.L361:
.LVL363:
.LBB192:
.LBB193:
	ldr	r3, [r4, #12]
	.loc 1 86 0
	ldr	r7, [r4]
.LVL364:
	.loc 1 87 0
	lsls	r1, r3, #23
	bmi	.L355
	ldr	r0, [r4, #8]
	cbz	r0, .L359
	bl	cJSON_Delete
.LVL365:
	.loc 1 88 0
	ldr	r3, [r4, #12]
	lsls	r2, r3, #23
	bmi	.L355
.L359:
	ldr	r0, [r4, #16]
	cbz	r0, .L355
	ldr	r3, [r10]
	blx	r3
.LVL366:
.L355:
	.loc 1 89 0
	ldr	r0, [r4, #32]
	cbz	r0, .L360
	ldr	r3, [r10]
	blx	r3
.LVL367:
.L360:
	.loc 1 90 0
	mov	r0, r4
	ldr	r3, [r10]
	blx	r3
.LVL368:
	mov	r4, r7
	.loc 1 84 0
	cmp	r7, #0
	bne	.L361
.LVL369:
.LBE193:
.LBE192:
	.loc 1 88 0
	ldr	r3, [r5, #12]
	lsls	r3, r3, #23
	bmi	.L350
.LVL370:
.L362:
	ldr	r0, [r5, #16]
	cbz	r0, .L350
	ldr	r3, [r10]
	blx	r3
.LVL371:
.L350:
	.loc 1 89 0
	ldr	r0, [r5, #32]
	cbz	r0, .L363
	ldr	r3, [r10]
	blx	r3
.LVL372:
.L363:
	.loc 1 90 0
	mov	r0, r5
	ldr	r3, [r10]
	blx	r3
.LVL373:
	mov	r5, r6
	.loc 1 84 0
	cmp	r6, #0
	bne	.L364
.LVL374:
.LBE191:
.LBE190:
	.loc 1 88 0
	ldr	r3, [r9, #12]
	mov	r6, r9
	lsls	r7, r3, #23
	bmi	.L345
.LVL375:
.L365:
	ldr	r0, [r6, #16]
	cbz	r0, .L345
	ldr	r3, [r10]
	blx	r3
.LVL376:
.L345:
	.loc 1 89 0
	ldr	r0, [r6, #32]
	cbz	r0, .L366
	ldr	r3, [r10]
	blx	r3
.LVL377:
.L366:
	.loc 1 90 0
	mov	r0, r6
	mov	r6, fp
.LVL378:
	ldr	r3, [r10]
	blx	r3
.LVL379:
	.loc 1 84 0
	cmp	r6, #0
	bne	.L367
.LVL380:
.LBE189:
.LBE188:
	.loc 1 88 0
	ldr	r3, [r8, #12]
	lsls	r5, r3, #23
	bmi	.L340
.LVL381:
.L368:
	ldr	r0, [r8, #16]
	cbz	r0, .L340
	ldr	r3, [r10]
	blx	r3
.LVL382:
.L340:
	.loc 1 89 0
	ldr	r0, [r8, #32]
	cbz	r0, .L369
	ldr	r3, [r10]
	blx	r3
.LVL383:
.L369:
	.loc 1 90 0
	mov	r0, r8
	ldr	r3, [r10]
	blx	r3
.LVL384:
	ldr	r8, [sp, #4]
	.loc 1 84 0
	cmp	r8, #0
	bne	.L370
.LBE187:
.LBE186:
	.loc 1 88 0
	ldr	r3, [sp, #8]
	ldr	r3, [r3, #12]
	lsls	r4, r3, #23
	bmi	.L335
.LVL385:
.L371:
	ldr	r3, [sp, #8]
	ldr	r0, [r3, #16]
	cbz	r0, .L335
	ldr	r3, [r10]
	blx	r3
.LVL386:
.L335:
	.loc 1 89 0
	ldr	r3, [sp, #8]
	ldr	r0, [r3, #32]
	cbz	r0, .L372
	ldr	r3, [r10]
	blx	r3
.LVL387:
.L372:
	.loc 1 90 0
	ldr	r3, [r10]
	ldr	r0, [sp, #8]
	blx	r3
.LVL388:
	ldr	r3, [sp, #12]
	str	r3, [sp, #8]
	.loc 1 84 0
	cmp	r3, #0
	bne	.L373
.LBE185:
.LBE184:
	.loc 1 88 0
	ldr	r3, [sp, #24]
	ldr	r3, [r3, #12]
	lsls	r0, r3, #23
	bmi	.L330
.LVL389:
.L374:
	ldr	r3, [sp, #24]
	ldr	r0, [r3, #16]
	cbz	r0, .L330
	ldr	r3, [r10]
	blx	r3
.LVL390:
.L330:
	.loc 1 89 0
	ldr	r3, [sp, #24]
	ldr	r0, [r3, #32]
	cbz	r0, .L375
	ldr	r3, [r10]
	blx	r3
.LVL391:
.L375:
	.loc 1 90 0
	ldr	r3, [r10]
	ldr	r0, [sp, #24]
	blx	r3
.LVL392:
	ldr	r3, [sp, #44]
	str	r3, [sp, #24]
	.loc 1 84 0
	cmp	r3, #0
	bne	.L376
.LBE183:
.LBE182:
	.loc 1 88 0
	ldr	r3, [sp, #20]
	ldr	r3, [r3, #12]
	lsls	r1, r3, #23
	bmi	.L325
.LVL393:
.L377:
	ldr	r3, [sp, #20]
	ldr	r0, [r3, #16]
	cbz	r0, .L325
	ldr	r3, [r10]
	blx	r3
.LVL394:
.L325:
	.loc 1 89 0
	ldr	r3, [sp, #20]
	ldr	r0, [r3, #32]
	cbz	r0, .L378
	ldr	r3, [r10]
	blx	r3
.LVL395:
.L378:
	.loc 1 90 0
	ldr	r3, [r10]
	ldr	r0, [sp, #20]
	blx	r3
.LVL396:
	ldr	r3, [sp, #40]
	str	r3, [sp, #20]
	.loc 1 84 0
	cmp	r3, #0
	bne	.L379
.LBE181:
.LBE180:
	.loc 1 88 0
	ldr	r3, [sp, #16]
	ldr	r3, [r3, #12]
	lsls	r2, r3, #23
	bmi	.L320
.LVL397:
.L380:
	ldr	r3, [sp, #16]
	ldr	r0, [r3, #16]
	cbz	r0, .L320
	ldr	r3, [r10]
	blx	r3
.LVL398:
.L320:
	.loc 1 89 0
	ldr	r3, [sp, #16]
	ldr	r0, [r3, #32]
	cbz	r0, .L381
	ldr	r3, [r10]
	blx	r3
.LVL399:
.L381:
	.loc 1 90 0
	ldr	r3, [r10]
	ldr	r0, [sp, #16]
	blx	r3
.LVL400:
	ldr	r3, [sp, #36]
	str	r3, [sp, #16]
	.loc 1 84 0
	cmp	r3, #0
	bne	.L382
.LBE179:
.LBE178:
	.loc 1 88 0
	ldr	r3, [sp, #28]
	ldr	r3, [r3, #12]
	lsls	r3, r3, #23
	bmi	.L315
.LVL401:
.L383:
	ldr	r3, [sp, #28]
	ldr	r0, [r3, #16]
	cbz	r0, .L315
	.loc 1 88 0 is_stmt 0 discriminator 2
	ldr	r3, [r10]
	blx	r3
.LVL402:
.L315:
	.loc 1 89 0 is_stmt 1
	ldr	r3, [sp, #28]
	ldr	r0, [r3, #32]
	cbz	r0, .L384
	.loc 1 89 0 is_stmt 0 discriminator 1
	ldr	r3, [r10]
	blx	r3
.LVL403:
.L384:
	.loc 1 90 0 is_stmt 1
	ldr	r3, [r10]
	ldr	r0, [sp, #28]
	blx	r3
.LVL404:
	.loc 1 84 0
	ldr	r3, [sp, #32]
	str	r3, [sp, #28]
	cmp	r3, #0
	bne	.L385
.LVL405:
.L312:
	.loc 1 93 0
	add	sp, sp, #52
	.cfi_def_cfa_offset 36
	@ sp needed
	pop	{r4, r5, r6, r7, r8, r9, r10, fp, pc}
.LVL406:
.L456:
	.align	2
.L455:
	.word	.LANCHOR2
	.cfi_endproc
.LFE6:
	.size	cJSON_Delete, .-cJSON_Delete
	.global	__aeabi_dmul
	.global	__aeabi_dadd
	.global	__aeabi_d2iz
	.section	.text.parse_number,"ax",%progbits
	.align	1
	.p2align 2,,3
	.global	parse_number
	.syntax unified
	.thumb
	.thumb_func
	.fpu softvfp
	.type	parse_number, %function
parse_number:
.LFB7:
	.loc 1 97 0
	.cfi_startproc
	@ args = 0, pretend = 0, frame = 8
	@ frame_needed = 0, uses_anonymous_args = 0
.LVL407:
	push	{r4, r5, r6, r7, r8, r9, r10, lr}
	.cfi_def_cfa_offset 32
	.cfi_offset 4, -32
	.cfi_offset 5, -28
	.cfi_offset 6, -24
	.cfi_offset 7, -20
	.cfi_offset 8, -16
	.cfi_offset 9, -12
	.cfi_offset 10, -8
	.cfi_offset 14, -4
	.loc 1 100 0
	ldrb	r3, [r1]	@ zero_extendqisi2
	.loc 1 97 0
	sub	sp, sp, #8
	.cfi_def_cfa_offset 40
	.loc 1 100 0
	cmp	r3, #45
	.loc 1 97 0
	mov	r4, r1
	mov	r10, r0
	.loc 1 100 0
	beq	.L479
	.loc 1 98 0
	movs	r1, #0
.LVL408:
	ldr	r2, .L484
	strd	r1, [sp]
.LVL409:
.L458:
	.loc 1 101 0
	cmp	r3, #48
	itt	eq
	ldrbeq	r3, [r4, #1]	@ zero_extendqisi2
	addeq	r4, r4, #1
.LVL410:
	.loc 1 102 0
	sub	r2, r3, #49
	cmp	r2, #8
	mov	r6, #0
	mov	r7, #0
	bhi	.L460
	.loc 1 102 0 is_stmt 0 discriminator 2
	mov	r8, #0
	ldrb	r5, [r4]	@ zero_extendqisi2
	ldr	r9, .L484+4
	subs	r5, r5, #48
.LVL411:
.L461:
	mov	r2, r8
	mov	r3, r9
	mov	r0, r6
	mov	r1, r7
	bl	__aeabi_dmul
.LVL412:
	mov	r6, r0
.LVL413:
	mov	r7, r1
	mov	r0, r5
	bl	__aeabi_i2d
.LVL414:
	mov	r2, r6
	mov	r3, r7
	bl	__aeabi_dadd
.LVL415:
	ldrb	r3, [r4, #1]!	@ zero_extendqisi2
.LVL416:
	mov	r6, r0
	sub	r5, r3, #48
	uxtb	r2, r5
	cmp	r2, #9
	mov	r7, r1
.LVL417:
	bls	.L461
.LVL418:
.L460:
	.loc 1 103 0 is_stmt 1
	cmp	r3, #46
	beq	.L480
	.loc 1 98 0
	mov	r8, #0
	mov	r9, #0
.LVL419:
.L462:
	.loc 1 104 0
	and	r3, r3, #223
	cmp	r3, #69
	bne	.L481
.LVL420:
	.loc 1 105 0
	ldrb	r3, [r4, #1]	@ zero_extendqisi2
	cmp	r3, #43
	beq	.L482
	.loc 1 105 0 is_stmt 0 discriminator 2
	cmp	r3, #45
	beq	.L468
	.loc 1 98 0 is_stmt 1
	movs	r1, #1
	.loc 1 105 0
	adds	r5, r4, #1
.LVL421:
.L467:
	.loc 1 106 0 discriminator 1
	subs	r3, r3, #48
	uxtb	r2, r3
	cmp	r2, #9
	it	ls
	movls	r0, #0
	bhi	.L483
.LVL422:
.L470:
	.loc 1 106 0 is_stmt 0 discriminator 2
	ldrb	r2, [r5, #1]!	@ zero_extendqisi2
.LVL423:
	add	r0, r0, r0, lsl #2
.LVL424:
	add	r0, r3, r0, lsl #1
.LVL425:
	sub	r3, r2, #48
	uxtb	r2, r3
	cmp	r2, #9
	bls	.L470
	mul	r0, r0, r1
.LVL426:
	bl	__aeabi_i2d
.LVL427:
	mov	r2, r8
	mov	r3, r9
	bl	__aeabi_dadd
.LVL428:
	mov	r8, r0
.LVL429:
	mov	r9, r1
.L463:
.LVL430:
	.loc 1 109 0 is_stmt 1
	ldrd	r0, [sp]
	mov	r2, r6
	mov	r3, r7
	bl	__aeabi_dmul
.LVL431:
	mov	r2, r8
	mov	r6, r0
.LVL432:
	mov	r7, r1
	mov	r3, r9
	movs	r0, #0
	ldr	r1, .L484+4
	bl	pow
.LVL433:
	mov	r2, r0
	mov	r3, r1
	mov	r0, r6
	mov	r1, r7
	bl	__aeabi_dmul
.LVL434:
	.loc 1 111 0
	strd	r0, [r10, #24]
	.loc 1 112 0
	bl	__aeabi_d2iz
.LVL435:
	.loc 1 113 0
	movs	r3, #3
	.loc 1 112 0
	str	r0, [r10, #20]
	.loc 1 115 0
	mov	r0, r5
	.loc 1 113 0
	str	r3, [r10, #12]
	.loc 1 115 0
	add	sp, sp, #8
	.cfi_remember_state
	.cfi_def_cfa_offset 32
.LVL436:
	@ sp needed
	pop	{r4, r5, r6, r7, r8, r9, r10, pc}
.LVL437:
.L481:
	.cfi_restore_state
	mov	r0, r8
	mov	r1, r9
	movs	r2, #0
	movs	r3, #0
	bl	__aeabi_dadd
.LVL438:
	.loc 1 104 0
	mov	r5, r4
	mov	r8, r0
.LVL439:
	mov	r9, r1
	b	.L463
.LVL440:
.L480:
	.loc 1 103 0 discriminator 1
	ldrb	r5, [r4, #1]	@ zero_extendqisi2
	subs	r5, r5, #48
	uxtb	r3, r5
	cmp	r3, #9
	bhi	.L474
	.loc 1 98 0 discriminator 3
	mov	r8, #0
	mov	r9, #0
	.loc 1 103 0 discriminator 3
	adds	r4, r4, #1
.LVL441:
.L464:
	.loc 1 103 0 is_stmt 0 discriminator 5
	movs	r2, #0
	ldr	r3, .L484+4
	mov	r0, r6
	mov	r1, r7
	bl	__aeabi_dmul
.LVL442:
	mov	r6, r0
.LVL443:
	mov	r7, r1
	mov	r0, r5
	bl	__aeabi_i2d
.LVL444:
	mov	r2, r6
	mov	r3, r7
	bl	__aeabi_dadd
.LVL445:
	movs	r2, #0
	ldr	r3, .L484
	mov	r6, r0
	mov	r7, r1
.LVL446:
	mov	r0, r8
	mov	r1, r9
	bl	__aeabi_dsub
.LVL447:
	ldrb	r3, [r4, #1]!	@ zero_extendqisi2
.LVL448:
	mov	r8, r0
.LVL449:
	sub	r5, r3, #48
	uxtb	r2, r5
	cmp	r2, #9
	mov	r9, r1
.LVL450:
	bls	.L464
	b	.L462
.LVL451:
.L479:
	ldrb	r3, [r1, #1]	@ zero_extendqisi2
	.loc 1 100 0 is_stmt 1 discriminator 1
	movs	r1, #0
.LVL452:
	ldr	r2, .L484+8
	adds	r4, r4, #1
.LVL453:
	strd	r1, [sp]
	b	.L458
.LVL454:
.L482:
	.loc 1 105 0 discriminator 1
	adds	r5, r4, #2
.LVL455:
	ldrb	r3, [r4, #2]	@ zero_extendqisi2
	.loc 1 98 0 discriminator 1
	movs	r1, #1
	b	.L467
.LVL456:
.L474:
	mov	r5, r4
	mov	r8, #0
	mov	r9, #0
	b	.L463
.LVL457:
.L468:
	.loc 1 105 0 discriminator 3
	mov	r1, #-1
	ldrb	r3, [r4, #2]	@ zero_extendqisi2
	adds	r5, r4, #2
.LVL458:
	b	.L467
.LVL459:
.L483:
	mov	r0, r8
	mov	r1, r9
.LVL460:
	movs	r2, #0
	movs	r3, #0
	bl	__aeabi_dadd
.LVL461:
	mov	r8, r0
.LVL462:
	mov	r9, r1
	b	.L463
.L485:
	.align	2
.L484:
	.word	1072693248
	.word	1076101120
	.word	-1074790400
	.cfi_endproc
.LFE7:
	.size	parse_number, .-parse_number
	.section	.text.parse_value.part.4,"ax",%progbits
	.align	1
	.p2align 2,,3
	.syntax unified
	.thumb
	.thumb_func
	.fpu softvfp
	.type	parse_value.part.4, %function
parse_value.part.4:
.LFB57:
	.loc 1 287 0
	.cfi_startproc
	@ args = 0, pretend = 0, frame = 0
	@ frame_needed = 0, uses_anonymous_args = 0
.LVL463:
	.loc 1 293 0
	ldrb	r3, [r1]	@ zero_extendqisi2
	cmp	r3, #34
	beq	.L717
	.loc 1 294 0
	cmp	r3, #45
	beq	.L488
	sub	r2, r3, #48
	cmp	r2, #9
	bls	.L488
	.loc 1 295 0
	cmp	r3, #91
	.loc 1 287 0
	push	{r4, r5, r6, r7, r8, r9, r10, lr}
	.cfi_def_cfa_offset 32
	.cfi_offset 4, -32
	.cfi_offset 5, -28
	.cfi_offset 6, -24
	.cfi_offset 7, -20
	.cfi_offset 8, -16
	.cfi_offset 9, -12
	.cfi_offset 10, -8
	.cfi_offset 14, -4
	mov	r6, r0
	.loc 1 295 0
	beq	.L718
	.loc 1 296 0
	cmp	r3, #123
	bne	.L518
.LVL464:
.LBB244:
.LBB245:
	.loc 1 411 0
	movs	r3, #6
.LBB246:
.LBB247:
	.loc 1 261 0
	adds	r4, r1, #1
.LVL465:
.LBE247:
.LBE246:
	.loc 1 411 0
	str	r3, [r0, #12]
.LBB249:
.LBB248:
	.loc 1 261 0
	beq	.L519
	ldrb	r2, [r1, #1]	@ zero_extendqisi2
	cbz	r2, .L523
	cmp	r2, #32
	bhi	.L521
	adds	r1, r1, #2
.LVL466:
	b	.L522
.LVL467:
.L719:
	ldrb	r2, [r1], #1	@ zero_extendqisi2
.LVL468:
	cbz	r2, .L523
	cmp	r2, #32
	bhi	.L521
.L522:
.LVL469:
	mov	r4, r1
.LVL470:
	cmp	r1, #0
	bne	.L719
.LVL471:
.L519:
.LBE248:
.LBE249:
	.loc 1 413 0
	movs	r3, #0
	ldrb	r3, [r3]	@ zero_extendqisi2
	.inst	0xdeff
.LVL472:
.L488:
	.cfi_def_cfa_offset 0
	.cfi_restore 4
	.cfi_restore 5
	.cfi_restore 6
	.cfi_restore 7
	.cfi_restore 8
	.cfi_restore 9
	.cfi_restore 10
	.cfi_restore 14
.LBE245:
.LBE244:
	.loc 1 294 0
	b	parse_number
.LVL473:
.L523:
	.cfi_def_cfa_offset 32
	.cfi_offset 4, -32
	.cfi_offset 5, -28
	.cfi_offset 6, -24
	.cfi_offset 7, -20
	.cfi_offset 8, -16
	.cfi_offset 9, -12
	.cfi_offset 10, -8
	.cfi_offset 14, -4
.LBB296:
.LBB291:
.LBB250:
.LBB251:
	.loc 1 75 0
	ldr	r5, .L745
	movs	r0, #40
.LVL474:
	ldr	r3, [r5]
	blx	r3
.LVL475:
	.loc 1 76 0
	mov	r10, r0
	cmp	r0, #0
	beq	.L497
	movs	r2, #40
	movs	r1, #0
	bl	memset
.LVL476:
.LBE251:
.LBE250:
	.loc 1 415 0
	str	r10, [r6, #8]
.LVL477:
.L524:
.LBB252:
.LBB253:
	.loc 1 261 0
	ldrb	r1, [r4]	@ zero_extendqisi2
	mov	r2, r4
.LVL478:
	subs	r1, r1, #1
	cmp	r1, #31
	add	r4, r4, #1
	bhi	.L525
.LVL479:
	cmp	r4, #0
	bne	.L524
	mov	r2, r4
.LVL480:
.L525:
.LBE253:
.LBE252:
	.loc 1 417 0
	add	r1, r10, #16
	add	r0, r10, #12
	bl	parse_string.isra.0
.LVL481:
.LBB254:
.LBB255:
	.loc 1 261 0
	cbz	r0, .L504
	ldrb	r3, [r0]	@ zero_extendqisi2
	subs	r3, r3, #1
	cmp	r3, #31
	bhi	.L527
	adds	r3, r0, #1
	b	.L528
.L720:
	ldrb	r2, [r3]	@ zero_extendqisi2
	adds	r3, r3, #1
	subs	r2, r2, #1
	cmp	r2, #31
	bhi	.L527
.L528:
.LVL482:
	mov	r0, r3
.LVL483:
	cmp	r3, #0
	bne	.L720
.LVL484:
.L504:
.LBE255:
.LBE254:
.LBE291:
.LBE296:
.LBB297:
.LBB298:
	.loc 1 332 0
	movs	r3, #0
.LBE298:
.LBE297:
	.loc 1 299 0
	mov	r0, r3
	pop	{r4, r5, r6, r7, r8, r9, r10, pc}
.LVL485:
.L518:
	.loc 1 298 0
	movs	r3, #0
	ldr	r2, .L745+4
	str	r1, [r2]
.LVL486:
.L486:
	.loc 1 299 0
	mov	r0, r3
	pop	{r4, r5, r6, r7, r8, r9, r10, pc}
.LVL487:
.L521:
.LBB335:
.LBB292:
	.loc 1 413 0
	cmp	r2, #125
	bne	.L523
.LVL488:
.L711:
	.loc 1 437 0
	adds	r3, r4, #1
	b	.L486
.LVL489:
.L527:
	.loc 1 419 0
	movs	r3, #0
	ldr	r2, [r10, #16]
	str	r3, [r10, #16]
	str	r2, [r10, #32]
	.loc 1 420 0
	ldrb	r2, [r0]	@ zero_extendqisi2
	cmp	r2, #58
	bne	.L559
.LVL490:
.LBB256:
.LBB257:
	.loc 1 261 0
	adds	r4, r0, #1
.LVL491:
	beq	.L504
	ldrb	r3, [r0, #1]	@ zero_extendqisi2
	subs	r3, r3, #1
	cmp	r3, #31
	bhi	.L529
	adds	r0, r0, #2
	b	.L530
.LVL492:
.L721:
	ldrb	r1, [r0]	@ zero_extendqisi2
	adds	r0, r0, #1
.LVL493:
	subs	r1, r1, #1
	cmp	r1, #31
	bhi	.L529
.L530:
.LVL494:
	mov	r4, r0
.LVL495:
	cmp	r0, #0
	bne	.L721
	b	.L504
.LVL496:
.L529:
.LBE257:
.LBE256:
.LBB258:
.LBB259:
	.loc 1 290 0
	movs	r2, #4
	ldr	r1, .L745+8
	mov	r0, r4
	bl	strncmp
.LVL497:
	cmp	r0, #0
	beq	.L722
	.loc 1 291 0
	movs	r2, #5
	ldr	r1, .L745+12
	mov	r0, r4
	bl	strncmp
.LVL498:
	cmp	r0, #0
	beq	.L723
	.loc 1 292 0
	movs	r2, #4
	ldr	r1, .L745+16
	mov	r0, r4
	bl	strncmp
.LVL499:
	cmp	r0, #0
	beq	.L724
	mov	r1, r4
	mov	r0, r10
	bl	parse_value.part.4
.LVL500:
	mov	r4, r0
.LVL501:
.L531:
.LBE259:
.LBE258:
.LBB263:
.LBB264:
	.loc 1 261 0
	cmp	r4, #0
	beq	.L504
	ldrb	r3, [r4]	@ zero_extendqisi2
	cmp	r3, #0
	beq	.L550
	cmp	r3, #32
	bhi	.L535
	adds	r2, r4, #1
	b	.L536
.LVL502:
.L725:
	ldrb	r3, [r2], #1	@ zero_extendqisi2
.LVL503:
	cmp	r3, #0
	beq	.L550
	cmp	r3, #32
	bhi	.L535
.L536:
.LVL504:
	mov	r4, r2
.LVL505:
	cmp	r2, #0
	bne	.L725
	b	.L504
.LVL506:
.L717:
	.cfi_def_cfa_offset 0
	.cfi_restore 4
	.cfi_restore 5
	.cfi_restore 6
	.cfi_restore 7
	.cfi_restore 8
	.cfi_restore 9
	.cfi_restore 10
	.cfi_restore 14
.LBE264:
.LBE263:
.LBE292:
.LBE335:
	.loc 1 293 0
	mov	r2, r1
	add	r1, r0, #16
.LVL507:
	adds	r0, r0, #12
.LVL508:
	b	parse_string.isra.0
.LVL509:
.L718:
	.cfi_def_cfa_offset 32
	.cfi_offset 4, -32
	.cfi_offset 5, -28
	.cfi_offset 6, -24
	.cfi_offset 7, -20
	.cfi_offset 8, -16
	.cfi_offset 9, -12
	.cfi_offset 10, -8
	.cfi_offset 14, -4
.LBB336:
.LBB330:
	.loc 1 325 0
	movs	r3, #5
.LBB299:
.LBB300:
	.loc 1 261 0
	adds	r4, r1, #1
.LVL510:
.LBE300:
.LBE299:
	.loc 1 325 0
	str	r3, [r0, #12]
.LBB302:
.LBB301:
	.loc 1 261 0
	beq	.L491
	ldrb	r3, [r1, #1]	@ zero_extendqisi2
	cmp	r3, #0
	beq	.L495
	cmp	r3, #32
	bhi	.L493
	adds	r1, r1, #2
.LVL511:
	b	.L494
.LVL512:
.L726:
	ldrb	r3, [r1], #1	@ zero_extendqisi2
.LVL513:
	cmp	r3, #0
	beq	.L495
	cmp	r3, #32
	bhi	.L493
.L494:
.LVL514:
	mov	r4, r1
.LVL515:
	cmp	r1, #0
	bne	.L726
.LVL516:
.L491:
.LBE301:
.LBE302:
	.loc 1 327 0
	movs	r3, #0
	ldrb	r3, [r3]	@ zero_extendqisi2
	.inst	0xdeff
.LVL517:
.L723:
.LBE330:
.LBE336:
.LBB337:
.LBB293:
.LBB265:
.LBB260:
	.loc 1 291 0
	str	r0, [r10, #12]
	adds	r4, r4, #5
.LVL518:
	b	.L531
.LVL519:
.L559:
.LBE260:
.LBE265:
.LBB266:
	.loc 1 432 0
	ldr	r2, .L745+4
	str	r0, [r2]
	b	.L486
.LVL520:
.L722:
.LBE266:
.LBB287:
.LBB261:
	.loc 1 290 0
	movs	r3, #2
	adds	r4, r4, #4
.LVL521:
	str	r3, [r10, #12]
	b	.L531
.LVL522:
.L497:
.LBE261:
.LBE287:
.LBE293:
.LBE337:
.LBB338:
.LBB331:
	.loc 1 329 0
	movs	r3, #0
	str	r3, [r6, #8]
	b	.L486
.LVL523:
.L535:
.LBE331:
.LBE338:
.LBB339:
.LBB294:
.LBB288:
.LBB267:
.LBB268:
	.loc 1 290 0
	ldr	r6, .L745+8
.LVL524:
	.loc 1 291 0
	ldr	r7, .L745+12
	.loc 1 292 0
	ldr	r8, .L745+16
.LVL525:
.L537:
.LBE268:
.LBE267:
.LBE288:
	.loc 1 424 0
	cmp	r3, #44
	bne	.L727
.LBB289:
.LBB271:
.LBB272:
	.loc 1 75 0
	ldr	r3, [r5]
	movs	r0, #40
	blx	r3
.LVL526:
	.loc 1 76 0
	mov	r9, r0
	cmp	r0, #0
	beq	.L504
	movs	r2, #40
	movs	r1, #0
	bl	memset
.LVL527:
.LBE272:
.LBE271:
.LBB273:
.LBB274:
	.loc 1 261 0
	adds	r2, r4, #1
.LBE274:
.LBE273:
	.loc 1 428 0
	str	r9, [r10]
	str	r10, [r9, #4]
.LVL528:
.LBB277:
.LBB275:
	.loc 1 261 0
	beq	.L538
	ldrb	r3, [r4, #1]	@ zero_extendqisi2
	subs	r3, r3, #1
	cmp	r3, #31
	bhi	.L538
	adds	r4, r4, #2
.LVL529:
	b	.L539
.LVL530:
.L728:
	ldrb	r1, [r4]	@ zero_extendqisi2
	adds	r4, r4, #1
	subs	r1, r1, #1
	cmp	r1, #31
	bhi	.L538
.L539:
.LVL531:
	mov	r2, r4
.LVL532:
	cmp	r4, #0
	bne	.L728
.LVL533:
.L538:
.LBE275:
.LBE277:
	.loc 1 429 0
	add	r1, r9, #16
	add	r0, r9, #12
	bl	parse_string.isra.0
.LVL534:
.LBB278:
.LBB279:
	.loc 1 261 0
	cmp	r0, #0
	beq	.L504
	ldrb	r3, [r0]	@ zero_extendqisi2
	subs	r3, r3, #1
	cmp	r3, #31
	bhi	.L540
	adds	r3, r0, #1
	b	.L541
.L729:
	ldrb	r2, [r3]	@ zero_extendqisi2
	adds	r3, r3, #1
	subs	r2, r2, #1
	cmp	r2, #31
	bhi	.L540
.L541:
.LVL535:
	mov	r0, r3
.LVL536:
	cmp	r3, #0
	bne	.L729
	b	.L504
.LVL537:
.L540:
.LBE279:
.LBE278:
	.loc 1 431 0
	movs	r3, #0
	ldr	r2, [r9, #16]
	str	r3, [r9, #16]
	str	r2, [r9, #32]
	.loc 1 432 0
	ldrb	r2, [r0]	@ zero_extendqisi2
	cmp	r2, #58
	bne	.L559
.LVL538:
.LBB280:
.LBB281:
	.loc 1 261 0
	adds	r4, r0, #1
.LVL539:
	beq	.L504
	ldrb	r3, [r0, #1]	@ zero_extendqisi2
	subs	r3, r3, #1
	cmp	r3, #31
	bhi	.L542
	adds	r0, r0, #2
	b	.L543
.LVL540:
.L730:
	ldrb	r3, [r0]	@ zero_extendqisi2
	adds	r0, r0, #1
.LVL541:
	subs	r3, r3, #1
	cmp	r3, #31
	bhi	.L542
.L543:
.LVL542:
	mov	r4, r0
.LVL543:
	cmp	r0, #0
	bne	.L730
	b	.L504
.LVL544:
.L542:
.LBE281:
.LBE280:
.LBB282:
.LBB269:
	.loc 1 290 0
	movs	r2, #4
	mov	r1, r6
	mov	r0, r4
	bl	strncmp
.LVL545:
	cbz	r0, .L731
	.loc 1 291 0
	movs	r2, #5
	mov	r1, r7
	mov	r0, r4
	bl	strncmp
.LVL546:
	cbz	r0, .L732
	.loc 1 292 0
	movs	r2, #4
	mov	r1, r8
	mov	r0, r4
	bl	strncmp
.LVL547:
	cbz	r0, .L733
	mov	r1, r4
	mov	r0, r9
	bl	parse_value.part.4
.LVL548:
	mov	r4, r0
.LVL549:
.L544:
.LBE269:
.LBE282:
.LBB283:
.LBB284:
	.loc 1 261 0
	cmp	r4, #0
	beq	.L504
	ldrb	r3, [r4]	@ zero_extendqisi2
	subs	r2, r3, #1
	cmp	r2, #31
	bhi	.L547
	adds	r2, r4, #1
	b	.L548
.LVL550:
.L734:
	ldrb	r3, [r2], #1	@ zero_extendqisi2
.LVL551:
	subs	r1, r3, #1
	cmp	r1, #31
	bhi	.L547
.L548:
.LVL552:
	mov	r4, r2
.LVL553:
	cmp	r2, #0
	bne	.L734
	b	.L504
.LVL554:
.L547:
.LBE284:
.LBE283:
.LBB285:
.LBB276:
	mov	r10, r9
	b	.L537
.LVL555:
.L731:
.LBE276:
.LBE285:
.LBB286:
.LBB270:
	.loc 1 290 0
	movs	r3, #2
	adds	r4, r4, #4
.LVL556:
	str	r3, [r9, #12]
	b	.L544
.LVL557:
.L732:
	.loc 1 291 0
	str	r0, [r9, #12]
	adds	r4, r4, #5
.LVL558:
	b	.L544
.LVL559:
.L733:
	.loc 1 292 0
	movs	r3, #1
	adds	r4, r4, #4
.LVL560:
	str	r3, [r9, #12]
	str	r3, [r9, #20]
	b	.L544
.LVL561:
.L493:
.LBE270:
.LBE286:
.LBE289:
.LBE294:
.LBE339:
.LBB340:
.LBB332:
	.loc 1 327 0
	cmp	r3, #93
	beq	.L711
.L495:
.LBB303:
.LBB304:
	.loc 1 75 0
	ldr	r5, .L745
	movs	r0, #40
.LVL562:
	ldr	r3, [r5]
	blx	r3
.LVL563:
	.loc 1 76 0
	mov	r7, r0
	cmp	r0, #0
	beq	.L497
	movs	r2, #40
	movs	r1, #0
	bl	memset
.LVL564:
.LBE304:
.LBE303:
	.loc 1 329 0
	str	r7, [r6, #8]
.LVL565:
	b	.L498
.L746:
	.align	2
.L745:
	.word	.LANCHOR0
	.word	.LANCHOR1
	.word	.LC2
	.word	.LC3
	.word	.LC4
.LVL566:
.L499:
.LBB305:
.LBB306:
	.loc 1 261 0
	cmp	r4, #0
	beq	.L504
.LVL567:
.L498:
	ldrb	r2, [r4]	@ zero_extendqisi2
	mov	r10, r4
.LVL568:
	subs	r2, r2, #1
	cmp	r2, #31
	add	r4, r4, #1
.LVL569:
	bls	.L499
.LVL570:
.LBE306:
.LBE305:
.LBB307:
.LBB308:
	.loc 1 290 0
	movs	r2, #4
	ldr	r1, .L747
	mov	r0, r10
	bl	strncmp
.LVL571:
	cmp	r0, #0
	beq	.L735
	.loc 1 291 0
	movs	r2, #5
	ldr	r1, .L747+4
	mov	r0, r10
	bl	strncmp
.LVL572:
	cmp	r0, #0
	beq	.L736
	.loc 1 292 0
	movs	r2, #4
	ldr	r1, .L747+8
	mov	r0, r10
	bl	strncmp
.LVL573:
	cmp	r0, #0
	beq	.L737
	mov	r1, r10
	mov	r0, r7
	bl	parse_value.part.4
.LVL574:
	mov	r10, r0
.LVL575:
.L501:
.LBE308:
.LBE307:
.LBB311:
.LBB312:
	.loc 1 261 0
	cmp	r10, #0
	beq	.L504
	ldrb	r2, [r10]	@ zero_extendqisi2
	cmp	r2, #0
	beq	.L517
	cmp	r2, #32
	bhi	.L506
	add	r3, r10, #1
	b	.L507
.LVL576:
.L738:
	ldrb	r2, [r3], #1	@ zero_extendqisi2
.LVL577:
	cmp	r2, #0
	beq	.L517
	cmp	r2, #32
	bhi	.L506
.L507:
.LVL578:
	mov	r10, r3
.LVL579:
	cmp	r3, #0
	bne	.L738
	b	.L504
.LVL580:
.L727:
.LBE312:
.LBE311:
.LBE332:
.LBE340:
.LBB341:
.LBB295:
	.loc 1 437 0
	cmp	r3, #125
	beq	.L711
.LVL581:
.L550:
	.loc 1 438 0
	ldr	r2, .L747+12
	movs	r3, #0
	str	r4, [r2]
	b	.L486
.LVL582:
.L724:
.LBB290:
.LBB262:
	.loc 1 292 0
	movs	r3, #1
	adds	r4, r4, #4
.LVL583:
	str	r3, [r10, #12]
	str	r3, [r10, #20]
	b	.L531
.LVL584:
.L735:
.LBE262:
.LBE290:
.LBE295:
.LBE341:
.LBB342:
.LBB333:
.LBB313:
.LBB309:
	.loc 1 290 0
	movs	r3, #2
	add	r10, r10, #4
.LVL585:
	str	r3, [r7, #12]
	b	.L501
.LVL586:
.L506:
.LBE309:
.LBE313:
.LBB314:
.LBB315:
.LBB316:
	ldr	r6, .L747
.LVL587:
	.loc 1 291 0
	ldr	r8, .L747+4
	.loc 1 292 0
	ldr	r9, .L747+8
.LVL588:
.L508:
.LBE316:
.LBE315:
.LBE314:
	.loc 1 334 0
	cmp	r2, #44
	bne	.L739
.LBB327:
.LBB319:
.LBB320:
	.loc 1 75 0
	ldr	r3, [r5]
	movs	r0, #40
	blx	r3
.LVL589:
	.loc 1 76 0
	mov	r4, r0
	cmp	r0, #0
	beq	.L504
	movs	r2, #40
	movs	r1, #0
	bl	memset
.LVL590:
.LBE320:
.LBE319:
	.loc 1 338 0
	str	r4, [r7]
	str	r7, [r4, #4]
.LVL591:
.LBB321:
.LBB322:
	.loc 1 261 0
	adds	r7, r10, #1
.LVL592:
	beq	.L504
	ldrb	r3, [r10, #1]	@ zero_extendqisi2
	subs	r3, r3, #1
	cmp	r3, #31
	bhi	.L509
	add	r3, r10, #2
	b	.L510
.LVL593:
.L740:
	ldrb	r2, [r3]	@ zero_extendqisi2
	adds	r3, r3, #1
.LVL594:
	subs	r2, r2, #1
	cmp	r2, #31
	bhi	.L509
.L510:
.LVL595:
	mov	r7, r3
.LVL596:
	cmp	r3, #0
	bne	.L740
	b	.L504
.LVL597:
.L509:
.LBE322:
.LBE321:
.LBB323:
.LBB317:
	.loc 1 290 0
	movs	r2, #4
	mov	r1, r6
	mov	r0, r7
	bl	strncmp
.LVL598:
	cbz	r0, .L741
	.loc 1 291 0
	movs	r2, #5
	mov	r1, r8
	mov	r0, r7
	bl	strncmp
.LVL599:
	cbz	r0, .L742
	.loc 1 292 0
	movs	r2, #4
	mov	r1, r9
	mov	r0, r7
	bl	strncmp
.LVL600:
	cbz	r0, .L743
	mov	r1, r7
	mov	r0, r4
	bl	parse_value.part.4
.LVL601:
	mov	r10, r0
.LVL602:
.L511:
.LBE317:
.LBE323:
.LBB324:
.LBB325:
	.loc 1 261 0
	cmp	r10, #0
	beq	.L504
	ldrb	r2, [r10]	@ zero_extendqisi2
	subs	r3, r2, #1
	cmp	r3, #31
	bhi	.L514
	add	r3, r10, #1
	b	.L515
.LVL603:
.L744:
	ldrb	r2, [r3], #1	@ zero_extendqisi2
.LVL604:
	subs	r1, r2, #1
	cmp	r1, #31
	bhi	.L514
.L515:
.LVL605:
	mov	r10, r3
.LVL606:
	cmp	r3, #0
	bne	.L744
	b	.L504
.LVL607:
.L514:
.LBE325:
.LBE324:
.LBE327:
.LBE333:
.LBE342:
	.loc 1 287 0
	mov	r7, r4
	b	.L508
.LVL608:
.L741:
.LBB343:
.LBB334:
.LBB328:
.LBB326:
.LBB318:
	.loc 1 290 0
	movs	r3, #2
	add	r10, r7, #4
.LVL609:
	str	r3, [r4, #12]
	b	.L511
.LVL610:
.L742:
	.loc 1 291 0
	str	r0, [r4, #12]
	add	r10, r7, #5
.LVL611:
	b	.L511
.LVL612:
.L743:
	.loc 1 292 0
	movs	r3, #1
	add	r10, r7, #4
.LVL613:
	str	r3, [r4, #12]
	str	r3, [r4, #20]
	b	.L511
.LVL614:
.L739:
.LBE318:
.LBE326:
.LBE328:
	.loc 1 343 0
	cmp	r2, #93
	bne	.L517
	add	r3, r10, #1
	b	.L486
.LVL615:
.L736:
.LBB329:
.LBB310:
	.loc 1 291 0
	str	r0, [r7, #12]
	add	r10, r10, #5
.LVL616:
	b	.L501
.LVL617:
.L737:
	.loc 1 292 0
	movs	r3, #1
	add	r10, r10, #4
.LVL618:
	str	r3, [r7, #12]
	str	r3, [r7, #20]
	b	.L501
.LVL619:
.L517:
.LBE310:
.LBE329:
	.loc 1 344 0
	ldr	r2, .L747+12
	movs	r3, #0
	str	r10, [r2]
	b	.L486
.L748:
	.align	2
.L747:
	.word	.LC2
	.word	.LC3
	.word	.LC4
	.word	.LANCHOR1
.LBE334:
.LBE343:
	.cfi_endproc
.LFE57:
	.size	parse_value.part.4, .-parse_value.part.4
	.section	.text.cJSON_ParseWithOpts,"ax",%progbits
	.align	1
	.p2align 2,,3
	.global	cJSON_ParseWithOpts
	.syntax unified
	.thumb
	.thumb_func
	.fpu softvfp
	.type	cJSON_ParseWithOpts, %function
cJSON_ParseWithOpts:
.LFB14:
	.loc 1 265 0
	.cfi_startproc
	@ args = 0, pretend = 0, frame = 0
	@ frame_needed = 0, uses_anonymous_args = 0
.LVL620:
.LBB352:
.LBB353:
	.loc 1 75 0
	ldr	r3, .L794
.LBE353:
.LBE352:
	.loc 1 265 0
	push	{r4, r5, r6, r7, r8, lr}
	.cfi_def_cfa_offset 24
	.cfi_offset 4, -24
	.cfi_offset 5, -20
	.cfi_offset 6, -16
	.cfi_offset 7, -12
	.cfi_offset 8, -8
	.cfi_offset 14, -4
.LBB357:
.LBB354:
	.loc 1 75 0
	ldr	r3, [r3]
.LBE354:
.LBE357:
	.loc 1 265 0
	mov	r4, r0
.LBB358:
.LBB355:
	.loc 1 75 0
	movs	r0, #40
.LVL621:
.LBE355:
.LBE358:
	.loc 1 265 0
	mov	r6, r1
	mov	r8, r2
.LBB359:
.LBB356:
	.loc 1 75 0
	blx	r3
.LVL622:
	.loc 1 76 0
	mov	r5, r0
	cmp	r0, #0
	beq	.L750
	movs	r2, #40
	movs	r1, #0
	bl	memset
.LVL623:
.LBE356:
.LBE359:
	.loc 1 268 0
	movs	r3, #0
	ldr	r7, .L794+4
	str	r3, [r7]
.LVL624:
.LBB360:
.LBB361:
	.loc 1 261 0
	cbz	r4, .L754
	ldrb	r3, [r4]	@ zero_extendqisi2
	subs	r3, r3, #1
	cmp	r3, #31
	bhi	.L753
	adds	r3, r4, #1
	b	.L755
.LVL625:
.L789:
	ldrb	r2, [r3]	@ zero_extendqisi2
	adds	r3, r3, #1
.LVL626:
	subs	r2, r2, #1
	cmp	r2, #31
	bhi	.L753
.L755:
.LVL627:
	mov	r4, r3
.LVL628:
	cmp	r3, #0
	bne	.L789
.LVL629:
.L754:
.LBE361:
.LBE360:
	.loc 1 272 0
	mov	r0, r5
	bl	cJSON_Delete
.LVL630:
	movs	r5, #0
.L749:
	.loc 1 278 0
	mov	r0, r5
	pop	{r4, r5, r6, r7, r8, pc}
.LVL631:
.L753:
.LBB362:
.LBB363:
	.loc 1 290 0
	movs	r2, #4
	ldr	r1, .L794+8
	mov	r0, r4
	bl	strncmp
.LVL632:
	cbz	r0, .L790
	.loc 1 291 0
	movs	r2, #5
	ldr	r1, .L794+12
	mov	r0, r4
	bl	strncmp
.LVL633:
	cbz	r0, .L791
	.loc 1 292 0
	movs	r2, #4
	ldr	r1, .L794+16
	mov	r0, r4
	bl	strncmp
.LVL634:
	cbz	r0, .L792
	mov	r1, r4
	mov	r0, r5
	bl	parse_value.part.4
.LVL635:
	mov	r4, r0
.LVL636:
.L756:
.LBE363:
.LBE362:
	.loc 1 272 0
	cmp	r4, #0
	beq	.L754
	.loc 1 275 0
	cmp	r8, #0
	beq	.L759
	mov	r3, r4
.L760:
	mov	r4, r3
.LVL637:
.LBB367:
.LBB368:
	.loc 1 261 0
	ldrb	r2, [r3], #1	@ zero_extendqisi2
.LVL638:
	cbz	r2, .L759
	cmp	r2, #32
	bhi	.L793
.LVL639:
	cmp	r3, #0
	bne	.L760
.LVL640:
.LBE368:
.LBE367:
	.loc 1 275 0
	ldrb	r3, [r3]	@ zero_extendqisi2
	.inst	0xdeff
.LVL641:
.L791:
.LBB369:
.LBB364:
	.loc 1 291 0
	str	r0, [r5, #12]
	adds	r4, r4, #5
.LVL642:
	b	.L756
.LVL643:
.L759:
.LBE364:
.LBE369:
	.loc 1 276 0
	cmp	r6, #0
	beq	.L749
	.loc 1 276 0 is_stmt 0 discriminator 1
	str	r4, [r6]
	.loc 1 278 0 is_stmt 1 discriminator 1
	mov	r0, r5
	pop	{r4, r5, r6, r7, r8, pc}
.LVL644:
.L790:
.LBB370:
.LBB365:
	.loc 1 290 0
	movs	r3, #2
	adds	r4, r4, #4
.LVL645:
	str	r3, [r5, #12]
	b	.L756
.LVL646:
.L750:
.LBE365:
.LBE370:
	.loc 1 268 0
	ldr	r3, .L794+4
	str	r0, [r3]
	.loc 1 278 0
	mov	r0, r5
	pop	{r4, r5, r6, r7, r8, pc}
.LVL647:
.L793:
	.loc 1 275 0
	mov	r0, r5
	bl	cJSON_Delete
.LVL648:
	movs	r5, #0
	str	r4, [r7]
	b	.L749
.LVL649:
.L792:
.LBB371:
.LBB366:
	.loc 1 292 0
	movs	r3, #1
	adds	r4, r4, #4
.LVL650:
	str	r3, [r5, #12]
	str	r3, [r5, #20]
	b	.L756
.L795:
	.align	2
.L794:
	.word	.LANCHOR0
	.word	.LANCHOR1
	.word	.LC2
	.word	.LC3
	.word	.LC4
.LBE366:
.LBE371:
	.cfi_endproc
.LFE14:
	.size	cJSON_ParseWithOpts, .-cJSON_ParseWithOpts
	.section	.text.cJSON_Parse,"ax",%progbits
	.align	1
	.p2align 2,,3
	.global	cJSON_Parse
	.syntax unified
	.thumb
	.thumb_func
	.fpu softvfp
	.type	cJSON_Parse, %function
cJSON_Parse:
.LFB15:
	.loc 1 280 0
	.cfi_startproc
	@ args = 0, pretend = 0, frame = 0
	@ frame_needed = 0, uses_anonymous_args = 0
.LVL651:
	push	{r3, r4, r5, lr}
	.cfi_def_cfa_offset 16
	.cfi_offset 3, -16
	.cfi_offset 4, -12
	.cfi_offset 5, -8
	.cfi_offset 14, -4
.LBB382:
.LBB383:
.LBB384:
.LBB385:
	.loc 1 75 0
	ldr	r3, .L824
.LBE385:
.LBE384:
.LBE383:
.LBE382:
	.loc 1 280 0
	mov	r4, r0
.LVL652:
.LBB402:
.LBB398:
.LBB387:
.LBB386:
	.loc 1 75 0
	ldr	r3, [r3]
	movs	r0, #40
.LVL653:
	blx	r3
.LVL654:
	.loc 1 76 0
	mov	r5, r0
	cmp	r0, #0
	beq	.L797
	movs	r2, #40
	movs	r1, #0
	bl	memset
.LVL655:
.LBE386:
.LBE387:
	.loc 1 268 0
	movs	r2, #0
	ldr	r3, .L824+4
	str	r2, [r3]
.LVL656:
.LBB388:
.LBB389:
	.loc 1 261 0
	cbz	r4, .L801
	ldrb	r3, [r4]	@ zero_extendqisi2
	subs	r3, r3, #1
	cmp	r3, #31
	bhi	.L800
	adds	r3, r4, #1
	b	.L802
.LVL657:
.L820:
	ldrb	r2, [r3]	@ zero_extendqisi2
	adds	r3, r3, #1
.LVL658:
	subs	r2, r2, #1
	cmp	r2, #31
	bhi	.L800
.L802:
.LVL659:
	mov	r4, r3
.LVL660:
	cmp	r3, #0
	bne	.L820
.LVL661:
.L801:
.LBE389:
.LBE388:
	.loc 1 272 0
	mov	r0, r5
	movs	r5, #0
	bl	cJSON_Delete
.LVL662:
.LBE398:
.LBE402:
	.loc 1 280 0
	mov	r0, r5
	pop	{r3, r4, r5, pc}
.LVL663:
.L800:
.LBB403:
.LBB399:
.LBB390:
.LBB391:
	.loc 1 290 0
	movs	r2, #4
	ldr	r1, .L824+8
	mov	r0, r4
	bl	strncmp
.LVL664:
	cbz	r0, .L821
	.loc 1 291 0
	movs	r2, #5
	ldr	r1, .L824+12
	mov	r0, r4
	bl	strncmp
.LVL665:
	cbz	r0, .L822
	.loc 1 292 0
	movs	r2, #4
	ldr	r1, .L824+16
	mov	r0, r4
	bl	strncmp
.LVL666:
	cbz	r0, .L823
	mov	r1, r4
	mov	r0, r5
	bl	parse_value.part.4
.LVL667:
.LBE391:
.LBE390:
	.loc 1 272 0
	cmp	r0, #0
	beq	.L801
.L819:
.LBE399:
.LBE403:
	.loc 1 280 0
	mov	r0, r5
	pop	{r3, r4, r5, pc}
.LVL668:
.L822:
.LBB404:
.LBB400:
.LBB395:
.LBB392:
	.loc 1 291 0
	str	r0, [r5, #12]
	adds	r0, r4, #5
.LVL669:
.LBE392:
.LBE395:
	.loc 1 272 0
	cmp	r0, #0
	bne	.L819
	b	.L801
.LVL670:
.L821:
.LBB396:
.LBB393:
	.loc 1 290 0
	movs	r3, #2
	adds	r0, r4, #4
	str	r3, [r5, #12]
.LVL671:
.LBE393:
.LBE396:
	.loc 1 272 0
	cmp	r0, #0
	bne	.L819
	b	.L801
.LVL672:
.L797:
	.loc 1 268 0
	ldr	r3, .L824+4
	str	r0, [r3]
.LBE400:
.LBE404:
	.loc 1 280 0
	mov	r0, r5
	pop	{r3, r4, r5, pc}
.LVL673:
.L823:
.LBB405:
.LBB401:
.LBB397:
.LBB394:
	.loc 1 292 0
	movs	r3, #1
	adds	r0, r4, #4
	str	r3, [r5, #12]
	str	r3, [r5, #20]
.LVL674:
.LBE394:
.LBE397:
	.loc 1 272 0
	cmp	r0, #0
	bne	.L819
	b	.L801
.L825:
	.align	2
.L824:
	.word	.LANCHOR0
	.word	.LANCHOR1
	.word	.LC2
	.word	.LC3
	.word	.LC4
.LBE401:
.LBE405:
	.cfi_endproc
.LFE15:
	.size	cJSON_Parse, .-cJSON_Parse
	.section	.text.cJSON_Print,"ax",%progbits
	.align	1
	.p2align 2,,3
	.global	cJSON_Print
	.syntax unified
	.thumb
	.thumb_func
	.fpu softvfp
	.type	cJSON_Print, %function
cJSON_Print:
.LFB16:
	.loc 1 283 0
	.cfi_startproc
	@ args = 0, pretend = 0, frame = 24
	@ frame_needed = 0, uses_anonymous_args = 0
.LVL675:
	push	{r4, r5, r6, r7, r8, r9, r10, fp, lr}
	.cfi_def_cfa_offset 36
	.cfi_offset 4, -36
	.cfi_offset 5, -32
	.cfi_offset 6, -28
	.cfi_offset 7, -24
	.cfi_offset 8, -20
	.cfi_offset 9, -16
	.cfi_offset 10, -12
	.cfi_offset 11, -8
	.cfi_offset 14, -4
	sub	sp, sp, #28
	.cfi_def_cfa_offset 64
.LBB422:
.LBB423:
	.loc 1 305 0
	cmp	r0, #0
	beq	.L948
	.loc 1 306 0
	ldrb	r4, [r0, #12]	@ zero_extendqisi2
	mov	r7, r0
	cmp	r4, #6
	bhi	.L948
	tbh	[pc, r4, lsl #1]
.L830:
	.2byte	(.L829-.L830)/2
	.2byte	(.L831-.L830)/2
	.2byte	(.L832-.L830)/2
	.2byte	(.L833-.L830)/2
	.2byte	(.L834-.L830)/2
	.2byte	(.L835-.L830)/2
	.2byte	(.L836-.L830)/2
	.p2align 1
.L836:
.LVL676:
.LBB424:
.LBB425:
	.loc 1 446 0
	ldr	r4, [r0, #8]
.LVL677:
	.loc 1 449 0
	cmp	r4, #0
	beq	.L859
	movs	r6, #0
	b	.L860
.LVL678:
.L881:
	mov	r6, r5
.LVL679:
.L860:
	ldr	r4, [r4]
.LVL680:
	adds	r5, r6, #1
.LVL681:
	cmp	r4, #0
	bne	.L881
	.loc 1 461 0
	ldr	r8, .L955+32
	lsl	r9, r5, #2
	ldr	r3, [r8]
	mov	r0, r9
.LVL682:
	blx	r3
.LVL683:
	.loc 1 462 0
	str	r0, [sp]
	cmp	r0, #0
	beq	.L948
	.loc 1 463 0
	ldr	r3, [r8]
	mov	r0, r9
.LVL684:
	blx	r3
.LVL685:
	.loc 1 464 0
	str	r0, [sp, #8]
	cmp	r0, #0
	beq	.L950
	.loc 1 465 0
	ldr	fp, [sp]
	mov	r2, r9
	mov	r1, r4
	mov	r0, fp
.LVL686:
	bl	memset
.LVL687:
	.loc 1 466 0
	ldr	r10, [sp, #8]
	mov	r2, r9
	mov	r1, r4
	mov	r0, r10
	bl	memset
.LVL688:
	.loc 1 469 0
	ldr	r9, [r7, #8]
.LVL689:
	.loc 1 470 0
	cmp	r9, #0
	beq	.L882
	sub	r3, r10, #4
	sub	r2, fp, #4
	str	r4, [sp, #4]
	str	r3, [sp, #16]
	str	r2, [sp, #12]
	mov	fp, r3
	mov	r10, r2
	movs	r7, #8
.LVL690:
	str	r5, [sp, #20]
	mov	r4, r9
	b	.L865
.LVL691:
.L952:
	.loc 1 474 0
	cbz	r0, .L884
	bl	strlen
.LVL692:
	mov	r9, r0
	mov	r0, r5
	bl	strlen
.LVL693:
	adds	r7, r7, #5
.LVL694:
	add	r7, r7, r9
.LVL695:
	add	r7, r7, r0
.LVL696:
.L864:
	.loc 1 475 0
	ldr	r4, [r4]
.LVL697:
	.loc 1 470 0
	cmp	r4, #0
	beq	.L951
.LVL698:
.L865:
	.loc 1 472 0
	ldr	r0, [r4, #32]
	bl	print_string_ptr
.LVL699:
	.loc 1 473 0
	movs	r2, #1
	.loc 1 472 0
	str	r0, [fp, #4]!
	mov	r5, r0
.LVL700:
	.loc 1 473 0
	mov	r1, r2
	mov	r0, r4
.LVL701:
	bl	print_value
.LVL702:
	str	r0, [r10, #4]!
	.loc 1 474 0
	cmp	r5, #0
	bne	.L952
.L884:
	movs	r3, #1
	str	r3, [sp, #4]
	b	.L864
.LVL703:
.L829:
.LBE425:
.LBE424:
.LBB430:
.LBB431:
	.loc 1 55 0
	ldr	r3, .L955+32
	movs	r0, #6
.LVL704:
	ldr	r3, [r3]
	blx	r3
.LVL705:
	mov	r4, r0
	cbz	r0, .L826
	.loc 1 56 0
	ldr	r3, .L955+36
	ldr	r0, [r3]
.LVL706:
	ldrh	r3, [r3, #4]	@ unaligned
	str	r0, [r4]	@ unaligned
	strh	r3, [r4, #4]	@ unaligned
.LVL707:
.L826:
.LBE431:
.LBE430:
.LBE423:
.LBE422:
	.loc 1 283 0
	mov	r0, r4
	add	sp, sp, #28
	.cfi_remember_state
	.cfi_def_cfa_offset 36
	@ sp needed
	pop	{r4, r5, r6, r7, r8, r9, r10, fp, pc}
.LVL708:
.L831:
	.cfi_restore_state
.LBB470:
.LBB464:
.LBB432:
.LBB433:
	.loc 1 55 0
	ldr	r3, .L955+32
	movs	r0, #5
.LVL709:
	ldr	r3, [r3]
	blx	r3
.LVL710:
	mov	r4, r0
	cmp	r0, #0
	beq	.L826
	.loc 1 56 0
	ldr	r3, .L955+40
	ldr	r0, [r3]
.LVL711:
	ldrb	r3, [r3, #4]	@ zero_extendqisi2
	str	r0, [r4]	@ unaligned
.LBE433:
.LBE432:
.LBE464:
.LBE470:
	.loc 1 283 0
	mov	r0, r4
.LBB471:
.LBB465:
.LBB435:
.LBB434:
	.loc 1 56 0
	strb	r3, [r4, #4]
.LBE434:
.LBE435:
.LBE465:
.LBE471:
	.loc 1 283 0
	add	sp, sp, #28
	.cfi_remember_state
	.cfi_def_cfa_offset 36
	@ sp needed
	pop	{r4, r5, r6, r7, r8, r9, r10, fp, pc}
.LVL712:
.L832:
	.cfi_restore_state
.LBB472:
.LBB466:
.LBB436:
.LBB437:
	.loc 1 55 0
	ldr	r3, .L955+32
	movs	r0, #5
.LVL713:
	ldr	r3, [r3]
	blx	r3
.LVL714:
	mov	r4, r0
	cmp	r0, #0
	beq	.L826
	.loc 1 56 0
	ldr	r3, .L955+44
	ldr	r0, [r3]
.LVL715:
	ldrb	r3, [r3, #4]	@ zero_extendqisi2
	str	r0, [r4]	@ unaligned
.LBE437:
.LBE436:
.LBE466:
.LBE472:
	.loc 1 283 0
	mov	r0, r4
.LBB473:
.LBB467:
.LBB439:
.LBB438:
	.loc 1 56 0
	strb	r3, [r4, #4]
.LBE438:
.LBE439:
.LBE467:
.LBE473:
	.loc 1 283 0
	add	sp, sp, #28
	.cfi_remember_state
	.cfi_def_cfa_offset 36
	@ sp needed
	pop	{r4, r5, r6, r7, r8, r9, r10, fp, pc}
.LVL716:
.L833:
	.cfi_restore_state
.LBB474:
.LBB468:
.LBB440:
.LBB441:
	.loc 1 122 0
	ldr	r0, [r0, #20]
.LVL717:
	bl	__aeabi_i2d
.LVL718:
	.loc 1 121 0
	ldr	r5, [r7, #24]
	ldr	r6, [r7, #28]
.LVL719:
	.loc 1 122 0
	mov	r2, r5
	mov	r3, r6
	bl	__aeabi_dsub
.LVL720:
	bic	r3, r1, #-2147483648
	mov	r1, r3
	movs	r2, #0
	ldr	r3, .L955+48
	bl	__aeabi_dcmple
.LVL721:
	cmp	r0, #0
	beq	.L837
	adr	r3, .L955
	ldrd	r2, [r3]
	mov	r0, r5
	mov	r1, r6
	bl	__aeabi_dcmple
.LVL722:
	cmp	r0, #0
	beq	.L837
	mov	r0, r5
	mov	r1, r6
	movs	r2, #0
	ldr	r3, .L955+52
	bl	__aeabi_dcmpge
.LVL723:
	cmp	r0, #0
	beq	.L837
	.loc 1 124 0
	ldr	r3, .L955+32
	movs	r0, #21
	ldr	r3, [r3]
	blx	r3
.LVL724:
	.loc 1 125 0
	mov	r4, r0
	cmp	r0, #0
	beq	.L826
	ldr	r2, [r7, #20]
	ldr	r1, .L955+56
	bl	sprintf
.LVL725:
	b	.L826
.LVL726:
.L834:
.LBE441:
.LBE440:
.LBB445:
.LBB446:
	.loc 1 250 0
	ldr	r0, [r0, #16]
.LVL727:
.LBE446:
.LBE445:
.LBE468:
.LBE474:
	.loc 1 283 0
	add	sp, sp, #28
	.cfi_remember_state
	.cfi_def_cfa_offset 36
	@ sp needed
	pop	{r4, r5, r6, r7, r8, r9, r10, fp, lr}
	.cfi_restore 14
	.cfi_restore 11
	.cfi_restore 10
	.cfi_restore 9
	.cfi_restore 8
	.cfi_restore 7
	.cfi_restore 6
	.cfi_restore 5
	.cfi_restore 4
	.cfi_def_cfa_offset 0
.LVL728:
.LBB475:
.LBB469:
.LBB448:
.LBB447:
	.loc 1 250 0
	b	print_string_ptr
.LVL729:
.L835:
	.cfi_restore_state
.LBE447:
.LBE448:
.LBB449:
.LBB450:
	.loc 1 352 0
	ldr	r1, [r0, #8]
.LVL730:
	.loc 1 356 0
	cmp	r1, #0
	beq	.L849
	movs	r6, #0
	b	.L850
.LVL731:
.L878:
	mov	r6, r5
.LVL732:
.L850:
	ldr	r1, [r1]
.LVL733:
	adds	r5, r6, #1
.LVL734:
	cmp	r1, #0
	bne	.L878
	.loc 1 365 0
	ldr	r8, .L955+32
	lsl	r9, r5, #2
	ldr	r3, [r8]
	mov	r0, r9
.LVL735:
	str	r1, [sp, #4]
	blx	r3
.LVL736:
	.loc 1 366 0
	ldr	r1, [sp, #4]
	str	r0, [sp]
	cbz	r0, .L948
	.loc 1 367 0
	mov	r2, r9
	bl	memset
.LVL737:
	.loc 1 369 0
	ldr	r7, [r7, #8]
.LVL738:
	.loc 1 370 0
	cmp	r7, #0
	beq	.L879
	ldr	r3, [sp]
	sub	r9, r3, #4
	mov	r10, r9
	b	.L854
.LVL739:
.L953:
	.loc 1 374 0
	bl	strlen
.LVL740:
	adds	r4, r4, #3
	.loc 1 375 0
	ldr	r7, [r7]
.LVL741:
	.loc 1 374 0
	add	r4, r4, r0
	mov	r0, r4
.LVL742:
	.loc 1 370 0
	cmp	r7, #0
	beq	.L852
.LVL743:
.L854:
	.loc 1 372 0
	movs	r2, #1
	mov	r0, r7
	mov	r1, r2
	bl	print_value
.LVL744:
	.loc 1 373 0
	str	r0, [r10, #4]!
	.loc 1 374 0
	cmp	r0, #0
	bne	.L953
.LVL745:
.L853:
	.loc 1 356 0
	movs	r4, #0
	ldr	r8, .L955+76
.L856:
.LVL746:
	.loc 1 386 0
	ldr	r0, [r9, #4]!
	adds	r4, r4, #1
.LVL747:
	cbz	r0, .L855
	ldr	r3, [r8]
	blx	r3
.LVL748:
.L855:
	cmp	r5, r4
	bne	.L856
.LVL749:
.L949:
.LBE450:
.LBE449:
.LBB454:
.LBB426:
	.loc 1 486 0
	ldr	r3, [r8]
	ldr	r0, [sp]
	blx	r3
.LVL750:
.L948:
	.loc 1 487 0
	movs	r4, #0
	b	.L826
.LVL751:
.L837:
.LBE426:
.LBE454:
.LBB455:
.LBB442:
	.loc 1 129 0
	ldr	r3, .L955+32
	movs	r0, #64
	ldr	r3, [r3]
	blx	r3
.LVL752:
	.loc 1 130 0
	mov	r4, r0
	cmp	r0, #0
	beq	.L948
	.loc 1 132 0
	mov	r0, r5
.LVL753:
	mov	r1, r6
	bl	floor
.LVL754:
	mov	r2, r5
	mov	r3, r6
	bl	__aeabi_dsub
.LVL755:
	bic	r3, r1, #-2147483648
	mov	r1, r3
	movs	r2, #0
	ldr	r3, .L955+48
	bl	__aeabi_dcmple
.LVL756:
	cmp	r0, #0
	bne	.L954
	bic	r7, r6, #-2147483648
.LVL757:
.L844:
	.loc 1 133 0
	mov	r0, r5
	adr	r3, .L955+8
	ldrd	r2, [r3]
	mov	r1, r7
	bl	__aeabi_dcmplt
.LVL758:
	cbnz	r0, .L846
	adr	r3, .L955+16
	ldrd	r2, [r3]
	mov	r0, r5
	mov	r1, r7
	bl	__aeabi_dcmpgt
.LVL759:
	cmp	r0, #0
	beq	.L941
.L846:
	mov	r2, r5
	mov	r3, r6
	ldr	r1, .L955+60
	mov	r0, r4
	bl	sprintf
.LVL760:
	b	.L826
.LVL761:
.L859:
.LBE442:
.LBE455:
.LBB456:
.LBB427:
	.loc 1 453 0
	ldr	r3, .L955+32
	movs	r0, #4
.LVL762:
	ldr	r3, [r3]
	blx	r3
.LVL763:
	.loc 1 454 0
	mov	r4, r0
.LVL764:
	cmp	r0, #0
	beq	.L826
.LVL765:
	.loc 1 455 0
	ldr	r3, .L955+64
	str	r3, [r0]	@ unaligned
	b	.L826
.LVL766:
.L849:
.LBE427:
.LBE456:
.LBB457:
.LBB451:
	.loc 1 360 0
	ldr	r3, .L955+32
	movs	r0, #3
.LVL767:
	ldr	r3, [r3]
	blx	r3
.LVL768:
	.loc 1 361 0
	mov	r4, r0
	cmp	r0, #0
	beq	.L826
	ldr	r3, .L955+68
	ldrh	r2, [r3]	@ unaligned
	ldrb	r3, [r3, #2]	@ zero_extendqisi2
	strh	r2, [r0]	@ unaligned
	strb	r3, [r0, #2]
	b	.L826
.LVL769:
.L954:
.LBE451:
.LBE457:
.LBB458:
.LBB443:
	.loc 1 132 0
	bic	r7, r6, #-2147483648
.LVL770:
	adr	r3, .L955+24
	ldrd	r2, [r3]
	mov	r0, r5
	mov	r1, r7
	bl	__aeabi_dcmplt
.LVL771:
	cmp	r0, #0
	beq	.L844
	mov	r2, r5
	mov	r3, r6
	ldr	r1, .L955+72
	mov	r0, r4
	bl	sprintf
.LVL772:
	b	.L826
.LVL773:
.L950:
.LBE443:
.LBE458:
.LBB459:
.LBB428:
	.loc 1 464 0
	ldr	r3, .L955+76
	ldr	r0, [sp]
.LVL774:
	ldr	r3, [r3]
	blx	r3
.LVL775:
	b	.L826
.LVL776:
.L951:
	.loc 1 479 0
	ldr	r3, [sp, #4]
	ldr	r5, [sp, #20]
.LVL777:
	cmp	r3, #0
	beq	.L866
.LVL778:
.L868:
	.loc 1 470 0
	movs	r4, #0
	ldr	r9, [sp, #16]
	ldr	r6, [sp, #12]
.LVL779:
	ldr	r8, .L955+76
.L867:
.LVL780:
	.loc 1 485 0
	ldr	r0, [r9, #4]!
	adds	r4, r4, #1
.LVL781:
	cbz	r0, .L870
	ldr	r3, [r8]
	blx	r3
.LVL782:
.L870:
	ldr	r0, [r6, #4]!
	cbz	r0, .L871
	ldr	r3, [r8]
	blx	r3
.LVL783:
.L871:
	cmp	r5, r4
	bne	.L867
	.loc 1 486 0
	ldr	r0, [sp, #8]
	ldr	r3, [r8]
	blx	r3
.LVL784:
	b	.L949
.L956:
	.align	3
.L955:
	.word	-4194304
	.word	1105199103
	.word	-1598689907
	.word	1051772663
	.word	0
	.word	1104006501
	.word	-456985788
	.word	1281616356
	.word	.LANCHOR0
	.word	.LC3
	.word	.LC4
	.word	.LC2
	.word	1018167296
	.word	-1042284544
	.word	.LC5
	.word	.LC7
	.word	8194683
	.word	.LC9
	.word	.LC6
	.word	.LANCHOR2
.LVL785:
.L879:
.LBE428:
.LBE459:
.LBB460:
.LBB452:
	.loc 1 370 0
	movs	r0, #5
	ldr	r3, [sp]
	sub	r9, r3, #4
.LVL786:
.L852:
	.loc 1 379 0
	ldr	r3, [r8]
	blx	r3
.LVL787:
	.loc 1 381 0
	mov	r4, r0
	cmp	r0, #0
	beq	.L853
	.loc 1 393 0
	movs	r1, #0
	.loc 1 392 0
	movs	r0, #91
.LVL788:
	mov	fp, r4
	mov	r7, r9
.LVL789:
	.loc 1 394 0
	mov	r10, r1
	.loc 1 397 0
	mov	r9, #44
	ldr	r8, .L957+4
	.loc 1 392 0
	strb	r0, [fp], #1
.LVL790:
	.loc 1 393 0
	strb	r1, [r4, #1]
.LVL791:
.L858:
	.loc 1 396 0
	ldr	r1, [r7, #4]
	mov	r0, fp
	bl	strcpy
.LVL792:
	ldr	r0, [r7, #4]
	bl	strlen
.LVL793:
	.loc 1 397 0
	cmp	r6, r10
	.loc 1 396 0
	add	r3, fp, r0
.LVL794:
	.loc 1 397 0
	beq	.L880
	mov	r2, #32
	strb	r9, [fp, r0]
	strb	r2, [r3, #1]
	mov	r2, #0
	add	fp, r3, #2
.LVL795:
	strb	r2, [r3, #2]
.LVL796:
.L857:
	.loc 1 394 0
	add	r10, r10, #1
.LVL797:
	.loc 1 398 0
	ldr	r3, [r8]
	ldr	r0, [r7, #4]!
	blx	r3
.LVL798:
	.loc 1 394 0
	cmp	r5, r10
	bne	.L858
	.loc 1 400 0
	ldr	r2, [r8]
	ldr	r0, [sp]
	blx	r2
.LVL799:
	.loc 1 401 0
	movs	r1, #93
	movs	r2, #0
	strb	r1, [fp]
.LVL800:
	strb	r2, [fp, #1]
	b	.L826
.LVL801:
.L941:
.LBE452:
.LBE460:
.LBB461:
.LBB444:
	.loc 1 134 0
	mov	r2, r5
	mov	r3, r6
	ldr	r1, .L957
	mov	r0, r4
	bl	sprintf
.LVL802:
	b	.L826
.LVL803:
.L866:
	mov	r0, r7
.LVL804:
.L863:
.LBE444:
.LBE461:
.LBB462:
.LBB429:
	.loc 1 479 0
	ldr	r3, [r8]
	blx	r3
.LVL805:
	.loc 1 480 0
	mov	r4, r0
	cmp	r0, #0
	beq	.L868
.LVL806:
	.loc 1 491 0
	movs	r2, #0
	movs	r0, #123
.LVL807:
	mov	r3, r4
	movs	r1, #10
	mov	fp, r2
	ldr	r7, [sp, #12]
	ldr	r9, [sp, #16]
	str	r7, [sp, #4]
	ldr	r8, .L957+4
	strb	r0, [r3], #2
.LVL808:
	mov	r7, r6
	strb	r1, [r4, #1]
	mov	r6, r5
.LVL809:
	strb	r2, [r4, #2]
.LVL810:
	ldr	r5, [sp, #4]
	str	r4, [sp, #4]
.LVL811:
.L872:
	.loc 1 494 0
	mov	r2, #9
	add	r10, r3, #1
.LVL812:
	strb	r2, [r3]
	.loc 1 495 0
	ldr	r1, [r9, #4]
	mov	r0, r10
	bl	strcpy
.LVL813:
	ldr	r0, [r9, #4]
	bl	strlen
.LVL814:
	.loc 1 496 0
	mov	r2, #58
	strb	r2, [r10, r0]
	mov	r2, #9
	.loc 1 495 0
	add	r3, r10, r0
.LVL815:
	.loc 1 496 0
	add	r10, r3, #2
.LVL816:
	strb	r2, [r3, #1]
	.loc 1 497 0
	ldr	r1, [r5, #4]
	mov	r0, r10
	bl	strcpy
.LVL817:
	ldr	r0, [r5, #4]
	bl	strlen
.LVL818:
	.loc 1 498 0
	cmp	r7, fp
	.loc 1 497 0
	add	r2, r10, r0
.LVL819:
	it	eq
	moveq	r4, r2
	.loc 1 498 0
	beq	.L875
	mov	r3, #44
	adds	r4, r2, #1
.LVL820:
	strb	r3, [r10, r0]
.LVL821:
.L875:
	.loc 1 499 0
	movs	r3, #10
	mov	r10, #0
	strb	r3, [r4]
	strb	r10, [r4, #1]
	.loc 1 500 0
	ldr	r0, [r9, #4]!
	ldr	r3, [r8]
	blx	r3
.LVL822:
	.loc 1 492 0
	add	fp, fp, #1
.LVL823:
	.loc 1 500 0
	ldr	r3, [r8]
	ldr	r0, [r5, #4]!
	blx	r3
.LVL824:
	.loc 1 492 0
	cmp	r6, fp
	.loc 1 499 0
	add	r3, r4, #1
.LVL825:
	.loc 1 492 0
	bne	.L872
	.loc 1 503 0
	ldr	r0, [sp, #8]
	ldr	r3, [r8]
.LVL826:
	mov	fp, r4
.LVL827:
	ldr	r4, [sp, #4]
.LVL828:
	blx	r3
.LVL829:
	ldr	r3, [r8]
	ldr	r0, [sp]
	blx	r3
.LVL830:
	.loc 1 505 0
	movs	r3, #125
	strb	r10, [fp, #2]
	strb	r3, [fp, #1]
.LVL831:
	b	.L826
.LVL832:
.L882:
	ldr	r3, [sp, #8]
	.loc 1 470 0
	movs	r0, #8
	subs	r3, r3, #4
	str	r3, [sp, #16]
	ldr	r3, [sp]
	subs	r3, r3, #4
	str	r3, [sp, #12]
	b	.L863
.LVL833:
.L880:
.LBE429:
.LBE462:
.LBB463:
.LBB453:
	.loc 1 396 0
	mov	fp, r3
	b	.L857
.L958:
	.align	2
.L957:
	.word	.LC8
	.word	.LANCHOR2
.LBE453:
.LBE463:
.LBE469:
.LBE475:
	.cfi_endproc
.LFE16:
	.size	cJSON_Print, .-cJSON_Print
	.section	.text.cJSON_PrintUnformatted,"ax",%progbits
	.align	1
	.p2align 2,,3
	.global	cJSON_PrintUnformatted
	.syntax unified
	.thumb
	.thumb_func
	.fpu softvfp
	.type	cJSON_PrintUnformatted, %function
cJSON_PrintUnformatted:
.LFB17:
	.loc 1 284 0
	.cfi_startproc
	@ args = 0, pretend = 0, frame = 24
	@ frame_needed = 0, uses_anonymous_args = 0
.LVL834:
	push	{r4, r5, r6, r7, r8, r9, r10, fp, lr}
	.cfi_def_cfa_offset 36
	.cfi_offset 4, -36
	.cfi_offset 5, -32
	.cfi_offset 6, -28
	.cfi_offset 7, -24
	.cfi_offset 8, -20
	.cfi_offset 9, -16
	.cfi_offset 10, -12
	.cfi_offset 11, -8
	.cfi_offset 14, -4
	sub	sp, sp, #28
	.cfi_def_cfa_offset 64
.LBB492:
.LBB493:
	.loc 1 305 0
	cmp	r0, #0
	beq	.L1081
	.loc 1 306 0
	ldrb	r4, [r0, #12]	@ zero_extendqisi2
	mov	r8, r0
	cmp	r4, #6
	bhi	.L1081
	tbh	[pc, r4, lsl #1]
.L963:
	.2byte	(.L962-.L963)/2
	.2byte	(.L964-.L963)/2
	.2byte	(.L965-.L963)/2
	.2byte	(.L966-.L963)/2
	.2byte	(.L967-.L963)/2
	.2byte	(.L968-.L963)/2
	.2byte	(.L969-.L963)/2
	.p2align 1
.L969:
.LVL835:
.LBB494:
.LBB495:
	.loc 1 446 0
	ldr	r7, [r0, #8]
.LVL836:
	.loc 1 449 0
	cmp	r7, #0
	beq	.L992
	movs	r6, #0
	b	.L993
.LVL837:
.L1012:
	mov	r6, r4
.LVL838:
.L993:
	ldr	r7, [r7]
.LVL839:
	adds	r4, r6, #1
.LVL840:
	cmp	r7, #0
	bne	.L1012
	.loc 1 461 0
	ldr	r9, .L1088+32
	lsls	r5, r4, #2
	ldr	r3, [r9]
	mov	r0, r5
.LVL841:
	blx	r3
.LVL842:
	.loc 1 462 0
	str	r0, [sp]
	cmp	r0, #0
	beq	.L1081
	.loc 1 463 0
	ldr	r3, [r9]
	mov	r0, r5
.LVL843:
	blx	r3
.LVL844:
	.loc 1 464 0
	str	r0, [sp, #8]
	cmp	r0, #0
	beq	.L1083
	.loc 1 465 0
	ldr	r10, [sp]
	mov	r2, r5
	mov	r1, r7
	mov	r0, r10
.LVL845:
	bl	memset
.LVL846:
	.loc 1 466 0
	mov	r2, r5
	ldr	r5, [sp, #8]
	mov	r1, r7
	mov	r0, r5
	bl	memset
.LVL847:
	.loc 1 469 0
	ldr	r8, [r8, #8]
.LVL848:
	.loc 1 470 0
	cmp	r8, #0
	beq	.L1013
	subs	r3, r5, #4
	sub	r2, r10, #4
	str	r7, [sp, #4]
	str	r3, [sp, #16]
	str	r2, [sp, #12]
	mov	fp, r3
	mov	r10, r2
	movs	r7, #7
	str	r4, [sp, #20]
	mov	r5, r8
	b	.L998
.LVL849:
.L1085:
	.loc 1 474 0
	cbz	r0, .L1015
	bl	strlen
.LVL850:
	mov	r8, r0
	mov	r0, r4
	bl	strlen
.LVL851:
	adds	r7, r7, #2
.LVL852:
	add	r7, r7, r8
.LVL853:
	add	r7, r7, r0
.LVL854:
.L997:
	.loc 1 475 0
	ldr	r5, [r5]
.LVL855:
	.loc 1 470 0
	cmp	r5, #0
	beq	.L1084
.LVL856:
.L998:
	.loc 1 472 0
	ldr	r0, [r5, #32]
	bl	print_string_ptr
.LVL857:
	.loc 1 473 0
	movs	r2, #0
	.loc 1 472 0
	str	r0, [fp, #4]!
	mov	r4, r0
.LVL858:
	.loc 1 473 0
	movs	r1, #1
	mov	r0, r5
.LVL859:
	bl	print_value
.LVL860:
	str	r0, [r10, #4]!
	.loc 1 474 0
	cmp	r4, #0
	bne	.L1085
.L1015:
	movs	r3, #1
	str	r3, [sp, #4]
	b	.L997
.LVL861:
.L962:
.LBE495:
.LBE494:
.LBB500:
.LBB501:
	.loc 1 55 0
	ldr	r3, .L1088+32
	movs	r0, #6
.LVL862:
	ldr	r3, [r3]
	blx	r3
.LVL863:
	mov	r5, r0
	cbz	r0, .L959
	.loc 1 56 0
	ldr	r3, .L1088+36
	ldr	r0, [r3]
.LVL864:
	ldrh	r3, [r3, #4]	@ unaligned
	str	r0, [r5]	@ unaligned
	strh	r3, [r5, #4]	@ unaligned
.LVL865:
.L959:
.LBE501:
.LBE500:
.LBE493:
.LBE492:
	.loc 1 284 0
	mov	r0, r5
	add	sp, sp, #28
	.cfi_remember_state
	.cfi_def_cfa_offset 36
	@ sp needed
	pop	{r4, r5, r6, r7, r8, r9, r10, fp, pc}
.LVL866:
.L964:
	.cfi_restore_state
.LBB538:
.LBB532:
.LBB502:
.LBB503:
	.loc 1 55 0
	ldr	r3, .L1088+32
	movs	r0, #5
.LVL867:
	ldr	r3, [r3]
	blx	r3
.LVL868:
	mov	r5, r0
	cmp	r0, #0
	beq	.L959
	.loc 1 56 0
	ldr	r3, .L1088+40
	ldr	r0, [r3]
.LVL869:
	ldrb	r3, [r3, #4]	@ zero_extendqisi2
	str	r0, [r5]	@ unaligned
.LBE503:
.LBE502:
.LBE532:
.LBE538:
	.loc 1 284 0
	mov	r0, r5
.LBB539:
.LBB533:
.LBB505:
.LBB504:
	.loc 1 56 0
	strb	r3, [r5, #4]
.LBE504:
.LBE505:
.LBE533:
.LBE539:
	.loc 1 284 0
	add	sp, sp, #28
	.cfi_remember_state
	.cfi_def_cfa_offset 36
	@ sp needed
	pop	{r4, r5, r6, r7, r8, r9, r10, fp, pc}
.LVL870:
.L965:
	.cfi_restore_state
.LBB540:
.LBB534:
.LBB506:
.LBB507:
	.loc 1 55 0
	ldr	r3, .L1088+32
	movs	r0, #5
.LVL871:
	ldr	r3, [r3]
	blx	r3
.LVL872:
	mov	r5, r0
	cmp	r0, #0
	beq	.L959
	.loc 1 56 0
	ldr	r3, .L1088+44
	ldr	r0, [r3]
.LVL873:
	ldrb	r3, [r3, #4]	@ zero_extendqisi2
	str	r0, [r5]	@ unaligned
.LBE507:
.LBE506:
.LBE534:
.LBE540:
	.loc 1 284 0
	mov	r0, r5
.LBB541:
.LBB535:
.LBB509:
.LBB508:
	.loc 1 56 0
	strb	r3, [r5, #4]
.LBE508:
.LBE509:
.LBE535:
.LBE541:
	.loc 1 284 0
	add	sp, sp, #28
	.cfi_remember_state
	.cfi_def_cfa_offset 36
	@ sp needed
	pop	{r4, r5, r6, r7, r8, r9, r10, fp, pc}
.LVL874:
.L966:
	.cfi_restore_state
.LBB542:
.LBB536:
.LBB510:
.LBB511:
	.loc 1 122 0
	ldr	r0, [r0, #20]
.LVL875:
	bl	__aeabi_i2d
.LVL876:
	.loc 1 121 0
	ldr	r4, [r8, #24]
	ldr	r6, [r8, #28]
.LVL877:
	.loc 1 122 0
	mov	r2, r4
	mov	r3, r6
	bl	__aeabi_dsub
.LVL878:
	bic	r3, r1, #-2147483648
	mov	r1, r3
	movs	r2, #0
	ldr	r3, .L1088+48
	bl	__aeabi_dcmple
.LVL879:
	cmp	r0, #0
	beq	.L970
	adr	r3, .L1088
	ldrd	r2, [r3]
	mov	r0, r4
	mov	r1, r6
	bl	__aeabi_dcmple
.LVL880:
	cmp	r0, #0
	beq	.L970
	mov	r0, r4
	mov	r1, r6
	movs	r2, #0
	ldr	r3, .L1088+52
	bl	__aeabi_dcmpge
.LVL881:
	cmp	r0, #0
	beq	.L970
	.loc 1 124 0
	ldr	r3, .L1088+32
	movs	r0, #21
	ldr	r3, [r3]
	blx	r3
.LVL882:
	.loc 1 125 0
	mov	r5, r0
	cmp	r0, #0
	beq	.L959
	ldr	r2, [r8, #20]
	ldr	r1, .L1088+56
	bl	sprintf
.LVL883:
	b	.L959
.LVL884:
.L967:
.LBE511:
.LBE510:
.LBB515:
.LBB516:
	.loc 1 250 0
	ldr	r0, [r0, #16]
.LVL885:
.LBE516:
.LBE515:
.LBE536:
.LBE542:
	.loc 1 284 0
	add	sp, sp, #28
	.cfi_remember_state
	.cfi_def_cfa_offset 36
	@ sp needed
	pop	{r4, r5, r6, r7, r8, r9, r10, fp, lr}
	.cfi_restore 14
	.cfi_restore 11
	.cfi_restore 10
	.cfi_restore 9
	.cfi_restore 8
	.cfi_restore 7
	.cfi_restore 6
	.cfi_restore 5
	.cfi_restore 4
	.cfi_def_cfa_offset 0
.LVL886:
.LBB543:
.LBB537:
.LBB518:
.LBB517:
	.loc 1 250 0
	b	print_string_ptr
.LVL887:
.L968:
	.cfi_restore_state
.LBE517:
.LBE518:
.LBB519:
.LBB520:
	.loc 1 352 0
	ldr	r5, [r0, #8]
.LVL888:
	.loc 1 356 0
	cmp	r5, #0
	beq	.L982
	movs	r7, #0
	b	.L983
.LVL889:
.L1009:
	mov	r7, r6
.LVL890:
.L983:
	ldr	r5, [r5]
.LVL891:
	adds	r6, r7, #1
.LVL892:
	cmp	r5, #0
	bne	.L1009
	.loc 1 365 0
	ldr	r9, .L1088+32
	lsl	r10, r6, #2
	ldr	r3, [r9]
	mov	r0, r10
.LVL893:
	blx	r3
.LVL894:
	.loc 1 366 0
	str	r0, [sp]
	cbz	r0, .L1081
	.loc 1 367 0
	mov	r1, r5
	mov	r2, r10
	bl	memset
.LVL895:
	.loc 1 369 0
	ldr	r5, [r8, #8]
.LVL896:
	.loc 1 370 0
	cmp	r5, #0
	beq	.L1010
	ldr	r3, [sp]
	sub	r8, r3, #4
.LVL897:
	mov	r10, r8
	b	.L987
.LVL898:
.L1086:
	.loc 1 374 0
	bl	strlen
.LVL899:
	adds	r4, r4, #2
	.loc 1 375 0
	ldr	r5, [r5]
.LVL900:
	.loc 1 374 0
	add	r4, r4, r0
	mov	r0, r4
.LVL901:
	.loc 1 370 0
	cmp	r5, #0
	beq	.L985
.LVL902:
.L987:
	.loc 1 372 0
	movs	r2, #0
	movs	r1, #1
	mov	r0, r5
	bl	print_value
.LVL903:
	.loc 1 373 0
	str	r0, [r10, #4]!
	.loc 1 374 0
	cmp	r0, #0
	bne	.L1086
.LVL904:
.L986:
	.loc 1 356 0
	movs	r4, #0
	ldr	r10, .L1088+72
.L989:
.LVL905:
	.loc 1 386 0
	ldr	r0, [r8, #4]!
	adds	r4, r4, #1
.LVL906:
	cbz	r0, .L988
	ldr	r3, [r10]
	blx	r3
.LVL907:
.L988:
	cmp	r6, r4
	bne	.L989
.LVL908:
.L1082:
.LBE520:
.LBE519:
.LBB523:
.LBB496:
	.loc 1 486 0
	ldr	r3, [r10]
	ldr	r0, [sp]
	blx	r3
.LVL909:
.L1081:
	.loc 1 487 0
	movs	r5, #0
	b	.L959
.LVL910:
.L970:
.LBE496:
.LBE523:
.LBB524:
.LBB512:
	.loc 1 129 0
	ldr	r3, .L1088+32
	movs	r0, #64
	ldr	r3, [r3]
	blx	r3
.LVL911:
	.loc 1 130 0
	mov	r5, r0
	cmp	r0, #0
	beq	.L1081
	.loc 1 132 0
	mov	r0, r4
.LVL912:
	mov	r1, r6
	bl	floor
.LVL913:
	mov	r2, r4
	mov	r3, r6
	bl	__aeabi_dsub
.LVL914:
	bic	r3, r1, #-2147483648
	mov	r1, r3
	movs	r2, #0
	ldr	r3, .L1088+48
	bl	__aeabi_dcmple
.LVL915:
	cmp	r0, #0
	bne	.L1087
	bic	r7, r6, #-2147483648
.L977:
	.loc 1 133 0
	mov	r0, r4
	adr	r3, .L1088+8
	ldrd	r2, [r3]
	mov	r1, r7
	bl	__aeabi_dcmplt
.LVL916:
	cbnz	r0, .L979
	adr	r3, .L1088+16
	ldrd	r2, [r3]
	mov	r0, r4
	mov	r1, r7
	bl	__aeabi_dcmpgt
.LVL917:
	cmp	r0, #0
	beq	.L1074
.L979:
	mov	r2, r4
	mov	r3, r6
	ldr	r1, .L1088+60
	mov	r0, r5
	bl	sprintf
.LVL918:
	b	.L959
.LVL919:
.L992:
.LBE512:
.LBE524:
.LBB525:
.LBB497:
	.loc 1 453 0
	ldr	r3, .L1088+32
	movs	r0, #3
.LVL920:
	ldr	r3, [r3]
	blx	r3
.LVL921:
	.loc 1 454 0
	mov	r5, r0
	cmp	r0, #0
	beq	.L959
.LVL922:
	.loc 1 455 0
	movs	r2, #123
	.loc 1 457 0
	movs	r3, #125
	strb	r7, [r0, #2]
	.loc 1 455 0
	strb	r2, [r0]
.LVL923:
	.loc 1 457 0
	strb	r3, [r0, #1]
.LVL924:
	b	.L959
.LVL925:
.L982:
.LBE497:
.LBE525:
.LBB526:
.LBB521:
	.loc 1 360 0
	ldr	r3, .L1088+32
	movs	r0, #3
.LVL926:
	ldr	r3, [r3]
	blx	r3
.LVL927:
	.loc 1 361 0
	mov	r5, r0
.LVL928:
	cmp	r0, #0
	beq	.L959
	ldr	r3, .L1088+64
	ldrh	r2, [r3]	@ unaligned
	ldrb	r3, [r3, #2]	@ zero_extendqisi2
	strh	r2, [r0]	@ unaligned
	strb	r3, [r0, #2]
	b	.L959
.LVL929:
.L1087:
.LBE521:
.LBE526:
.LBB527:
.LBB513:
	.loc 1 132 0
	bic	r7, r6, #-2147483648
	adr	r3, .L1088+24
	ldrd	r2, [r3]
	mov	r0, r4
	mov	r1, r7
	bl	__aeabi_dcmplt
.LVL930:
	cmp	r0, #0
	beq	.L977
	mov	r2, r4
	mov	r3, r6
	ldr	r1, .L1088+68
	mov	r0, r5
	bl	sprintf
.LVL931:
	b	.L959
.LVL932:
.L1083:
.LBE513:
.LBE527:
.LBB528:
.LBB498:
	.loc 1 464 0
	ldr	r3, .L1088+72
	ldr	r0, [sp]
.LVL933:
	ldr	r3, [r3]
	mov	r5, r7
	blx	r3
.LVL934:
	b	.L959
.LVL935:
.L1084:
	.loc 1 479 0
	ldr	r3, [sp, #4]
	ldr	r4, [sp, #20]
.LVL936:
	cmp	r3, #0
	beq	.L999
.LVL937:
.L1001:
	.loc 1 470 0
	movs	r5, #0
	ldr	r9, [sp, #16]
	ldr	r8, [sp, #12]
	ldr	r10, .L1088+72
.L1000:
.LVL938:
	.loc 1 485 0
	ldr	r0, [r9, #4]!
	adds	r5, r5, #1
.LVL939:
	cbz	r0, .L1003
	ldr	r3, [r10]
	blx	r3
.LVL940:
.L1003:
	ldr	r0, [r8, #4]!
	cbz	r0, .L1004
	ldr	r3, [r10]
	blx	r3
.LVL941:
.L1004:
	cmp	r4, r5
	bne	.L1000
	.loc 1 486 0
	ldr	r0, [sp, #8]
	ldr	r3, [r10]
	blx	r3
.LVL942:
	b	.L1082
.L1089:
	.align	3
.L1088:
	.word	-4194304
	.word	1105199103
	.word	-1598689907
	.word	1051772663
	.word	0
	.word	1104006501
	.word	-456985788
	.word	1281616356
	.word	.LANCHOR0
	.word	.LC3
	.word	.LC4
	.word	.LC2
	.word	1018167296
	.word	-1042284544
	.word	.LC5
	.word	.LC7
	.word	.LC9
	.word	.LC6
	.word	.LANCHOR2
.LVL943:
.L1010:
.LBE498:
.LBE528:
.LBB529:
.LBB522:
	.loc 1 370 0
	movs	r0, #5
	ldr	r3, [sp]
	sub	r8, r3, #4
.LVL944:
.L985:
	.loc 1 379 0
	ldr	r3, [r9]
	blx	r3
.LVL945:
	.loc 1 381 0
	mov	r5, r0
.LVL946:
	cmp	r0, #0
	beq	.L986
	.loc 1 393 0
	movs	r2, #0
	.loc 1 392 0
	movs	r1, #91
	mov	r4, r5
	.loc 1 394 0
	mov	r9, r2
	.loc 1 397 0
	mov	fp, r2
	ldr	r10, .L1090+4
	.loc 1 392 0
	strb	r1, [r4], #1
.LVL947:
	.loc 1 393 0
	strb	r2, [r5, #1]
.LVL948:
.L991:
	.loc 1 396 0
	ldr	r1, [r8, #4]
	mov	r0, r4
	bl	strcpy
.LVL949:
	ldr	r0, [r8, #4]
	bl	strlen
.LVL950:
	.loc 1 397 0
	cmp	r7, r9
	.loc 1 396 0
	add	r4, r4, r0
.LVL951:
	.loc 1 397 0
	beq	.L990
	mov	r3, #44
	strb	fp, [r4, #1]
	strb	r3, [r4]
	adds	r4, r4, #1
.LVL952:
.L990:
	.loc 1 394 0
	add	r9, r9, #1
.LVL953:
	.loc 1 398 0
	ldr	r3, [r10]
	ldr	r0, [r8, #4]!
	blx	r3
.LVL954:
	.loc 1 394 0
	cmp	r6, r9
	bne	.L991
	.loc 1 400 0
	ldr	r3, [r10]
	ldr	r0, [sp]
	blx	r3
.LVL955:
	.loc 1 401 0
	movs	r2, #93
	movs	r3, #0
	strb	r2, [r4]
.LVL956:
	strb	r3, [r4, #1]
	b	.L959
.LVL957:
.L1074:
.LBE522:
.LBE529:
.LBB530:
.LBB514:
	.loc 1 134 0
	mov	r2, r4
	mov	r3, r6
	ldr	r1, .L1090
	mov	r0, r5
	bl	sprintf
.LVL958:
	b	.L959
.LVL959:
.L999:
	mov	r0, r7
.LVL960:
.L996:
.LBE514:
.LBE530:
.LBB531:
.LBB499:
	.loc 1 479 0
	ldr	r3, [r9]
	blx	r3
.LVL961:
	.loc 1 480 0
	cmp	r0, #0
	beq	.L1001
.LVL962:
	.loc 1 491 0
	movs	r2, #0
	movs	r1, #123
	mov	r7, r0
	mov	r5, r2
	ldr	r9, [sp, #16]
	ldr	r8, [sp, #12]
	ldr	r10, .L1090+4
	strb	r1, [r7], #1
.LVL963:
	str	r0, [sp, #4]
	strb	r2, [r0, #1]
.LVL964:
.L1006:
	.loc 1 495 0
	ldr	r1, [r9, #4]
	mov	r0, r7
	bl	strcpy
.LVL965:
	ldr	r0, [r9, #4]
	bl	strlen
.LVL966:
	.loc 1 496 0
	mov	r3, #58
	.loc 1 495 0
	add	fp, r7, r0
.LVL967:
	.loc 1 496 0
	strb	r3, [r7, r0]
	add	fp, fp, #1
.LVL968:
	.loc 1 497 0
	ldr	r1, [r8, #4]
	mov	r0, fp
	bl	strcpy
.LVL969:
	ldr	r0, [r8, #4]
	bl	strlen
.LVL970:
	.loc 1 498 0
	cmp	r6, r5
	.loc 1 497 0
	add	r7, fp, r0
.LVL971:
	.loc 1 498 0
	beq	.L1005
	mov	r3, #44
	adds	r7, r7, #1
.LVL972:
	strb	r3, [fp, r0]
.L1005:
	.loc 1 499 0
	mov	r3, #0
	strb	r3, [r7]
	.loc 1 500 0
	ldr	r0, [r9, #4]!
	ldr	r2, [r10]
	blx	r2
.LVL973:
	.loc 1 492 0
	adds	r5, r5, #1
.LVL974:
	.loc 1 500 0
	ldr	r2, [r10]
	ldr	r0, [r8, #4]!
	blx	r2
.LVL975:
	.loc 1 492 0
	cmp	r4, r5
	bne	.L1006
	.loc 1 503 0
	ldr	r0, [sp, #8]
	ldr	r3, [r10]
	ldr	r5, [sp, #4]
.LVL976:
	blx	r3
.LVL977:
	ldr	r3, [r10]
	ldr	r0, [sp]
	blx	r3
.LVL978:
	.loc 1 505 0
	movs	r3, #125
	mov	r2, #0
	strb	r3, [r7]
.LVL979:
	strb	r2, [r7, #1]
	b	.L959
.LVL980:
.L1013:
	ldr	r3, [sp, #8]
	.loc 1 470 0
	movs	r0, #7
	subs	r3, r3, #4
	str	r3, [sp, #16]
	ldr	r3, [sp]
	subs	r3, r3, #4
	str	r3, [sp, #12]
	b	.L996
.L1091:
	.align	2
.L1090:
	.word	.LC8
	.word	.LANCHOR2
.LBE499:
.LBE531:
.LBE537:
.LBE543:
	.cfi_endproc
.LFE17:
	.size	cJSON_PrintUnformatted, .-cJSON_PrintUnformatted
	.section	.text.cJSON_GetArraySize,"ax",%progbits
	.align	1
	.p2align 2,,3
	.global	cJSON_GetArraySize
	.syntax unified
	.thumb
	.thumb_func
	.fpu softvfp
	.type	cJSON_GetArraySize, %function
cJSON_GetArraySize:
.LFB24:
	.loc 1 510 0
	.cfi_startproc
	@ args = 0, pretend = 0, frame = 0
	@ frame_needed = 0, uses_anonymous_args = 0
	@ link register save eliminated.
.LVL981:
	.loc 1 510 0
	ldr	r3, [r0, #8]
.LVL982:
	cbz	r3, .L1095
	.loc 1 510 0 is_stmt 0 discriminator 3
	movs	r0, #0
.LVL983:
.L1094:
	ldr	r3, [r3]
.LVL984:
	adds	r0, r0, #1
.LVL985:
	cmp	r3, #0
	bne	.L1094
	bx	lr
.LVL986:
.L1095:
	.loc 1 510 0
	mov	r0, r3
.LVL987:
	bx	lr
	.cfi_endproc
.LFE24:
	.size	cJSON_GetArraySize, .-cJSON_GetArraySize
	.section	.text.cJSON_GetArrayItem,"ax",%progbits
	.align	1
	.p2align 2,,3
	.global	cJSON_GetArrayItem
	.syntax unified
	.thumb
	.thumb_func
	.fpu softvfp
	.type	cJSON_GetArrayItem, %function
cJSON_GetArrayItem:
.LFB25:
	.loc 1 511 0 is_stmt 1
	.cfi_startproc
	@ args = 0, pretend = 0, frame = 0
	@ frame_needed = 0, uses_anonymous_args = 0
	@ link register save eliminated.
.LVL988:
	.loc 1 511 0
	ldr	r0, [r0, #8]
.LVL989:
	cbz	r0, .L1097
	cmp	r1, #0
	bgt	.L1099
	b	.L1097
.L1107:
	.loc 1 511 0 is_stmt 0 discriminator 3
	cbz	r1, .L1097
.L1099:
	.loc 1 511 0 discriminator 5
	ldr	r0, [r0]
.LVL990:
	subs	r1, r1, #1
.LVL991:
	cmp	r0, #0
	bne	.L1107
.L1097:
	.loc 1 511 0
	bx	lr
	.cfi_endproc
.LFE25:
	.size	cJSON_GetArrayItem, .-cJSON_GetArrayItem
	.section	.text.cJSON_GetObjectItem,"ax",%progbits
	.align	1
	.p2align 2,,3
	.global	cJSON_GetObjectItem
	.syntax unified
	.thumb
	.thumb_func
	.fpu softvfp
	.type	cJSON_GetObjectItem, %function
cJSON_GetObjectItem:
.LFB26:
	.loc 1 512 0 is_stmt 1
	.cfi_startproc
	@ args = 0, pretend = 0, frame = 0
	@ frame_needed = 0, uses_anonymous_args = 0
	@ link register save eliminated.
.LVL992:
	ldr	r0, [r0, #8]
.LVL993:
	cbz	r0, .L1131
	push	{r4, r5, r6, r7}
	.cfi_def_cfa_offset 16
	.cfi_offset 4, -16
	.cfi_offset 5, -12
	.cfi_offset 6, -8
	.cfi_offset 7, -4
.L1111:
	.loc 1 512 0 discriminator 3
	ldr	r5, [r0, #32]
.LVL994:
.LBB546:
.LBB547:
	.loc 1 41 0 discriminator 3
	cbz	r5, .L1132
	.loc 1 41 0 is_stmt 0
	cbz	r1, .L1114
	subs	r5, r5, #1
.LVL995:
	subs	r6, r1, #1
	b	.L1115
.LVL996:
.L1118:
	.loc 1 42 0 is_stmt 1
	cbz	r4, .L1108
.LVL997:
.L1115:
	ldrb	r4, [r5, #1]!	@ zero_extendqisi2
.LVL998:
	ldrb	r3, [r6, #1]!	@ zero_extendqisi2
	sub	r2, r4, #65
	cmp	r2, #25
	sub	r7, r3, #65
	ite	ls
	movls	r2, #32
	movhi	r2, #0
	cmp	r7, #25
	ite	ls
	movls	r7, #32
	movhi	r7, #0
	add	r2, r2, r4
	add	r3, r3, r7
	cmp	r2, r3
	beq	.L1118
	.loc 1 43 0
	subs	r3, r2, r3
.LVL999:
.L1113:
.LBE547:
.LBE546:
	.loc 1 512 0
	cbz	r3, .L1108
.L1114:
	.loc 1 512 0 is_stmt 0 discriminator 5
	ldr	r0, [r0]
.LVL1000:
	cmp	r0, #0
	bne	.L1111
.L1108:
	.loc 1 512 0
	pop	{r4, r5, r6, r7}
	.cfi_remember_state
	.cfi_restore 7
	.cfi_restore 6
	.cfi_restore 5
	.cfi_restore 4
	.cfi_def_cfa_offset 0
	bx	lr
.LVL1001:
.L1132:
	.cfi_restore_state
.LBB549:
.LBB548:
	.loc 1 41 0 is_stmt 1
	adds	r3, r1, #0
	it	ne
	movne	r3, #1
	b	.L1113
.LVL1002:
.L1131:
	.cfi_def_cfa_offset 0
	.cfi_restore 4
	.cfi_restore 5
	.cfi_restore 6
	.cfi_restore 7
	bx	lr
.LBE548:
.LBE549:
	.cfi_endproc
.LFE26:
	.size	cJSON_GetObjectItem, .-cJSON_GetObjectItem
	.section	.text.cJSON_AddItemToArray,"ax",%progbits
	.align	1
	.p2align 2,,3
	.global	cJSON_AddItemToArray
	.syntax unified
	.thumb
	.thumb_func
	.fpu softvfp
	.type	cJSON_AddItemToArray, %function
cJSON_AddItemToArray:
.LFB29:
	.loc 1 520 0
	.cfi_startproc
	@ args = 0, pretend = 0, frame = 0
	@ frame_needed = 0, uses_anonymous_args = 0
	@ link register save eliminated.
.LVL1003:
	.loc 1 520 0
	ldr	r2, [r0, #8]
.LVL1004:
	cbz	r1, .L1133
	.loc 1 520 0 is_stmt 0 discriminator 1
	cbnz	r2, .L1136
	b	.L1141
.L1137:
	mov	r2, r3
.LVL1005:
.L1136:
	.loc 1 520 0 discriminator 3
	ldr	r3, [r2]
	cmp	r3, #0
	bne	.L1137
.LVL1006:
.LBB550:
.LBB551:
	.loc 1 515 0 is_stmt 1
	str	r1, [r2]
	str	r2, [r1, #4]
.LVL1007:
.L1133:
	bx	lr
.L1141:
.LBE551:
.LBE550:
	.loc 1 520 0 discriminator 2
	str	r1, [r0, #8]
	bx	lr
	.cfi_endproc
.LFE29:
	.size	cJSON_AddItemToArray, .-cJSON_AddItemToArray
	.section	.text.cJSON_AddItemToObject,"ax",%progbits
	.align	1
	.p2align 2,,3
	.global	cJSON_AddItemToObject
	.syntax unified
	.thumb
	.thumb_func
	.fpu softvfp
	.type	cJSON_AddItemToObject, %function
cJSON_AddItemToObject:
.LFB30:
	.loc 1 521 0
	.cfi_startproc
	@ args = 0, pretend = 0, frame = 0
	@ frame_needed = 0, uses_anonymous_args = 0
.LVL1008:
	cbz	r2, .L1159
	.loc 1 521 0 is_stmt 0 discriminator 1
	push	{r4, r5, r6, r7, r8, lr}
	.cfi_def_cfa_offset 24
	.cfi_offset 4, -24
	.cfi_offset 5, -20
	.cfi_offset 6, -16
	.cfi_offset 7, -12
	.cfi_offset 8, -8
	.cfi_offset 14, -4
	mov	r7, r0
	.loc 1 521 0 is_stmt 1 discriminator 1
	ldr	r0, [r2, #32]
.LVL1009:
	mov	r4, r2
	mov	r5, r1
	cbz	r0, .L1144
	.loc 1 521 0 is_stmt 0 discriminator 2
	ldr	r3, .L1163
	ldr	r3, [r3]
	blx	r3
.LVL1010:
.L1144:
.LBB562:
.LBB563:
	.loc 1 54 0 is_stmt 1 discriminator 4
	mov	r0, r5
	bl	strlen
.LVL1011:
	.loc 1 55 0 discriminator 4
	ldr	r3, .L1163+4
	.loc 1 54 0 discriminator 4
	adds	r6, r0, #1
.LVL1012:
	.loc 1 55 0 discriminator 4
	mov	r0, r6
	ldr	r3, [r3]
	blx	r3
.LVL1013:
	mov	r8, r0
	cbz	r0, .L1145
	.loc 1 56 0
	mov	r2, r6
	mov	r1, r5
	bl	memcpy
.LVL1014:
.L1145:
.LBE563:
.LBE562:
.LBB564:
.LBB565:
	.loc 1 520 0
	ldr	r1, [r7, #8]
.LBE565:
.LBE564:
	.loc 1 521 0
	str	r8, [r4, #32]
.LVL1015:
.LBB569:
.LBB568:
	.loc 1 520 0
	cbnz	r1, .L1147
	b	.L1162
.L1148:
	mov	r1, r3
.LVL1016:
.L1147:
	ldr	r3, [r1]
	cmp	r3, #0
	bne	.L1148
.LVL1017:
.LBB566:
.LBB567:
	.loc 1 515 0
	str	r4, [r1]
	str	r1, [r4, #4]
	pop	{r4, r5, r6, r7, r8, pc}
.LVL1018:
.L1159:
	.cfi_def_cfa_offset 0
	.cfi_restore 4
	.cfi_restore 5
	.cfi_restore 6
	.cfi_restore 7
	.cfi_restore 8
	.cfi_restore 14
	bx	lr
.LVL1019:
.L1162:
	.cfi_def_cfa_offset 24
	.cfi_offset 4, -24
	.cfi_offset 5, -20
	.cfi_offset 6, -16
	.cfi_offset 7, -12
	.cfi_offset 8, -8
	.cfi_offset 14, -4
.LBE567:
.LBE566:
	.loc 1 520 0
	str	r4, [r7, #8]
	pop	{r4, r5, r6, r7, r8, pc}
.LVL1020:
.L1164:
	.align	2
.L1163:
	.word	.LANCHOR2
	.word	.LANCHOR0
.LBE568:
.LBE569:
	.cfi_endproc
.LFE30:
	.size	cJSON_AddItemToObject, .-cJSON_AddItemToObject
	.section	.text.cJSON_AddItemReferenceToArray,"ax",%progbits
	.align	1
	.p2align 2,,3
	.global	cJSON_AddItemReferenceToArray
	.syntax unified
	.thumb
	.thumb_func
	.fpu softvfp
	.type	cJSON_AddItemReferenceToArray, %function
cJSON_AddItemReferenceToArray:
.LFB31:
	.loc 1 522 0
	.cfi_startproc
	@ args = 0, pretend = 0, frame = 0
	@ frame_needed = 0, uses_anonymous_args = 0
.LVL1021:
	push	{r3, r4, r5, r6, r7, lr}
	.cfi_def_cfa_offset 24
	.cfi_offset 3, -24
	.cfi_offset 4, -20
	.cfi_offset 5, -16
	.cfi_offset 6, -12
	.cfi_offset 7, -8
	.cfi_offset 14, -4
.LBB578:
.LBB579:
.LBB580:
.LBB581:
	.loc 1 75 0
	ldr	r3, .L1177
.LBE581:
.LBE580:
.LBE579:
.LBE578:
	.loc 1 522 0
	mov	r6, r0
.LBB589:
.LBB586:
.LBB584:
.LBB582:
	.loc 1 75 0
	ldr	r3, [r3]
	movs	r0, #40
.LVL1022:
.LBE582:
.LBE584:
.LBE586:
.LBE589:
	.loc 1 522 0
	mov	r4, r1
.LVL1023:
.LBB590:
.LBB587:
.LBB585:
.LBB583:
	.loc 1 75 0
	blx	r3
.LVL1024:
	.loc 1 76 0
	cbz	r0, .L1165
	mov	r5, r0
	movs	r2, #40
	movs	r1, #0
	bl	memset
.LVL1025:
.LBE583:
.LBE585:
	.loc 1 517 0
	mov	r1, r4
	mov	r3, r5
	add	r2, r4, #32
.LVL1026:
.L1167:
	ldr	ip, [r1]	@ unaligned
	ldr	r7, [r1, #4]	@ unaligned
	ldr	r4, [r1, #8]	@ unaligned
	ldr	r0, [r1, #12]	@ unaligned
	adds	r1, r1, #16
	cmp	r1, r2
	str	ip, [r3]	@ unaligned
	str	r7, [r3, #4]	@ unaligned
	str	r4, [r3, #8]	@ unaligned
	str	r0, [r3, #12]	@ unaligned
	add	r3, r3, #16
	bne	.L1167
	movs	r0, #0
	ldr	r2, [r1, #4]	@ unaligned
.LVL1027:
	ldr	r4, [r1]	@ unaligned
	str	r2, [r3, #4]	@ unaligned
	str	r4, [r3]	@ unaligned
	ldr	r3, [r5, #12]
.LBE587:
.LBE590:
.LBB591:
.LBB592:
	.loc 1 520 0
	ldr	r2, [r6, #8]
.LBE592:
.LBE591:
.LBB596:
.LBB588:
	.loc 1 517 0
	orr	r3, r3, #256
	str	r3, [r5, #12]
	str	r0, [r5, #32]
	str	r0, [r5, #4]
	str	r0, [r5]
.LVL1028:
.LBE588:
.LBE596:
.LBB597:
.LBB595:
	.loc 1 520 0
	cbnz	r2, .L1169
	b	.L1176
.L1170:
	mov	r2, r3
.LVL1029:
.L1169:
	ldr	r3, [r2]
	cmp	r3, #0
	bne	.L1170
.LVL1030:
.LBB593:
.LBB594:
	.loc 1 515 0
	str	r5, [r2]
	str	r2, [r5, #4]
.LVL1031:
.L1165:
	pop	{r3, r4, r5, r6, r7, pc}
.LVL1032:
.L1176:
.LBE594:
.LBE593:
	.loc 1 520 0
	str	r5, [r6, #8]
	pop	{r3, r4, r5, r6, r7, pc}
.LVL1033:
.L1178:
	.align	2
.L1177:
	.word	.LANCHOR0
.LBE595:
.LBE597:
	.cfi_endproc
.LFE31:
	.size	cJSON_AddItemReferenceToArray, .-cJSON_AddItemReferenceToArray
	.section	.text.cJSON_AddItemReferenceToObject,"ax",%progbits
	.align	1
	.p2align 2,,3
	.global	cJSON_AddItemReferenceToObject
	.syntax unified
	.thumb
	.thumb_func
	.fpu softvfp
	.type	cJSON_AddItemReferenceToObject, %function
cJSON_AddItemReferenceToObject:
.LFB32:
	.loc 1 523 0
	.cfi_startproc
	@ args = 0, pretend = 0, frame = 0
	@ frame_needed = 0, uses_anonymous_args = 0
.LVL1034:
	push	{r4, r5, r6, r7, r8, lr}
	.cfi_def_cfa_offset 24
	.cfi_offset 4, -24
	.cfi_offset 5, -20
	.cfi_offset 6, -16
	.cfi_offset 7, -12
	.cfi_offset 8, -8
	.cfi_offset 14, -4
.LBB610:
.LBB611:
.LBB612:
.LBB613:
	.loc 1 75 0
	ldr	r6, .L1195
.LBE613:
.LBE612:
.LBE611:
.LBE610:
	.loc 1 523 0
	mov	r8, r0
.LBB620:
.LBB618:
.LBB616:
.LBB614:
	.loc 1 75 0
	ldr	r3, [r6]
	movs	r0, #40
.LVL1035:
.LBE614:
.LBE616:
.LBE618:
.LBE620:
	.loc 1 523 0
	mov	r7, r1
	mov	r4, r2
.LVL1036:
.LBB621:
.LBB619:
.LBB617:
.LBB615:
	.loc 1 75 0
	blx	r3
.LVL1037:
	.loc 1 76 0
	cmp	r0, #0
	beq	.L1179
	mov	r5, r0
	movs	r2, #40
	movs	r1, #0
	bl	memset
.LVL1038:
.LBE615:
.LBE617:
	.loc 1 517 0
	mov	r2, r4
	mov	r3, r5
	add	r1, r4, #32
.LVL1039:
.L1181:
	ldr	lr, [r2]	@ unaligned
	ldr	ip, [r2, #4]	@ unaligned
	ldr	r4, [r2, #8]	@ unaligned
	ldr	r0, [r2, #12]	@ unaligned
	adds	r2, r2, #16
	cmp	r2, r1
	str	lr, [r3]	@ unaligned
	str	ip, [r3, #4]	@ unaligned
	str	r4, [r3, #8]	@ unaligned
	str	r0, [r3, #12]	@ unaligned
	add	r3, r3, #16
	bne	.L1181
	movs	r1, #0
.LVL1040:
	ldr	r0, [r2]	@ unaligned
	ldr	r2, [r2, #4]	@ unaligned
	str	r0, [r3]	@ unaligned
	str	r2, [r3, #4]	@ unaligned
	ldr	r3, [r5, #12]
	str	r1, [r5, #32]
	orr	r3, r3, #256
	str	r3, [r5, #12]
	str	r1, [r5, #4]
	str	r1, [r5]
.LVL1041:
.LBE619:
.LBE621:
.LBB622:
.LBB623:
.LBB624:
.LBB625:
	.loc 1 54 0
	mov	r0, r7
	bl	strlen
.LVL1042:
	adds	r4, r0, #1
.LVL1043:
	.loc 1 55 0
	ldr	r3, [r6]
	mov	r0, r4
	blx	r3
.LVL1044:
	mov	r6, r0
	cbz	r0, .L1182
	.loc 1 56 0
	mov	r2, r4
	mov	r1, r7
	bl	memcpy
.LVL1045:
.L1182:
.LBE625:
.LBE624:
.LBB626:
.LBB627:
	.loc 1 520 0
	ldr	r2, [r8, #8]
.LBE627:
.LBE626:
	.loc 1 521 0
	str	r6, [r5, #32]
.LVL1046:
.LBB631:
.LBB630:
	.loc 1 520 0
	cbnz	r2, .L1184
	b	.L1194
.L1185:
	mov	r2, r3
.LVL1047:
.L1184:
	ldr	r3, [r2]
	cmp	r3, #0
	bne	.L1185
.LVL1048:
.LBB628:
.LBB629:
	.loc 1 515 0
	str	r5, [r2]
	str	r2, [r5, #4]
.LVL1049:
.L1179:
	pop	{r4, r5, r6, r7, r8, pc}
.LVL1050:
.L1194:
.LBE629:
.LBE628:
	.loc 1 520 0
	str	r5, [r8, #8]
	pop	{r4, r5, r6, r7, r8, pc}
.LVL1051:
.L1196:
	.align	2
.L1195:
	.word	.LANCHOR0
.LBE630:
.LBE631:
.LBE623:
.LBE622:
	.cfi_endproc
.LFE32:
	.size	cJSON_AddItemReferenceToObject, .-cJSON_AddItemReferenceToObject
	.section	.text.cJSON_DetachItemFromArray,"ax",%progbits
	.align	1
	.p2align 2,,3
	.global	cJSON_DetachItemFromArray
	.syntax unified
	.thumb
	.thumb_func
	.fpu softvfp
	.type	cJSON_DetachItemFromArray, %function
cJSON_DetachItemFromArray:
.LFB33:
	.loc 1 525 0
	.cfi_startproc
	@ args = 0, pretend = 0, frame = 0
	@ frame_needed = 0, uses_anonymous_args = 0
	@ link register save eliminated.
.LVL1052:
	ldr	r2, [r0, #8]
.LVL1053:
	mov	r3, r2
	cbz	r2, .L1215
	cmp	r1, #0
	bgt	.L1200
	b	.L1199
.LVL1054:
.L1217:
	.loc 1 525 0 is_stmt 0 discriminator 3
	cbz	r1, .L1199
.L1200:
	.loc 1 525 0 discriminator 5
	ldr	r3, [r3]
.LVL1055:
	subs	r1, r1, #1
.LVL1056:
	cmp	r3, #0
	bne	.L1217
.L1215:
	.loc 1 526 0 is_stmt 1
	mov	r0, r3
.LVL1057:
	bx	lr
.LVL1058:
.L1199:
	ldr	r1, [r3, #4]
.LVL1059:
	.loc 1 525 0
	push	{r4}
	.cfi_def_cfa_offset 4
	.cfi_offset 4, -4
	.loc 1 526 0
	cbz	r1, .L1204
	.loc 1 526 0 is_stmt 0 discriminator 1
	ldr	r4, [r3]
	str	r4, [r1]
.L1204:
	.loc 1 526 0 discriminator 3
	ldr	r4, [r3]
	cbz	r4, .L1201
	.loc 1 526 0 discriminator 4
	str	r1, [r4, #4]
.L1201:
	.loc 1 526 0 discriminator 6
	cmp	r2, r3
	mov	r2, #0
	it	eq
	streq	r4, [r0, #8]
	mov	r0, r3
.LVL1060:
	str	r2, [r3]
	str	r2, [r3, #4]
	pop	{r4}
	.cfi_restore 4
	.cfi_def_cfa_offset 0
	bx	lr
	.cfi_endproc
.LFE33:
	.size	cJSON_DetachItemFromArray, .-cJSON_DetachItemFromArray
	.section	.text.cJSON_DeleteItemFromArray,"ax",%progbits
	.align	1
	.p2align 2,,3
	.global	cJSON_DeleteItemFromArray
	.syntax unified
	.thumb
	.thumb_func
	.fpu softvfp
	.type	cJSON_DeleteItemFromArray, %function
cJSON_DeleteItemFromArray:
.LFB34:
	.loc 1 527 0 is_stmt 1
	.cfi_startproc
	@ args = 0, pretend = 0, frame = 0
	@ frame_needed = 0, uses_anonymous_args = 0
.LVL1061:
.LBB636:
.LBB637:
	.loc 1 525 0
	ldr	r3, [r0, #8]
.LVL1062:
	cmp	r3, #0
	beq	.L1249
	cmp	r1, #0
.LBE637:
.LBE636:
	.loc 1 527 0
	push	{r4, r5, r6, lr}
	.cfi_def_cfa_offset 16
	.cfi_offset 4, -16
	.cfi_offset 5, -12
	.cfi_offset 6, -8
	.cfi_offset 14, -4
.LBB641:
.LBB638:
	.loc 1 525 0
	mov	r4, r3
	bgt	.L1222
	b	.L1220
.LVL1063:
.L1253:
	cbz	r1, .L1220
.L1222:
	ldr	r4, [r4]
.LVL1064:
	subs	r1, r1, #1
.LVL1065:
	cmp	r4, #0
	bne	.L1253
	pop	{r4, r5, r6, pc}
.LVL1066:
.L1220:
	.loc 1 526 0
	ldr	r2, [r4, #4]
	cbz	r2, .L1233
	ldr	r1, [r4]
.LVL1067:
	str	r1, [r2]
.L1233:
	ldr	r1, [r4]
	cbz	r1, .L1223
	str	r2, [r1, #4]
.L1223:
	cmp	r3, r4
	mov	r3, #0
.LBE638:
.LBE641:
.LBB642:
.LBB643:
	.loc 1 87 0
	ldr	r2, [r4, #12]
.LBE643:
.LBE642:
.LBB647:
.LBB639:
	.loc 1 526 0
	it	eq
	streq	r1, [r0, #8]
.LBE639:
.LBE647:
.LBB648:
.LBB644:
	.loc 1 87 0
	lsls	r2, r2, #23
.LBE644:
.LBE648:
.LBB649:
.LBB640:
	.loc 1 526 0
	str	r3, [r4]
	str	r3, [r4, #4]
.LVL1068:
.LBE640:
.LBE649:
.LBB650:
.LBB645:
	.loc 1 87 0
	bmi	.L1252
	ldr	r0, [r4, #8]
.LVL1069:
	cbz	r0, .L1230
	bl	cJSON_Delete
.LVL1070:
	.loc 1 88 0
	ldr	r3, [r4, #12]
	lsls	r3, r3, #23
	bmi	.L1252
.L1230:
	ldr	r0, [r4, #16]
	ldr	r5, .L1254
	cbz	r0, .L1226
	ldr	r3, [r5]
	blx	r3
.LVL1071:
.L1226:
	.loc 1 89 0
	ldr	r0, [r4, #32]
	cbz	r0, .L1231
	ldr	r3, [r5]
	blx	r3
.LVL1072:
.L1231:
	.loc 1 90 0
	ldr	r3, [r5]
	mov	r0, r4
.LBE645:
.LBE650:
	.loc 1 527 0
	pop	{r4, r5, r6, lr}
	.cfi_remember_state
	.cfi_restore 14
	.cfi_restore 6
	.cfi_restore 5
	.cfi_restore 4
	.cfi_def_cfa_offset 0
.LVL1073:
.LBB651:
.LBB646:
	.loc 1 90 0
	bx	r3	@ indirect register sibling call
.LVL1074:
.L1252:
	.cfi_restore_state
	ldr	r5, .L1254
	b	.L1226
.LVL1075:
.L1249:
	.cfi_def_cfa_offset 0
	.cfi_restore 4
	.cfi_restore 5
	.cfi_restore 6
	.cfi_restore 14
	bx	lr
.L1255:
	.align	2
.L1254:
	.word	.LANCHOR2
.LBE646:
.LBE651:
	.cfi_endproc
.LFE34:
	.size	cJSON_DeleteItemFromArray, .-cJSON_DeleteItemFromArray
	.section	.text.cJSON_DetachItemFromObject,"ax",%progbits
	.align	1
	.p2align 2,,3
	.global	cJSON_DetachItemFromObject
	.syntax unified
	.thumb
	.thumb_func
	.fpu softvfp
	.type	cJSON_DetachItemFromObject, %function
cJSON_DetachItemFromObject:
.LFB35:
	.loc 1 528 0
	.cfi_startproc
	@ args = 0, pretend = 0, frame = 0
	@ frame_needed = 0, uses_anonymous_args = 0
.LVL1076:
	ldr	ip, [r0, #8]
.LVL1077:
	cmp	ip, #0
	beq	.L1295
	.loc 1 528 0 is_stmt 0 discriminator 3
	push	{r4, r5, r6, r7, r8, lr}
	.cfi_def_cfa_offset 24
	.cfi_offset 4, -24
	.cfi_offset 5, -20
	.cfi_offset 6, -16
	.cfi_offset 7, -12
	.cfi_offset 8, -8
	.cfi_offset 14, -4
	mov	lr, r0
	mov	r8, r1
	.loc 1 528 0 is_stmt 1 discriminator 3
	mov	r0, ip
.LVL1078:
	movs	r1, #0
.LVL1079:
.L1259:
	ldr	r5, [r0, #32]
.LVL1080:
.LBB656:
.LBB657:
	.loc 1 41 0 discriminator 3
	cbz	r5, .L1296
	.loc 1 41 0 is_stmt 0
	cmp	r8, #0
	beq	.L1262
	subs	r5, r5, #1
.LVL1081:
	add	r6, r8, #-1
	b	.L1263
.LVL1082:
.L1267:
	.loc 1 42 0 is_stmt 1
	cbz	r4, .L1264
.LVL1083:
.L1263:
	ldrb	r4, [r5, #1]!	@ zero_extendqisi2
.LVL1084:
	ldrb	r3, [r6, #1]!	@ zero_extendqisi2
	sub	r2, r4, #65
	cmp	r2, #25
	sub	r7, r3, #65
	ite	ls
	movls	r2, #32
	movhi	r2, #0
	cmp	r7, #25
	ite	ls
	movls	r7, #32
	movhi	r7, #0
	add	r2, r2, r4
	add	r3, r3, r7
	cmp	r2, r3
	beq	.L1267
	.loc 1 43 0
	subs	r3, r2, r3
.LVL1085:
.L1261:
.LBE657:
.LBE656:
	.loc 1 528 0
	cbz	r3, .L1264
.L1262:
	.loc 1 528 0 is_stmt 0 discriminator 5
	ldr	r0, [r0]
.LVL1086:
	adds	r1, r1, #1
.LVL1087:
	cmp	r0, #0
	bne	.L1259
	pop	{r4, r5, r6, r7, r8, pc}
.LVL1088:
.L1296:
.LBB659:
.LBB658:
	.loc 1 41 0 is_stmt 1
	adds	r3, r8, #0
	it	ne
	movne	r3, #1
	b	.L1261
.LVL1089:
.L1264:
.LBE658:
.LBE659:
.LBB660:
.LBB661:
	.loc 1 525 0
	mov	r0, ip
.LVL1090:
.L1294:
	cbz	r1, .L1268
	ldr	r0, [r0]
.LVL1091:
	subs	r1, r1, #1
.LVL1092:
	cmp	r0, #0
	bne	.L1294
.LBE661:
.LBE660:
	.loc 1 528 0
	pop	{r4, r5, r6, r7, r8, pc}
.LVL1093:
.L1268:
.LBB663:
.LBB662:
	.loc 1 526 0
	ldr	r3, [r0, #4]
	cbz	r3, .L1273
	ldr	r2, [r0]
	str	r2, [r3]
.L1273:
	ldr	r2, [r0]
	cbz	r2, .L1270
	str	r3, [r2, #4]
.L1270:
	movs	r3, #0
	cmp	ip, r0
	it	eq
	streq	r2, [lr, #8]
	str	r3, [r0]
	str	r3, [r0, #4]
	pop	{r4, r5, r6, r7, r8, pc}
.LVL1094:
.L1295:
	.cfi_def_cfa_offset 0
	.cfi_restore 4
	.cfi_restore 5
	.cfi_restore 6
	.cfi_restore 7
	.cfi_restore 8
	.cfi_restore 14
.LBE662:
.LBE663:
	.loc 1 528 0
	mov	r0, ip
.LVL1095:
	bx	lr
	.cfi_endproc
.LFE35:
	.size	cJSON_DetachItemFromObject, .-cJSON_DetachItemFromObject
	.section	.text.cJSON_DeleteItemFromObject,"ax",%progbits
	.align	1
	.p2align 2,,3
	.global	cJSON_DeleteItemFromObject
	.syntax unified
	.thumb
	.thumb_func
	.fpu softvfp
	.type	cJSON_DeleteItemFromObject, %function
cJSON_DeleteItemFromObject:
.LFB36:
	.loc 1 529 0
	.cfi_startproc
	@ args = 0, pretend = 0, frame = 0
	@ frame_needed = 0, uses_anonymous_args = 0
.LVL1096:
.LBB672:
.LBB673:
	.loc 1 528 0
	ldr	ip, [r0, #8]
.LVL1097:
	cmp	ip, #0
	beq	.L1350
.LBE673:
.LBE672:
	.loc 1 529 0
	push	{r4, r5, r6, r7, r8, lr}
	.cfi_def_cfa_offset 24
	.cfi_offset 4, -24
	.cfi_offset 5, -20
	.cfi_offset 6, -16
	.cfi_offset 7, -12
	.cfi_offset 8, -8
	.cfi_offset 14, -4
	mov	lr, r0
	mov	r8, r1
.LBB687:
.LBB684:
	.loc 1 528 0
	mov	r0, ip
.LVL1098:
	movs	r1, #0
.LVL1099:
.L1299:
	ldr	r5, [r0, #32]
.LVL1100:
.LBB674:
.LBB675:
	.loc 1 41 0
	cbz	r5, .L1351
	cmp	r8, #0
	beq	.L1303
	subs	r5, r5, #1
.LVL1101:
	add	r6, r8, #-1
	b	.L1304
.LVL1102:
.L1308:
	.loc 1 42 0
	cbz	r4, .L1305
.LVL1103:
.L1304:
	ldrb	r4, [r5, #1]!	@ zero_extendqisi2
.LVL1104:
	ldrb	r3, [r6, #1]!	@ zero_extendqisi2
	sub	r2, r4, #65
	cmp	r2, #25
	sub	r7, r3, #65
	ite	hi
	movhi	r2, #0
	movls	r2, #32
	cmp	r7, #25
	ite	hi
	movhi	r7, #0
	movls	r7, #32
	add	r2, r2, r4
	add	r3, r3, r7
	cmp	r2, r3
	beq	.L1308
	.loc 1 43 0
	subs	r3, r2, r3
.LVL1105:
.L1302:
.LBE675:
.LBE674:
	.loc 1 528 0
	cbz	r3, .L1305
.L1303:
	ldr	r0, [r0]
.LVL1106:
	adds	r1, r1, #1
.LVL1107:
	cmp	r0, #0
	bne	.L1299
	pop	{r4, r5, r6, r7, r8, pc}
.LVL1108:
.L1351:
.LBB677:
.LBB676:
	.loc 1 41 0
	adds	r3, r8, #0
	it	ne
	movne	r3, #1
	b	.L1302
.LVL1109:
.L1305:
.LBE676:
.LBE677:
.LBB678:
.LBB679:
	.loc 1 525 0
	mov	r4, ip
.LVL1110:
.L1349:
	cbz	r1, .L1309
	ldr	r4, [r4]
.LVL1111:
	subs	r1, r1, #1
.LVL1112:
	cmp	r4, #0
	bne	.L1349
	pop	{r4, r5, r6, r7, r8, pc}
.LVL1113:
.L1309:
	.loc 1 526 0
	ldr	r3, [r4, #4]
	cbz	r3, .L1321
	ldr	r2, [r4]
	str	r2, [r3]
.L1321:
	ldr	r2, [r4]
	cbz	r2, .L1311
	str	r3, [r2, #4]
.L1311:
	movs	r3, #0
	cmp	ip, r4
	it	eq
	streq	r2, [lr, #8]
.LBE679:
.LBE678:
.LBE684:
.LBE687:
.LBB688:
.LBB689:
	.loc 1 87 0
	ldr	r2, [r4, #12]
.LBE689:
.LBE688:
.LBB693:
.LBB685:
.LBB682:
.LBB680:
	.loc 1 526 0
	str	r3, [r4]
.LBE680:
.LBE682:
.LBE685:
.LBE693:
.LBB694:
.LBB690:
	.loc 1 87 0
	lsls	r2, r2, #23
.LBE690:
.LBE694:
.LBB695:
.LBB686:
.LBB683:
.LBB681:
	.loc 1 526 0
	str	r3, [r4, #4]
.LVL1114:
.LBE681:
.LBE683:
.LBE686:
.LBE695:
.LBB696:
.LBB691:
	.loc 1 87 0
	bpl	.L1352
.LVL1115:
.L1348:
	ldr	r5, .L1353
.L1314:
	.loc 1 89 0
	ldr	r0, [r4, #32]
	cbz	r0, .L1319
	ldr	r3, [r5]
	blx	r3
.LVL1116:
.L1319:
	.loc 1 90 0
	ldr	r3, [r5]
	mov	r0, r4
.LBE691:
.LBE696:
	.loc 1 529 0
	pop	{r4, r5, r6, r7, r8, lr}
	.cfi_remember_state
	.cfi_restore 14
	.cfi_restore 8
	.cfi_restore 7
	.cfi_restore 6
	.cfi_restore 5
	.cfi_restore 4
	.cfi_def_cfa_offset 0
.LVL1117:
.LBB697:
.LBB692:
	.loc 1 90 0
	bx	r3	@ indirect register sibling call
.LVL1118:
.L1352:
	.cfi_restore_state
	.loc 1 87 0
	ldr	r0, [r4, #8]
.LVL1119:
	cbz	r0, .L1318
	bl	cJSON_Delete
.LVL1120:
	.loc 1 88 0
	ldr	r3, [r4, #12]
	lsls	r3, r3, #23
	bmi	.L1348
.L1318:
	ldr	r0, [r4, #16]
	ldr	r5, .L1353
	cmp	r0, #0
	beq	.L1314
	ldr	r3, [r5]
	blx	r3
.LVL1121:
	b	.L1314
.LVL1122:
.L1350:
	.cfi_def_cfa_offset 0
	.cfi_restore 4
	.cfi_restore 5
	.cfi_restore 6
	.cfi_restore 7
	.cfi_restore 8
	.cfi_restore 14
	bx	lr
.L1354:
	.align	2
.L1353:
	.word	.LANCHOR2
.LBE692:
.LBE697:
	.cfi_endproc
.LFE36:
	.size	cJSON_DeleteItemFromObject, .-cJSON_DeleteItemFromObject
	.section	.text.cJSON_ReplaceItemInArray,"ax",%progbits
	.align	1
	.p2align 2,,3
	.global	cJSON_ReplaceItemInArray
	.syntax unified
	.thumb
	.thumb_func
	.fpu softvfp
	.type	cJSON_ReplaceItemInArray, %function
cJSON_ReplaceItemInArray:
.LFB37:
	.loc 1 532 0
	.cfi_startproc
	@ args = 0, pretend = 0, frame = 0
	@ frame_needed = 0, uses_anonymous_args = 0
.LVL1123:
	ldr	r3, [r0, #8]
.LVL1124:
	cmp	r3, #0
	beq	.L1386
	cmp	r1, #0
	push	{r4, r5, r6, lr}
	.cfi_def_cfa_offset 16
	.cfi_offset 4, -16
	.cfi_offset 5, -12
	.cfi_offset 6, -8
	.cfi_offset 14, -4
	.loc 1 532 0
	ble	.L1357
	.loc 1 532 0 is_stmt 0 discriminator 5
	mov	r4, r3
	b	.L1359
.LVL1125:
.L1392:
	.loc 1 532 0 discriminator 3
	cbz	r1, .L1391
.L1359:
	.loc 1 532 0 discriminator 5
	ldr	r4, [r4]
.LVL1126:
	subs	r1, r1, #1
.LVL1127:
	cmp	r4, #0
	bne	.L1392
	pop	{r4, r5, r6, pc}
.LVL1128:
.L1391:
	.loc 1 533 0 is_stmt 1
	ldm	r4, {r1, r5}
.LVL1129:
	stm	r2, {r1, r5}
	cbz	r1, .L1371
.L1370:
	.loc 1 533 0 is_stmt 0 discriminator 1
	str	r2, [r1, #4]
.L1371:
	.loc 1 534 0 is_stmt 1
	cmp	r3, r4
	beq	.L1372
	.loc 1 534 0 is_stmt 0 discriminator 2
	ldr	r3, [r2, #4]
	str	r2, [r3]
.L1362:
	.loc 1 534 0 discriminator 4
	movs	r3, #0
.LBB700:
.LBB701:
	.loc 1 87 0 is_stmt 1 discriminator 4
	ldr	r2, [r4, #12]
.LVL1130:
.LBE701:
.LBE700:
	.loc 1 534 0 discriminator 4
	str	r3, [r4, #4]
.LBB705:
.LBB702:
	.loc 1 87 0 discriminator 4
	lsls	r2, r2, #23
.LBE702:
.LBE705:
	.loc 1 534 0 discriminator 4
	str	r3, [r4]
.LVL1131:
.LBB706:
.LBB703:
	.loc 1 87 0 discriminator 4
	bmi	.L1389
	.loc 1 87 0 is_stmt 0
	ldr	r0, [r4, #8]
.LVL1132:
	cbz	r0, .L1368
	bl	cJSON_Delete
.LVL1133:
	.loc 1 88 0 is_stmt 1
	ldr	r3, [r4, #12]
	lsls	r3, r3, #23
	bmi	.L1389
.L1368:
	ldr	r0, [r4, #16]
	ldr	r5, .L1393
	cbz	r0, .L1364
	ldr	r3, [r5]
	blx	r3
.LVL1134:
.L1364:
	.loc 1 89 0
	ldr	r0, [r4, #32]
	cbz	r0, .L1369
	ldr	r3, [r5]
	blx	r3
.LVL1135:
.L1369:
	.loc 1 90 0
	ldr	r3, [r5]
	mov	r0, r4
.LBE703:
.LBE706:
	.loc 1 534 0
	pop	{r4, r5, r6, lr}
	.cfi_remember_state
	.cfi_restore 14
	.cfi_restore 6
	.cfi_restore 5
	.cfi_restore 4
	.cfi_def_cfa_offset 0
.LVL1136:
.LBB707:
.LBB704:
	.loc 1 90 0
	bx	r3	@ indirect register sibling call
.LVL1137:
.L1389:
	.cfi_restore_state
	ldr	r5, .L1393
	b	.L1364
.LVL1138:
.L1357:
.LBE704:
.LBE707:
	.loc 1 533 0
	ldm	r3, {r1, r4}
.LVL1139:
	stm	r2, {r1, r4}
	mov	r4, r3
	cmp	r1, #0
	bne	.L1370
.LVL1140:
.L1372:
	.loc 1 534 0 discriminator 1
	str	r2, [r0, #8]
	b	.L1362
.LVL1141:
.L1386:
	.cfi_def_cfa_offset 0
	.cfi_restore 4
	.cfi_restore 5
	.cfi_restore 6
	.cfi_restore 14
	bx	lr
.L1394:
	.align	2
.L1393:
	.word	.LANCHOR2
	.cfi_endproc
.LFE37:
	.size	cJSON_ReplaceItemInArray, .-cJSON_ReplaceItemInArray
	.section	.text.cJSON_ReplaceItemInObject,"ax",%progbits
	.align	1
	.p2align 2,,3
	.global	cJSON_ReplaceItemInObject
	.syntax unified
	.thumb
	.thumb_func
	.fpu softvfp
	.type	cJSON_ReplaceItemInObject, %function
cJSON_ReplaceItemInObject:
.LFB38:
	.loc 1 535 0
	.cfi_startproc
	@ args = 0, pretend = 0, frame = 0
	@ frame_needed = 0, uses_anonymous_args = 0
.LVL1142:
	push	{r4, r5, r6, r7, r8, r9, r10, lr}
	.cfi_def_cfa_offset 32
	.cfi_offset 4, -32
	.cfi_offset 5, -28
	.cfi_offset 6, -24
	.cfi_offset 7, -20
	.cfi_offset 8, -16
	.cfi_offset 9, -12
	.cfi_offset 10, -8
	.cfi_offset 14, -4
	.loc 1 535 0
	mov	lr, r0
	ldr	r0, [r0, #8]
.LVL1143:
	mov	r8, #0
	cmp	r0, #0
	beq	.L1457
.LVL1144:
.L1397:
	.loc 1 535 0 is_stmt 0 discriminator 3
	ldr	r6, [r0, #32]
.LVL1145:
.LBB716:
.LBB717:
	.loc 1 41 0 is_stmt 1 discriminator 3
	cbz	r6, .L1458
	.loc 1 41 0 is_stmt 0
	cbz	r1, .L1401
	subs	r6, r6, #1
.LVL1146:
	subs	r7, r1, #1
	b	.L1402
.LVL1147:
.L1406:
	.loc 1 42 0 is_stmt 1
	cbz	r5, .L1403
.LVL1148:
.L1402:
	ldrb	r5, [r6, #1]!	@ zero_extendqisi2
.LVL1149:
	ldrb	r3, [r7, #1]!	@ zero_extendqisi2
	sub	r4, r5, #65
	cmp	r4, #25
	sub	ip, r3, #65
	ite	hi
	movhi	r4, #0
	movls	r4, #32
	cmp	ip, #25
	ite	hi
	movhi	ip, #0
	movls	ip, #32
	add	r4, r4, r5
	add	r3, r3, ip
	cmp	r4, r3
	beq	.L1406
	.loc 1 43 0
	subs	r3, r4, r3
.LVL1150:
.L1400:
.LBE717:
.LBE716:
	.loc 1 535 0
	cbz	r3, .L1403
.L1401:
	.loc 1 535 0 is_stmt 0 discriminator 5
	ldr	r0, [r0]
.LVL1151:
	add	r8, r8, #1
.LVL1152:
	cmp	r0, #0
	bne	.L1397
	pop	{r4, r5, r6, r7, r8, r9, r10, pc}
.LVL1153:
.L1458:
.LBB719:
.LBB718:
	.loc 1 41 0 is_stmt 1
	adds	r3, r1, #0
	it	ne
	movne	r3, #1
	b	.L1400
.LVL1154:
.L1403:
.LBE718:
.LBE719:
	.loc 1 535 0 discriminator 7
	ldr	r0, [r2, #32]
.LVL1155:
	mov	r6, r2
	mov	r4, r1
	mov	r7, lr
	cbz	r0, .L1407
.LVL1156:
	.loc 1 535 0 is_stmt 0 discriminator 9
	ldr	r5, .L1461
	ldr	r3, [r5]
	blx	r3
.LVL1157:
.L1407:
.LBB720:
.LBB721:
	.loc 1 54 0 is_stmt 1 discriminator 11
	mov	r0, r4
	bl	strlen
.LVL1158:
	.loc 1 55 0 discriminator 11
	ldr	r3, .L1461+4
	.loc 1 54 0 discriminator 11
	adds	r5, r0, #1
.LVL1159:
	.loc 1 55 0 discriminator 11
	mov	r0, r5
	ldr	r3, [r3]
	blx	r3
.LVL1160:
	mov	r9, r0
	cbz	r0, .L1408
	.loc 1 56 0
	mov	r2, r5
	mov	r1, r4
	bl	memcpy
.LVL1161:
.L1408:
.LBE721:
.LBE720:
.LBB722:
.LBB723:
	.loc 1 532 0
	ldr	r3, [r7, #8]
.LBE723:
.LBE722:
	.loc 1 535 0
	str	r9, [r6, #32]
.LVL1162:
.LBB734:
.LBB732:
	.loc 1 532 0
	cbz	r3, .L1395
	cmp	r8, #0
	beq	.L1409
	mov	r4, r3
.LVL1163:
	b	.L1410
.LVL1164:
.L1460:
	cmp	r8, #0
	beq	.L1459
.L1410:
	ldr	r4, [r4]
.LVL1165:
	add	r8, r8, #-1
.LVL1166:
	cmp	r4, #0
	bne	.L1460
.LVL1167:
.L1395:
	pop	{r4, r5, r6, r7, r8, r9, r10, pc}
.LVL1168:
.L1459:
	.loc 1 533 0
	ldr	r2, [r4]
	ldr	r1, [r4, #4]
	str	r2, [r6]
	str	r1, [r6, #4]
	cbz	r2, .L1422
.L1421:
	str	r6, [r2, #4]
.L1422:
	.loc 1 534 0
	cmp	r3, r4
	beq	.L1423
	ldr	r3, [r6, #4]
	str	r6, [r3]
.L1413:
	movs	r3, #0
.LBB724:
.LBB725:
	.loc 1 87 0
	ldr	r2, [r4, #12]
.LBE725:
.LBE724:
	.loc 1 534 0
	str	r3, [r4, #4]
.LBB729:
.LBB726:
	.loc 1 87 0
	lsls	r2, r2, #23
.LBE726:
.LBE729:
	.loc 1 534 0
	str	r3, [r4]
.LVL1169:
.LBB730:
.LBB727:
	.loc 1 87 0
	bmi	.L1455
	ldr	r0, [r4, #8]
	cbz	r0, .L1419
	bl	cJSON_Delete
.LVL1170:
	.loc 1 88 0
	ldr	r3, [r4, #12]
	lsls	r3, r3, #23
	bmi	.L1455
.L1419:
	ldr	r0, [r4, #16]
	ldr	r5, .L1461
	cbz	r0, .L1415
	ldr	r3, [r5]
	blx	r3
.LVL1171:
.L1415:
	.loc 1 89 0
	ldr	r0, [r4, #32]
	cbz	r0, .L1420
	ldr	r3, [r5]
	blx	r3
.LVL1172:
.L1420:
	.loc 1 90 0
	ldr	r3, [r5]
	mov	r0, r4
.LBE727:
.LBE730:
.LBE732:
.LBE734:
	.loc 1 535 0
	pop	{r4, r5, r6, r7, r8, r9, r10, lr}
	.cfi_remember_state
	.cfi_restore 14
	.cfi_restore 10
	.cfi_restore 9
	.cfi_restore 8
	.cfi_restore 7
	.cfi_restore 6
	.cfi_restore 5
	.cfi_restore 4
	.cfi_def_cfa_offset 0
.LVL1173:
.LBB735:
.LBB733:
.LBB731:
.LBB728:
	.loc 1 90 0
	bx	r3	@ indirect register sibling call
.LVL1174:
.L1455:
	.cfi_restore_state
	ldr	r5, .L1461
	b	.L1415
.LVL1175:
.L1409:
.LBE728:
.LBE731:
	.loc 1 533 0
	ldr	r2, [r3]
	ldr	r1, [r3, #4]
	mov	r4, r3
.LVL1176:
	str	r2, [r6]
	str	r1, [r6, #4]
	cmp	r2, #0
	bne	.L1421
.LVL1177:
.L1423:
	.loc 1 534 0
	str	r6, [r7, #8]
	b	.L1413
.LVL1178:
.L1457:
	pop	{r4, r5, r6, r7, r8, r9, r10, pc}
.L1462:
	.align	2
.L1461:
	.word	.LANCHOR2
	.word	.LANCHOR0
.LBE733:
.LBE735:
	.cfi_endproc
.LFE38:
	.size	cJSON_ReplaceItemInObject, .-cJSON_ReplaceItemInObject
	.section	.text.cJSON_CreateNull,"ax",%progbits
	.align	1
	.p2align 2,,3
	.global	cJSON_CreateNull
	.syntax unified
	.thumb
	.thumb_func
	.fpu softvfp
	.type	cJSON_CreateNull, %function
cJSON_CreateNull:
.LFB39:
	.loc 1 538 0
	.cfi_startproc
	@ args = 0, pretend = 0, frame = 0
	@ frame_needed = 0, uses_anonymous_args = 0
.LBB738:
.LBB739:
	.loc 1 75 0
	ldr	r3, .L1469
.LBE739:
.LBE738:
	.loc 1 538 0
	push	{r4, lr}
	.cfi_def_cfa_offset 8
	.cfi_offset 4, -8
	.cfi_offset 14, -4
.LBB741:
.LBB740:
	.loc 1 75 0
	movs	r0, #40
	ldr	r3, [r3]
	blx	r3
.LVL1179:
	.loc 1 76 0
	mov	r4, r0
	cbz	r0, .L1463
	movs	r2, #40
	movs	r1, #0
	bl	memset
.LVL1180:
.LBE740:
.LBE741:
	.loc 1 538 0
	movs	r3, #2
	str	r3, [r4, #12]
.L1463:
	mov	r0, r4
	pop	{r4, pc}
.L1470:
	.align	2
.L1469:
	.word	.LANCHOR0
	.cfi_endproc
.LFE39:
	.size	cJSON_CreateNull, .-cJSON_CreateNull
	.section	.text.cJSON_CreateTrue,"ax",%progbits
	.align	1
	.p2align 2,,3
	.global	cJSON_CreateTrue
	.syntax unified
	.thumb
	.thumb_func
	.fpu softvfp
	.type	cJSON_CreateTrue, %function
cJSON_CreateTrue:
.LFB40:
	.loc 1 539 0
	.cfi_startproc
	@ args = 0, pretend = 0, frame = 0
	@ frame_needed = 0, uses_anonymous_args = 0
.LBB744:
.LBB745:
	.loc 1 75 0
	ldr	r3, .L1477
.LBE745:
.LBE744:
	.loc 1 539 0
	push	{r4, lr}
	.cfi_def_cfa_offset 8
	.cfi_offset 4, -8
	.cfi_offset 14, -4
.LBB747:
.LBB746:
	.loc 1 75 0
	movs	r0, #40
	ldr	r3, [r3]
	blx	r3
.LVL1181:
	.loc 1 76 0
	mov	r4, r0
	cbz	r0, .L1471
	movs	r2, #40
	movs	r1, #0
	bl	memset
.LVL1182:
.LBE746:
.LBE747:
	.loc 1 539 0
	movs	r3, #1
	str	r3, [r4, #12]
.L1471:
	mov	r0, r4
	pop	{r4, pc}
.L1478:
	.align	2
.L1477:
	.word	.LANCHOR0
	.cfi_endproc
.LFE40:
	.size	cJSON_CreateTrue, .-cJSON_CreateTrue
	.section	.text.cJSON_CreateFalse,"ax",%progbits
	.align	1
	.p2align 2,,3
	.global	cJSON_CreateFalse
	.syntax unified
	.thumb
	.thumb_func
	.fpu softvfp
	.type	cJSON_CreateFalse, %function
cJSON_CreateFalse:
.LFB41:
	.loc 1 540 0
	.cfi_startproc
	@ args = 0, pretend = 0, frame = 0
	@ frame_needed = 0, uses_anonymous_args = 0
.LBB750:
.LBB751:
	.loc 1 75 0
	ldr	r3, .L1485
.LBE751:
.LBE750:
	.loc 1 540 0
	push	{r4, lr}
	.cfi_def_cfa_offset 8
	.cfi_offset 4, -8
	.cfi_offset 14, -4
.LBB753:
.LBB752:
	.loc 1 75 0
	movs	r0, #40
	ldr	r3, [r3]
	blx	r3
.LVL1183:
	.loc 1 76 0
	mov	r4, r0
	cbz	r0, .L1479
	movs	r2, #40
	movs	r1, #0
	bl	memset
.LVL1184:
.LBE752:
.LBE753:
	.loc 1 540 0
	movs	r3, #0
	str	r3, [r4, #12]
.L1479:
	mov	r0, r4
	pop	{r4, pc}
.L1486:
	.align	2
.L1485:
	.word	.LANCHOR0
	.cfi_endproc
.LFE41:
	.size	cJSON_CreateFalse, .-cJSON_CreateFalse
	.section	.text.cJSON_CreateBool,"ax",%progbits
	.align	1
	.p2align 2,,3
	.global	cJSON_CreateBool
	.syntax unified
	.thumb
	.thumb_func
	.fpu softvfp
	.type	cJSON_CreateBool, %function
cJSON_CreateBool:
.LFB42:
	.loc 1 541 0
	.cfi_startproc
	@ args = 0, pretend = 0, frame = 0
	@ frame_needed = 0, uses_anonymous_args = 0
.LVL1185:
	push	{r3, r4, r5, lr}
	.cfi_def_cfa_offset 16
	.cfi_offset 3, -16
	.cfi_offset 4, -12
	.cfi_offset 5, -8
	.cfi_offset 14, -4
.LBB756:
.LBB757:
	.loc 1 75 0
	ldr	r3, .L1493
.LBE757:
.LBE756:
	.loc 1 541 0
	mov	r4, r0
.LBB759:
.LBB758:
	.loc 1 75 0
	ldr	r3, [r3]
	movs	r0, #40
.LVL1186:
	blx	r3
.LVL1187:
	.loc 1 76 0
	mov	r5, r0
	cbz	r0, .L1487
	movs	r2, #40
	movs	r1, #0
	bl	memset
.LVL1188:
.LBE758:
.LBE759:
	.loc 1 541 0
	adds	r4, r4, #0
	it	ne
	movne	r4, #1
.LVL1189:
	str	r4, [r5, #12]
.L1487:
	mov	r0, r5
	pop	{r3, r4, r5, pc}
.L1494:
	.align	2
.L1493:
	.word	.LANCHOR0
	.cfi_endproc
.LFE42:
	.size	cJSON_CreateBool, .-cJSON_CreateBool
	.section	.text.cJSON_CreateNumber,"ax",%progbits
	.align	1
	.p2align 2,,3
	.global	cJSON_CreateNumber
	.syntax unified
	.thumb
	.thumb_func
	.fpu softvfp
	.type	cJSON_CreateNumber, %function
cJSON_CreateNumber:
.LFB43:
	.loc 1 542 0
	.cfi_startproc
	@ args = 0, pretend = 0, frame = 0
	@ frame_needed = 0, uses_anonymous_args = 0
.LVL1190:
.LBB762:
.LBB763:
	.loc 1 75 0
	ldr	r3, .L1501
.LBE763:
.LBE762:
	.loc 1 542 0
	push	{r4, r6, r7, lr}
	.cfi_def_cfa_offset 16
	.cfi_offset 4, -16
	.cfi_offset 6, -12
	.cfi_offset 7, -8
	.cfi_offset 14, -4
.LBB767:
.LBB764:
	.loc 1 75 0
	ldr	r3, [r3]
.LBE764:
.LBE767:
	.loc 1 542 0
	mov	r6, r0
.LBB768:
.LBB765:
	.loc 1 75 0
	movs	r0, #40
.LVL1191:
.LBE765:
.LBE768:
	.loc 1 542 0
	mov	r7, r1
.LBB769:
.LBB766:
	.loc 1 75 0
	blx	r3
.LVL1192:
	.loc 1 76 0
	mov	r4, r0
	cbz	r0, .L1495
	movs	r2, #40
	movs	r1, #0
	bl	memset
.LVL1193:
.LBE766:
.LBE769:
	.loc 1 542 0
	movs	r3, #3
	strd	r6, [r4, #24]
	mov	r0, r6
	mov	r1, r7
	str	r3, [r4, #12]
	bl	__aeabi_d2iz
.LVL1194:
	str	r0, [r4, #20]
.L1495:
	mov	r0, r4
	pop	{r4, r6, r7, pc}
.L1502:
	.align	2
.L1501:
	.word	.LANCHOR0
	.cfi_endproc
.LFE43:
	.size	cJSON_CreateNumber, .-cJSON_CreateNumber
	.section	.text.cJSON_CreateString,"ax",%progbits
	.align	1
	.p2align 2,,3
	.global	cJSON_CreateString
	.syntax unified
	.thumb
	.thumb_func
	.fpu softvfp
	.type	cJSON_CreateString, %function
cJSON_CreateString:
.LFB44:
	.loc 1 543 0
	.cfi_startproc
	@ args = 0, pretend = 0, frame = 0
	@ frame_needed = 0, uses_anonymous_args = 0
.LVL1195:
	push	{r3, r4, r5, r6, r7, lr}
	.cfi_def_cfa_offset 24
	.cfi_offset 3, -24
	.cfi_offset 4, -20
	.cfi_offset 5, -16
	.cfi_offset 6, -12
	.cfi_offset 7, -8
	.cfi_offset 14, -4
.LBB774:
.LBB775:
	.loc 1 75 0
	ldr	r5, .L1513
.LBE775:
.LBE774:
	.loc 1 543 0
	mov	r6, r0
.LBB777:
.LBB776:
	.loc 1 75 0
	ldr	r3, [r5]
	movs	r0, #40
.LVL1196:
	blx	r3
.LVL1197:
	.loc 1 76 0
	mov	r4, r0
	cbz	r0, .L1503
	movs	r2, #40
	movs	r1, #0
	bl	memset
.LVL1198:
.LBE776:
.LBE777:
	.loc 1 543 0
	movs	r3, #4
.LBB778:
.LBB779:
	.loc 1 54 0
	mov	r0, r6
.LBE779:
.LBE778:
	.loc 1 543 0
	str	r3, [r4, #12]
.LVL1199:
.LBB781:
.LBB780:
	.loc 1 54 0
	bl	strlen
.LVL1200:
	adds	r7, r0, #1
.LVL1201:
	.loc 1 55 0
	ldr	r3, [r5]
	mov	r0, r7
	blx	r3
.LVL1202:
	mov	r5, r0
	cbz	r0, .L1505
	.loc 1 56 0
	mov	r2, r7
	mov	r1, r6
	bl	memcpy
.LVL1203:
.L1505:
.LBE780:
.LBE781:
	.loc 1 543 0
	str	r5, [r4, #16]
.L1503:
	mov	r0, r4
	pop	{r3, r4, r5, r6, r7, pc}
.LVL1204:
.L1514:
	.align	2
.L1513:
	.word	.LANCHOR0
	.cfi_endproc
.LFE44:
	.size	cJSON_CreateString, .-cJSON_CreateString
	.section	.text.cJSON_CreateArray,"ax",%progbits
	.align	1
	.p2align 2,,3
	.global	cJSON_CreateArray
	.syntax unified
	.thumb
	.thumb_func
	.fpu softvfp
	.type	cJSON_CreateArray, %function
cJSON_CreateArray:
.LFB45:
	.loc 1 544 0
	.cfi_startproc
	@ args = 0, pretend = 0, frame = 0
	@ frame_needed = 0, uses_anonymous_args = 0
.LBB784:
.LBB785:
	.loc 1 75 0
	ldr	r3, .L1521
.LBE785:
.LBE784:
	.loc 1 544 0
	push	{r4, lr}
	.cfi_def_cfa_offset 8
	.cfi_offset 4, -8
	.cfi_offset 14, -4
.LBB787:
.LBB786:
	.loc 1 75 0
	movs	r0, #40
	ldr	r3, [r3]
	blx	r3
.LVL1205:
	.loc 1 76 0
	mov	r4, r0
	cbz	r0, .L1515
	movs	r2, #40
	movs	r1, #0
	bl	memset
.LVL1206:
.LBE786:
.LBE787:
	.loc 1 544 0
	movs	r3, #5
	str	r3, [r4, #12]
.L1515:
	mov	r0, r4
	pop	{r4, pc}
.L1522:
	.align	2
.L1521:
	.word	.LANCHOR0
	.cfi_endproc
.LFE45:
	.size	cJSON_CreateArray, .-cJSON_CreateArray
	.section	.text.cJSON_CreateObject,"ax",%progbits
	.align	1
	.p2align 2,,3
	.global	cJSON_CreateObject
	.syntax unified
	.thumb
	.thumb_func
	.fpu softvfp
	.type	cJSON_CreateObject, %function
cJSON_CreateObject:
.LFB46:
	.loc 1 545 0
	.cfi_startproc
	@ args = 0, pretend = 0, frame = 0
	@ frame_needed = 0, uses_anonymous_args = 0
.LBB790:
.LBB791:
	.loc 1 75 0
	ldr	r3, .L1529
.LBE791:
.LBE790:
	.loc 1 545 0
	push	{r4, lr}
	.cfi_def_cfa_offset 8
	.cfi_offset 4, -8
	.cfi_offset 14, -4
.LBB793:
.LBB792:
	.loc 1 75 0
	movs	r0, #40
	ldr	r3, [r3]
	blx	r3
.LVL1207:
	.loc 1 76 0
	mov	r4, r0
	cbz	r0, .L1523
	movs	r2, #40
	movs	r1, #0
	bl	memset
.LVL1208:
.LBE792:
.LBE793:
	.loc 1 545 0
	movs	r3, #6
	str	r3, [r4, #12]
.L1523:
	mov	r0, r4
	pop	{r4, pc}
.L1530:
	.align	2
.L1529:
	.word	.LANCHOR0
	.cfi_endproc
.LFE46:
	.size	cJSON_CreateObject, .-cJSON_CreateObject
	.section	.text.cJSON_CreateIntArray,"ax",%progbits
	.align	1
	.p2align 2,,3
	.global	cJSON_CreateIntArray
	.syntax unified
	.thumb
	.thumb_func
	.fpu softvfp
	.type	cJSON_CreateIntArray, %function
cJSON_CreateIntArray:
.LFB47:
	.loc 1 548 0
	.cfi_startproc
	@ args = 0, pretend = 0, frame = 8
	@ frame_needed = 0, uses_anonymous_args = 0
.LVL1209:
	push	{r4, r5, r6, r7, r8, r9, r10, fp, lr}
	.cfi_def_cfa_offset 36
	.cfi_offset 4, -36
	.cfi_offset 5, -32
	.cfi_offset 6, -28
	.cfi_offset 7, -24
	.cfi_offset 8, -20
	.cfi_offset 9, -16
	.cfi_offset 10, -12
	.cfi_offset 11, -8
	.cfi_offset 14, -4
.LBB804:
.LBB805:
.LBB806:
.LBB807:
	.loc 1 75 0
	ldr	fp, .L1543
.LBE807:
.LBE806:
.LBE805:
.LBE804:
	.loc 1 548 0
	sub	sp, sp, #12
	.cfi_def_cfa_offset 48
	.loc 1 548 0
	mov	r6, r0
.LBB815:
.LBB812:
.LBB810:
.LBB808:
	.loc 1 75 0
	ldr	r3, [fp]
	movs	r0, #40
.LVL1210:
.LBE808:
.LBE810:
.LBE812:
.LBE815:
	.loc 1 548 0
	mov	r5, r1
	str	r1, [sp]
.LBB816:
.LBB813:
.LBB811:
.LBB809:
	.loc 1 75 0
	blx	r3
.LVL1211:
	.loc 1 76 0
	str	r0, [sp, #4]
	cbz	r0, .L1531
	movs	r2, #40
	movs	r1, #0
	mov	r4, r0
	bl	memset
.LVL1212:
.LBE809:
.LBE811:
	.loc 1 544 0
	movs	r3, #5
.LBE813:
.LBE816:
	.loc 1 548 0
	cmp	r5, #0
.LBB817:
.LBB814:
	.loc 1 544 0
	str	r3, [r4, #12]
.LVL1213:
.LBE814:
.LBE817:
	.loc 1 548 0
	ble	.L1531
	movs	r7, #0
	mov	r4, r7
	subs	r6, r6, #4
.LVL1214:
.L1534:
	.loc 1 548 0 is_stmt 0 discriminator 9
	ldr	r5, [r6, #4]!
	mov	r0, r5
	bl	__aeabi_i2d
.LVL1215:
.LBB818:
.LBB819:
.LBB820:
.LBB821:
	.loc 1 75 0 is_stmt 1 discriminator 9
	ldr	r3, [fp]
.LBE821:
.LBE820:
.LBE819:
.LBE818:
	.loc 1 548 0 discriminator 9
	mov	r8, r0
.LBB831:
.LBB828:
.LBB825:
.LBB822:
	.loc 1 75 0 discriminator 9
	movs	r0, #40
.LBE822:
.LBE825:
.LBE828:
.LBE831:
	.loc 1 548 0 discriminator 9
	mov	r9, r1
.LVL1216:
.LBB832:
.LBB829:
.LBB826:
.LBB823:
	.loc 1 75 0 discriminator 9
	blx	r3
.LVL1217:
	.loc 1 76 0 discriminator 9
	mov	r10, r0
	cbz	r0, .L1535
	.loc 1 76 0 is_stmt 0
	movs	r2, #40
	movs	r1, #0
	bl	memset
.LVL1218:
.LBE823:
.LBE826:
	.loc 1 542 0 is_stmt 1
	movs	r3, #3
	strd	r8, [r10, #24]
	str	r3, [r10, #12]
	str	r5, [r10, #20]
.L1535:
.LVL1219:
.LBE829:
.LBE832:
	.loc 1 548 0
	cbnz	r4, .L1536
	.loc 1 548 0 is_stmt 0 discriminator 2
	ldr	r3, [sp, #4]
	str	r10, [r3, #8]
.LVL1220:
	ldr	r3, [sp]
.LVL1221:
	cmp	r3, #1
	beq	.L1531
.LVL1222:
	.loc 1 548 0
	movs	r4, #1
.LVL1223:
.L1537:
.LBB833:
.LBB830:
.LBB827:
.LBB824:
	.loc 1 75 0 is_stmt 1 discriminator 9
	mov	r7, r10
.LVL1224:
	b	.L1534
.LVL1225:
.L1536:
.LBE824:
.LBE827:
.LBE830:
.LBE833:
	.loc 1 548 0
	ldr	r3, [sp]
	adds	r4, r4, #1
.LVL1226:
	cmp	r3, r4
.LBB834:
.LBB835:
	.loc 1 515 0
	str	r10, [r7]
	str	r7, [r10, #4]
.LVL1227:
.LBE835:
.LBE834:
	.loc 1 548 0
	bne	.L1537
.LVL1228:
.L1531:
	ldr	r0, [sp, #4]
	add	sp, sp, #12
	.cfi_def_cfa_offset 36
.LVL1229:
	@ sp needed
	pop	{r4, r5, r6, r7, r8, r9, r10, fp, pc}
.LVL1230:
.L1544:
	.align	2
.L1543:
	.word	.LANCHOR0
	.cfi_endproc
.LFE47:
	.size	cJSON_CreateIntArray, .-cJSON_CreateIntArray
	.global	__aeabi_f2d
	.global	__aeabi_f2iz
	.section	.text.cJSON_CreateFloatArray,"ax",%progbits
	.align	1
	.p2align 2,,3
	.global	cJSON_CreateFloatArray
	.syntax unified
	.thumb
	.thumb_func
	.fpu softvfp
	.type	cJSON_CreateFloatArray, %function
cJSON_CreateFloatArray:
.LFB48:
	.loc 1 549 0
	.cfi_startproc
	@ args = 0, pretend = 0, frame = 8
	@ frame_needed = 0, uses_anonymous_args = 0
.LVL1231:
	push	{r4, r5, r6, r7, r8, r9, r10, fp, lr}
	.cfi_def_cfa_offset 36
	.cfi_offset 4, -36
	.cfi_offset 5, -32
	.cfi_offset 6, -28
	.cfi_offset 7, -24
	.cfi_offset 8, -20
	.cfi_offset 9, -16
	.cfi_offset 10, -12
	.cfi_offset 11, -8
	.cfi_offset 14, -4
.LBB846:
.LBB847:
.LBB848:
.LBB849:
	.loc 1 75 0
	ldr	fp, .L1557
.LBE849:
.LBE848:
.LBE847:
.LBE846:
	.loc 1 549 0
	sub	sp, sp, #12
	.cfi_def_cfa_offset 48
	.loc 1 549 0
	mov	r6, r0
.LBB857:
.LBB854:
.LBB852:
.LBB850:
	.loc 1 75 0
	ldr	r3, [fp]
	movs	r0, #40
.LVL1232:
.LBE850:
.LBE852:
.LBE854:
.LBE857:
	.loc 1 549 0
	mov	r5, r1
	str	r1, [sp]
.LBB858:
.LBB855:
.LBB853:
.LBB851:
	.loc 1 75 0
	blx	r3
.LVL1233:
	.loc 1 76 0
	str	r0, [sp, #4]
	cmp	r0, #0
	beq	.L1545
	movs	r2, #40
	movs	r1, #0
	mov	r4, r0
	bl	memset
.LVL1234:
.LBE851:
.LBE853:
	.loc 1 544 0
	movs	r3, #5
.LBE855:
.LBE858:
	.loc 1 549 0
	cmp	r5, #0
.LBB859:
.LBB856:
	.loc 1 544 0
	str	r3, [r4, #12]
.LVL1235:
.LBE856:
.LBE859:
	.loc 1 549 0
	ble	.L1545
	movs	r7, #0
	mov	r4, r7
	subs	r6, r6, #4
.LVL1236:
.L1548:
	.loc 1 549 0 is_stmt 0 discriminator 9
	ldr	r5, [r6, #4]!	@ float
	mov	r0, r5
	bl	__aeabi_f2d
.LVL1237:
.LBB860:
.LBB861:
.LBB862:
.LBB863:
	.loc 1 75 0 is_stmt 1 discriminator 9
	ldr	r3, [fp]
.LBE863:
.LBE862:
.LBE861:
.LBE860:
	.loc 1 549 0 discriminator 9
	mov	r8, r0
.LBB873:
.LBB870:
.LBB867:
.LBB864:
	.loc 1 75 0 discriminator 9
	movs	r0, #40
.LBE864:
.LBE867:
.LBE870:
.LBE873:
	.loc 1 549 0 discriminator 9
	mov	r9, r1
.LVL1238:
.LBB874:
.LBB871:
.LBB868:
.LBB865:
	.loc 1 75 0 discriminator 9
	blx	r3
.LVL1239:
	.loc 1 76 0 discriminator 9
	mov	r10, r0
	cbz	r0, .L1549
	.loc 1 76 0 is_stmt 0
	movs	r2, #40
	movs	r1, #0
	bl	memset
.LVL1240:
.LBE865:
.LBE868:
	.loc 1 542 0 is_stmt 1
	movs	r3, #3
	strd	r8, [r10, #24]
	str	r3, [r10, #12]
	mov	r0, r5
	bl	__aeabi_f2iz
.LVL1241:
	str	r0, [r10, #20]
.L1549:
.LVL1242:
.LBE871:
.LBE874:
	.loc 1 549 0
	cbnz	r4, .L1550
	.loc 1 549 0 is_stmt 0 discriminator 2
	ldr	r3, [sp, #4]
	str	r10, [r3, #8]
.LVL1243:
	ldr	r3, [sp]
.LVL1244:
	cmp	r3, #1
	beq	.L1545
.LVL1245:
	.loc 1 549 0
	movs	r4, #1
.LVL1246:
.L1551:
.LBB875:
.LBB872:
.LBB869:
.LBB866:
	.loc 1 75 0 is_stmt 1 discriminator 9
	mov	r7, r10
.LVL1247:
	b	.L1548
.LVL1248:
.L1550:
.LBE866:
.LBE869:
.LBE872:
.LBE875:
	.loc 1 549 0
	ldr	r3, [sp]
	adds	r4, r4, #1
.LVL1249:
	cmp	r3, r4
.LBB876:
.LBB877:
	.loc 1 515 0
	str	r10, [r7]
	str	r7, [r10, #4]
.LVL1250:
.LBE877:
.LBE876:
	.loc 1 549 0
	bne	.L1551
.LVL1251:
.L1545:
	ldr	r0, [sp, #4]
	add	sp, sp, #12
	.cfi_def_cfa_offset 36
.LVL1252:
	@ sp needed
	pop	{r4, r5, r6, r7, r8, r9, r10, fp, pc}
.LVL1253:
.L1558:
	.align	2
.L1557:
	.word	.LANCHOR0
	.cfi_endproc
.LFE48:
	.size	cJSON_CreateFloatArray, .-cJSON_CreateFloatArray
	.section	.text.cJSON_CreateDoubleArray,"ax",%progbits
	.align	1
	.p2align 2,,3
	.global	cJSON_CreateDoubleArray
	.syntax unified
	.thumb
	.thumb_func
	.fpu softvfp
	.type	cJSON_CreateDoubleArray, %function
cJSON_CreateDoubleArray:
.LFB49:
	.loc 1 550 0
	.cfi_startproc
	@ args = 0, pretend = 0, frame = 8
	@ frame_needed = 0, uses_anonymous_args = 0
.LVL1254:
	push	{r4, r5, r6, r7, r8, r9, r10, fp, lr}
	.cfi_def_cfa_offset 36
	.cfi_offset 4, -36
	.cfi_offset 5, -32
	.cfi_offset 6, -28
	.cfi_offset 7, -24
	.cfi_offset 8, -20
	.cfi_offset 9, -16
	.cfi_offset 10, -12
	.cfi_offset 11, -8
	.cfi_offset 14, -4
.LBB888:
.LBB889:
.LBB890:
.LBB891:
	.loc 1 75 0
	ldr	r10, .L1571
.LBE891:
.LBE890:
.LBE889:
.LBE888:
	.loc 1 550 0
	sub	sp, sp, #12
	.cfi_def_cfa_offset 48
	.loc 1 550 0
	mov	r5, r0
.LBB899:
.LBB896:
.LBB894:
.LBB892:
	.loc 1 75 0
	ldr	r3, [r10]
	movs	r0, #40
.LVL1255:
.LBE892:
.LBE894:
.LBE896:
.LBE899:
	.loc 1 550 0
	mov	r9, r1
.LBB900:
.LBB897:
.LBB895:
.LBB893:
	.loc 1 75 0
	blx	r3
.LVL1256:
	.loc 1 76 0
	str	r0, [sp, #4]
	cbz	r0, .L1559
	movs	r2, #40
	movs	r1, #0
	mov	r4, r0
	bl	memset
.LVL1257:
.LBE893:
.LBE895:
	.loc 1 544 0
	movs	r3, #5
.LBE897:
.LBE900:
	.loc 1 550 0
	cmp	r9, #0
.LBB901:
.LBB898:
	.loc 1 544 0
	str	r3, [r4, #12]
.LVL1258:
.LBE898:
.LBE901:
	.loc 1 550 0
	ble	.L1559
	mov	r8, #0
	mov	r4, r8
	subs	r5, r5, #8
.LVL1259:
.L1562:
.LBB902:
.LBB903:
.LBB904:
.LBB905:
	.loc 1 75 0 discriminator 9
	ldr	r3, [r10]
	movs	r0, #40
.LBE905:
.LBE904:
.LBE903:
.LBE902:
	.loc 1 550 0 discriminator 9
	ldrd	r6, [r5, #8]!
.LVL1260:
.LBB912:
.LBB910:
.LBB908:
.LBB906:
	.loc 1 75 0 discriminator 9
	blx	r3
.LVL1261:
	.loc 1 76 0 discriminator 9
	mov	fp, r0
	cbz	r0, .L1563
	.loc 1 76 0 is_stmt 0
	movs	r2, #40
	movs	r1, #0
	bl	memset
.LVL1262:
.LBE906:
.LBE908:
	.loc 1 542 0 is_stmt 1
	movs	r3, #3
	strd	r6, [fp, #24]
	str	r3, [fp, #12]
	mov	r0, r6
	mov	r1, r7
	bl	__aeabi_d2iz
.LVL1263:
	str	r0, [fp, #20]
.L1563:
.LVL1264:
.LBE910:
.LBE912:
	.loc 1 550 0
	cbnz	r4, .L1564
	.loc 1 550 0 is_stmt 0 discriminator 2
	ldr	r3, [sp, #4]
	cmp	r9, #1
	str	fp, [r3, #8]
.LVL1265:
	beq	.L1559
.LVL1266:
	.loc 1 550 0
	movs	r4, #1
.LVL1267:
.L1565:
.LBB913:
.LBB911:
.LBB909:
.LBB907:
	.loc 1 75 0 is_stmt 1 discriminator 9
	mov	r8, fp
.LVL1268:
	b	.L1562
.LVL1269:
.L1564:
.LBE907:
.LBE909:
.LBE911:
.LBE913:
	.loc 1 550 0
	adds	r4, r4, #1
.LVL1270:
	cmp	r9, r4
.LBB914:
.LBB915:
	.loc 1 515 0
	str	fp, [r8]
	str	r8, [fp, #4]
.LVL1271:
.LBE915:
.LBE914:
	.loc 1 550 0
	bne	.L1565
.LVL1272:
.L1559:
	ldr	r0, [sp, #4]
	add	sp, sp, #12
	.cfi_def_cfa_offset 36
	@ sp needed
	pop	{r4, r5, r6, r7, r8, r9, r10, fp, pc}
.LVL1273:
.L1572:
	.align	2
.L1571:
	.word	.LANCHOR0
	.cfi_endproc
.LFE49:
	.size	cJSON_CreateDoubleArray, .-cJSON_CreateDoubleArray
	.section	.text.cJSON_CreateStringArray,"ax",%progbits
	.align	1
	.p2align 2,,3
	.global	cJSON_CreateStringArray
	.syntax unified
	.thumb
	.thumb_func
	.fpu softvfp
	.type	cJSON_CreateStringArray, %function
cJSON_CreateStringArray:
.LFB50:
	.loc 1 551 0
	.cfi_startproc
	@ args = 0, pretend = 0, frame = 8
	@ frame_needed = 0, uses_anonymous_args = 0
.LVL1274:
	push	{r4, r5, r6, r7, r8, r9, r10, fp, lr}
	.cfi_def_cfa_offset 36
	.cfi_offset 4, -36
	.cfi_offset 5, -32
	.cfi_offset 6, -28
	.cfi_offset 7, -24
	.cfi_offset 8, -20
	.cfi_offset 9, -16
	.cfi_offset 10, -12
	.cfi_offset 11, -8
	.cfi_offset 14, -4
.LBB928:
.LBB929:
.LBB930:
.LBB931:
	.loc 1 75 0
	ldr	r9, .L1589
.LBE931:
.LBE930:
.LBE929:
.LBE928:
	.loc 1 551 0
	sub	sp, sp, #12
	.cfi_def_cfa_offset 48
	.loc 1 551 0
	mov	r7, r0
.LBB939:
.LBB936:
.LBB934:
.LBB932:
	.loc 1 75 0
	ldr	r3, [r9]
	movs	r0, #40
.LVL1275:
.LBE932:
.LBE934:
.LBE936:
.LBE939:
	.loc 1 551 0
	mov	r5, r1
	str	r1, [sp]
.LBB940:
.LBB937:
.LBB935:
.LBB933:
	.loc 1 75 0
	blx	r3
.LVL1276:
	.loc 1 76 0
	str	r0, [sp, #4]
	cmp	r0, #0
	beq	.L1573
	movs	r2, #40
	movs	r1, #0
	mov	r4, r0
	bl	memset
.LVL1277:
.LBE933:
.LBE935:
	.loc 1 544 0
	movs	r3, #5
.LBE937:
.LBE940:
	.loc 1 551 0
	cmp	r5, #0
.LBB941:
.LBB938:
	.loc 1 544 0
	str	r3, [r4, #12]
.LVL1278:
.LBE938:
.LBE941:
	.loc 1 551 0
	ble	.L1573
	mov	r8, #0
	mov	r5, r8
.LVL1279:
	subs	r7, r7, #4
.LVL1280:
.L1576:
.LBB942:
.LBB943:
.LBB944:
.LBB945:
	.loc 1 75 0 discriminator 9
	ldr	r3, [r9]
	movs	r0, #40
.LBE945:
.LBE944:
.LBE943:
.LBE942:
	.loc 1 551 0 discriminator 9
	ldr	r6, [r7, #4]!
.LVL1281:
.LBB956:
.LBB954:
.LBB948:
.LBB946:
	.loc 1 75 0 discriminator 9
	blx	r3
.LVL1282:
	.loc 1 76 0 discriminator 9
	mov	r4, r0
	cbz	r0, .L1577
	.loc 1 76 0 is_stmt 0
	movs	r2, #40
	movs	r1, #0
	bl	memset
.LVL1283:
.LBE946:
.LBE948:
	.loc 1 543 0 is_stmt 1
	movs	r3, #4
.LBB949:
.LBB950:
	.loc 1 54 0
	mov	r0, r6
.LBE950:
.LBE949:
	.loc 1 543 0
	str	r3, [r4, #12]
.LVL1284:
.LBB952:
.LBB951:
	.loc 1 54 0
	bl	strlen
.LVL1285:
	add	r10, r0, #1
.LVL1286:
	.loc 1 55 0
	mov	r0, r10
	ldr	r3, [r9]
	blx	r3
.LVL1287:
	mov	fp, r0
	cbz	r0, .L1578
	.loc 1 56 0
	mov	r2, r10
	mov	r1, r6
	bl	memcpy
.LVL1288:
.L1578:
.LBE951:
.LBE952:
	.loc 1 543 0
	str	fp, [r4, #16]
.L1577:
.LVL1289:
.LBE954:
.LBE956:
	.loc 1 551 0
	cbnz	r5, .L1579
	.loc 1 551 0 is_stmt 0 discriminator 2
	ldr	r3, [sp, #4]
	str	r4, [r3, #8]
.LVL1290:
	ldr	r3, [sp]
.LVL1291:
	cmp	r3, #1
	beq	.L1573
.LVL1292:
	.loc 1 551 0
	movs	r5, #1
.LVL1293:
.L1580:
.LBB957:
.LBB955:
.LBB953:
.LBB947:
	.loc 1 75 0 is_stmt 1 discriminator 9
	mov	r8, r4
.LVL1294:
	b	.L1576
.LVL1295:
.L1579:
.LBE947:
.LBE953:
.LBE955:
.LBE957:
	.loc 1 551 0
	ldr	r3, [sp]
	adds	r5, r5, #1
.LVL1296:
	cmp	r3, r5
.LBB958:
.LBB959:
	.loc 1 515 0
	str	r4, [r8]
	str	r8, [r4, #4]
.LVL1297:
.LBE959:
.LBE958:
	.loc 1 551 0
	bne	.L1580
.LVL1298:
.L1573:
	ldr	r0, [sp, #4]
	add	sp, sp, #12
	.cfi_def_cfa_offset 36
.LVL1299:
	@ sp needed
	pop	{r4, r5, r6, r7, r8, r9, r10, fp, pc}
.LVL1300:
.L1590:
	.align	2
.L1589:
	.word	.LANCHOR0
	.cfi_endproc
.LFE50:
	.size	cJSON_CreateStringArray, .-cJSON_CreateStringArray
	.section	.text.cJSON_Duplicate,"ax",%progbits
	.align	1
	.p2align 2,,3
	.global	cJSON_Duplicate
	.syntax unified
	.thumb
	.thumb_func
	.fpu softvfp
	.type	cJSON_Duplicate, %function
cJSON_Duplicate:
.LFB51:
	.loc 1 555 0
	.cfi_startproc
	@ args = 0, pretend = 0, frame = 0
	@ frame_needed = 0, uses_anonymous_args = 0
.LVL1301:
	push	{r4, r5, r6, r7, r8, r9, r10, lr}
	.cfi_def_cfa_offset 32
	.cfi_offset 4, -32
	.cfi_offset 5, -28
	.cfi_offset 6, -24
	.cfi_offset 7, -20
	.cfi_offset 8, -16
	.cfi_offset 9, -12
	.cfi_offset 10, -8
	.cfi_offset 14, -4
	.loc 1 558 0
	cmp	r0, #0
	beq	.L1594
.LBB966:
.LBB967:
	.loc 1 75 0
	ldr	r6, .L1622
	mov	r4, r0
	ldr	r3, [r6]
	movs	r0, #40
.LVL1302:
	mov	r5, r1
	blx	r3
.LVL1303:
	.loc 1 76 0
	mov	r7, r0
	cmp	r0, #0
	beq	.L1594
	movs	r2, #40
	movs	r1, #0
	bl	memset
.LVL1304:
.LBE967:
.LBE966:
	.loc 1 563 0
	ldrd	r2, [r4, #24]
	ldr	r1, [r4, #12]
	ldr	r0, [r4, #20]
	.loc 1 564 0
	ldr	r8, [r4, #16]
	.loc 1 563 0
	bic	r1, r1, #256
	str	r1, [r7, #12]
	str	r0, [r7, #20]
	strd	r2, [r7, #24]
	.loc 1 564 0
	cmp	r8, #0
	beq	.L1595
.LVL1305:
.LBB968:
.LBB969:
	.loc 1 54 0
	mov	r0, r8
	bl	strlen
.LVL1306:
	add	r9, r0, #1
.LVL1307:
	.loc 1 55 0
	mov	r0, r9
	ldr	r3, [r6]
	blx	r3
.LVL1308:
	mov	r10, r0
	cmp	r0, #0
	beq	.L1596
	.loc 1 56 0
	mov	r2, r9
	mov	r1, r8
	bl	memcpy
.LVL1309:
.LBE969:
.LBE968:
	.loc 1 564 0
	str	r10, [r7, #16]
.L1595:
	.loc 1 565 0
	ldr	r8, [r4, #32]
	cmp	r8, #0
	beq	.L1597
.LVL1310:
.LBB970:
.LBB971:
	.loc 1 54 0
	mov	r0, r8
	bl	strlen
.LVL1311:
	add	r9, r0, #1
.LVL1312:
	.loc 1 55 0
	ldr	r3, [r6]
	mov	r0, r9
	blx	r3
.LVL1313:
	mov	r6, r0
	cbz	r0, .L1598
	.loc 1 56 0
	mov	r2, r9
	mov	r1, r8
	bl	memcpy
.LVL1314:
.LBE971:
.LBE970:
	.loc 1 565 0
	str	r6, [r7, #32]
.L1597:
	.loc 1 567 0
	cbz	r5, .L1591
	.loc 1 569 0
	ldr	r5, [r4, #8]
.LVL1315:
	.loc 1 570 0
	cbz	r5, .L1591
	.loc 1 572 0
	movs	r1, #1
	mov	r0, r5
	bl	cJSON_Duplicate
.LVL1316:
	.loc 1 570 0
	movs	r6, #0
.LVL1317:
	.loc 1 573 0
	mov	r4, r0
.LVL1318:
	cbz	r0, .L1620
.L1600:
	.loc 1 574 0
	cbz	r6, .L1601
	.loc 1 574 0 is_stmt 0 discriminator 1
	str	r0, [r6]
	.loc 1 576 0 is_stmt 1 discriminator 1
	ldr	r5, [r5]
.LVL1319:
	.loc 1 574 0 discriminator 1
	str	r6, [r0, #4]
.LVL1320:
	.loc 1 570 0 discriminator 1
	cbz	r5, .L1591
	.loc 1 570 0 is_stmt 0
	mov	r6, r4
.L1621:
	.loc 1 572 0 is_stmt 1
	movs	r1, #1
	mov	r0, r5
.LVL1321:
	bl	cJSON_Duplicate
.LVL1322:
	.loc 1 573 0
	mov	r4, r0
.LVL1323:
	cmp	r0, #0
	bne	.L1600
.L1620:
	.loc 1 573 0 is_stmt 0 discriminator 1
	mov	r0, r7
.LVL1324:
	bl	cJSON_Delete
.LVL1325:
	mov	r7, r4
.LVL1326:
.L1591:
	.loc 1 579 0 is_stmt 1
	mov	r0, r7
	pop	{r4, r5, r6, r7, r8, r9, r10, pc}
.LVL1327:
.L1601:
	.loc 1 576 0
	ldr	r5, [r5]
.LVL1328:
	.loc 1 575 0
	str	r0, [r7, #8]
.LVL1329:
	.loc 1 570 0
	cmp	r5, #0
	beq	.L1591
	mov	r6, r4
	b	.L1621
.LVL1330:
.L1594:
	.loc 1 558 0
	movs	r7, #0
	.loc 1 579 0
	mov	r0, r7
	pop	{r4, r5, r6, r7, r8, r9, r10, pc}
.LVL1331:
.L1596:
	.loc 1 564 0
	str	r0, [r7, #16]
	mov	r0, r7
	bl	cJSON_Delete
.LVL1332:
	mov	r7, r10
	b	.L1591
.LVL1333:
.L1598:
	.loc 1 565 0
	str	r0, [r7, #32]
	mov	r0, r7
	bl	cJSON_Delete
.LVL1334:
	mov	r7, r6
	b	.L1591
.L1623:
	.align	2
.L1622:
	.word	.LANCHOR0
	.cfi_endproc
.LFE51:
	.size	cJSON_Duplicate, .-cJSON_Duplicate
	.section	.text.cJSON_Minify,"ax",%progbits
	.align	1
	.p2align 2,,3
	.global	cJSON_Minify
	.syntax unified
	.thumb
	.thumb_func
	.fpu softvfp
	.type	cJSON_Minify, %function
cJSON_Minify:
.LFB52:
	.loc 1 582 0
	.cfi_startproc
	@ args = 0, pretend = 0, frame = 0
	@ frame_needed = 0, uses_anonymous_args = 0
	@ link register save eliminated.
.LVL1335:
	.loc 1 584 0
	mov	r2, r0
	ldrb	r3, [r0]	@ zero_extendqisi2
.LVL1336:
.L1625:
	cbz	r3, .L1634
.L1644:
	.loc 1 586 0
	cmp	r3, #32
	beq	.L1667
	.loc 1 587 0
	cmp	r3, #9
	beq	.L1667
	.loc 1 588 0
	cmp	r3, #13
	beq	.L1667
	.loc 1 589 0
	cmp	r3, #10
	beq	.L1667
	.loc 1 590 0
	cmp	r3, #47
	beq	.L1668
	.loc 1 592 0
	cmp	r3, #34
	beq	.L1669
.L1637:
.LVL1337:
	.loc 1 593 0
	strb	r3, [r2]
	ldrb	r3, [r0, #1]	@ zero_extendqisi2
	adds	r2, r2, #1
.LVL1338:
	adds	r0, r0, #1
.LVL1339:
	.loc 1 584 0
	cmp	r3, #0
	bne	.L1644
.LVL1340:
.L1634:
	.loc 1 595 0
	movs	r3, #0
	strb	r3, [r2]
	bx	lr
.LVL1341:
.L1641:
	.loc 1 592 0 discriminator 10
	strb	r1, [r3]
	adds	r2, r3, #1
.LVL1342:
.L1667:
	ldrb	r3, [r0, #1]	@ zero_extendqisi2
	adds	r0, r0, #1
.LVL1343:
	b	.L1625
.L1668:
	.loc 1 590 0 discriminator 1
	ldrb	r1, [r0, #1]	@ zero_extendqisi2
	cmp	r1, #47
	beq	.L1635
	.loc 1 591 0 discriminator 1
	cmp	r1, #42
	bne	.L1637
.L1640:
	.loc 1 591 0 is_stmt 0 discriminator 7
	ldrb	r1, [r0, #1]	@ zero_extendqisi2
	mov	r3, r0
	adds	r0, r0, #1
.LVL1344:
	cbz	r1, .L1639
	.loc 1 591 0 discriminator 3
	cmp	r1, #42
	bne	.L1640
	.loc 1 591 0 discriminator 6
	ldrb	r1, [r0, #1]	@ zero_extendqisi2
	cmp	r1, #47
	bne	.L1640
.L1639:
	.loc 1 591 0 discriminator 8
	adds	r0, r3, #3
.LVL1345:
	ldrb	r3, [r3, #3]	@ zero_extendqisi2
	b	.L1625
.LVL1346:
.L1670:
	.loc 1 590 0 is_stmt 1 discriminator 3
	cmp	r3, #10
	beq	.L1667
.LVL1347:
.L1635:
	.loc 1 590 0 is_stmt 0 discriminator 4
	ldrb	r3, [r0, #1]!	@ zero_extendqisi2
.LVL1348:
	cmp	r3, #0
	bne	.L1670
	b	.L1634
.LVL1349:
.L1669:
	.loc 1 592 0 is_stmt 1 discriminator 1
	strb	r3, [r2]
	ldrb	r1, [r0, #1]	@ zero_extendqisi2
	adds	r3, r2, #1
.LVL1350:
	adds	r0, r0, #1
.LVL1351:
	cbnz	r1, .L1665
	b	.L1641
.L1642:
	.loc 1 592 0 is_stmt 0 discriminator 5
	strb	r1, [r3]
	ldrb	r1, [r0, #1]	@ zero_extendqisi2
	adds	r3, r3, #1
.LVL1352:
	adds	r0, r0, #1
.LVL1353:
	cmp	r1, #0
	beq	.L1641
.L1665:
	.loc 1 592 0
	cmp	r1, #34
	beq	.L1641
	.loc 1 592 0 discriminator 9
	cmp	r1, #92
	bne	.L1642
	.loc 1 592 0 discriminator 3
	strb	r1, [r3]
	ldrb	r1, [r0, #1]	@ zero_extendqisi2
	adds	r3, r3, #1
.LVL1354:
	adds	r0, r0, #1
.LVL1355:
	b	.L1642
	.cfi_endproc
.LFE52:
	.size	cJSON_Minify, .-cJSON_Minify
	.section	.bss.ep,"aw",%nobits
	.align	2
	.set	.LANCHOR1,. + 0
	.type	ep, %object
	.size	ep, 4
ep:
	.space	4
	.section	.data.cJSON_free,"aw",%progbits
	.align	2
	.set	.LANCHOR2,. + 0
	.type	cJSON_free, %object
	.size	cJSON_free, 4
cJSON_free:
	.word	free
	.section	.data.cJSON_malloc,"aw",%progbits
	.align	2
	.set	.LANCHOR0,. + 0
	.type	cJSON_malloc, %object
	.size	cJSON_malloc, 4
cJSON_malloc:
	.word	malloc
	.section	.rodata.print_string_ptr.str1.4,"aMS",%progbits,1
	.align	2
.LC0:
	.ascii	"\"\\\010\014\012\015\011\000"
.LC1:
	.ascii	"u%04x\000"
	.section	.rodata.print_value.str1.4,"aMS",%progbits,1
	.align	2
.LC2:
	.ascii	"null\000"
	.space	3
.LC3:
	.ascii	"false\000"
	.space	2
.LC4:
	.ascii	"true\000"
	.space	3
.LC5:
	.ascii	"%d\000"
	.space	1
.LC6:
	.ascii	"%.0f\000"
	.space	3
.LC7:
	.ascii	"%e\000"
	.space	1
.LC8:
	.ascii	"%f\000"
	.space	1
.LC9:
	.ascii	"[]\000"
	.text
.Letext0:
	.file 2 "/cygdrive/d/PUYA/HE3/sdk-ameba-v7.1d/tools/arm-none-eabi-gcc/asdk/cygwin/newlib/lib/gcc/arm-none-eabi/6.5.0/include/stddef.h"
	.file 3 "/cygdrive/d/PUYA/HE3/sdk-ameba-v7.1d/tools/arm-none-eabi-gcc/asdk/cygwin/newlib/arm-none-eabi/include/sys/lock.h"
	.file 4 "/cygdrive/d/PUYA/HE3/sdk-ameba-v7.1d/tools/arm-none-eabi-gcc/asdk/cygwin/newlib/arm-none-eabi/include/sys/_types.h"
	.file 5 "/cygdrive/d/PUYA/HE3/sdk-ameba-v7.1d/tools/arm-none-eabi-gcc/asdk/cygwin/newlib/arm-none-eabi/include/sys/reent.h"
	.file 6 "/cygdrive/d/PUYA/HE3/sdk-ameba-v7.1d/tools/arm-none-eabi-gcc/asdk/cygwin/newlib/arm-none-eabi/include/time.h"
	.file 7 "/cygdrive/d/PUYA/HE3/sdk-ameba-v7.1d/tools/arm-none-eabi-gcc/asdk/cygwin/newlib/arm-none-eabi/include/math.h"
	.file 8 "/cygdrive/d/PUYA/HE3/sdk-ameba-v7.1d/tools/arm-none-eabi-gcc/asdk/cygwin/newlib/arm-none-eabi/include/stdlib.h"
	.file 9 "../../../component/common/utilities/cJSON.h"
	.file 10 "/cygdrive/d/PUYA/HE3/sdk-ameba-v7.1d/tools/arm-none-eabi-gcc/asdk/cygwin/newlib/arm-none-eabi/include/string.h"
	.file 11 "/cygdrive/d/PUYA/HE3/sdk-ameba-v7.1d/tools/arm-none-eabi-gcc/asdk/cygwin/newlib/arm-none-eabi/include/stdio.h"
	.file 12 "<built-in>"