	.arch armv8-m.main
	.arch_extension dsp
	.eabi_attribute 20, 1
	.eabi_attribute 21, 1
	.eabi_attribute 23, 3
	.eabi_attribute 24, 1
	.eabi_attribute 25, 1
	.eabi_attribute 26, 1
	.eabi_attribute 30, 2
	.eabi_attribute 34, 1
	.eabi_attribute 18, 4
	.file	"cmsis_os.c"
	.text
.Ltext0:
	.cfi_sections	.debug_frame
	.section	.text._osTimerCallbackFreeRTOS,"ax",%progbits
	.align	1
	.p2align 2,,3
	.syntax unified
	.thumb
	.thumb_func
	.fpu softvfp
	.type	_osTimerCallbackFreeRTOS, %function
_osTimerCallbackFreeRTOS:
.LFB162:
	.file 1 "../../../component/os/freertos/cmsis_os.c"
	.loc 1 448 0
	.cfi_startproc
	@ args = 0, pretend = 0, frame = 0
	@ frame_needed = 0, uses_anonymous_args = 0
.LVL0:
	push	{r4, lr}
	.cfi_def_cfa_offset 8
	.cfi_offset 4, -8
	.cfi_offset 14, -4
	.loc 1 449 0
	bl	pvTimerGetTimerID
.LVL1:
	.loc 1 452 0
	pop	{r4, lr}
	.cfi_restore 14
	.cfi_restore 4
	.cfi_def_cfa_offset 0
	.loc 1 451 0
	ldr	r2, [r0, #4]
	ldr	r3, [r0]
	ldr	r0, [r2]
.LVL2:
	bx	r3	@ indirect register sibling call
.LVL3:
	.cfi_endproc
.LFE162:
	.size	_osTimerCallbackFreeRTOS, .-_osTimerCallbackFreeRTOS
	.section	.text.osKernelInitialize,"ax",%progbits
	.align	1
	.p2align 2,,3
	.global	osKernelInitialize
	.syntax unified
	.thumb
	.thumb_func
	.fpu softvfp
	.type	osKernelInitialize, %function
osKernelInitialize:
.LFB152:
	.loc 1 271 0
	.cfi_startproc
	@ args = 0, pretend = 0, frame = 0
	@ frame_needed = 0, uses_anonymous_args = 0
	@ link register save eliminated.
	.loc 1 274 0
	movs	r0, #0
	bx	lr
	.cfi_endproc
.LFE152:
	.size	osKernelInitialize, .-osKernelInitialize
	.section	.text.osKernelStart,"ax",%progbits
	.align	1
	.p2align 2,,3
	.global	osKernelStart
	.syntax unified
	.thumb
	.thumb_func
	.fpu softvfp
	.type	osKernelStart, %function
osKernelStart:
.LFB153:
	.loc 1 281 0
	.cfi_startproc
	@ args = 0, pretend = 0, frame = 0
	@ frame_needed = 0, uses_anonymous_args = 0
	push	{r3, lr}
	.cfi_def_cfa_offset 8
	.cfi_offset 3, -8
	.cfi_offset 14, -4
	.loc 1 282 0
	bl	vTaskStartScheduler
.LVL4:
	.loc 1 285 0
	movs	r0, #0
	pop	{r3, pc}
	.cfi_endproc
.LFE153:
	.size	osKernelStart, .-osKernelStart
	.section	.text.osKernelSysTick,"ax",%progbits
	.align	1
	.p2align 2,,3
	.global	osKernelSysTick
	.syntax unified
	.thumb
	.thumb_func
	.fpu softvfp
	.type	osKernelSysTick, %function
osKernelSysTick:
.LFB154:
	.loc 1 292 0
	.cfi_startproc
	@ args = 0, pretend = 0, frame = 0
	@ frame_needed = 0, uses_anonymous_args = 0
	@ link register save eliminated.
	.loc 1 293 0
	b	xTaskGetTickCount
.LVL5:
	.cfi_endproc
.LFE154:
	.size	osKernelSysTick, .-osKernelSysTick
	.section	.text.osThreadCreate,"ax",%progbits
	.align	1
	.p2align 2,,3
	.global	osThreadCreate
	.syntax unified
	.thumb
	.thumb_func
	.fpu softvfp
	.type	osThreadCreate, %function
osThreadCreate:
.LFB155:
	.loc 1 311 0
	.cfi_startproc
	@ args = 0, pretend = 0, frame = 8
	@ frame_needed = 0, uses_anonymous_args = 0
.LVL6:
	push	{r4, r5, r6, lr}
	.cfi_def_cfa_offset 16
	.cfi_offset 4, -16
	.cfi_offset 5, -12
	.cfi_offset 6, -8
	.cfi_offset 14, -4
	mov	r4, r0
	.loc 1 318 0
	ldr	r2, [r0, #12]
	.loc 1 311 0
	mov	r3, r1
	sub	sp, sp, #16
	.cfi_def_cfa_offset 32
	.loc 1 316 0
	ldr	r0, [r0]
.LVL7:
	.loc 1 317 0
	ldr	r1, [r4, #16]
.LVL8:
	.loc 1 316 0
	cbz	r2, .L19
	.loc 1 318 0 discriminator 1
	lsrs	r2, r2, #2
.L8:
	.loc 1 316 0 discriminator 4
	ldrsh	r5, [r4, #4]
.LVL9:
	add	r6, sp, #12
.LBB196:
.LBB197:
	.loc 1 40 0 discriminator 4
	cmp	r5, #132
	.loc 1 38 0 discriminator 4
	ite	eq
	moveq	r5, #0
.LVL10:
	.loc 1 41 0 discriminator 4
	addne	r5, r5, #3
.LVL11:
	uxth	r2, r2
.LBE197:
.LBE196:
	.loc 1 316 0 discriminator 4
	stm	sp, {r5, r6}
	bl	xTaskCreate
.LVL12:
	.loc 1 322 0 discriminator 4
	cmp	r0, #1
	beq	.L23
	.loc 1 340 0
	ldr	r3, .L26
	ldr	r2, [r4, #16]
	ldr	r3, [r3, #28]
	ldr	r1, .L26+4
	ldr	r0, .L26+8
.LVL13:
	blx	r3
.LVL14:
	movs	r0, #0
.LVL15:
.L7:
	.loc 1 345 0
	add	sp, sp, #16
	.cfi_remember_state
	.cfi_def_cfa_offset 16
	@ sp needed
	pop	{r4, r5, r6, pc}
.LVL16:
.L19:
	.cfi_restore_state
	movs	r2, #70
	b	.L8
.LVL17:
.L23:
.LBB198:
	.loc 1 326 0
	bl	xEventGroupCreate
.LVL18:
	.loc 1 327 0
	mov	r4, r0
.LVL19:
	cbz	r0, .L24
	.loc 1 334 0
	ldr	r6, [sp, #12]
.LVL20:
.LBB199:
.LBB200:
.LBB201:
.LBB202:
.LBB203:
	.file 2 "../../../component/soc/realtek/8710c/cmsis/cmsis-core/include/cmsis_gcc.h"
	.loc 2 209 0
	.syntax unified
@ 209 "../../../component/soc/realtek/8710c/cmsis/cmsis-core/include/cmsis_gcc.h" 1
	MRS r5, ipsr
@ 0 "" 2
	.thumb
	.syntax unified
.LBE203:
.LBE202:
.LBE201:
	.loc 1 74 0
	cbz	r5, .L13
.LBB204:
.LBB205:
	.file 3 "../../../component/os/freertos/freertos_v10.0.1/Source/portable/GCC/ARM_RTL8710C/portmacro.h"
	.loc 3 213 0
	.syntax unified
@ 213 "../../../component/os/freertos/freertos_v10.0.1/Source/portable/GCC/ARM_RTL8710C/portmacro.h" 1
		mrs r5, basepri											
	mov r3, #64												
	cpsid i													
	msr basepri, r3											
	isb														
	dsb														
	cpsie i													

@ 0 "" 2
.LVL21:
	.thumb
	.syntax unified
.L14:
.LBE205:
.LBE204:
	.loc 1 81 0
	movs	r0, #12
	bl	pvPortMalloc
.LVL22:
	.loc 1 83 0
	cbz	r0, .L15
	.loc 1 86 0
	movs	r1, #0
	.loc 1 87 0
	ldr	r3, .L26+12
	.loc 1 84 0
	str	r6, [r0]
	.loc 1 87 0
	ldr	r2, [r3]
	.loc 1 85 0
	str	r4, [r0, #4]
	.loc 1 86 0
	str	r1, [r0, #8]
	.loc 1 87 0
	cbz	r2, .L25
	.loc 1 92 0
	ldr	r3, .L26+16
	ldr	r2, [r3]
	.loc 1 93 0
	str	r0, [r3]
	.loc 1 92 0
	str	r0, [r2, #8]
.LVL23:
.L17:
.LBB206:
.LBB207:
.LBB208:
	.loc 2 209 0
	.syntax unified
@ 209 "../../../component/soc/realtek/8710c/cmsis/cmsis-core/include/cmsis_gcc.h" 1
	MRS r3, ipsr
@ 0 "" 2
	.thumb
	.syntax unified
.LBE208:
.LBE207:
.LBE206:
	.loc 1 118 0
	cbz	r3, .L18
.LVL24:
.LBB209:
.LBB210:
	.loc 3 233 0
	.syntax unified
@ 233 "../../../component/os/freertos/freertos_v10.0.1/Source/portable/GCC/ARM_RTL8710C/portmacro.h" 1
		msr basepri, r5	
@ 0 "" 2
	.thumb
	.syntax unified
	ldr	r0, [sp, #12]
.LBE210:
.LBE209:
.LBE200:
.LBE199:
.LBE198:
	.loc 1 345 0
	add	sp, sp, #16
	.cfi_remember_state
	.cfi_def_cfa_offset 16
	@ sp needed
	pop	{r4, r5, r6, pc}
.LVL25:
.L13:
	.cfi_restore_state
.LBB215:
.LBB213:
.LBB211:
	.loc 1 78 0
	bl	vPortEnterCritical
.LVL26:
	b	.L14
.LVL27:
.L18:
	.loc 1 122 0
	bl	vPortExitCritical
.LVL28:
	ldr	r0, [sp, #12]
	b	.L7
.LVL29:
.L24:
.LBE211:
.LBE213:
	.loc 1 330 0
	ldr	r3, .L26
	ldr	r1, .L26+4
	ldr	r3, [r3, #28]
	ldr	r0, .L26+20
.LVL30:
	blx	r3
.LVL31:
	ldr	r0, [sp, #12]
	b	.L7
.LVL32:
.L25:
.LBB214:
.LBB212:
	.loc 1 89 0
	ldr	r2, .L26+16
	.loc 1 88 0
	str	r0, [r3]
	.loc 1 89 0
	str	r0, [r2]
	b	.L17
.L15:
	.loc 1 97 0
	ldr	r3, .L26
	ldr	r1, .L26+24
	ldr	r3, [r3, #28]
	ldr	r0, .L26+28
.LVL33:
	blx	r3
.LVL34:
	b	.L17
.L27:
	.align	2
.L26:
	.word	stdio_printf_stubs
	.word	.LANCHOR0
	.word	.LC2
	.word	pThreadSignalMapHead
	.word	pThreadSignalMapTail
	.word	.LC0
	.word	.LANCHOR1
	.word	.LC1
.LBE212:
.LBE214:
.LBE215:
	.cfi_endproc
.LFE155:
	.size	osThreadCreate, .-osThreadCreate
	.section	.text.osThreadGetId,"ax",%progbits
	.align	1
	.p2align 2,,3
	.global	osThreadGetId
	.syntax unified
	.thumb
	.thumb_func
	.fpu softvfp
	.type	osThreadGetId, %function
osThreadGetId:
.LFB156:
	.loc 1 352 0
	.cfi_startproc
	@ args = 0, pretend = 0, frame = 0
	@ frame_needed = 0, uses_anonymous_args = 0
	@ link register save eliminated.
	.loc 1 353 0
	b	xTaskGetCurrentTaskHandle
.LVL35:
	.cfi_endproc
.LFE156:
	.size	osThreadGetId, .-osThreadGetId
	.section	.text.osThreadTerminate,"ax",%progbits
	.align	1
	.p2align 2,,3
	.global	osThreadTerminate
	.syntax unified
	.thumb
	.thumb_func
	.fpu softvfp
	.type	osThreadTerminate, %function
osThreadTerminate:
.LFB157:
	.loc 1 362 0
	.cfi_startproc
	@ args = 0, pretend = 0, frame = 0
	@ frame_needed = 0, uses_anonymous_args = 0
.LVL36:
	push	{r3, r4, r5, r6, r7, lr}
	.cfi_def_cfa_offset 24
	.cfi_offset 3, -24
	.cfi_offset 4, -20
	.cfi_offset 5, -16
	.cfi_offset 6, -12
	.cfi_offset 7, -8
	.cfi_offset 14, -4
	.loc 1 362 0
	mov	r4, r0
.LVL37:
.LBB228:
.LBB229:
.LBB230:
.LBB231:
.LBB232:
	.loc 2 209 0
	.syntax unified
@ 209 "../../../component/soc/realtek/8710c/cmsis/cmsis-core/include/cmsis_gcc.h" 1
	MRS r6, ipsr
@ 0 "" 2
	.thumb
	.syntax unified
.LBE232:
.LBE231:
.LBE230:
	.loc 1 185 0
	cmp	r6, #0
	beq	.L30
.LBB233:
.LBB234:
	.loc 3 213 0
	.syntax unified
@ 213 "../../../component/os/freertos/freertos_v10.0.1/Source/portable/GCC/ARM_RTL8710C/portmacro.h" 1
		mrs r5, basepri											
	mov r3, #64												
	cpsid i													
	msr basepri, r3											
	isb														
	dsb														
	cpsie i													

@ 0 "" 2
	.thumb
	.syntax unified
.LBE234:
.LBE233:
	.loc 1 186 0
	mov	r6, r5
.LVL38:
.L31:
	.loc 1 192 0
	ldr	r7, .L55
	ldr	r1, [r7]
.LVL39:
	.loc 1 194 0
	cmp	r1, #0
	beq	.L45
	.loc 1 195 0
	ldr	r3, [r1]
	cmp	r4, r3
	beq	.L33
	mov	r3, r1
	b	.L35
.LVL40:
.L40:
	ldr	r2, [r0]
	cmp	r4, r2
	beq	.L52
	mov	r3, r0
.LVL41:
.L35:
	.loc 1 218 0
	ldr	r0, [r3, #8]
.LVL42:
	.loc 1 194 0
	cmp	r0, #0
	bne	.L40
	.loc 1 179 0
	mov	r5, r0
.LVL43:
.L32:
.LBB235:
.LBB236:
.LBB237:
	.loc 2 209 0
	.syntax unified
@ 209 "../../../component/soc/realtek/8710c/cmsis/cmsis-core/include/cmsis_gcc.h" 1
	MRS r3, ipsr
@ 0 "" 2
	.thumb
	.syntax unified
.LBE237:
.LBE236:
.LBE235:
	.loc 1 236 0
	cbz	r3, .L41
.LVL44:
.L54:
.LBB240:
.LBB241:
	.loc 3 233 0
	.syntax unified
@ 233 "../../../component/os/freertos/freertos_v10.0.1/Source/portable/GCC/ARM_RTL8710C/portmacro.h" 1
		msr basepri, r6	
@ 0 "" 2
.LVL45:
	.thumb
	.syntax unified
.L42:
.LBE241:
.LBE240:
.LBE229:
.LBE228:
	.loc 1 367 0
	cbz	r5, .L43
	.loc 1 368 0
	mov	r0, r5
	bl	vEventGroupDelete
.LVL46:
.L43:
	.loc 1 372 0
	mov	r0, r4
	bl	vTaskDelete
.LVL47:
	.loc 1 375 0
	movs	r0, #0
	pop	{r3, r4, r5, r6, r7, pc}
.LVL48:
.L52:
.LBB244:
.LBB243:
	.loc 1 197 0
	cmp	r1, r0
	.loc 1 196 0
	ldr	r5, [r0, #4]
.LVL49:
	.loc 1 197 0
	beq	.L44
	.loc 1 206 0
	ldr	r2, .L55+4
	ldr	r1, [r2]
	cmp	r1, r0
	beq	.L53
	.loc 1 211 0
	ldr	r2, [r0, #8]
	str	r2, [r3, #8]
.LVL50:
.L38:
	.loc 1 213 0
	bl	vPortFree
.LVL51:
.LBB242:
.LBB239:
.LBB238:
	.loc 2 209 0
	.syntax unified
@ 209 "../../../component/soc/realtek/8710c/cmsis/cmsis-core/include/cmsis_gcc.h" 1
	MRS r3, ipsr
@ 0 "" 2
	.thumb
	.syntax unified
.LBE238:
.LBE239:
.LBE242:
	.loc 1 236 0
	cmp	r3, #0
	bne	.L54
.L41:
	.loc 1 240 0
	bl	vPortExitCritical
.LVL52:
	b	.L42
.LVL53:
.L30:
	.loc 1 189 0
	bl	vPortEnterCritical
.LVL54:
	b	.L31
.LVL55:
.L33:
	.loc 1 196 0
	mov	r0, r1
	ldr	r5, [r1, #4]
.LVL56:
.L44:
	.loc 1 198 0
	ldr	r3, [r1, #8]
	cbz	r3, .L37
	.loc 1 199 0
	str	r3, [r7]
	b	.L38
.LVL57:
.L53:
	.loc 1 207 0
	movs	r1, #0
	.loc 1 208 0
	str	r3, [r2]
	.loc 1 207 0
	str	r1, [r3, #8]
	b	.L38
.LVL58:
.L45:
	.loc 1 179 0
	mov	r5, r1
	b	.L32
.LVL59:
.L37:
	.loc 1 203 0
	ldr	r2, .L55+4
	.loc 1 202 0
	str	r3, [r7]
	.loc 1 203 0
	str	r3, [r2]
	b	.L38
.L56:
	.align	2
.L55:
	.word	pThreadSignalMapHead
	.word	pThreadSignalMapTail
.LBE243:
.LBE244:
	.cfi_endproc
.LFE157:
	.size	osThreadTerminate, .-osThreadTerminate
	.section	.text.osThreadYield,"ax",%progbits
	.align	1
	.p2align 2,,3
	.global	osThreadYield
	.syntax unified
	.thumb
	.thumb_func
	.fpu softvfp
	.type	osThreadYield, %function
osThreadYield:
.LFB158:
	.loc 1 382 0
	.cfi_startproc
	@ args = 0, pretend = 0, frame = 0
	@ frame_needed = 0, uses_anonymous_args = 0
	@ link register save eliminated.
	.loc 1 383 0
	mov	r2, #268435456
	ldr	r3, .L58
	str	r2, [r3]
	.syntax unified
@ 383 "../../../component/os/freertos/cmsis_os.c" 1
	dsb
@ 0 "" 2
@ 383 "../../../component/os/freertos/cmsis_os.c" 1
	isb
@ 0 "" 2
	.loc 1 386 0
	.thumb
	.syntax unified
	movs	r0, #0
	bx	lr
.L59:
	.align	2
.L58:
	.word	-536810236
	.cfi_endproc
.LFE158:
	.size	osThreadYield, .-osThreadYield
	.section	.text.osThreadSetPriority,"ax",%progbits
	.align	1
	.p2align 2,,3
	.global	osThreadSetPriority
	.syntax unified
	.thumb
	.thumb_func
	.fpu softvfp
	.type	osThreadSetPriority, %function
osThreadSetPriority:
.LFB159:
	.loc 1 395 0
	.cfi_startproc
	@ args = 0, pretend = 0, frame = 0
	@ frame_needed = 0, uses_anonymous_args = 0
.LVL60:
	push	{r3, lr}
	.cfi_def_cfa_offset 8
	.cfi_offset 3, -8
	.cfi_offset 14, -4
.LBB245:
.LBB246:
	.loc 1 40 0
	cmp	r1, #132
	.loc 1 41 0
	ite	ne
	addne	r1, r1, #3
.LVL61:
	.loc 1 38 0
	moveq	r1, #0
.LVL62:
.LBE246:
.LBE245:
	.loc 1 396 0
	bl	vTaskPrioritySet
.LVL63:
	.loc 1 399 0
	movs	r0, #0
	pop	{r3, pc}
	.cfi_endproc
.LFE159:
	.size	osThreadSetPriority, .-osThreadSetPriority
	.section	.text.osThreadGetPriority,"ax",%progbits
	.align	1
	.p2align 2,,3
	.global	osThreadGetPriority
	.syntax unified
	.thumb
	.thumb_func
	.fpu softvfp
	.type	osThreadGetPriority, %function
osThreadGetPriority:
.LFB160:
	.loc 1 407 0
	.cfi_startproc
	@ args = 0, pretend = 0, frame = 0
	@ frame_needed = 0, uses_anonymous_args = 0
.LVL64:
	push	{r3, lr}
	.cfi_def_cfa_offset 8
	.cfi_offset 3, -8
	.cfi_offset 14, -4
	.loc 1 408 0
	bl	uxTaskPriorityGet
.LVL65:
.LBB247:
.LBB248:
	.loc 1 53 0
	cmp	r0, #6
	itee	hi
	movhi	r0, #132
.LVL66:
	.loc 1 54 0
	subls	r0, r0, #3
	uxthls	r0, r0
.LVL67:
.LBE248:
.LBE247:
	.loc 1 409 0
	sxth	r0, r0
	pop	{r3, pc}
	.cfi_endproc
.LFE160:
	.size	osThreadGetPriority, .-osThreadGetPriority
	.section	.text.osDelay,"ax",%progbits
	.align	1
	.p2align 2,,3
	.global	osDelay
	.syntax unified
	.thumb
	.thumb_func
	.fpu softvfp
	.type	osDelay, %function
osDelay:
.LFB161:
	.loc 1 419 0
	.cfi_startproc
	@ args = 0, pretend = 0, frame = 0
	@ frame_needed = 0, uses_anonymous_args = 0
.LVL68:
	push	{r3, lr}
	.cfi_def_cfa_offset 8
	.cfi_offset 3, -8
	.cfi_offset 14, -4
	.loc 1 421 0
	mov	r3, #1000
	mul	r0, r3, r0
.LVL69:
	ldr	r3, .L71
	umull	r3, r0, r3, r0
.LVL70:
	.loc 1 423 0
	lsrs	r0, r0, #6
.LVL71:
	it	eq
	moveq	r0, #1
.LVL72:
	bl	vTaskDelay
.LVL73:
	.loc 1 431 0
	movs	r0, #0
	pop	{r3, pc}
.L72:
	.align	2
.L71:
	.word	274877907
	.cfi_endproc
.LFE161:
	.size	osDelay, .-osDelay
	.section	.text.osTimerCreate,"ax",%progbits
	.align	1
	.p2align 2,,3
	.global	osTimerCreate
	.syntax unified
	.thumb
	.thumb_func
	.fpu softvfp
	.type	osTimerCreate, %function
osTimerCreate:
.LFB163:
	.loc 1 462 0
	.cfi_startproc
	@ args = 0, pretend = 0, frame = 0
	@ frame_needed = 0, uses_anonymous_args = 0
.LVL74:
	mov	r3, r0
	.loc 1 463 0
	ldr	r0, [r0, #4]
.LVL75:
	.loc 1 462 0
	push	{r4, lr}
	.cfi_def_cfa_offset 8
	.cfi_offset 4, -8
	.cfi_offset 14, -4
	.loc 1 463 0
	str	r2, [r0]
	.loc 1 465 0
	sub	r2, r1, #1
.LVL76:
	clz	r2, r2
	ldr	r4, .L75
	.loc 1 462 0
	sub	sp, sp, #8
	.cfi_def_cfa_offset 16
	.loc 1 465 0
	lsrs	r2, r2, #5
	str	r4, [sp]
.LVL77:
	movs	r1, #1
.LVL78:
	ldr	r0, .L75+4
	bl	xTimerCreate
.LVL79:
	.loc 1 471 0
	add	sp, sp, #8
	.cfi_def_cfa_offset 8
	@ sp needed
	pop	{r4, pc}
.L76:
	.align	2
.L75:
	.word	_osTimerCallbackFreeRTOS
	.word	.LC3
	.cfi_endproc
.LFE163:
	.size	osTimerCreate, .-osTimerCreate
	.section	.text.osTimerStart,"ax",%progbits
	.align	1
	.p2align 2,,3
	.global	osTimerStart
	.syntax unified
	.thumb
	.thumb_func
	.fpu softvfp
	.type	osTimerStart, %function
osTimerStart:
.LFB164:
	.loc 1 481 0
	.cfi_startproc
	@ args = 0, pretend = 0, frame = 8
	@ frame_needed = 0, uses_anonymous_args = 0
.LVL80:
	push	{r4, r5, r6, lr}
	.cfi_def_cfa_offset 16
	.cfi_offset 4, -16
	.cfi_offset 5, -12
	.cfi_offset 6, -8
	.cfi_offset 14, -4
	.loc 1 482 0
	movs	r4, #0
	.loc 1 481 0
	sub	sp, sp, #16
	.cfi_def_cfa_offset 32
	.loc 1 486 0
	cmp	r1, r4
	ite	ne
	movne	r2, r1
	moveq	r2, #1
	.loc 1 482 0
	str	r4, [sp, #12]
.LVL81:
	.loc 1 481 0
	mov	r6, r0
.LBB249:
.LBB250:
.LBB251:
	.loc 2 209 0
	.syntax unified
@ 209 "../../../component/soc/realtek/8710c/cmsis/cmsis-core/include/cmsis_gcc.h" 1
	MRS r5, ipsr
@ 0 "" 2
	.thumb
	.syntax unified
.LBE251:
.LBE250:
.LBE249:
	.loc 1 489 0
	cbz	r5, .L79
	.loc 1 490 0
	str	r4, [sp]
	add	r3, sp, #12
	movs	r1, #9
.LVL82:
	bl	xTimerGenericCommand
.LVL83:
	cmp	r0, #1
	beq	.L80
.LVL84:
.L82:
	.loc 1 483 0
	movs	r0, #0
.LVL85:
	.loc 1 508 0
	add	sp, sp, #16
	.cfi_remember_state
	.cfi_def_cfa_offset 16
	@ sp needed
	pop	{r4, r5, r6, pc}
.LVL86:
.L79:
	.cfi_restore_state
	.loc 1 497 0
	str	r5, [sp]
	mov	r3, r5
	movs	r1, #4
.LVL87:
	bl	xTimerGenericCommand
.LVL88:
	cmp	r0, #1
	mov	r4, r0
.LVL89:
	beq	.L91
.L83:
.LVL90:
	.loc 1 502 0
	movs	r0, #255
.LVL91:
.L77:
	.loc 1 508 0
	add	sp, sp, #16
	.cfi_remember_state
	.cfi_def_cfa_offset 16
	@ sp needed
	pop	{r4, r5, r6, pc}
.LVL92:
.L80:
	.cfi_restore_state
	.loc 1 491 0
	bl	xTaskGetTickCountFromISR
.LVL93:
	add	r3, sp, #12
	mov	r2, r0
	str	r4, [sp]
	mov	r0, r6
	movs	r1, #6
	bl	xTimerGenericCommand
.LVL94:
	.loc 1 492 0
	ldr	r3, [sp, #12]
	cmp	r3, #0
	beq	.L82
	.loc 1 492 0 is_stmt 0 discriminator 1
	mov	r2, #268435456
	ldr	r3, .L92
	str	r2, [r3]
	.syntax unified
@ 492 "../../../component/os/freertos/cmsis_os.c" 1
	dsb
@ 0 "" 2
@ 492 "../../../component/os/freertos/cmsis_os.c" 1
	isb
@ 0 "" 2
	.loc 1 483 0 is_stmt 1 discriminator 1
	.thumb
	.syntax unified
	mov	r0, r4
	b	.L77
.LVL95:
.L91:
	.loc 1 501 0
	bl	xTaskGetTickCount
.LVL96:
	str	r5, [sp]
	mov	r2, r0
	mov	r3, r5
	mov	r1, r4
	mov	r0, r6
	bl	xTimerGenericCommand
.LVL97:
	cmp	r0, #1
	bne	.L83
	b	.L82
.L93:
	.align	2
.L92:
	.word	-536810236
	.cfi_endproc
.LFE164:
	.size	osTimerStart, .-osTimerStart
	.section	.text.osTimerStop,"ax",%progbits
	.align	1
	.p2align 2,,3
	.global	osTimerStop
	.syntax unified
	.thumb
	.thumb_func
	.fpu softvfp
	.type	osTimerStop, %function
osTimerStop:
.LFB165:
	.loc 1 517 0
	.cfi_startproc
	@ args = 0, pretend = 0, frame = 8
	@ frame_needed = 0, uses_anonymous_args = 0
.LVL98:
	push	{r4, lr}
	.cfi_def_cfa_offset 8
	.cfi_offset 4, -8
	.cfi_offset 14, -4
	.loc 1 518 0
	movs	r4, #0
	.loc 1 517 0
	sub	sp, sp, #16
	.cfi_def_cfa_offset 24
	.loc 1 518 0
	str	r4, [sp, #12]
.LVL99:
.LBB252:
.LBB253:
.LBB254:
	.loc 2 209 0
	.syntax unified
@ 209 "../../../component/soc/realtek/8710c/cmsis/cmsis-core/include/cmsis_gcc.h" 1
	MRS r3, ipsr
@ 0 "" 2
	.thumb
	.syntax unified
.LBE254:
.LBE253:
.LBE252:
	.loc 1 521 0
	cbz	r3, .L95
	.loc 1 522 0
	add	r3, sp, #12
	str	r4, [sp]
	mov	r2, r4
	movs	r1, #8
	bl	xTimerGenericCommand
.LVL100:
	.loc 1 523 0
	ldr	r3, [sp, #12]
	cbz	r3, .L98
	.loc 1 523 0 is_stmt 0 discriminator 1
	mov	r2, #268435456
	ldr	r3, .L103
	str	r2, [r3]
	.syntax unified
@ 523 "../../../component/os/freertos/cmsis_os.c" 1
	dsb
@ 0 "" 2
@ 523 "../../../component/os/freertos/cmsis_os.c" 1
	isb
@ 0 "" 2
	.loc 1 519 0 is_stmt 1 discriminator 1
	.thumb
	.syntax unified
	mov	r0, r4
	.loc 1 532 0 discriminator 1
	add	sp, sp, #16
	.cfi_remember_state
	.cfi_def_cfa_offset 8
	@ sp needed
	pop	{r4, pc}
.LVL101:
.L95:
	.cfi_restore_state
	.loc 1 526 0
	str	r3, [sp]
	mov	r2, r3
	movs	r1, #3
	bl	xTimerGenericCommand
.LVL102:
	cmp	r0, #1
	beq	.L98
	.loc 1 527 0
	movs	r0, #255
.LVL103:
	.loc 1 532 0
	add	sp, sp, #16
	.cfi_remember_state
	.cfi_def_cfa_offset 8
	@ sp needed
	pop	{r4, pc}
.LVL104:
.L98:
	.cfi_restore_state
	.loc 1 519 0
	movs	r0, #0
	.loc 1 532 0
	add	sp, sp, #16
	.cfi_def_cfa_offset 8
	@ sp needed
	pop	{r4, pc}
.L104:
	.align	2
.L103:
	.word	-536810236
	.cfi_endproc
.LFE165:
	.size	osTimerStop, .-osTimerStop
	.section	.text.osTimerDelete,"ax",%progbits
	.align	1
	.p2align 2,,3
	.global	osTimerDelete
	.syntax unified
	.thumb
	.thumb_func
	.fpu softvfp
	.type	osTimerDelete, %function
osTimerDelete:
.LFB166:
	.loc 1 540 0
	.cfi_startproc
	@ args = 0, pretend = 0, frame = 0
	@ frame_needed = 0, uses_anonymous_args = 0
.LVL105:
	.loc 1 545 0
	movs	r3, #0
	mov	r2, #-1
	.loc 1 540 0
	push	{lr}
	.cfi_def_cfa_offset 4
	.cfi_offset 14, -4
	sub	sp, sp, #12
	.cfi_def_cfa_offset 16
	.loc 1 545 0
	str	r2, [sp]
	movs	r1, #5
	mov	r2, r3
	bl	xTimerGenericCommand
.LVL106:
	cmp	r0, #1
	.loc 1 550 0
	ite	ne
	movne	r0, #255
	moveq	r0, #0
	add	sp, sp, #12
	.cfi_def_cfa_offset 4
	@ sp needed
	ldr	pc, [sp], #4
	.cfi_endproc
.LFE166:
	.size	osTimerDelete, .-osTimerDelete
	.section	.text.osSignalSet,"ax",%progbits
	.align	1
	.p2align 2,,3
	.global	osSignalSet
	.syntax unified
	.thumb
	.thumb_func
	.fpu softvfp
	.type	osSignalSet, %function
osSignalSet:
.LFB167:
	.loc 1 560 0
	.cfi_startproc
	@ args = 0, pretend = 0, frame = 8
	@ frame_needed = 0, uses_anonymous_args = 0
.LVL107:
	.loc 1 562 0
	movs	r3, #0
	.loc 1 560 0
	push	{r4, r5, r6, lr}
	.cfi_def_cfa_offset 16
	.cfi_offset 4, -16
	.cfi_offset 5, -12
	.cfi_offset 6, -8
	.cfi_offset 14, -4
	sub	sp, sp, #8
	.cfi_def_cfa_offset 24
	.loc 1 562 0
	str	r3, [sp, #4]
.LVL108:
	.loc 1 569 0
	bics	r3, r1, #255
	bne	.L126
.LVL109:
	mov	r4, r0
	mov	r6, r1
.LBB284:
.LBB285:
.LBB286:
.LBB287:
.LBB288:
	.loc 2 209 0
	.syntax unified
@ 209 "../../../component/soc/realtek/8710c/cmsis/cmsis-core/include/cmsis_gcc.h" 1
	MRS r5, ipsr
@ 0 "" 2
	.thumb
	.syntax unified
.LBE288:
.LBE287:
.LBE286:
	.loc 1 134 0
	cmp	r5, #0
	beq	.L111
.LBB289:
.LBB290:
	.loc 3 213 0
	.syntax unified
@ 213 "../../../component/os/freertos/freertos_v10.0.1/Source/portable/GCC/ARM_RTL8710C/portmacro.h" 1
		mrs r5, basepri											
	mov r3, #64												
	cpsid i													
	msr basepri, r3											
	isb														
	dsb														
	cpsie i													

@ 0 "" 2
.LVL110:
	.thumb
	.syntax unified
.L112:
.LBE290:
.LBE289:
	.loc 1 141 0
	ldr	r3, .L137
	ldr	r3, [r3]
.LVL111:
	.loc 1 142 0
	cbnz	r3, .L117
	b	.L127
.L116:
	.loc 1 148 0
	ldr	r3, [r3, #8]
.LVL112:
	.loc 1 142 0
	cbz	r3, .L127
.L117:
	.loc 1 143 0
	ldr	r2, [r3]
	cmp	r4, r2
	bne	.L116
	.loc 1 144 0
	ldr	r4, [r3, #4]
.LVL113:
.LBB291:
.LBB292:
.LBB293:
	.loc 2 209 0
	.syntax unified
@ 209 "../../../component/soc/realtek/8710c/cmsis/cmsis-core/include/cmsis_gcc.h" 1
	MRS r3, ipsr
@ 0 "" 2
.LVL114:
	.thumb
	.syntax unified
.LBE293:
.LBE292:
.LBE291:
	.loc 1 163 0
	cbz	r3, .L118
.L136:
.LVL115:
.LBB296:
.LBB297:
	.loc 3 233 0
	.syntax unified
@ 233 "../../../component/os/freertos/freertos_v10.0.1/Source/portable/GCC/ARM_RTL8710C/portmacro.h" 1
		msr basepri, r5	
@ 0 "" 2
.LVL116:
	.thumb
	.syntax unified
.L119:
.LBE297:
.LBE296:
	.loc 1 170 0
	cbz	r4, .L134
.LVL117:
.LBE285:
.LBE284:
.LBB303:
.LBB304:
.LBB305:
	.loc 2 209 0
	.syntax unified
@ 209 "../../../component/soc/realtek/8710c/cmsis/cmsis-core/include/cmsis_gcc.h" 1
	MRS r1, ipsr
@ 0 "" 2
	.thumb
	.syntax unified
.LBE305:
.LBE304:
.LBE303:
	.loc 1 575 0
	cbz	r1, .L135
	.loc 1 576 0
	mov	r0, r4
	bl	xEventGroupGetBitsFromISR
.LVL118:
	.loc 1 577 0
	mov	r1, r6
	.loc 1 576 0
	mov	r5, r0
.LVL119:
	.loc 1 577 0
	add	r2, sp, #4
	mov	r0, r4
.LVL120:
	bl	xEventGroupSetBitsFromISR
.LVL121:
	.loc 1 581 0
	cbz	r0, .L132
	.loc 1 583 0
	ldr	r3, [sp, #4]
	cbz	r3, .L132
	.loc 1 583 0 is_stmt 0 discriminator 1
	mov	r2, #268435456
	ldr	r3, .L137+4
	str	r2, [r3]
	.syntax unified
@ 583 "../../../component/os/freertos/cmsis_os.c" 1
	dsb
@ 0 "" 2
@ 583 "../../../component/os/freertos/cmsis_os.c" 1
	isb
@ 0 "" 2
	.thumb
	.syntax unified
	mov	r0, r5
.LVL122:
	b	.L109
.LVL123:
.L135:
	.loc 1 587 0 is_stmt 1
	mov	r0, r4
	bl	xEventGroupClearBits
.LVL124:
	.loc 1 591 0
	mov	r1, r6
	.loc 1 587 0
	mov	r5, r0
.LVL125:
	.loc 1 591 0
	mov	r0, r4
.LVL126:
	bl	xEventGroupSetBits
.LVL127:
.L132:
	mov	r0, r5
.LVL128:
.L109:
	.loc 1 598 0
	add	sp, sp, #8
	.cfi_remember_state
	.cfi_def_cfa_offset 16
	@ sp needed
	pop	{r4, r5, r6, pc}
.LVL129:
.L127:
	.cfi_restore_state
.LBB306:
.LBB301:
	.loc 1 129 0
	mov	r4, r3
.LVL130:
.LBB298:
.LBB295:
.LBB294:
	.loc 2 209 0
	.syntax unified
@ 209 "../../../component/soc/realtek/8710c/cmsis/cmsis-core/include/cmsis_gcc.h" 1
	MRS r3, ipsr
@ 0 "" 2
.LVL131:
	.thumb
	.syntax unified
.LBE294:
.LBE295:
.LBE298:
	.loc 1 163 0
	cmp	r3, #0
	bne	.L136
.LVL132:
.L118:
	.loc 1 167 0
	bl	vPortExitCritical
.LVL133:
	b	.L119
.LVL134:
.L111:
	.loc 1 138 0
	bl	vPortEnterCritical
.LVL135:
	b	.L112
.LVL136:
.L126:
.LBE301:
.LBE306:
	.loc 1 570 0
	mov	r0, #-2147483648
.LVL137:
	b	.L109
.LVL138:
.L134:
.LBB307:
.LBB302:
.LBB299:
.LBB300:
	.loc 1 171 0
	ldr	r3, .L137+8
	ldr	r1, .L137+12
	ldr	r3, [r3, #28]
	ldr	r0, .L137+16
	blx	r3
.LVL139:
	mov	r0, #-2147483648
	b	.L109
.L138:
	.align	2
.L137:
	.word	pThreadSignalMapHead
	.word	-536810236
	.word	stdio_printf_stubs
	.word	.LANCHOR2
	.word	.LC4
.LBE300:
.LBE299:
.LBE302:
.LBE307:
	.cfi_endproc
.LFE167:
	.size	osSignalSet, .-osSignalSet
	.section	.text.osSignalClear,"ax",%progbits
	.align	1
	.p2align 2,,3
	.global	osSignalClear
	.syntax unified
	.thumb
	.thumb_func
	.fpu softvfp
	.type	osSignalClear, %function
osSignalClear:
.LFB168:
	.loc 1 606 0
	.cfi_startproc
	@ args = 0, pretend = 0, frame = 0
	@ frame_needed = 0, uses_anonymous_args = 0
.LVL140:
	.loc 1 614 0
	bics	r3, r1, #255
	bne	.L154
.LVL141:
	.loc 1 606 0
	push	{r4, r5, r6, lr}
	.cfi_def_cfa_offset 16
	.cfi_offset 4, -16
	.cfi_offset 5, -12
	.cfi_offset 6, -8
	.cfi_offset 14, -4
	mov	r4, r0
	mov	r6, r1
.LBB337:
.LBB338:
.LBB339:
.LBB340:
.LBB341:
	.loc 2 209 0
	.syntax unified
@ 209 "../../../component/soc/realtek/8710c/cmsis/cmsis-core/include/cmsis_gcc.h" 1
	MRS r5, ipsr
@ 0 "" 2
	.thumb
	.syntax unified
.LBE341:
.LBE340:
.LBE339:
	.loc 1 134 0
	cmp	r5, #0
	beq	.L141
.LBB342:
.LBB343:
	.loc 3 213 0
	.syntax unified
@ 213 "../../../component/os/freertos/freertos_v10.0.1/Source/portable/GCC/ARM_RTL8710C/portmacro.h" 1
		mrs r5, basepri											
	mov r3, #64												
	cpsid i													
	msr basepri, r3											
	isb														
	dsb														
	cpsie i													

@ 0 "" 2
.LVL142:
	.thumb
	.syntax unified
.L142:
.LBE343:
.LBE342:
	.loc 1 141 0
	ldr	r3, .L167
	ldr	r3, [r3]
.LVL143:
	.loc 1 142 0
	cbnz	r3, .L147
	b	.L155
.L146:
	.loc 1 148 0
	ldr	r3, [r3, #8]
.LVL144:
	.loc 1 142 0
	cbz	r3, .L155
.L147:
	.loc 1 143 0
	ldr	r2, [r3]
	cmp	r4, r2
	bne	.L146
	.loc 1 144 0
	ldr	r4, [r3, #4]
.LVL145:
.LBB344:
.LBB345:
.LBB346:
	.loc 2 209 0
	.syntax unified
@ 209 "../../../component/soc/realtek/8710c/cmsis/cmsis-core/include/cmsis_gcc.h" 1
	MRS r3, ipsr
@ 0 "" 2
.LVL146:
	.thumb
	.syntax unified
.LBE346:
.LBE345:
.LBE344:
	.loc 1 163 0
	cbz	r3, .L148
.L166:
.LVL147:
.LBB349:
.LBB350:
	.loc 3 233 0
	.syntax unified
@ 233 "../../../component/os/freertos/freertos_v10.0.1/Source/portable/GCC/ARM_RTL8710C/portmacro.h" 1
		msr basepri, r5	
@ 0 "" 2
.LVL148:
	.thumb
	.syntax unified
.L149:
.LBE350:
.LBE349:
	.loc 1 170 0
	cbz	r4, .L164
.LVL149:
.LBE338:
.LBE337:
.LBB357:
.LBB358:
.LBB359:
	.loc 2 209 0
	.syntax unified
@ 209 "../../../component/soc/realtek/8710c/cmsis/cmsis-core/include/cmsis_gcc.h" 1
	MRS r1, ipsr
@ 0 "" 2
	.thumb
	.syntax unified
.LBE359:
.LBE358:
.LBE357:
	.loc 1 620 0
	cbz	r1, .L165
	.loc 1 621 0
	mov	r0, r4
	bl	xEventGroupGetBitsFromISR
.LVL150:
	mov	r5, r0
.LVL151:
	.loc 1 625 0
	mov	r1, r6
	mov	r0, r4
.LVL152:
	bl	xEventGroupClearBitsFromISR
.LVL153:
	mov	r0, r5
	pop	{r4, r5, r6, pc}
.LVL154:
.L155:
.LBB360:
.LBB354:
	.loc 1 129 0
	mov	r4, r3
.LVL155:
.LBB351:
.LBB348:
.LBB347:
	.loc 2 209 0
	.syntax unified
@ 209 "../../../component/soc/realtek/8710c/cmsis/cmsis-core/include/cmsis_gcc.h" 1
	MRS r3, ipsr
@ 0 "" 2
.LVL156:
	.thumb
	.syntax unified
.LBE347:
.LBE348:
.LBE351:
	.loc 1 163 0
	cmp	r3, #0
	bne	.L166
.LVL157:
.L148:
	.loc 1 167 0
	bl	vPortExitCritical
.LVL158:
	b	.L149
.LVL159:
.L165:
.LBE354:
.LBE360:
	.loc 1 630 0
	mov	r0, r4
	bl	xEventGroupClearBits
.LVL160:
	mov	r5, r0
.LVL161:
	.loc 1 634 0
	mov	r1, r6
	mov	r0, r4
.LVL162:
	bl	xEventGroupClearBits
.LVL163:
	mov	r0, r5
.LVL164:
	.loc 1 640 0
	pop	{r4, r5, r6, pc}
.LVL165:
.L141:
.LBB361:
.LBB355:
	.loc 1 138 0
	bl	vPortEnterCritical
.LVL166:
	b	.L142
.LVL167:
.L154:
	.cfi_def_cfa_offset 0
	.cfi_restore 4
	.cfi_restore 5
	.cfi_restore 6
	.cfi_restore 14
.LBE355:
.LBE361:
	.loc 1 615 0
	mov	r0, #-2147483648
.LVL168:
	bx	lr
.LVL169:
.L164:
	.cfi_def_cfa_offset 16
	.cfi_offset 4, -16
	.cfi_offset 5, -12
	.cfi_offset 6, -8
	.cfi_offset 14, -4
.LBB362:
.LBB356:
.LBB352:
.LBB353:
	.loc 1 171 0
	ldr	r3, .L167+4
	ldr	r1, .L167+8
	ldr	r3, [r3, #28]
	ldr	r0, .L167+12
	blx	r3
.LVL170:
	mov	r0, #-2147483648
	pop	{r4, r5, r6, pc}
.LVL171:
.L168:
	.align	2
.L167:
	.word	pThreadSignalMapHead
	.word	stdio_printf_stubs
	.word	.LANCHOR2
	.word	.LC4
.LBE353:
.LBE352:
.LBE356:
.LBE362:
	.cfi_endproc
.LFE168:
	.size	osSignalClear, .-osSignalClear
	.section	.text.osSignalWait,"ax",%progbits
	.align	1
	.p2align 2,,3
	.global	osSignalWait
	.syntax unified
	.thumb
	.thumb_func
	.fpu softvfp
	.type	osSignalWait, %function
osSignalWait:
.LFB169:
	.loc 1 650 0
	.cfi_startproc
	@ args = 0, pretend = 0, frame = 0
	@ frame_needed = 0, uses_anonymous_args = 0
.LVL172:
	push	{r4, r5, r6, r7, r8, r9, r10, lr}
	.cfi_def_cfa_offset 32
	.cfi_offset 4, -32
	.cfi_offset 5, -28
	.cfi_offset 6, -24
	.cfi_offset 7, -20
	.cfi_offset 8, -16
	.cfi_offset 9, -12
	.cfi_offset 10, -8
	.cfi_offset 14, -4
	.loc 1 657 0
	bics	r3, r1, #255
	.loc 1 650 0
	sub	sp, sp, #8
	.cfi_def_cfa_offset 40
	.loc 1 650 0
	mov	r5, r0
	.loc 1 657 0
	beq	.L170
.LVL173:
	.loc 1 660 0
	movs	r2, #134
.LVL174:
	movs	r3, #0
	stm	r0, {r2, r3}
	.loc 1 689 0
	mov	r0, r5
	add	sp, sp, #8
	.cfi_remember_state
	.cfi_def_cfa_offset 32
	@ sp needed
	pop	{r4, r5, r6, r7, r8, r9, r10, pc}
.LVL175:
.L170:
	.cfi_restore_state
	mov	r9, r1
	mov	r7, r2
	.loc 1 663 0
	bl	xTaskGetCurrentTaskHandle
.LVL176:
	mov	r4, r0
.LVL177:
.LBB391:
.LBB392:
.LBB393:
.LBB394:
.LBB395:
	.loc 2 209 0
	.syntax unified
@ 209 "../../../component/soc/realtek/8710c/cmsis/cmsis-core/include/cmsis_gcc.h" 1
	MRS r10, ipsr
@ 0 "" 2
	.thumb
	.syntax unified
.LBE395:
.LBE394:
.LBE393:
	.loc 1 134 0
	cmp	r10, #0
	beq	.L172
.LBB396:
.LBB397:
	.loc 3 213 0
	.syntax unified
@ 213 "../../../component/os/freertos/freertos_v10.0.1/Source/portable/GCC/ARM_RTL8710C/portmacro.h" 1
		mrs r10, basepri											
	mov r3, #64												
	cpsid i													
	msr basepri, r3											
	isb														
	dsb														
	cpsie i													

@ 0 "" 2
.LVL178:
	.thumb
	.syntax unified
.L173:
.LBE397:
.LBE396:
	.loc 1 141 0
	ldr	r3, .L196
	ldr	r3, [r3]
.LVL179:
	.loc 1 142 0
	cbnz	r3, .L178
	b	.L186
.L177:
	.loc 1 148 0
	ldr	r3, [r3, #8]
.LVL180:
	.loc 1 142 0
	cbz	r3, .L186
.L178:
	.loc 1 143 0
	ldr	r2, [r3]
	cmp	r4, r2
	bne	.L177
	.loc 1 144 0
	ldr	r4, [r3, #4]
.LVL181:
.LBB398:
.LBB399:
.LBB400:
	.loc 2 209 0
	.syntax unified
@ 209 "../../../component/soc/realtek/8710c/cmsis/cmsis-core/include/cmsis_gcc.h" 1
	MRS r3, ipsr
@ 0 "" 2
.LVL182:
	.thumb
	.syntax unified
.LBE400:
.LBE399:
.LBE398:
	.loc 1 163 0
	cbz	r3, .L179
.L195:
.LVL183:
.LBB403:
.LBB404:
	.loc 3 233 0
	.syntax unified
@ 233 "../../../component/os/freertos/freertos_v10.0.1/Source/portable/GCC/ARM_RTL8710C/portmacro.h" 1
		msr basepri, r10	
@ 0 "" 2
.LVL184:
	.thumb
	.syntax unified
.L180:
.LBE404:
.LBE403:
	.loc 1 170 0
	cbz	r4, .L194
.LVL185:
.LBE392:
.LBE391:
	cmp	r9, #0
	.loc 1 672 0
	ite	ne
	movne	r1, r9
	moveq	r1, #255
	str	r7, [sp]
	mov	r0, r4
	movs	r3, #0
	movs	r2, #1
	bl	xEventGroupWaitBits
.LVL186:
	.loc 1 678 0
	cbnz	r0, .L183
	.loc 1 679 0
	cbz	r7, .L187
	.loc 1 680 0
	mov	r6, r0
	.loc 1 679 0
	mov	r8, #64
.LVL187:
.L182:
	.loc 1 689 0
	mov	r0, r5
	.loc 1 688 0
	str	r8, [r5]
	str	r6, [r5, #4]
.LVL188:
	.loc 1 689 0
	add	sp, sp, #8
	.cfi_remember_state
	.cfi_def_cfa_offset 32
	@ sp needed
	pop	{r4, r5, r6, r7, r8, r9, r10, pc}
.LVL189:
.L186:
	.cfi_restore_state
.LBB411:
.LBB408:
	.loc 1 129 0
	mov	r4, r3
.LVL190:
.LBB405:
.LBB402:
.LBB401:
	.loc 2 209 0
	.syntax unified
@ 209 "../../../component/soc/realtek/8710c/cmsis/cmsis-core/include/cmsis_gcc.h" 1
	MRS r3, ipsr
@ 0 "" 2
.LVL191:
	.thumb
	.syntax unified
.LBE401:
.LBE402:
.LBE405:
	.loc 1 163 0
	cmp	r3, #0
	bne	.L195
.LVL192:
.L179:
	.loc 1 167 0
	bl	vPortExitCritical
.LVL193:
	b	.L180
.LVL194:
.L183:
.LBE408:
.LBE411:
	.loc 1 684 0
	mov	r6, r0
.LVL195:
	.loc 1 683 0
	mov	r8, #8
	b	.L182
.LVL196:
.L172:
.LBB412:
.LBB409:
	.loc 1 138 0
	bl	vPortEnterCritical
.LVL197:
	b	.L173
.LVL198:
.L187:
.LBE409:
.LBE412:
	.loc 1 680 0
	mov	r6, r7
	.loc 1 679 0
	mov	r8, r7
	b	.L182
.LVL199:
.L194:
.LBB413:
.LBB410:
.LBB406:
.LBB407:
	.loc 1 171 0
	ldr	r3, .L196+4
	ldr	r1, .L196+8
	ldr	r3, [r3, #28]
	ldr	r0, .L196+12
	blx	r3
.LVL200:
	b	.L182
.L197:
	.align	2
.L196:
	.word	pThreadSignalMapHead
	.word	stdio_printf_stubs
	.word	.LANCHOR2
	.word	.LC4
.LBE407:
.LBE406:
.LBE410:
.LBE413:
	.cfi_endproc
.LFE169:
	.size	osSignalWait, .-osSignalWait
	.section	.text.osMutexCreate,"ax",%progbits
	.align	1
	.p2align 2,,3
	.global	osMutexCreate
	.syntax unified
	.thumb
	.thumb_func
	.fpu softvfp
	.type	osMutexCreate, %function
osMutexCreate:
.LFB170:
	.loc 1 721 0
	.cfi_startproc
	@ args = 0, pretend = 0, frame = 0
	@ frame_needed = 0, uses_anonymous_args = 0
	@ link register save eliminated.
.LVL201:
	.loc 1 724 0
	movs	r0, #1
.LVL202:
	b	xQueueCreateMutex
.LVL203:
	.cfi_endproc
.LFE170:
	.size	osMutexCreate, .-osMutexCreate
	.section	.text.osMutexWait,"ax",%progbits
	.align	1
	.p2align 2,,3
	.global	osMutexWait
	.syntax unified
	.thumb
	.thumb_func
	.fpu softvfp
	.type	osMutexWait, %function
osMutexWait:
.LFB171:
	.loc 1 735 0
	.cfi_startproc
	@ args = 0, pretend = 0, frame = 0
	@ frame_needed = 0, uses_anonymous_args = 0
.LVL204:
	.loc 1 739 0
	cbz	r0, .L201
	.loc 1 735 0
	push	{r3, lr}
	.cfi_def_cfa_offset 8
	.cfi_offset 3, -8
	.cfi_offset 14, -4
.LBB414:
.LBB415:
.LBB416:
	.loc 2 209 0
	.syntax unified
@ 209 "../../../component/soc/realtek/8710c/cmsis/cmsis-core/include/cmsis_gcc.h" 1
	MRS r3, ipsr
@ 0 "" 2
	.thumb
	.syntax unified
.LBE416:
.LBE415:
.LBE414:
	.loc 1 743 0
	cbz	r3, .L208
	.loc 1 744 0
	movs	r0, #130
.LVL205:
	.loc 1 754 0
	pop	{r3, pc}
.LVL206:
.L208:
	.loc 1 749 0
	bl	xQueueSemaphoreTake
.LVL207:
	cmp	r0, #1
	.loc 1 753 0
	ite	ne
	movne	r0, #255
	moveq	r0, #0
	pop	{r3, pc}
.LVL208:
.L201:
	.cfi_def_cfa_offset 0
	.cfi_restore 3
	.cfi_restore 14
	.loc 1 740 0
	movs	r0, #128
.LVL209:
	bx	lr
	.cfi_endproc
.LFE171:
	.size	osMutexWait, .-osMutexWait
	.section	.text.osMutexRelease,"ax",%progbits
	.align	1
	.p2align 2,,3
	.global	osMutexRelease
	.syntax unified
	.thumb
	.thumb_func
	.fpu softvfp
	.type	osMutexRelease, %function
osMutexRelease:
.LFB195:
	.cfi_startproc
	@ args = 0, pretend = 0, frame = 8
	@ frame_needed = 0, uses_anonymous_args = 0
	movs	r3, #0
	push	{lr}
	.cfi_def_cfa_offset 4
	.cfi_offset 14, -4
	sub	sp, sp, #12
	.cfi_def_cfa_offset 16
	str	r3, [sp, #4]
	.syntax unified
@ 209 "../../../component/soc/realtek/8710c/cmsis/cmsis-core/include/cmsis_gcc.h" 1
	MRS r3, ipsr
@ 0 "" 2
	.thumb
	.syntax unified
	cbz	r3, .L210
	add	r1, sp, #4
	bl	xQueueGiveFromISR
	ldr	r3, [sp, #4]
	cmp	r0, #1
	ite	eq
	moveq	r0, #0
	movne	r0, #255
	cbz	r3, .L209
	mov	r2, #268435456
	ldr	r3, .L219
	str	r2, [r3]
	.syntax unified
@ 864 "../../../component/os/freertos/cmsis_os.c" 1
	dsb
@ 0 "" 2
@ 864 "../../../component/os/freertos/cmsis_os.c" 1
	isb
@ 0 "" 2
	.thumb
	.syntax unified
.L209:
	add	sp, sp, #12
	.cfi_remember_state
	.cfi_def_cfa_offset 4
	@ sp needed
	ldr	pc, [sp], #4
.L210:
	.cfi_restore_state
	mov	r2, r3
	mov	r1, r3
	bl	xQueueGenericSend
	cmp	r0, #1
	ite	eq
	moveq	r0, #0
	movne	r0, #255
	add	sp, sp, #12
	.cfi_def_cfa_offset 4
	@ sp needed
	ldr	pc, [sp], #4
.L220:
	.align	2
.L219:
	.word	-536810236
	.cfi_endproc
.LFE195:
	.size	osMutexRelease, .-osMutexRelease
	.section	.text.osMutexDelete,"ax",%progbits
	.align	1
	.p2align 2,,3
	.global	osMutexDelete
	.syntax unified
	.thumb
	.thumb_func
	.fpu softvfp
	.type	osMutexDelete, %function
osMutexDelete:
.LFB197:
	.cfi_startproc
	@ args = 0, pretend = 0, frame = 0
	@ frame_needed = 0, uses_anonymous_args = 0
	cbz	r0, .L223
	push	{r3, lr}
	.cfi_def_cfa_offset 8
	.cfi_offset 3, -8
	.cfi_offset 14, -4
	bl	vQueueDelete
	movs	r0, #0
	pop	{r3, pc}
.L223:
	.cfi_def_cfa_offset 0
	.cfi_restore 3
	.cfi_restore 14
	movs	r0, #134
	bx	lr
	.cfi_endproc
.LFE197:
	.size	osMutexDelete, .-osMutexDelete
	.section	.text.osSemaphoreCreate,"ax",%progbits
	.align	1
	.p2align 2,,3
	.global	osSemaphoreCreate
	.syntax unified
	.thumb
	.thumb_func
	.fpu softvfp
	.type	osSemaphoreCreate, %function
osSemaphoreCreate:
.LFB174:
	.loc 1 808 0
	.cfi_startproc
	@ args = 0, pretend = 0, frame = 0
	@ frame_needed = 0, uses_anonymous_args = 0
.LVL210:
	.loc 1 812 0
	cmp	r1, #1
	.loc 1 808 0
	mov	r0, r1
.LVL211:
	.loc 1 812 0
	beq	.L237
	.loc 1 817 0
	b	xQueueCreateCountingSemaphore
.LVL212:
.L237:
	.loc 1 808 0
	push	{r4, lr}
	.cfi_def_cfa_offset 8
	.cfi_offset 4, -8
	.cfi_offset 14, -4
	.loc 1 813 0
	movs	r2, #3
	movs	r1, #0
	bl	xQueueGenericCreate
.LVL213:
	mov	r4, r0
	cbz	r0, .L228
	.loc 1 813 0 discriminator 1
	movs	r3, #0
	mov	r2, r3
	mov	r1, r3
	bl	xQueueGenericSend
.LVL214:
.L228:
	.loc 1 818 0
	mov	r0, r4
	pop	{r4, pc}
	.cfi_endproc
.LFE174:
	.size	osSemaphoreCreate, .-osSemaphoreCreate
	.section	.text.osSemaphoreWait,"ax",%progbits
	.align	1
	.p2align 2,,3
	.global	osSemaphoreWait
	.syntax unified
	.thumb
	.thumb_func
	.fpu softvfp
	.type	osSemaphoreWait, %function
osSemaphoreWait:
.LFB175:
	.loc 1 828 0
	.cfi_startproc
	@ args = 0, pretend = 0, frame = 0
	@ frame_needed = 0, uses_anonymous_args = 0
.LVL215:
	.loc 1 832 0
	cbz	r0, .L240
	.loc 1 828 0
	push	{r3, lr}
	.cfi_def_cfa_offset 8
	.cfi_offset 3, -8
	.cfi_offset 14, -4
.LBB417:
.LBB418:
.LBB419:
	.loc 2 209 0
	.syntax unified
@ 209 "../../../component/soc/realtek/8710c/cmsis/cmsis-core/include/cmsis_gcc.h" 1
	MRS r3, ipsr
@ 0 "" 2
	.thumb
	.syntax unified
.LBE419:
.LBE418:
.LBE417:
	.loc 1 838 0
	cbz	r3, .L247
	.loc 1 839 0
	movs	r0, #130
.LVL216:
	.loc 1 847 0
	pop	{r3, pc}
.LVL217:
.L240:
	.cfi_def_cfa_offset 0
	.cfi_restore 3
	.cfi_restore 14
	.loc 1 833 0
	movs	r0, #128
.LVL218:
	bx	lr
.LVL219:
.L247:
	.cfi_def_cfa_offset 8
	.cfi_offset 3, -8
	.cfi_offset 14, -4
	.loc 1 842 0
	bl	xQueueSemaphoreTake
.LVL220:
	cmp	r0, #1
	.loc 1 846 0
	ite	ne
	movne	r0, #255
	moveq	r0, #0
	pop	{r3, pc}
	.cfi_endproc
.LFE175:
	.size	osSemaphoreWait, .-osSemaphoreWait
	.section	.text.osSemaphoreRelease,"ax",%progbits
	.align	1
	.p2align 2,,3
	.global	osSemaphoreRelease
	.syntax unified
	.thumb
	.thumb_func
	.fpu softvfp
	.type	osSemaphoreRelease, %function
osSemaphoreRelease:
.LFB176:
	.loc 1 855 0
	.cfi_startproc
	@ args = 0, pretend = 0, frame = 8
	@ frame_needed = 0, uses_anonymous_args = 0
.LVL221:
	.loc 1 857 0
	movs	r3, #0
	.loc 1 855 0
	push	{lr}
	.cfi_def_cfa_offset 4
	.cfi_offset 14, -4
	sub	sp, sp, #12
	.cfi_def_cfa_offset 16
	.loc 1 857 0
	str	r3, [sp, #4]
.LBB420:
.LBB421:
.LBB422:
	.loc 2 209 0
	.syntax unified
@ 209 "../../../component/soc/realtek/8710c/cmsis/cmsis-core/include/cmsis_gcc.h" 1
	MRS r3, ipsr
@ 0 "" 2
	.thumb
	.syntax unified
.LBE422:
.LBE421:
.LBE420:
	.loc 1 860 0
	cbz	r3, .L249
	.loc 1 861 0
	add	r1, sp, #4
	bl	xQueueGiveFromISR
.LVL222:
	.loc 1 864 0
	ldr	r3, [sp, #4]
	.loc 1 862 0
	cmp	r0, #1
	ite	eq
	moveq	r0, #0
	movne	r0, #255
.LVL223:
	.loc 1 864 0
	cbz	r3, .L248
	.loc 1 864 0 is_stmt 0 discriminator 1
	mov	r2, #268435456
	ldr	r3, .L258
	str	r2, [r3]
	.syntax unified
@ 864 "../../../component/os/freertos/cmsis_os.c" 1
	dsb
@ 0 "" 2
@ 864 "../../../component/os/freertos/cmsis_os.c" 1
	isb
@ 0 "" 2
	.thumb
	.syntax unified
.L248:
	.loc 1 873 0 is_stmt 1
	add	sp, sp, #12
	.cfi_remember_state
	.cfi_def_cfa_offset 4
	@ sp needed
	ldr	pc, [sp], #4
.LVL224:
.L249:
	.cfi_restore_state
	.loc 1 867 0
	mov	r2, r3
	mov	r1, r3
	bl	xQueueGenericSend
.LVL225:
	.loc 1 868 0
	cmp	r0, #1
	ite	eq
	moveq	r0, #0
	movne	r0, #255
	.loc 1 873 0
	add	sp, sp, #12
	.cfi_def_cfa_offset 4
	@ sp needed
	ldr	pc, [sp], #4
.L259:
	.align	2
.L258:
	.word	-536810236
	.cfi_endproc
.LFE176:
	.size	osSemaphoreRelease, .-osSemaphoreRelease
	.section	.text.osSemaphoreDelete,"ax",%progbits
	.align	1
	.p2align 2,,3
	.global	osSemaphoreDelete
	.syntax unified
	.thumb
	.thumb_func
	.fpu softvfp
	.type	osSemaphoreDelete, %function
osSemaphoreDelete:
.LFB177:
	.loc 1 881 0
	.cfi_startproc
	@ args = 0, pretend = 0, frame = 0
	@ frame_needed = 0, uses_anonymous_args = 0
.LVL226:
	.loc 1 882 0
	cbz	r0, .L262
	.loc 1 881 0
	push	{r3, lr}
	.cfi_def_cfa_offset 8
	.cfi_offset 3, -8
	.cfi_offset 14, -4
	.loc 1 886 0
	bl	vQueueDelete
.LVL227:
	.loc 1 887 0
	movs	r0, #0
	pop	{r3, pc}
.LVL228:
.L262:
	.cfi_def_cfa_offset 0
	.cfi_restore 3
	.cfi_restore 14
	.loc 1 883 0
	movs	r0, #134
.LVL229:
	bx	lr
	.cfi_endproc
.LFE177:
	.size	osSemaphoreDelete, .-osSemaphoreDelete
	.section	.text.osPoolCreate,"ax",%progbits
	.align	1
	.p2align 2,,3
	.global	osPoolCreate
	.syntax unified
	.thumb
	.thumb_func
	.fpu softvfp
	.type	osPoolCreate, %function
osPoolCreate:
.LFB178:
	.loc 1 941 0
	.cfi_startproc
	@ args = 0, pretend = 0, frame = 8
	@ frame_needed = 0, uses_anonymous_args = 0
.LVL230:
	push	{r4, r5, r6, r7, lr}
	.cfi_def_cfa_offset 20
	.cfi_offset 4, -20
	.cfi_offset 5, -16
	.cfi_offset 6, -12
	.cfi_offset 7, -8
	.cfi_offset 14, -4
	.loc 1 943 0
	ldr	r7, [r0, #4]
	.loc 1 941 0
	sub	sp, sp, #12
	.cfi_def_cfa_offset 32
	.loc 1 941 0
	mov	r6, r0
	.loc 1 947 0
	movs	r0, #20
.LVL231:
	bl	pvPortMalloc
.LVL232:
	.loc 1 948 0
	mov	r5, r0
	cbz	r0, .L267
	.loc 1 951 0
	movs	r4, #0
	.loc 1 949 0
	ldr	r0, [r6]
.LVL233:
	adds	r7, r7, #3
.LVL234:
	bic	r7, r7, #3
.LVL235:
	.loc 1 951 0
	str	r4, [r5, #16]
	.loc 1 949 0
	str	r0, [r5, #8]
	.loc 1 950 0
	str	r7, [r5, #12]
	.loc 1 954 0
	bl	pvPortMalloc
.LVL236:
	str	r0, [r5, #4]
	.loc 1 955 0
	cbz	r0, .L269
	.loc 1 957 0
	ldr	r0, [r6]
	mul	r0, r0, r7
	bl	pvPortMalloc
.LVL237:
	mov	r7, r0
	str	r0, [r5]
	.loc 1 959 0
	cbz	r0, .L270
.LVL238:
	.loc 1 960 0 discriminator 1
	ldr	r3, [r6]
	cbz	r3, .L267
	.loc 1 960 0 is_stmt 0 discriminator 3
	mov	r3, r4
	.loc 1 961 0 is_stmt 1 discriminator 3
	mov	r1, r4
.LVL239:
.L271:
	ldr	r2, [r5, #4]
	strb	r1, [r2, r3]
	.loc 1 960 0 discriminator 3
	ldr	r2, [r6]
	adds	r3, r3, #1
.LVL240:
	cmp	r2, r3
	bhi	.L271
.LVL241:
.L267:
	.loc 1 977 0
	mov	r0, r5
	add	sp, sp, #12
	.cfi_remember_state
	.cfi_def_cfa_offset 20
	@ sp needed
	pop	{r4, r5, r6, r7, pc}
.LVL242:
.L269:
	.cfi_restore_state
	str	r0, [sp, #4]
	.loc 1 971 0
	mov	r0, r5
	bl	vPortFree
.LVL243:
	.loc 1 972 0
	ldr	r3, [sp, #4]
	mov	r5, r3
.LVL244:
	.loc 1 976 0
	b	.L267
.LVL245:
.L270:
	.loc 1 965 0
	ldr	r0, [r5, #4]
	bl	vPortFree
.LVL246:
	.loc 1 966 0
	mov	r0, r5
	bl	vPortFree
.LVL247:
	.loc 1 967 0
	mov	r5, r7
	b	.L267
	.cfi_endproc
.LFE178:
	.size	osPoolCreate, .-osPoolCreate
	.section	.text.osPoolAlloc,"ax",%progbits
	.align	1
	.p2align 2,,3
	.global	osPoolAlloc
	.syntax unified
	.thumb
	.thumb_func
	.fpu softvfp
	.type	osPoolAlloc, %function
osPoolAlloc:
.LFB179:
	.loc 1 985 0
	.cfi_startproc
	@ args = 0, pretend = 0, frame = 0
	@ frame_needed = 0, uses_anonymous_args = 0
.LVL248:
	push	{r4, r5, r6, r7, r8, lr}
	.cfi_def_cfa_offset 24
	.cfi_offset 4, -24
	.cfi_offset 5, -20
	.cfi_offset 6, -16
	.cfi_offset 7, -12
	.cfi_offset 8, -8
	.cfi_offset 14, -4
	.loc 1 985 0
	mov	r8, r0
.LBB433:
.LBB434:
.LBB435:
	.loc 2 209 0
	.syntax unified
@ 209 "../../../component/soc/realtek/8710c/cmsis/cmsis-core/include/cmsis_gcc.h" 1
	MRS r4, ipsr
@ 0 "" 2
	.thumb
	.syntax unified
.LBE435:
.LBE434:
.LBE433:
	.loc 1 991 0
	cmp	r4, #0
	beq	.L281
.LBB436:
.LBB437:
	.loc 3 213 0
	.syntax unified
@ 213 "../../../component/os/freertos/freertos_v10.0.1/Source/portable/GCC/ARM_RTL8710C/portmacro.h" 1
		mrs r4, basepri											
	mov r3, #64												
	cpsid i													
	msr basepri, r3											
	isb														
	dsb														
	cpsie i													

@ 0 "" 2
	.thumb
	.syntax unified
.LBE437:
.LBE436:
	.loc 1 992 0
	mov	r0, r4
.LVL249:
.L282:
	.loc 1 998 0
	ldr	r4, [r8, #8]
	cbz	r4, .L283
	ldr	r3, [r8, #16]
	ldr	r1, [r8, #4]
	adds	r7, r3, r4
	b	.L286
.LVL250:
.L285:
	.loc 1 998 0 is_stmt 0 discriminator 2
	cmp	r7, r3
	beq	.L293
.LVL251:
.L286:
	.loc 1 1000 0 is_stmt 1
	cmp	r4, r3
	ite	hi
	movhi	r2, r3
	movls	r2, #0
.LVL252:
	.loc 1 1004 0
	ldrb	r5, [r1, r2]	@ zero_extendqisi2
	adds	r3, r3, #1
	adds	r6, r1, r2
	cmp	r5, #0
	bne	.L285
	.loc 1 1005 0
	movs	r3, #1
	strb	r3, [r6]
	.loc 1 1006 0
	ldr	r3, [r8, #12]
	ldr	r4, [r8]
	.loc 1 1007 0
	str	r2, [r8, #16]
	.loc 1 1006 0
	mla	r4, r3, r2, r4
.LVL253:
.L283:
.LBB438:
.LBB439:
.LBB440:
	.loc 2 209 0
	.syntax unified
@ 209 "../../../component/soc/realtek/8710c/cmsis/cmsis-core/include/cmsis_gcc.h" 1
	MRS r3, ipsr
@ 0 "" 2
	.thumb
	.syntax unified
.LBE440:
.LBE439:
.LBE438:
	.loc 1 1012 0
	cbz	r3, .L287
.L294:
.LVL254:
.LBB443:
.LBB444:
	.loc 3 233 0
	.syntax unified
@ 233 "../../../component/os/freertos/freertos_v10.0.1/Source/portable/GCC/ARM_RTL8710C/portmacro.h" 1
		msr basepri, r0	
@ 0 "" 2
	.thumb
	.syntax unified
.LBE444:
.LBE443:
	.loc 1 1020 0
	mov	r0, r4
.LVL255:
	pop	{r4, r5, r6, r7, r8, pc}
.LVL256:
.L293:
	.loc 1 987 0
	movs	r4, #0
.LVL257:
.LBB445:
.LBB442:
.LBB441:
	.loc 2 209 0
	.syntax unified
@ 209 "../../../component/soc/realtek/8710c/cmsis/cmsis-core/include/cmsis_gcc.h" 1
	MRS r3, ipsr
@ 0 "" 2
	.thumb
	.syntax unified
.LBE441:
.LBE442:
.LBE445:
	.loc 1 1012 0
	cmp	r3, #0
	bne	.L294
.LVL258:
.L287:
	.loc 1 1016 0
	bl	vPortExitCritical
.LVL259:
	.loc 1 1020 0
	mov	r0, r4
	pop	{r4, r5, r6, r7, r8, pc}
.LVL260:
.L281:
	.loc 1 995 0
	bl	vPortEnterCritical
.LVL261:
	.loc 1 986 0
	mov	r0, r4
	b	.L282
	.cfi_endproc
.LFE179:
	.size	osPoolAlloc, .-osPoolAlloc
	.section	.text.osPoolCAlloc,"ax",%progbits
	.align	1
	.p2align 2,,3
	.global	osPoolCAlloc
	.syntax unified
	.thumb
	.thumb_func
	.fpu softvfp
	.type	osPoolCAlloc, %function
osPoolCAlloc:
.LFB180:
	.loc 1 1028 0
	.cfi_startproc
	@ args = 0, pretend = 0, frame = 0
	@ frame_needed = 0, uses_anonymous_args = 0
.LVL262:
	push	{r4, r5, r6, r7, r8, lr}
	.cfi_def_cfa_offset 24
	.cfi_offset 4, -24
	.cfi_offset 5, -20
	.cfi_offset 6, -16
	.cfi_offset 7, -12
	.cfi_offset 8, -8
	.cfi_offset 14, -4
	.loc 1 1028 0
	mov	r8, r0
.LVL263:
.LBB458:
.LBB459:
.LBB460:
.LBB461:
.LBB462:
	.loc 2 209 0
	.syntax unified
@ 209 "../../../component/soc/realtek/8710c/cmsis/cmsis-core/include/cmsis_gcc.h" 1
	MRS r4, ipsr
@ 0 "" 2
	.thumb
	.syntax unified
.LBE462:
.LBE461:
.LBE460:
	.loc 1 991 0
	cmp	r4, #0
	beq	.L296
.LBB463:
.LBB464:
	.loc 3 213 0
	.syntax unified
@ 213 "../../../component/os/freertos/freertos_v10.0.1/Source/portable/GCC/ARM_RTL8710C/portmacro.h" 1
		mrs r4, basepri											
	mov r3, #64												
	cpsid i													
	msr basepri, r3											
	isb														
	dsb														
	cpsie i													

@ 0 "" 2
	.thumb
	.syntax unified
.LBE464:
.LBE463:
	.loc 1 992 0
	mov	r0, r4
.LVL264:
.L297:
	.loc 1 998 0
	ldr	r4, [r8, #8]
	cbz	r4, .L298
	ldr	r3, [r8, #16]
	ldr	r1, [r8, #4]
	adds	r7, r4, r3
	b	.L301
.LVL265:
.L300:
	cmp	r7, r3
	beq	.L308
.LVL266:
.L301:
	.loc 1 1000 0
	cmp	r4, r3
	ite	hi
	movhi	r2, r3
	movls	r2, #0
.LVL267:
	.loc 1 1004 0
	ldrb	r5, [r1, r2]	@ zero_extendqisi2
	adds	r3, r3, #1
	adds	r6, r1, r2
	cmp	r5, #0
	bne	.L300
	.loc 1 1005 0
	movs	r3, #1
	strb	r3, [r6]
	.loc 1 1006 0
	ldr	r3, [r8, #12]
	ldr	r4, [r8]
	.loc 1 1007 0
	str	r2, [r8, #16]
	.loc 1 1006 0
	mla	r4, r3, r2, r4
.LVL268:
.L298:
.LBB465:
.LBB466:
.LBB467:
	.loc 2 209 0
	.syntax unified
@ 209 "../../../component/soc/realtek/8710c/cmsis/cmsis-core/include/cmsis_gcc.h" 1
	MRS r3, ipsr
@ 0 "" 2
	.thumb
	.syntax unified
.LBE467:
.LBE466:
.LBE465:
	.loc 1 1012 0
	cbz	r3, .L302
.L309:
.LVL269:
.LBB470:
.LBB471:
	.loc 3 233 0
	.syntax unified
@ 233 "../../../component/os/freertos/freertos_v10.0.1/Source/portable/GCC/ARM_RTL8710C/portmacro.h" 1
		msr basepri, r0	
@ 0 "" 2
.LVL270:
	.thumb
	.syntax unified
.L303:
.LBE471:
.LBE470:
.LBE459:
.LBE458:
	.loc 1 1031 0
	ldr	r2, [r8, #12]
	movs	r1, #0
	mov	r0, r4
	bl	memset
.LVL271:
	.loc 1 1034 0
	mov	r0, r4
	pop	{r4, r5, r6, r7, r8, pc}
.LVL272:
.L308:
.LBB474:
.LBB473:
	.loc 1 987 0
	movs	r4, #0
.LVL273:
.LBB472:
.LBB469:
.LBB468:
	.loc 2 209 0
	.syntax unified
@ 209 "../../../component/soc/realtek/8710c/cmsis/cmsis-core/include/cmsis_gcc.h" 1
	MRS r3, ipsr
@ 0 "" 2
	.thumb
	.syntax unified
.LBE468:
.LBE469:
.LBE472:
	.loc 1 1012 0
	cmp	r3, #0
	bne	.L309
.LVL274:
.L302:
	.loc 1 1016 0
	bl	vPortExitCritical
.LVL275:
	b	.L303
.LVL276:
.L296:
	.loc 1 995 0
	bl	vPortEnterCritical
.LVL277:
	.loc 1 986 0
	mov	r0, r4
	b	.L297
.LBE473:
.LBE474:
	.cfi_endproc
.LFE180:
	.size	osPoolCAlloc, .-osPoolCAlloc
	.section	.text.osPoolFree,"ax",%progbits
	.align	1
	.p2align 2,,3
	.global	osPoolFree
	.syntax unified
	.thumb
	.thumb_func
	.fpu softvfp
	.type	osPoolFree, %function
osPoolFree:
.LFB181:
	.loc 1 1043 0
	.cfi_startproc
	@ args = 0, pretend = 0, frame = 0
	@ frame_needed = 0, uses_anonymous_args = 0
.LVL278:
	.loc 1 1047 0
	cbz	r0, .L317
	.loc 1 1051 0
	cbz	r1, .L317
.LVL279:
.LBB489:
.LBB490:
	.loc 1 1055 0
	ldr	r3, [r0]
	cmp	r1, r3
	bcs	.L324
.LVL280:
.L317:
.LBE490:
.LBE489:
	.loc 1 1048 0
	movs	r0, #128
.LVL281:
	bx	lr
.LVL282:
.L324:
.LBB504:
.LBB501:
	.loc 1 1060 0
	ldr	r2, [r0, #12]
	.loc 1 1059 0
	subs	r1, r1, r3
.LVL283:
.LBE501:
.LBE504:
	.loc 1 1043 0
	push	{r4, r5, r6, lr}
	.cfi_def_cfa_offset 16
	.cfi_offset 4, -16
	.cfi_offset 5, -12
	.cfi_offset 6, -8
	.cfi_offset 14, -4
.LBB505:
.LBB502:
	.loc 1 1060 0
	udiv	r5, r1, r2
	mls	r1, r2, r5, r1
.LVL284:
	cbz	r1, .L325
.LVL285:
.L319:
.LBE502:
.LBE505:
	.loc 1 1048 0
	movs	r0, #128
.LVL286:
	.loc 1 1085 0
	pop	{r4, r5, r6, pc}
.LVL287:
.L325:
.LBB506:
.LBB503:
	.loc 1 1064 0
	ldr	r3, [r0, #8]
	cmp	r5, r3
	bcs	.L319
	mov	r4, r0
.LBB491:
.LBB492:
.LBB493:
	.loc 2 209 0
	.syntax unified
@ 209 "../../../component/soc/realtek/8710c/cmsis/cmsis-core/include/cmsis_gcc.h" 1
	MRS r6, ipsr
@ 0 "" 2
	.thumb
	.syntax unified
.LBE493:
.LBE492:
.LBE491:
	.loc 1 1068 0
	cbz	r6, .L312
.LBB494:
.LBB495:
	.loc 3 213 0
	.syntax unified
@ 213 "../../../component/os/freertos/freertos_v10.0.1/Source/portable/GCC/ARM_RTL8710C/portmacro.h" 1
		mrs r6, basepri											
	mov r3, #64												
	cpsid i													
	msr basepri, r3											
	isb														
	dsb														
	cpsie i													

@ 0 "" 2
.LVL288:
	.thumb
	.syntax unified
.L313:
.LBE495:
.LBE494:
	.loc 1 1075 0
	movs	r0, #0
	ldr	r3, [r4, #4]
	strb	r0, [r3, r5]
.LBB496:
.LBB497:
.LBB498:
	.loc 2 209 0
	.syntax unified
@ 209 "../../../component/soc/realtek/8710c/cmsis/cmsis-core/include/cmsis_gcc.h" 1
	MRS r4, ipsr
@ 0 "" 2
.LVL289:
	.thumb
	.syntax unified
.LBE498:
.LBE497:
.LBE496:
	.loc 1 1077 0
	cbz	r4, .L314
.LVL290:
.LBB499:
.LBB500:
	.loc 3 233 0
	.syntax unified
@ 233 "../../../component/os/freertos/freertos_v10.0.1/Source/portable/GCC/ARM_RTL8710C/portmacro.h" 1
		msr basepri, r6	
@ 0 "" 2
	.thumb
	.syntax unified
	pop	{r4, r5, r6, pc}
.LVL291:
.L314:
.LBE500:
.LBE499:
	.loc 1 1081 0
	bl	vPortExitCritical
.LVL292:
	.loc 1 1084 0
	mov	r0, r4
	pop	{r4, r5, r6, pc}
.LVL293:
.L312:
	.loc 1 1072 0
	bl	vPortEnterCritical
.LVL294:
	b	.L313
.LBE503:
.LBE506:
	.cfi_endproc
.LFE181:
	.size	osPoolFree, .-osPoolFree
	.section	.text.osMessageCreate,"ax",%progbits
	.align	1
	.p2align 2,,3
	.global	osMessageCreate
	.syntax unified
	.thumb
	.thumb_func
	.fpu softvfp
	.type	osMessageCreate, %function
osMessageCreate:
.LFB182:
	.loc 1 1101 0
	.cfi_startproc
	@ args = 0, pretend = 0, frame = 0
	@ frame_needed = 0, uses_anonymous_args = 0
	@ link register save eliminated.
.LVL295:
	.loc 1 1104 0
	movs	r2, #0
	ldm	r0, {r0, r1}
.LVL296:
	b	xQueueGenericCreate
.LVL297:
	.cfi_endproc
.LFE182:
	.size	osMessageCreate, .-osMessageCreate
	.section	.text.osMessagePut,"ax",%progbits
	.align	1
	.p2align 2,,3
	.global	osMessagePut
	.syntax unified
	.thumb
	.thumb_func
	.fpu softvfp
	.type	osMessagePut, %function
osMessagePut:
.LFB183:
	.loc 1 1115 0
	.cfi_startproc
	@ args = 0, pretend = 0, frame = 8
	@ frame_needed = 0, uses_anonymous_args = 0
.LVL298:
	push	{r4, lr}
	.cfi_def_cfa_offset 8
	.cfi_offset 4, -8
	.cfi_offset 14, -4
	.loc 1 1116 0
	movs	r4, #0
	.loc 1 1115 0
	sub	sp, sp, #8
	.cfi_def_cfa_offset 16
	.loc 1 1116 0
	str	r4, [sp, #4]
.LBB507:
.LBB508:
.LBB509:
	.loc 2 209 0
	.syntax unified
@ 209 "../../../component/soc/realtek/8710c/cmsis/cmsis-core/include/cmsis_gcc.h" 1
	MRS r3, ipsr
@ 0 "" 2
	.thumb
	.syntax unified
.LBE509:
.LBE508:
.LBE507:
	.loc 1 1119 0
	cbnz	r3, .L337
	.loc 1 1128 0
	bl	xQueueGenericSend
.LVL299:
	cmp	r0, #1
	beq	.L331
.L332:
	.loc 1 1121 0
	movs	r0, #255
.L327:
	.loc 1 1134 0
	add	sp, sp, #8
	.cfi_remember_state
	.cfi_def_cfa_offset 8
	@ sp needed
	pop	{r4, pc}
.LVL300:
.L337:
	.cfi_restore_state
	.loc 1 1120 0
	mov	r3, r4
	add	r2, sp, #4
.LVL301:
	bl	xQueueGenericSendFromISR
.LVL302:
	cmp	r0, #1
	bne	.L332
	.loc 1 1123 0
	ldr	r3, [sp, #4]
	cbz	r3, .L331
	.loc 1 1123 0 is_stmt 0 discriminator 1
	mov	r2, #268435456
	ldr	r3, .L338
	str	r2, [r3]
	.syntax unified
@ 1123 "../../../component/os/freertos/cmsis_os.c" 1
	dsb
@ 0 "" 2
@ 1123 "../../../component/os/freertos/cmsis_os.c" 1
	isb
@ 0 "" 2
	.loc 1 1133 0 is_stmt 1 discriminator 1
	.thumb
	.syntax unified
	mov	r0, r4
	b	.L327
.L331:
	.loc 1 1133 0 is_stmt 0
	movs	r0, #0
	.loc 1 1134 0 is_stmt 1
	add	sp, sp, #8
	.cfi_def_cfa_offset 8
	@ sp needed
	pop	{r4, pc}
.L339:
	.align	2
.L338:
	.word	-536810236
	.cfi_endproc
.LFE183:
	.size	osMessagePut, .-osMessagePut
	.section	.text.osMessageGet,"ax",%progbits
	.align	1
	.p2align 2,,3
	.global	osMessageGet
	.syntax unified
	.thumb
	.thumb_func
	.fpu softvfp
	.type	osMessageGet, %function
osMessageGet:
.LFB184:
	.loc 1 1144 0
	.cfi_startproc
	@ args = 0, pretend = 0, frame = 8
	@ frame_needed = 0, uses_anonymous_args = 0
.LVL303:
	.loc 1 1145 0
	movs	r3, #0
	.loc 1 1144 0
	push	{r4, r5, lr}
	.cfi_def_cfa_offset 12
	.cfi_offset 4, -12
	.cfi_offset 5, -8
	.cfi_offset 14, -4
	sub	sp, sp, #12
	.cfi_def_cfa_offset 24
	.loc 1 1144 0
	mov	r4, r0
	mov	r5, r1
	.loc 1 1145 0
	str	r3, [sp, #4]
.LVL304:
.LBB510:
.LBB511:
.LBB512:
	.loc 2 209 0
	.syntax unified
@ 209 "../../../component/soc/realtek/8710c/cmsis/cmsis-core/include/cmsis_gcc.h" 1
	MRS r3, ipsr
@ 0 "" 2
	.thumb
	.syntax unified
.LBE512:
.LBE511:
.LBE510:
	.loc 1 1150 0
	cbnz	r3, .L351
	.loc 1 1160 0
	movs	r1, #0
.LVL305:
	mov	r0, r5
.LVL306:
	bl	xQueueReceive
.LVL307:
	cmp	r0, #1
	beq	.L345
.L346:
.LVL308:
	.loc 1 1153 0
	movs	r2, #255
	movs	r3, #0
	.loc 1 1169 0
	mov	r0, r4
	.loc 1 1153 0
	stm	r4, {r2, r3, r5}
	.loc 1 1169 0
	add	sp, sp, #12
	.cfi_remember_state
	.cfi_def_cfa_offset 12
	@ sp needed
	pop	{r4, r5, pc}
.LVL309:
.L351:
	.cfi_restore_state
	.loc 1 1151 0
	add	r2, sp, #4
.LVL310:
	movs	r1, #0
.LVL311:
	mov	r0, r5
.LVL312:
	bl	xQueueReceiveFromISR
.LVL313:
	cmp	r0, #1
	bne	.L346
	.loc 1 1155 0
	ldr	r3, [sp, #4]
	cbz	r3, .L345
	.loc 1 1155 0 is_stmt 0 discriminator 1
	mov	r2, #268435456
	ldr	r3, .L352
	str	r2, [r3]
	.syntax unified
@ 1155 "../../../component/os/freertos/cmsis_os.c" 1
	dsb
@ 0 "" 2
@ 1155 "../../../component/os/freertos/cmsis_os.c" 1
	isb
@ 0 "" 2
	.thumb
	.syntax unified
.L345:
.LVL314:
	.loc 1 1168 0 is_stmt 1
	movs	r2, #0
	.loc 1 1169 0
	mov	r0, r4
	.loc 1 1168 0
	mov	r3, r2
	stm	r4, {r2, r3, r5}
	.loc 1 1169 0
	add	sp, sp, #12
	.cfi_def_cfa_offset 12
	@ sp needed
	pop	{r4, r5, pc}
.LVL315:
.L353:
	.align	2
.L352:
	.word	-536810236
	.cfi_endproc
.LFE184:
	.size	osMessageGet, .-osMessageGet
	.section	.text.osMailCreate,"ax",%progbits
	.align	1
	.p2align 2,,3
	.global	osMailCreate
	.syntax unified
	.thumb
	.thumb_func
	.fpu softvfp
	.type	osMailCreate, %function
osMailCreate:
.LFB185:
	.loc 1 1192 0
	.cfi_startproc
	@ args = 0, pretend = 0, frame = 8
	@ frame_needed = 0, uses_anonymous_args = 0
.LVL316:
	push	{r4, r5, r6, r7, r8, r9, lr}
	.cfi_def_cfa_offset 28
	.cfi_offset 4, -28
	.cfi_offset 5, -24
	.cfi_offset 6, -20
	.cfi_offset 7, -16
	.cfi_offset 8, -12
	.cfi_offset 9, -8
	.cfi_offset 14, -4
	mov	r7, r0
	sub	sp, sp, #12
	.cfi_def_cfa_offset 40
	.loc 1 1199 0
	movs	r0, #12
.LVL317:
	ldr	r4, [r7, #8]
	.loc 1 1195 0
	ldr	r6, [r7]
	ldr	r5, [r7, #4]
	.loc 1 1199 0
	bl	pvPortMalloc
.LVL318:
	.loc 1 1200 0
	ldr	r3, [r7, #8]
	.loc 1 1199 0
	str	r0, [r4]
	.loc 1 1200 0
	ldr	r4, [r3]
	cmp	r4, #0
	beq	.L361
	.loc 1 1203 0
	str	r7, [r4]
	.loc 1 1206 0
	movs	r2, #0
	movs	r1, #4
	ldr	r0, [r7]
	bl	xQueueGenericCreate
.LVL319:
	.loc 1 1207 0
	ldr	r3, [r7, #8]
	.loc 1 1206 0
	str	r0, [r4, #4]
	.loc 1 1207 0
	ldr	r8, [r3]
	ldr	r4, [r8, #4]
	cbz	r4, .L370
.LVL320:
.LBB515:
.LBB516:
	.loc 1 947 0
	movs	r0, #20
	bl	pvPortMalloc
.LVL321:
	.loc 1 943 0
	add	r9, r5, #3
	bic	r9, r9, #3
.LVL322:
	.loc 1 948 0
	mov	r5, r0
	cbz	r0, .L357
	.loc 1 951 0
	movs	r4, #0
	.loc 1 949 0
	str	r6, [r0, #8]
	.loc 1 950 0
	str	r9, [r0, #12]
	.loc 1 951 0
	str	r4, [r0, #16]
	.loc 1 954 0
	mov	r0, r6
.LVL323:
	bl	pvPortMalloc
.LVL324:
	str	r0, [r5, #4]
	.loc 1 955 0
	cbz	r0, .L358
	.loc 1 957 0
	mul	r0, r9, r6
	bl	pvPortMalloc
.LVL325:
	str	r0, [r5]
	.loc 1 959 0
	cbz	r0, .L359
.LVL326:
	.loc 1 960 0
	cbz	r6, .L357
	mov	r3, r4
	.loc 1 961 0
	mov	r1, r4
.LVL327:
.L360:
	ldr	r2, [r5, #4]
	strb	r1, [r2, r3]
	.loc 1 960 0
	adds	r3, r3, #1
.LVL328:
	cmp	r6, r3
	bne	.L360
.LVL329:
.L357:
.LBE516:
.LBE515:
	.loc 1 1214 0
	ldr	r3, [r7, #8]
	.loc 1 1213 0
	str	r5, [r8, #8]
	.loc 1 1214 0
	ldr	r0, [r3]
	ldr	r4, [r0, #8]
	cbz	r4, .L371
.L354:
	.loc 1 1221 0
	add	sp, sp, #12
	.cfi_remember_state
	.cfi_def_cfa_offset 28
	@ sp needed
	pop	{r4, r5, r6, r7, r8, r9, pc}
.LVL330:
.L361:
	.cfi_restore_state
	.loc 1 1201 0
	mov	r0, r4
	b	.L354
.L370:
	.loc 1 1208 0
	mov	r0, r8
	bl	vPortFree
.LVL331:
	.loc 1 1209 0
	mov	r0, r4
	b	.L354
.LVL332:
.L358:
	str	r0, [sp, #4]
.LBB519:
.LBB517:
	.loc 1 971 0
	mov	r0, r5
	bl	vPortFree
.LVL333:
	.loc 1 972 0
	ldr	r3, [sp, #4]
	mov	r5, r3
	b	.L357
.LVL334:
.L371:
.LBE517:
.LBE519:
	.loc 1 1215 0
	ldr	r0, [r0, #4]
	bl	vQueueDelete
.LVL335:
	.loc 1 1216 0
	ldr	r3, [r7, #8]
	ldr	r0, [r3]
	bl	vPortFree
.LVL336:
	.loc 1 1217 0
	mov	r0, r4
	b	.L354
.LVL337:
.L359:
	str	r0, [sp, #4]
.LBB520:
.LBB518:
	.loc 1 965 0
	ldr	r0, [r5, #4]
	bl	vPortFree
.LVL338:
	.loc 1 966 0
	mov	r0, r5
	bl	vPortFree
.LVL339:
	.loc 1 967 0
	ldr	r3, [sp, #4]
	mov	r5, r3
	b	.L357
.LBE518:
.LBE520:
	.cfi_endproc
.LFE185:
	.size	osMailCreate, .-osMailCreate
	.section	.text.osMailAlloc,"ax",%progbits
	.align	1
	.p2align 2,,3
	.global	osMailAlloc
	.syntax unified
	.thumb
	.thumb_func
	.fpu softvfp
	.type	osMailAlloc, %function
osMailAlloc:
.LFB186:
	.loc 1 1231 0
	.cfi_startproc
	@ args = 0, pretend = 0, frame = 0
	@ frame_needed = 0, uses_anonymous_args = 0
.LVL340:
	push	{r3, r4, r5, r6, r7, r8, r9, r10, fp, lr}
	.cfi_def_cfa_offset 40
	.cfi_offset 3, -40
	.cfi_offset 4, -36
	.cfi_offset 5, -32
	.cfi_offset 6, -28
	.cfi_offset 7, -24
	.cfi_offset 8, -20
	.cfi_offset 9, -16
	.cfi_offset 10, -12
	.cfi_offset 11, -8
	.cfi_offset 14, -4
	.loc 1 1237 0
	cmp	r0, #0
	beq	.L373
.LBB541:
.LBB542:
	.loc 1 421 0
	mov	r3, #1000
	mul	r3, r3, r1
	ldr	r2, .L398
	mov	r5, r0
	umull	r2, r3, r2, r3
	lsrs	r3, r3, #6
	mov	r8, r1
	mov	r9, #0
	ite	ne
	movne	r10, r3
	moveq	r10, #1
.LBE542:
.LBE541:
.LBB544:
.LBB545:
	.loc 1 1005 0
	movs	r7, #1
.LVL341:
.L374:
.LBE545:
.LBE544:
	.loc 1 1242 0
	ldr	r6, [r5, #8]
.LVL342:
.LBB565:
.LBB562:
.LBB546:
.LBB547:
.LBB548:
	.loc 2 209 0
	.syntax unified
@ 209 "../../../component/soc/realtek/8710c/cmsis/cmsis-core/include/cmsis_gcc.h" 1
	MRS r4, ipsr
@ 0 "" 2
	.thumb
	.syntax unified
.LBE548:
.LBE547:
.LBE546:
	.loc 1 991 0
	cmp	r4, #0
	beq	.L375
.L397:
.LBB551:
.LBB552:
	.loc 3 213 0
	.syntax unified
@ 213 "../../../component/os/freertos/freertos_v10.0.1/Source/portable/GCC/ARM_RTL8710C/portmacro.h" 1
		mrs lr, basepri											
	mov r3, #64												
	cpsid i													
	msr basepri, r3											
	isb														
	dsb														
	cpsie i													

@ 0 "" 2
.LVL343:
	.thumb
	.syntax unified
.L376:
.LBE552:
.LBE551:
	.loc 1 998 0
	ldr	r4, [r6, #8]
	cbz	r4, .L377
	ldr	r3, [r6, #16]
	ldr	r2, [r6, #4]
	add	fp, r4, r3
	b	.L380
.LVL344:
.L379:
	cmp	r3, fp
	beq	.L393
.LVL345:
.L380:
	.loc 1 1000 0
	cmp	r4, r3
	ite	hi
	movhi	r0, r3
	movls	r0, #0
.LVL346:
	.loc 1 1004 0
	ldrb	r1, [r2, r0]	@ zero_extendqisi2
	adds	r3, r3, #1
	add	ip, r2, r0
	cmp	r1, #0
	bne	.L379
	.loc 1 1005 0
	strb	r7, [ip]
	.loc 1 1006 0
	ldr	r3, [r6, #12]
	ldr	r4, [r6]
	.loc 1 1007 0
	str	r0, [r6, #16]
	.loc 1 1006 0
	mla	r4, r3, r0, r4
.LVL347:
.L377:
.LBB553:
.LBB554:
.LBB555:
	.loc 2 209 0
	.syntax unified
@ 209 "../../../component/soc/realtek/8710c/cmsis/cmsis-core/include/cmsis_gcc.h" 1
	MRS r3, ipsr
@ 0 "" 2
	.thumb
	.syntax unified
.LBE555:
.LBE554:
.LBE553:
	.loc 1 1012 0
	cbz	r3, .L381
.L395:
.LVL348:
.LBB558:
.LBB559:
	.loc 3 233 0
	.syntax unified
@ 233 "../../../component/os/freertos/freertos_v10.0.1/Source/portable/GCC/ARM_RTL8710C/portmacro.h" 1
		msr basepri, lr	
@ 0 "" 2
.LVL349:
	.thumb
	.syntax unified
.LBE559:
.LBE558:
.LBE562:
.LBE565:
	.loc 1 1243 0
	cbz	r4, .L394
.LVL350:
.L372:
	.loc 1 1262 0
	mov	r0, r4
	pop	{r3, r4, r5, r6, r7, r8, r9, r10, fp, pc}
.LVL351:
.L393:
.LBB566:
.LBB563:
	.loc 1 987 0
	movs	r4, #0
.LVL352:
.LBB560:
.LBB557:
.LBB556:
	.loc 2 209 0
	.syntax unified
@ 209 "../../../component/soc/realtek/8710c/cmsis/cmsis-core/include/cmsis_gcc.h" 1
	MRS r3, ipsr
@ 0 "" 2
	.thumb
	.syntax unified
.LBE556:
.LBE557:
.LBE560:
	.loc 1 1012 0
	cmp	r3, #0
	bne	.L395
.LVL353:
.L381:
	.loc 1 1016 0
	bl	vPortExitCritical
.LVL354:
.LBE563:
.LBE566:
	.loc 1 1243 0
	cmp	r4, #0
	bne	.L372
.L394:
	.loc 1 1245 0
	cmp	r8, #-1
	beq	.L396
	.loc 1 1249 0
	cmp	r9, #0
	bne	.L373
.LVL355:
.LBB567:
.LBB543:
	.loc 1 423 0
	mov	r0, r10
	bl	vTaskDelay
.LVL356:
.LBE543:
.LBE567:
	.loc 1 1251 0
	mov	r9, #1
.LVL357:
	.loc 1 1242 0
	ldr	r6, [r5, #8]
.LVL358:
.LBB568:
.LBB564:
.LBB561:
.LBB550:
.LBB549:
	.loc 2 209 0
	.syntax unified
@ 209 "../../../component/soc/realtek/8710c/cmsis/cmsis-core/include/cmsis_gcc.h" 1
	MRS r4, ipsr
@ 0 "" 2
	.thumb
	.syntax unified
.LBE549:
.LBE550:
.LBE561:
	.loc 1 991 0
	cmp	r4, #0
	bne	.L397
.LVL359:
.L375:
	.loc 1 995 0
	bl	vPortEnterCritical
.LVL360:
	.loc 1 986 0
	mov	lr, r4
	b	.L376
.LVL361:
.L396:
.LBE564:
.LBE568:
.LBB569:
.LBB570:
	.loc 1 423 0
	movs	r0, #2
	bl	vTaskDelay
.LVL362:
	b	.L374
.LVL363:
.L373:
.LBE570:
.LBE569:
	.loc 1 1238 0
	movs	r4, #0
	.loc 1 1262 0
	mov	r0, r4
	pop	{r3, r4, r5, r6, r7, r8, r9, r10, fp, pc}
.L399:
	.align	2
.L398:
	.word	274877907
	.cfi_endproc
.LFE186:
	.size	osMailAlloc, .-osMailAlloc
	.section	.text.osMailCAlloc,"ax",%progbits
	.align	1
	.p2align 2,,3
	.global	osMailCAlloc
	.syntax unified
	.thumb
	.thumb_func
	.fpu softvfp
	.type	osMailCAlloc, %function
osMailCAlloc:
.LFB187:
	.loc 1 1272 0
	.cfi_startproc
	@ args = 0, pretend = 0, frame = 0
	@ frame_needed = 0, uses_anonymous_args = 0
.LVL364:
	push	{r3, r4, r5, r6, r7, r8, r9, r10, fp, lr}
	.cfi_def_cfa_offset 40
	.cfi_offset 3, -40
	.cfi_offset 4, -36
	.cfi_offset 5, -32
	.cfi_offset 6, -28
	.cfi_offset 7, -24
	.cfi_offset 8, -20
	.cfi_offset 9, -16
	.cfi_offset 10, -12
	.cfi_offset 11, -8
	.cfi_offset 14, -4
.LBB589:
.LBB590:
	.loc 1 1237 0
	cmp	r0, #0
	beq	.L401
.LBB591:
.LBB592:
	.loc 1 421 0
	mov	r3, #1000
	mul	r3, r3, r1
	ldr	r2, .L427
	mov	r5, r0
	umull	r2, r3, r2, r3
	lsrs	r3, r3, #6
	mov	r8, r1
	mov	r9, #0
	ite	ne
	movne	r10, r3
	moveq	r10, #1
.LBE592:
.LBE591:
.LBB594:
.LBB595:
	.loc 1 1005 0
	movs	r7, #1
.LVL365:
.L402:
.LBE595:
.LBE594:
	.loc 1 1242 0
	ldr	r6, [r5, #8]
.LVL366:
.LBB616:
.LBB612:
.LBB596:
.LBB597:
.LBB598:
	.loc 2 209 0
	.syntax unified
@ 209 "../../../component/soc/realtek/8710c/cmsis/cmsis-core/include/cmsis_gcc.h" 1
	MRS r4, ipsr
@ 0 "" 2
	.thumb
	.syntax unified
.LBE598:
.LBE597:
.LBE596:
	.loc 1 991 0
	cmp	r4, #0
	beq	.L403
.L426:
.LBB601:
.LBB602:
	.loc 3 213 0
	.syntax unified
@ 213 "../../../component/os/freertos/freertos_v10.0.1/Source/portable/GCC/ARM_RTL8710C/portmacro.h" 1
		mrs lr, basepri											
	mov r3, #64												
	cpsid i													
	msr basepri, r3											
	isb														
	dsb														
	cpsie i													

@ 0 "" 2
.LVL367:
	.thumb
	.syntax unified
.L404:
.LBE602:
.LBE601:
	.loc 1 998 0
	ldr	r4, [r6, #8]
	cbz	r4, .L405
	ldr	r3, [r6, #16]
	ldr	r1, [r6, #4]
	add	fp, r4, r3
	b	.L408
.LVL368:
.L407:
	cmp	fp, r3
	beq	.L422
.LVL369:
.L408:
	.loc 1 1000 0
	cmp	r4, r3
	ite	hi
	movhi	r2, r3
	movls	r2, #0
.LVL370:
	.loc 1 1004 0
	ldrb	r0, [r1, r2]	@ zero_extendqisi2
	adds	r3, r3, #1
	add	ip, r1, r2
	cmp	r0, #0
	bne	.L407
	.loc 1 1005 0
	strb	r7, [ip]
	.loc 1 1006 0
	ldr	r3, [r6, #12]
	ldr	r4, [r6]
	.loc 1 1007 0
	str	r2, [r6, #16]
	.loc 1 1006 0
	mla	r4, r3, r2, r4
.LVL371:
.L405:
.LBB603:
.LBB604:
.LBB605:
	.loc 2 209 0
	.syntax unified
@ 209 "../../../component/soc/realtek/8710c/cmsis/cmsis-core/include/cmsis_gcc.h" 1
	MRS r3, ipsr
@ 0 "" 2
	.thumb
	.syntax unified
.LBE605:
.LBE604:
.LBE603:
	.loc 1 1012 0
	cbz	r3, .L409
.L424:
.LVL372:
.LBB608:
.LBB609:
	.loc 3 233 0
	.syntax unified
@ 233 "../../../component/os/freertos/freertos_v10.0.1/Source/portable/GCC/ARM_RTL8710C/portmacro.h" 1
		msr basepri, lr	
@ 0 "" 2
.LVL373:
	.thumb
	.syntax unified
.LBE609:
.LBE608:
.LBE612:
.LBE616:
	.loc 1 1243 0
	cbz	r4, .L423
.LVL374:
.L411:
.LBE590:
.LBE589:
	.loc 1 1277 0
	ldr	r3, [r5]
	movs	r1, #0
	ldr	r2, [r3, #4]
	mov	r0, r4
	bl	memset
.LVL375:
	.loc 1 1281 0
	mov	r0, r4
	pop	{r3, r4, r5, r6, r7, r8, r9, r10, fp, pc}
.LVL376:
.L422:
.LBB624:
.LBB623:
.LBB617:
.LBB613:
	.loc 1 987 0
	movs	r4, #0
.LVL377:
.LBB610:
.LBB607:
.LBB606:
	.loc 2 209 0
	.syntax unified
@ 209 "../../../component/soc/realtek/8710c/cmsis/cmsis-core/include/cmsis_gcc.h" 1
	MRS r3, ipsr
@ 0 "" 2
	.thumb
	.syntax unified
.LBE606:
.LBE607:
.LBE610:
	.loc 1 1012 0
	cmp	r3, #0
	bne	.L424
.LVL378:
.L409:
	.loc 1 1016 0
	bl	vPortExitCritical
.LVL379:
.LBE613:
.LBE617:
	.loc 1 1243 0
	cmp	r4, #0
	bne	.L411
.L423:
	.loc 1 1245 0
	cmp	r8, #-1
	beq	.L425
	.loc 1 1249 0
	cmp	r9, #0
	bne	.L401
.LVL380:
.LBB618:
.LBB593:
	.loc 1 423 0
	mov	r0, r10
	bl	vTaskDelay
.LVL381:
.LBE593:
.LBE618:
	.loc 1 1251 0
	mov	r9, #1
.LVL382:
	.loc 1 1242 0
	ldr	r6, [r5, #8]
.LVL383:
.LBB619:
.LBB614:
.LBB611:
.LBB600:
.LBB599:
	.loc 2 209 0
	.syntax unified
@ 209 "../../../component/soc/realtek/8710c/cmsis/cmsis-core/include/cmsis_gcc.h" 1
	MRS r4, ipsr
@ 0 "" 2
	.thumb
	.syntax unified
.LBE599:
.LBE600:
.LBE611:
	.loc 1 991 0
	cmp	r4, #0
	bne	.L426
.LVL384:
.L403:
	.loc 1 995 0
	bl	vPortEnterCritical
.LVL385:
	.loc 1 986 0
	mov	lr, r4
	b	.L404
.LVL386:
.L425:
.LBE614:
.LBE619:
.LBB620:
.LBB621:
	.loc 1 423 0
	movs	r0, #2
	bl	vTaskDelay
.LVL387:
	b	.L402
.LVL388:
.L401:
.LBE621:
.LBE620:
.LBB622:
.LBB615:
	.loc 1 987 0
	movs	r4, #0
.LBE615:
.LBE622:
.LBE623:
.LBE624:
	.loc 1 1281 0
	mov	r0, r4
	pop	{r3, r4, r5, r6, r7, r8, r9, r10, fp, pc}
.L428:
	.align	2
.L427:
	.word	274877907
	.cfi_endproc
.LFE187:
	.size	osMailCAlloc, .-osMailCAlloc
	.section	.text.osMailPut,"ax",%progbits
	.align	1
	.p2align 2,,3
	.global	osMailPut
	.syntax unified
	.thumb
	.thumb_func
	.fpu softvfp
	.type	osMailPut, %function
osMailPut:
.LFB188:
	.loc 1 1291 0
	.cfi_startproc
	@ args = 0, pretend = 0, frame = 16
	@ frame_needed = 0, uses_anonymous_args = 0
.LVL389:
	push	{r4, lr}
	.cfi_def_cfa_offset 8
	.cfi_offset 4, -8
	.cfi_offset 14, -4
	sub	sp, sp, #16
	.cfi_def_cfa_offset 24
	.loc 1 1291 0
	str	r1, [sp, #4]
	.loc 1 1296 0
	cbz	r0, .L435
	.loc 1 1300 0
	movs	r4, #0
	str	r4, [sp, #12]
.LBB625:
.LBB626:
.LBB627:
	.loc 2 209 0
	.syntax unified
@ 209 "../../../component/soc/realtek/8710c/cmsis/cmsis-core/include/cmsis_gcc.h" 1
	MRS r3, ipsr
@ 0 "" 2
	.thumb
	.syntax unified
.LBE627:
.LBE626:
.LBE625:
	.loc 1 1303 0
	ldr	r0, [r0, #4]
.LVL390:
	.loc 1 1302 0
	cbnz	r3, .L440
	.loc 1 1309 0
	mov	r2, #1000
	add	r1, sp, #4
.LVL391:
	bl	xQueueGenericSend
.LVL392:
	cmp	r0, #1
	beq	.L433
.L434:
	.loc 1 1304 0
	movs	r0, #255
.L429:
	.loc 1 1315 0
	add	sp, sp, #16
	.cfi_remember_state
	.cfi_def_cfa_offset 8
	@ sp needed
	pop	{r4, pc}
.LVL393:
.L440:
	.cfi_restore_state
	.loc 1 1303 0
	mov	r3, r4
	add	r2, sp, #12
	add	r1, sp, #4
.LVL394:
	bl	xQueueGenericSendFromISR
.LVL395:
	cmp	r0, #1
	bne	.L434
	.loc 1 1306 0
	ldr	r3, [sp, #12]
	cbz	r3, .L433
	.loc 1 1306 0 is_stmt 0 discriminator 1
	mov	r2, #268435456
	ldr	r3, .L441
	str	r2, [r3]
	.syntax unified
@ 1306 "../../../component/os/freertos/cmsis_os.c" 1
	dsb
@ 0 "" 2
@ 1306 "../../../component/os/freertos/cmsis_os.c" 1
	isb
@ 0 "" 2
	.loc 1 1314 0 is_stmt 1 discriminator 1
	.thumb
	.syntax unified
	mov	r0, r4
	b	.L429
.LVL396:
.L435:
	.loc 1 1297 0
	movs	r0, #128
.LVL397:
	.loc 1 1315 0
	add	sp, sp, #16
	.cfi_remember_state
	.cfi_def_cfa_offset 8
	@ sp needed
	pop	{r4, pc}
.LVL398:
.L433:
	.cfi_restore_state
	.loc 1 1314 0
	movs	r0, #0
	b	.L429
.L442:
	.align	2
.L441:
	.word	-536810236
	.cfi_endproc
.LFE188:
	.size	osMailPut, .-osMailPut
	.section	.text.osMailGet,"ax",%progbits
	.align	1
	.p2align 2,,3
	.global	osMailGet
	.syntax unified
	.thumb
	.thumb_func
	.fpu softvfp
	.type	osMailGet, %function
osMailGet:
.LFB189:
	.loc 1 1325 0
	.cfi_startproc
	@ args = 0, pretend = 0, frame = 16
	@ frame_needed = 0, uses_anonymous_args = 0
.LVL399:
	push	{r4, r5, lr}
	.cfi_def_cfa_offset 12
	.cfi_offset 4, -12
	.cfi_offset 5, -8
	.cfi_offset 14, -4
	sub	sp, sp, #20
	.cfi_def_cfa_offset 32
	.loc 1 1325 0
	mov	r4, r0
	.loc 1 1330 0
	str	r1, [sp, #12]
	.loc 1 1332 0
	cmp	r1, #0
	beq	.L457
	.loc 1 1337 0
	movs	r3, #0
	str	r3, [sp]
.LBB628:
.LBB629:
.LBB630:
	.loc 2 209 0
	.syntax unified
@ 209 "../../../component/soc/realtek/8710c/cmsis/cmsis-core/include/cmsis_gcc.h" 1
	MRS r3, ipsr
@ 0 "" 2
	.thumb
	.syntax unified
.LBE630:
.LBE629:
.LBE628:
	.loc 1 1341 0
	cbnz	r3, .L458
	.loc 1 1352 0
	ldr	r0, [r1, #4]
.LVL400:
	add	r1, sp, #8
.LVL401:
	mov	r5, r2
	bl	xQueueReceive
.LVL402:
	cmp	r0, #1
	beq	.L459
	.loc 1 1357 0
	cmp	r5, #0
	ite	eq
	moveq	r3, #0
	movne	r3, #64
	str	r3, [sp, #4]
.LVL403:
.L448:
	.loc 1 1361 0
	add	r3, sp, #16
	ldmdb	r3, {r0, r1, r2}
	stm	r4, {r0, r1, r2}
	.loc 1 1362 0
	mov	r0, r4
	add	sp, sp, #20
	.cfi_remember_state
	.cfi_def_cfa_offset 12
	@ sp needed
	pop	{r4, r5, pc}
.LVL404:
.L458:
	.cfi_restore_state
	.loc 1 1342 0
	mov	r2, sp
.LVL405:
	ldr	r0, [r1, #4]
.LVL406:
	add	r1, sp, #8
.LVL407:
	bl	xQueueReceiveFromISR
.LVL408:
	.loc 1 1347 0
	cmp	r0, #1
	ite	eq
	moveq	r2, #32
	movne	r2, #0
	.loc 1 1349 0
	ldr	r3, [sp]
	str	r2, [sp, #4]
	cmp	r3, #0
	beq	.L448
	.loc 1 1349 0 is_stmt 0 discriminator 1
	mov	r2, #268435456
	ldr	r3, .L460
	str	r2, [r3]
	.syntax unified
@ 1349 "../../../component/os/freertos/cmsis_os.c" 1
	dsb
@ 0 "" 2
@ 1349 "../../../component/os/freertos/cmsis_os.c" 1
	isb
@ 0 "" 2
	.thumb
	.syntax unified
	b	.L448
.LVL409:
.L459:
	.loc 1 1354 0 is_stmt 1
	movs	r3, #32
	str	r3, [sp, #4]
	b	.L448
.LVL410:
.L457:
	.loc 1 1333 0
	movs	r2, #128
.LVL411:
	add	r3, sp, #16
	str	r2, [r3, #-12]!
	.loc 1 1334 0
	ldm	r3, {r0, r1, r2}
.LVL412:
	stm	r4, {r0, r1, r2}
	.loc 1 1362 0
	mov	r0, r4
	add	sp, sp, #20
	.cfi_def_cfa_offset 12
	@ sp needed
	pop	{r4, r5, pc}
.LVL413:
.L461:
	.align	2
.L460:
	.word	-536810236
	.cfi_endproc
.LFE189:
	.size	osMailGet, .-osMailGet
	.section	.text.osMailFree,"ax",%progbits
	.align	1
	.p2align 2,,3
	.global	osMailFree
	.syntax unified
	.thumb
	.thumb_func
	.fpu softvfp
	.type	osMailFree, %function
osMailFree:
.LFB190:
	.loc 1 1372 0
	.cfi_startproc
	@ args = 0, pretend = 0, frame = 8
	@ frame_needed = 0, uses_anonymous_args = 0
.LVL414:
	.loc 1 1373 0
	cbz	r0, .L467
	.loc 1 1377 0
	ldr	r0, [r0, #8]
.LVL415:
.LBB647:
.LBB648:
	.loc 1 1047 0
	cbz	r0, .L474
	.loc 1 1051 0
	cbz	r1, .L470
.LVL416:
.LBB649:
.LBB650:
	.loc 1 1055 0
	ldr	r3, [r0]
	cmp	r1, r3
	bcs	.L477
.LVL417:
.L470:
.LBE650:
.LBE649:
.LBE648:
.LBE647:
	.loc 1 1379 0
	movs	r0, #0
.LVL418:
	bx	lr
.LVL419:
.L474:
	.loc 1 1380 0
	bx	lr
.LVL420:
.L467:
	.loc 1 1374 0
	movs	r0, #128
.LVL421:
	bx	lr
.LVL422:
.L477:
.LBB682:
.LBB675:
.LBB668:
.LBB661:
	.loc 1 1060 0
	ldr	r2, [r0, #12]
	.loc 1 1059 0
	subs	r3, r1, r3
.LVL423:
.LBE661:
.LBE668:
.LBE675:
.LBE682:
	.loc 1 1372 0
	push	{r4, r5, lr}
	.cfi_def_cfa_offset 12
	.cfi_offset 4, -12
	.cfi_offset 5, -8
	.cfi_offset 14, -4
.LBB683:
.LBB676:
.LBB669:
.LBB662:
	.loc 1 1060 0
	udiv	r4, r3, r2
	mls	r3, r2, r4, r3
.LVL424:
.LBE662:
.LBE669:
.LBE676:
.LBE683:
	.loc 1 1372 0
	sub	sp, sp, #12
	.cfi_def_cfa_offset 24
.LBB684:
.LBB677:
.LBB670:
.LBB663:
	.loc 1 1060 0
	cbz	r3, .L478
.LBE663:
.LBE670:
.LBE677:
.LBE684:
	.loc 1 1379 0
	movs	r0, #0
.LVL425:
.L462:
	.loc 1 1380 0
	add	sp, sp, #12
	.cfi_remember_state
	.cfi_def_cfa_offset 12
	@ sp needed
	pop	{r4, r5, pc}
.LVL426:
.L478:
	.cfi_restore_state
.LBB685:
.LBB678:
.LBB671:
.LBB664:
	.loc 1 1064 0
	ldr	r2, [r0, #8]
	cmp	r4, r2
	bcc	.L479
.LBE664:
.LBE671:
.LBE678:
.LBE685:
	.loc 1 1379 0
	mov	r0, r3
.LVL427:
	b	.L462
.LVL428:
.L479:
.LBB686:
.LBB679:
.LBB672:
.LBB665:
.LBB651:
.LBB652:
.LBB653:
	.loc 2 209 0
	.syntax unified
@ 209 "../../../component/soc/realtek/8710c/cmsis/cmsis-core/include/cmsis_gcc.h" 1
	MRS r5, ipsr
@ 0 "" 2
	.thumb
	.syntax unified
.LBE653:
.LBE652:
.LBE651:
	.loc 1 1068 0
	cbz	r5, .L464
.LBB654:
.LBB655:
	.loc 3 213 0
	.syntax unified
@ 213 "../../../component/os/freertos/freertos_v10.0.1/Source/portable/GCC/ARM_RTL8710C/portmacro.h" 1
		mrs r5, basepri											
	mov r3, #64												
	cpsid i													
	msr basepri, r3											
	isb														
	dsb														
	cpsie i													

@ 0 "" 2
.LVL429:
	.thumb
	.syntax unified
.L465:
.LBE655:
.LBE654:
	.loc 1 1075 0
	movs	r3, #0
	ldr	r2, [r0, #4]
	strb	r3, [r2, r4]
.LBB656:
.LBB657:
.LBB658:
	.loc 2 209 0
	.syntax unified
@ 209 "../../../component/soc/realtek/8710c/cmsis/cmsis-core/include/cmsis_gcc.h" 1
	MRS r4, ipsr
@ 0 "" 2
.LVL430:
	.thumb
	.syntax unified
.LBE658:
.LBE657:
.LBE656:
	.loc 1 1077 0
	cbz	r4, .L466
.LVL431:
.LBB659:
.LBB660:
	.loc 3 233 0
	.syntax unified
@ 233 "../../../component/os/freertos/freertos_v10.0.1/Source/portable/GCC/ARM_RTL8710C/portmacro.h" 1
		msr basepri, r5	
@ 0 "" 2
	.thumb
	.syntax unified
.LBE660:
.LBE659:
.LBE665:
.LBE672:
.LBE679:
.LBE686:
	.loc 1 1379 0
	mov	r0, r3
	b	.L462
.LVL432:
.L466:
.LBB687:
.LBB680:
.LBB673:
.LBB666:
	.loc 1 1081 0
	bl	vPortExitCritical
.LVL433:
.LBE666:
.LBE673:
.LBE680:
.LBE687:
	.loc 1 1379 0
	mov	r0, r4
	b	.L462
.LVL434:
.L464:
	str	r0, [sp, #4]
.LBB688:
.LBB681:
.LBB674:
.LBB667:
	.loc 1 1072 0
	bl	vPortEnterCritical
.LVL435:
	.loc 1 1044 0
	ldr	r0, [sp, #4]
	b	.L465
.LBE667:
.LBE674:
.LBE681:
.LBE688:
	.cfi_endproc
.LFE190:
	.size	osMailFree, .-osMailFree
	.section	.text.calloc_freertos,"ax",%progbits
	.align	1
	.p2align 2,,3
	.global	calloc_freertos
	.syntax unified
	.thumb
	.thumb_func
	.fpu softvfp
	.type	calloc_freertos, %function
calloc_freertos:
.LFB191:
	.loc 1 1384 0
	.cfi_startproc
	@ args = 0, pretend = 0, frame = 0
	@ frame_needed = 0, uses_anonymous_args = 0
.LVL436:
	push	{r3, r4, r5, lr}
	.cfi_def_cfa_offset 16
	.cfi_offset 3, -16
	.cfi_offset 4, -12
	.cfi_offset 5, -8
	.cfi_offset 14, -4
	.loc 1 1388 0
	mul	r4, r1, r0
.LVL437:
	.loc 1 1389 0
	mov	r0, r4
.LVL438:
	bl	pvPortMalloc
.LVL439:
	mov	r5, r0
.LVL440:
	.loc 1 1390 0
	mov	r2, r4
	movs	r1, #0
	bl	memset
.LVL441:
	.loc 1 1393 0
	mov	r0, r5
	pop	{r3, r4, r5, pc}
	.cfi_endproc
.LFE191:
	.size	calloc_freertos, .-calloc_freertos
	.comm	pThreadSignalMapTail,4,4
	.comm	pThreadSignalMapHead,4,4
	.section	.rodata.__FUNCTION__.6110,"a",%progbits
	.align	2
	.set	.LANCHOR1,. + 0
	.type	__FUNCTION__.6110, %object
	.size	__FUNCTION__.6110, 22
__FUNCTION__.6110:
	.ascii	"add_thread_signal_map\000"
	.section	.rodata.__FUNCTION__.6120,"a",%progbits
	.align	2
	.set	.LANCHOR2,. + 0
	.type	__FUNCTION__.6120, %object
	.size	__FUNCTION__.6120, 22
__FUNCTION__.6120:
	.ascii	"find_signal_by_thread\000"
	.section	.rodata.__FUNCTION__.6153,"a",%progbits
	.align	2
	.set	.LANCHOR0,. + 0
	.type	__FUNCTION__.6153, %object
	.size	__FUNCTION__.6153, 15
__FUNCTION__.6153:
	.ascii	"osThreadCreate\000"
	.section	.rodata.osSignalSet.str1.4,"aMS",%progbits,1
	.align	2
.LC4:
	.ascii	"\012\015%s: Cannot find the EventGroup Handle by th"
	.ascii	"read_id\012\000"
	.section	.rodata.osThreadCreate.str1.4,"aMS",%progbits,1
	.align	2
.LC0:
	.ascii	"\012\015%s: Create a EventGroup for a new thread fa"
	.ascii	"iled\012\000"
	.space	1
.LC1:
	.ascii	"\012\015%s: No Free Thread-Signal entity\012\000"
.LC2:
	.ascii	"\012\015%s: Create a new thread(%s) failed\015\012\000"
	.section	.rodata.osTimerCreate.str1.4,"aMS",%progbits,1
	.align	2
.LC3:
	.ascii	"\000"
	.text
.Letext0:
	.file 4 "/cygdrive/d/PUYA/HE3/sdk-ameba-v7.1d/tools/arm-none-eabi-gcc/asdk/cygwin/newlib/arm-none-eabi/include/machine/_default_types.h"
	.file 5 "/cygdrive/d/PUYA/HE3/sdk-ameba-v7.1d/tools/arm-none-eabi-gcc/asdk/cygwin/newlib/lib/gcc/arm-none-eabi/6.5.0/include/stddef.h"
	.file 6 "/cygdrive/d/PUYA/HE3/sdk-ameba-v7.1d/tools/arm-none-eabi-gcc/asdk/cygwin/newlib/arm-none-eabi/include/sys/lock.h"
	.file 7 "/cygdrive/d/PUYA/HE3/sdk-ameba-v7.1d/tools/arm-none-eabi-gcc/asdk/cygwin/newlib/arm-none-eabi/include/sys/_types.h"
	.file 8 "/cygdrive/d/PUYA/HE3/sdk-ameba-v7.1d/tools/arm-none-eabi-gcc/asdk/cygwin/newlib/arm-none-eabi/include/sys/reent.h"
	.file 9 "<built-in>"
	.file 10 "/cygdrive/d/PUYA/HE3/sdk-ameba-v7.1d/tools/arm-none-eabi-gcc/asdk/cygwin/newlib/arm-none-eabi/include/sys/_stdint.h"
	.file 11 "/cygdrive/d/PUYA/HE3/sdk-ameba-v7.1d/tools/arm-none-eabi-gcc/asdk/cygwin/newlib/arm-none-eabi/include/time.h"
	.file 12 "../inc/FreeRTOSConfig.h"
	.file 13 "../../../component/soc/realtek/8710c/cmsis/rtl8710c/include/basic_types.h"
	.file 14 "/cygdrive/d/PUYA/HE3/sdk-ameba-v7.1d/tools/arm-none-eabi-gcc/asdk/cygwin/newlib/lib/gcc/arm-none-eabi/6.5.0/include/stdarg.h"
	.file 15 "../../../component/soc/realtek/8710c/app/rtl_printf/include/log_buf.h"
	.file 16 "../../../component/soc/realtek/8710c/app/stdio_port/stdio_port.h"
	.file 17 "../../../component/soc/realtek/8710c/app/rtl_printf/include/printf_entry.h"
	.file 18 "../../../component/soc/realtek/8710c/app/rtl_printf/include/rt_printf.h"
	.file 19 "../../../component/soc/realtek/8710c/misc/utilities/include/utility.h"
	.file 20 "../../../component/os/freertos/freertos_v10.0.1/Source/include/projdefs.h"
	.file 21 "../../../component/os/freertos/freertos_v10.0.1/Source/include/task.h"
	.file 22 "../../../component/os/freertos/freertos_v10.0.1/Source/include/timers.h"
	.file 23 "../../../component/os/freertos/freertos_v10.0.1/Source/include/queue.h"
	.file 24 "../../../component/os/freertos/freertos_v10.0.1/Source/include/semphr.h"
	.file 25 "../../../component/os/freertos/freertos_v10.0.1/Source/include/event_groups.h"
	.file 26 "../../../component/os/freertos/cmsis_os.h"
	.file 27 "../../../component/os/freertos/freertos_v10.0.1/Source/include/portable.h"