	.arch armv8-m.main
	.arch_extension dsp
	.eabi_attribute 20, 1
	.eabi_attribute 21, 1
	.eabi_attribute 23, 3
	.eabi_attribute 24, 1
	.eabi_attribute 25, 1
	.eabi_attribute 26, 1
	.eabi_attribute 30, 2
	.eabi_attribute 34, 1
	.eabi_attribute 18, 4
	.file	"dhcp.c"
	.text
.Ltext0:
	.cfi_sections	.debug_frame
	.section	.text.dhcp_create_msg,"ax",%progbits
	.align	1
	.p2align 2,,3
	.syntax unified
	.thumb
	.thumb_func
	.fpu softvfp
	.type	dhcp_create_msg, %function
dhcp_create_msg:
.LFB179:
	.file 1 "../../../component/common/network/lwip/lwip_v2.0.2/src/core/ipv4/dhcp.c"
	.loc 1 1875 0
	.cfi_startproc
	@ args = 0, pretend = 0, frame = 0
	@ frame_needed = 0, uses_anonymous_args = 0
.LVL0:
	.loc 1 1893 0
	cmp	r0, #0
	beq	.L19
	.loc 1 1894 0
	cmp	r1, #0
	beq	.L20
	.loc 1 1875 0
	push	{r4, r5, r6, r7, r8, lr}
	.cfi_def_cfa_offset 24
	.cfi_offset 4, -24
	.cfi_offset 5, -20
	.cfi_offset 6, -16
	.cfi_offset 7, -12
	.cfi_offset 8, -8
	.cfi_offset 14, -4
	mov	r7, r2
	.loc 1 1897 0
	movs	r2, #0
.LVL1:
	mov	r6, r1
	mov	r5, r0
	mov	r1, #308
.LVL2:
	mov	r0, r2
.LVL3:
	bl	pbuf_alloc
.LVL4:
	mov	r3, r0
	str	r0, [r6, #12]
	.loc 1 1898 0
	cmp	r0, #0
	beq	.L21
	.loc 1 1909 0
	ldr	r2, .L38
	ldrb	r2, [r2]	@ zero_extendqisi2
	cmp	r2, #1
	beq	.L3
	.loc 1 1909 0 is_stmt 0 discriminator 1
	cmp	r7, #3
	beq	.L37
.L3:
	.loc 1 1915 0 is_stmt 1
	ldrb	r2, [r6, #10]	@ zero_extendqisi2
	cmp	r2, #0
	beq	.L5
	ldr	r2, .L38+4
	ldr	r0, [r2]
.L6:
	.loc 1 1929 0
	movs	r2, #1
	.loc 1 1933 0
	mov	r8, #0
	.loc 1 1927 0
	ldr	r4, [r3, #4]
	.loc 1 1922 0
	str	r0, [r6]
	.loc 1 1927 0
	str	r4, [r6, #16]
	.loc 1 1929 0
	strb	r2, [r4]
	.loc 1 1931 0
	strb	r2, [r4, #1]
	.loc 1 1932 0
	ldrb	r3, [r5, #48]	@ zero_extendqisi2
	.loc 1 1933 0
	strb	r8, [r4, #3]
	.loc 1 1932 0
	strb	r3, [r4, #2]
	.loc 1 1934 0
	bl	lwip_htonl
.LVL5:
	.loc 1 1935 0
	and	r3, r7, #253
	cmp	r3, #1
	.loc 1 1934 0
	str	r0, [r4, #4]	@ unaligned
	.loc 1 1935 0
	beq	.L18
	.loc 1 1938 0
	ldr	r4, [r6, #16]
	strb	r8, [r4, #8]
	strb	r8, [r4, #9]
.L8:
	.loc 1 1942 0
	movs	r3, #0
	.loc 1 1945 0
	cmp	r7, #4
	.loc 1 1942 0
	strb	r3, [r4, #10]
	strb	r3, [r4, #11]
	.loc 1 1943 0
	strb	r3, [r4, #12]
	strb	r3, [r4, #13]
	strb	r3, [r4, #14]
	strb	r3, [r4, #15]
	.loc 1 1945 0
	beq	.L9
	.loc 1 1945 0 is_stmt 0 discriminator 2
	subs	r3, r7, #7
	cmp	r3, #1
	bls	.L9
	.loc 1 1945 0 discriminator 3
	cmp	r7, #3
	bne	.L10
	.loc 1 1947 0 is_stmt 1
	ldrb	r3, [r6, #9]	@ zero_extendqisi2
	.loc 1 1946 0
	subs	r3, r3, #4
	cmp	r3, #1
	bhi	.L10
.L9:
	.loc 1 1948 0
	ldr	r3, [r5, #4]
	str	r3, [r4, #12]	@ unaligned
.L10:
	.loc 1 1950 0
	movs	r3, #0
	strb	r3, [r4, #16]
	strb	r3, [r4, #17]
	strb	r3, [r4, #18]
	strb	r3, [r4, #19]
	.loc 1 1951 0
	strb	r3, [r4, #20]
	strb	r3, [r4, #21]
	strb	r3, [r4, #22]
	strb	r3, [r4, #23]
	.loc 1 1952 0
	strb	r3, [r4, #24]
	strb	r3, [r4, #25]
	strb	r3, [r4, #26]
	strb	r3, [r4, #27]
.LVL6:
	ldrb	r2, [r5, #48]	@ zero_extendqisi2
	.loc 1 1955 0
	cbz	r2, .L11
	ldrb	r1, [r5, #49]	@ zero_extendqisi2
	cmp	r2, #1
	strb	r1, [r4, #28]
.LVL7:
	it	ne
	ldrbne	r3, [r5, #50]	@ zero_extendqisi2
	cmp	r2, #2
	strb	r3, [r4, #29]
.LVL8:
	bls	.L13
	ldrb	r3, [r5, #51]	@ zero_extendqisi2
	cmp	r2, #3
	strb	r3, [r4, #30]
.LVL9:
	bls	.L14
	ldrb	r3, [r5, #52]	@ zero_extendqisi2
	cmp	r2, #4
	strb	r3, [r4, #31]
.LVL10:
	bls	.L15
	ldrb	r3, [r5, #53]	@ zero_extendqisi2
	cmp	r2, #5
	strb	r3, [r4, #32]
.LVL11:
	ite	hi
	ldrbhi	r3, [r5, #54]	@ zero_extendqisi2
	movls	r3, #0
	b	.L16
.LVL12:
.L11:
	strb	r2, [r4, #28]
.LVL13:
	strb	r2, [r4, #29]
.LVL14:
.L13:
	movs	r3, #0
	strb	r3, [r4, #30]
.LVL15:
.L14:
	movs	r3, #0
	strb	r3, [r4, #31]
.LVL16:
.L15:
	movs	r3, #0
	strb	r3, [r4, #32]
.LVL17:
.L16:
	movs	r5, #0
.LVL18:
	strb	r3, [r4, #33]
.LVL19:
	mov	r1, r5
	movs	r2, #64
	strb	r5, [r4, #34]
.LVL20:
	strb	r5, [r4, #35]
.LVL21:
	strb	r5, [r4, #36]
.LVL22:
	strb	r5, [r4, #37]
.LVL23:
	strb	r5, [r4, #38]
.LVL24:
	strb	r5, [r4, #39]
.LVL25:
	strb	r5, [r4, #40]
.LVL26:
	strb	r5, [r4, #41]
.LVL27:
	strb	r5, [r4, #42]
.LVL28:
	strb	r5, [r4, #43]
.LVL29:
	add	r0, r4, #44
	bl	memset
.LVL30:
	mov	r1, r5
	movs	r2, #128
	add	r0, r4, #108
	bl	memset
.LVL31:
	.loc 1 1963 0
	movs	r2, #99
	mvn	ip, #125
	movs	r1, #83
	mov	r0, r4
	.loc 1 1964 0
	mov	r3, r5
	.loc 1 1963 0
	strb	r2, [r4, #236]
	strb	ip, [r4, #237]
	strb	r1, [r4, #238]
	strb	r2, [r0, #239]!
	.loc 1 1964 0
	strh	r5, [r6, #20]	@ movhi
.LVL32:
.L17:
	.loc 1 1967 0 discriminator 3
	strb	r3, [r0, #1]!
.LVL33:
	adds	r3, r3, #1
.LVL34:
	.loc 1 1966 0 discriminator 3
	cmp	r3, #68
	bne	.L17
.LVL35:
.LBB148:
.LBB149:
	.loc 1 1466 0
	movs	r1, #1
	.loc 1 1465 0
	movs	r5, #53
	.loc 1 1464 0
	ldrh	r3, [r6, #20]
.LBE149:
.LBE148:
	.loc 1 1972 0
	movs	r0, #0
.LBB151:
.LBB150:
	.loc 1 1465 0
	adds	r2, r4, r3
	strb	r5, [r2, #240]
	adds	r2, r3, r1
	.loc 1 1466 0
	uxtah	r2, r4, r2
	adds	r3, r3, #2
	strh	r3, [r6, #20]	@ movhi
	strb	r1, [r2, #240]
.LVL36:
.LBE150:
.LBE151:
.LBB152:
.LBB153:
	.loc 1 1475 0
	ldrh	r3, [r6, #20]
	.loc 1 1476 0
	add	r4, r4, r3
	add	r3, r3, r1
	strh	r3, [r6, #20]	@ movhi
	strb	r7, [r4, #240]
.LVL37:
.LBE153:
.LBE152:
	.loc 1 1972 0
	pop	{r4, r5, r6, r7, r8, pc}
.LVL38:
.L37:
	.loc 1 1909 0 discriminator 2
	ldrb	r2, [r6, #9]	@ zero_extendqisi2
	cmp	r2, #3
	beq	.L3
	.loc 1 1929 0
	movs	r2, #1
	.loc 1 1933 0
	movs	r1, #0
	.loc 1 1927 0
	ldr	r4, [r0, #4]
	str	r4, [r6, #16]
	.loc 1 1929 0
	strb	r2, [r4]
	.loc 1 1931 0
	strb	r2, [r4, #1]
	.loc 1 1932 0
	ldrb	r3, [r5, #48]	@ zero_extendqisi2
	.loc 1 1933 0
	strb	r1, [r4, #3]
	.loc 1 1932 0
	strb	r3, [r4, #2]
	.loc 1 1934 0
	ldr	r0, [r6]
	bl	lwip_htonl
.LVL39:
	str	r0, [r4, #4]	@ unaligned
.L18:
	.loc 1 1936 0
	ldr	r4, [r6, #16]
	bl	sys_now
.LVL40:
	ldr	r3, [r6, #68]
	ldr	r2, .L38+8
	subs	r3, r0, r3
	umull	r2, r3, r2, r3
	lsrs	r3, r3, #6
	strh	r3, [r4, #8]	@ unaligned
	ldr	r4, [r6, #16]
	b	.L8
.L5:
	.loc 1 1917 0
	bl	rand
.LVL41:
	ldr	r2, .L38+4
	ldr	r3, [r6, #12]
	str	r0, [r2]
	b	.L6
.LVL42:
.L20:
	.cfi_def_cfa_offset 0
	.cfi_restore 4
	.cfi_restore 5
	.cfi_restore 6
	.cfi_restore 7
	.cfi_restore 8
	.cfi_restore 14
	.loc 1 1894 0
	mvn	r0, #5
.LVL43:
	bx	lr
.LVL44:
.L21:
	.cfi_def_cfa_offset 24
	.cfi_offset 4, -24
	.cfi_offset 5, -20
	.cfi_offset 6, -16
	.cfi_offset 7, -12
	.cfi_offset 8, -8
	.cfi_offset 14, -4
	.loc 1 1901 0
	mov	r0, #-1
	pop	{r4, r5, r6, r7, r8, pc}
.LVL45:
.L19:
	.cfi_def_cfa_offset 0
	.cfi_restore 4
	.cfi_restore 5
	.cfi_restore 6
	.cfi_restore 7
	.cfi_restore 8
	.cfi_restore 14
	.loc 1 1893 0
	mvn	r0, #15
.LVL46:
	bx	lr
.L39:
	.align	2
.L38:
	.word	.LANCHOR0
	.word	.LANCHOR1
	.word	274877907
	.cfi_endproc
.LFE179:
	.size	dhcp_create_msg, .-dhcp_create_msg
	.section	.text.dhcp_discover,"ax",%progbits
	.align	1
	.p2align 2,,3
	.syntax unified
	.thumb
	.thumb_func
	.fpu softvfp
	.type	dhcp_discover, %function
dhcp_discover:
.LFB165:
	.loc 1 1023 0
	.cfi_startproc
	@ args = 0, pretend = 0, frame = 0
	@ frame_needed = 0, uses_anonymous_args = 0
.LVL47:
	.loc 1 1032 0
	movs	r3, #0
	.loc 1 1023 0
	push	{r4, r5, r6, r7, r8, r9, r10, fp, lr}
	.cfi_def_cfa_offset 36
	.cfi_offset 4, -36
	.cfi_offset 5, -32
	.cfi_offset 6, -28
	.cfi_offset 7, -24
	.cfi_offset 8, -20
	.cfi_offset 9, -16
	.cfi_offset 10, -12
	.cfi_offset 11, -8
	.cfi_offset 14, -4
	.loc 1 1024 0
	ldr	r4, [r0, #32]
.LVL48:
	.loc 1 1032 0
	ldr	r1, .L57
.LBB154:
.LBB155:
	.loc 1 1449 0
	ldrb	r2, [r4, #9]	@ zero_extendqisi2
.LBE155:
.LBE154:
	.loc 1 1023 0
	sub	sp, sp, #12
	.cfi_def_cfa_offset 48
.LBB158:
.LBB156:
	.loc 1 1449 0
	cmp	r2, #6
.LBE156:
.LBE158:
	.loc 1 1023 0
	mov	r5, r0
	.loc 1 1036 0
	str	r3, [r4, #40]
.LVL49:
	.loc 1 1032 0
	strb	r3, [r1]
.LBB159:
.LBB157:
	.loc 1 1449 0
	beq	.L41
	.loc 1 1450 0
	movs	r2, #6
	.loc 1 1451 0
	strb	r3, [r4, #10]
	.loc 1 1452 0
	strh	r3, [r4, #22]	@ movhi
	.loc 1 1450 0
	strb	r2, [r4, #9]
.L41:
.LVL50:
.LBE157:
.LBE159:
	.loc 1 1039 0
	movs	r2, #1
	mov	r1, r4
	mov	r0, r5
.LVL51:
	bl	dhcp_create_msg
.LVL52:
	.loc 1 1040 0
	mov	r6, r0
	cmp	r0, #0
	bne	.L42
.LBB160:
.LBB161:
	.loc 1 1476 0
	mov	lr, #1
.LBE161:
.LBE160:
.LBB166:
.LBB167:
	.loc 1 1465 0
	mov	fp, #57
	.loc 1 1466 0
	mov	r10, #2
.LBE167:
.LBE166:
.LBB170:
.LBB171:
	.loc 1 1465 0
	mov	r9, #55
	.loc 1 1466 0
	mov	r8, #4
.LBE171:
.LBE170:
.LBB173:
.LBB162:
	.loc 1 1476 0
	mov	ip, #3
	movs	r7, #28
	ldr	r3, [r4, #16]
.LVL53:
.LBE162:
.LBE173:
.LBB174:
.LBB168:
	.loc 1 1464 0
	ldrh	r2, [r4, #20]
.LBE168:
.LBE174:
.LBB175:
.LBB163:
	.loc 1 1476 0
	movs	r0, #6
.LVL54:
.LBE163:
.LBE175:
.LBB176:
.LBB169:
	.loc 1 1465 0
	adds	r1, r3, r2
	strb	fp, [r1, #240]
	add	r1, r2, lr
	.loc 1 1466 0
	uxtah	r1, r3, r1
	add	r2, r2, r10
	strh	r2, [r4, #20]	@ movhi
	strb	r10, [r1, #240]
.LVL55:
.LBE169:
.LBE176:
.LBB177:
.LBB178:
	.loc 1 1482 0
	ldrh	r2, [r4, #20]
.LBE178:
.LBE177:
	.loc 1 1044 0
	ldrh	r1, [r5, #46]
.LVL56:
.LBB180:
.LBB179:
	.loc 1 1483 0
	add	r10, r3, r2
	lsr	fp, r1, #8
	strb	fp, [r10, #240]
	.loc 1 1484 0
	add	r10, r2, #2
	.loc 1 1483 0
	add	r2, r2, lr
	.loc 1 1484 0
	uxtah	r2, r3, r2
	strh	r10, [r4, #20]	@ movhi
	strb	r1, [r2, #240]
.LVL57:
.LBE179:
.LBE180:
.LBB181:
.LBB172:
	.loc 1 1464 0
	ldrh	r2, [r4, #20]
	.loc 1 1465 0
	adds	r1, r3, r2
	strb	r9, [r1, #240]
	add	r1, r2, lr
	.loc 1 1466 0
	uxtah	r1, r3, r1
	adds	r2, r2, #2
	strh	r2, [r4, #20]	@ movhi
	strb	r8, [r1, #240]
.LVL58:
.LBE172:
.LBE181:
.LBB182:
.LBB164:
	.loc 1 1475 0
	ldrh	r2, [r4, #20]
	.loc 1 1476 0
	add	r1, r2, lr
	add	r2, r2, r3
	strh	r1, [r4, #20]	@ movhi
	strb	lr, [r2, #240]
.LVL59:
	.loc 1 1475 0
	ldrh	r2, [r4, #20]
	.loc 1 1476 0
	add	r1, r2, lr
	add	r2, r2, r3
	strh	r1, [r4, #20]	@ movhi
	strb	ip, [r2, #240]
.LVL60:
	.loc 1 1475 0
	ldrh	r2, [r4, #20]
	.loc 1 1476 0
	add	r1, r2, lr
	add	r2, r2, r3
	strh	r1, [r4, #20]	@ movhi
	strb	r7, [r2, #240]
.LVL61:
	.loc 1 1475 0
	ldrh	r2, [r4, #20]
	.loc 1 1476 0
	add	r1, r2, lr
	uxth	r7, r1
.LBE164:
.LBE182:
.LBB183:
.LBB184:
	.loc 1 2007 0
	adds	r1, r2, #2
.LBE184:
.LBE183:
.LBB186:
.LBB165:
	.loc 1 1476 0
	add	r2, r2, r3
	strb	r0, [r2, #240]
.LVL62:
.LBE165:
.LBE186:
.LBB187:
.LBB185:
	.loc 1 2007 0
	mov	r2, #-1
	uxth	r1, r1
	add	ip, r3, r7
	.loc 1 2009 0
	cmp	r1, #67
	.loc 1 2007 0
	strh	r1, [r4, #20]	@ movhi
	strb	r2, [ip, #240]
	.loc 1 2009 0
	bhi	.L43
	mov	r2, r1
	.loc 1 2012 0
	mov	lr, r6
.L44:
	add	ip, r2, #1
	adds	r0, r3, r2
	uxth	r2, ip
	.loc 1 2009 0
	cmp	r2, #68
	.loc 1 2012 0
	strb	lr, [r0, #240]
	.loc 1 2009 0
	bne	.L44
	subs	r1, r1, r7
	adds	r1, r1, #67
	uxth	r1, r1
	strh	r1, [r4, #20]	@ movhi
.L43:
.LVL63:
.LBE185:
.LBE187:
	.loc 1 1053 0
	adds	r1, r1, #240
	uxth	r1, r1
	ldr	r0, [r4, #12]
	bl	pbuf_realloc
.LVL64:
	.loc 1 1056 0
	ldr	r3, .L57+4
	ldr	r1, [r4, #12]
	ldr	r0, [r3]
	ldr	r3, .L57+8
	str	r5, [sp]
	str	r3, [sp, #4]
	ldr	r2, .L57+12
	movs	r3, #67
	bl	udp_sendto_if_src
.LVL65:
.LBB188:
.LBB189:
	.loc 1 1984 0
	ldr	r0, [r4, #12]
	.loc 1 1986 0
	cbz	r0, .L45
	.loc 1 1987 0
	bl	pbuf_free
.LVL66:
.L45:
	.loc 1 1989 0
	movs	r3, #0
	str	r3, [r4, #12]
	.loc 1 1990 0
	str	r3, [r4, #16]
.LVL67:
.L42:
.LBE189:
.LBE188:
	.loc 1 1063 0
	ldrb	r3, [r4, #10]	@ zero_extendqisi2
	cmp	r3, #255
	beq	.L48
	.loc 1 1064 0
	adds	r3, r3, #1
	uxtb	r3, r3
	.loc 1 1072 0
	cmp	r3, #5
	.loc 1 1064 0
	strb	r3, [r4, #10]
	.loc 1 1072 0
	bhi	.L48
	.loc 1 1072 0 is_stmt 0 discriminator 1
	mov	r2, #1000
	.loc 1 1076 0 is_stmt 1 discriminator 1
	mov	r0, r6
	.loc 1 1072 0 discriminator 1
	lsl	r3, r2, r3
	ldr	r1, .L57+16
	addw	r3, r3, #499
	umull	r2, r3, r1, r3
	ubfx	r3, r3, #5, #16
	.loc 1 1073 0 discriminator 1
	strh	r3, [r4, #22]	@ movhi
	.loc 1 1076 0 discriminator 1
	add	sp, sp, #12
	.cfi_remember_state
	.cfi_def_cfa_offset 36
	@ sp needed
	pop	{r4, r5, r6, r7, r8, r9, r10, fp, pc}
.LVL68:
.L48:
	.cfi_restore_state
	.loc 1 1023 0
	movs	r3, #120
	.loc 1 1076 0
	mov	r0, r6
	.loc 1 1073 0
	strh	r3, [r4, #22]	@ movhi
	.loc 1 1076 0
	add	sp, sp, #12
	.cfi_def_cfa_offset 36
	@ sp needed
	pop	{r4, r5, r6, r7, r8, r9, r10, fp, pc}
.LVL69:
.L58:
	.align	2
.L57:
	.word	.LANCHOR0
	.word	.LANCHOR2
	.word	ip_addr_any
	.word	ip_addr_broadcast
	.word	274877907
	.cfi_endproc
.LFE165:
	.size	dhcp_discover, .-dhcp_discover
	.section	.text.dhcp_bind,"ax",%progbits
	.align	1
	.p2align 2,,3
	.syntax unified
	.thumb
	.thumb_func
	.fpu softvfp
	.type	dhcp_bind, %function
dhcp_bind:
.LFB166:
	.loc 1 1086 0
	.cfi_startproc
	@ args = 0, pretend = 0, frame = 8
	@ frame_needed = 0, uses_anonymous_args = 0
.LVL70:
	.loc 1 1090 0
	cmp	r0, #0
	beq	.L98
	.loc 1 1091 0
	ldr	r1, [r0, #32]
.LVL71:
	.loc 1 1092 0
	cmp	r1, #0
	beq	.L98
	.loc 1 1096 0
	movs	r2, #0
	.loc 1 1086 0
	push	{r4, lr}
	.cfi_def_cfa_offset 8
	.cfi_offset 4, -8
	.cfi_offset 14, -4
	.loc 1 1098 0
	ldr	r3, [r1, #56]
	.loc 1 1086 0
	sub	sp, sp, #8
	.cfi_def_cfa_offset 16
	.loc 1 1098 0
	adds	r4, r3, #1
	.loc 1 1096 0
	strh	r2, [r1, #32]	@ movhi
	.loc 1 1098 0
	beq	.L62
	.loc 1 1101 0
	sub	r2, r2, #2004318071
	adds	r3, r3, #30
	umull	r2, r3, r2, r3
	lsrs	r3, r3, #5
.LVL72:
	.loc 1 1102 0
	cmp	r3, #65536
	bcs	.L63
	.loc 1 1106 0
	cbnz	r3, .L101
	.loc 1 1107 0
	movs	r3, #1
.LVL73:
.L101:
	strh	r3, [r1, #34]	@ movhi
.LVL74:
.L62:
	.loc 1 1113 0
	ldr	r3, [r1, #60]
	adds	r2, r3, #1
	beq	.L102
.L66:
	.loc 1 1116 0
	ldr	r2, .L107
	adds	r3, r3, #30
	umull	r2, r3, r2, r3
	lsrs	r3, r3, #5
.LVL75:
	.loc 1 1117 0
	cmp	r3, #65536
	bcs	.L68
	.loc 1 1121 0
	cmp	r3, #0
	bne	.L103
	.loc 1 1122 0
	movs	r2, #1
	mov	r3, r2
.LVL76:
	strh	r2, [r1, #24]	@ movhi
.L70:
	.loc 1 1128 0
	ldr	r2, [r1, #64]
	.loc 1 1125 0
	strh	r3, [r1, #28]	@ movhi
	.loc 1 1128 0
	adds	r4, r2, #1
	beq	.L104
.L71:
	.loc 1 1130 0
	ldr	r4, .L107
	adds	r2, r2, #30
	umull	r4, r2, r4, r2
	lsrs	r2, r2, #5
.LVL77:
	.loc 1 1131 0
	cmp	r2, #65536
	bcs	.L74
	.loc 1 1135 0
	cmp	r2, #0
	bne	.L105
	.loc 1 1136 0
	movs	r4, #1
	mov	r2, r4
.LVL78:
	strh	r4, [r1, #26]	@ movhi
.L76:
	.loc 1 1143 0
	cmp	r2, r3
	.loc 1 1139 0
	strh	r2, [r1, #30]	@ movhi
	.loc 1 1143 0
	bls	.L77
.L73:
	.loc 1 1147 0
	ldrb	r3, [r1, #11]	@ zero_extendqisi2
	cmp	r3, #0
	beq	.L78
.L106:
	.loc 1 1149 0
	ldr	r3, [r1, #44]
	str	r3, [sp]
.L79:
	.loc 1 1162 0
	ldr	r2, [r1, #48]
	str	r2, [sp, #4]
	.loc 1 1164 0
	cbnz	r2, .L82
	.loc 1 1166 0
	ldr	r2, [r1, #40]
	ands	r3, r3, r2
	.loc 1 1168 0
	orr	r3, r3, #16777216
	str	r3, [sp, #4]
.L82:
.LVL79:
.LBB190:
.LBB191:
	.loc 1 1449 0
	ldrb	r3, [r1, #9]	@ zero_extendqisi2
	cmp	r3, #10
	beq	.L83
	.loc 1 1451 0
	movs	r3, #0
	.loc 1 1450 0
	movs	r2, #10
	.loc 1 1451 0
	strb	r3, [r1, #10]
	.loc 1 1450 0
	strb	r2, [r1, #9]
	.loc 1 1452 0
	strh	r3, [r1, #22]	@ movhi
.L83:
.LVL80:
.LBE191:
.LBE190:
	.loc 1 1184 0
	adds	r1, r1, #40
.LVL81:
	add	r3, sp, #4
	mov	r2, sp
	bl	netif_set_addr
.LVL82:
	.loc 1 1186 0
	add	sp, sp, #8
	.cfi_remember_state
	.cfi_def_cfa_offset 8
	@ sp needed
	pop	{r4, pc}
.LVL83:
.L68:
	.cfi_restore_state
	.loc 1 1120 0
	movw	r3, #65535
	strh	r3, [r1, #24]	@ movhi
	b	.L70
.LVL84:
.L63:
	.loc 1 1105 0
	movw	r3, #65535
	strh	r3, [r1, #34]	@ movhi
	.loc 1 1113 0
	ldr	r3, [r1, #60]
	adds	r2, r3, #1
	bne	.L66
.LVL85:
.L102:
	.loc 1 1128 0
	ldr	r2, [r1, #64]
	ldrh	r3, [r1, #24]
	adds	r4, r2, #1
	bne	.L71
.L104:
	ldrh	r2, [r1, #26]
	.loc 1 1143 0
	cmp	r3, r2
	bcc	.L73
	.loc 1 1143 0 is_stmt 0 discriminator 1
	cmp	r2, #0
	beq	.L73
.L77:
	.loc 1 1144 0 is_stmt 1
	movs	r3, #0
	strh	r3, [r1, #24]	@ movhi
	.loc 1 1147 0
	ldrb	r3, [r1, #11]	@ zero_extendqisi2
	cmp	r3, #0
	bne	.L106
.L78:
.LBB192:
	.loc 1 1152 0
	ldrb	r3, [r1, #40]	@ zero_extendqisi2
.LVL86:
	.loc 1 1153 0
	lsls	r2, r3, #24
	bmi	.L80
	.loc 1 1154 0
	movs	r3, #255
.LVL87:
	str	r3, [sp]
	b	.L79
.LVL88:
.L74:
.LBE192:
	.loc 1 1134 0
	movw	r2, #65535
	strh	r2, [r1, #26]	@ movhi
	b	.L76
.LVL89:
.L98:
	.cfi_def_cfa_offset 0
	.cfi_restore 4
	.cfi_restore 14
	bx	lr
.LVL90:
.L80:
	.cfi_def_cfa_offset 16
	.cfi_offset 4, -8
	.cfi_offset 14, -4
.LBB193:
	.loc 1 1155 0
	cmp	r3, #191
	bls	.L81
	.loc 1 1156 0
	mvn	r3, #-16777216
.LVL91:
	str	r3, [sp]
	b	.L79
.LVL92:
.L81:
	.loc 1 1158 0
	movw	r2, #65535
	mov	r3, r2
.LVL93:
	str	r2, [sp]
	b	.L79
.LVL94:
.L105:
.LBE193:
	.loc 1 1134 0
	uxth	r2, r2
.LVL95:
	strh	r2, [r1, #26]	@ movhi
	b	.L76
.LVL96:
.L103:
	.loc 1 1120 0
	uxth	r3, r3
.LVL97:
	strh	r3, [r1, #24]	@ movhi
	b	.L70
.L108:
	.align	2
.L107:
	.word	-2004318071
	.cfi_endproc
.LFE166:
	.size	dhcp_bind, .-dhcp_bind
	.section	.text.unlikely.dhcp_handle_ack.isra.6,"ax",%progbits
	.align	1
	.syntax unified
	.thumb
	.thumb_func
	.fpu softvfp
	.type	dhcp_handle_ack.isra.6, %function
dhcp_handle_ack.isra.6:
.LFB189:
	.loc 1 609 0
	.cfi_startproc
	@ args = 0, pretend = 0, frame = 8
	@ frame_needed = 0, uses_anonymous_args = 0
	.loc 1 621 0
	movs	r3, #0
	.loc 1 609 0
	push	{r4, r5, r6, lr}
	.cfi_def_cfa_offset 16
	.cfi_offset 4, -16
	.cfi_offset 5, -12
	.cfi_offset 6, -8
	.cfi_offset 14, -4
	.loc 1 628 0
	ldr	r5, .L130
	.loc 1 609 0
	sub	sp, sp, #8
	.cfi_def_cfa_offset 24
	.loc 1 628 0
	ldrb	r2, [r5, #3]	@ zero_extendqisi2
	.loc 1 609 0
	mov	r4, r0
.LVL98:
	.loc 1 621 0
	str	r3, [r0, #44]
	.loc 1 622 0
	str	r3, [r0, #48]
	.loc 1 628 0
	cbz	r2, .L110
	.loc 1 630 0
	ldr	r3, .L130+4
	ldr	r3, [r3, #12]
	str	r3, [r0, #56]
.L110:
	.loc 1 633 0
	ldrb	r3, [r5, #4]	@ zero_extendqisi2
	cbz	r3, .L111
	.loc 1 635 0
	ldr	r3, .L130+4
	ldr	r3, [r3, #16]
	b	.L112
.L111:
	.loc 1 638 0
	ldr	r3, [r4, #56]
	lsrs	r3, r3, #1
.L112:
	.loc 1 642 0
	ldrb	r2, [r5, #5]	@ zero_extendqisi2
	str	r3, [r4, #60]
	cbz	r2, .L113
	.loc 1 644 0
	ldr	r3, .L130+4
	ldr	r3, [r3, #20]
	b	.L114
.L113:
	.loc 1 647 0
	ldr	r3, [r4, #56]
	rsb	r3, r3, r3, lsl #3
	lsrs	r3, r3, #3
.L114:
	.loc 1 651 0
	ldr	r2, [r4, #4]
	str	r3, [r4, #64]
	ldr	r2, [r2, #16]	@ unaligned
	.loc 1 660 0
	ldrb	r3, [r5, #6]	@ zero_extendqisi2
	.loc 1 651 0
	str	r2, [r4, #40]
	.loc 1 660 0
	cbz	r3, .L115
	.loc 1 662 0
	ldr	r3, .L130+4
	ldr	r0, [r3, #24]
.LVL99:
	bl	lwip_htonl
.LVL100:
	.loc 1 663 0
	movs	r3, #1
	.loc 1 662 0
	str	r0, [r4, #44]
	.loc 1 663 0
	strb	r3, [r4, #11]
	b	.L116
.LVL101:
.L115:
	.loc 1 665 0
	strb	r3, [r4, #11]
.LVL102:
.L116:
	.loc 1 669 0
	ldrb	r3, [r5, #7]	@ zero_extendqisi2
	cbz	r3, .L117
	.loc 1 670 0
	ldr	r3, .L130+4
	ldr	r0, [r3, #28]
	bl	lwip_htonl
.LVL103:
	str	r0, [r4, #48]
.L117:
.LVL104:
	.loc 1 683 0
	ldrb	r3, [r5, #8]	@ zero_extendqisi2
	cbz	r3, .L109
.LBB194:
	.loc 1 685 0
	ldr	r6, .L130+4
	add	r4, sp, #8
.LVL105:
	ldr	r0, [r6, #32]
	bl	lwip_htonl
.LVL106:
	str	r0, [r4, #-4]!
	.loc 1 686 0
	mov	r1, r4
	movs	r0, #0
	bl	dns_setserver
.LVL107:
.LBE194:
	.loc 1 683 0
	ldrb	r3, [r5, #9]	@ zero_extendqisi2
	cbz	r3, .L109
.LBB195:
	.loc 1 685 0
	ldr	r0, [r6, #36]
	bl	lwip_htonl
.LVL108:
	.loc 1 686 0
	mov	r1, r4
	.loc 1 685 0
	str	r0, [sp, #4]
	.loc 1 686 0
	movs	r0, #1
	bl	dns_setserver
.LVL109:
.L109:
.LBE195:
	.loc 1 689 0
	add	sp, sp, #8
	.cfi_def_cfa_offset 16
	@ sp needed
	pop	{r4, r5, r6, pc}
.L131:
	.align	2
.L130:
	.word	dhcp_rx_options_given
	.word	dhcp_rx_options_val
	.cfi_endproc
.LFE189:
	.size	dhcp_handle_ack.isra.6, .-dhcp_handle_ack.isra.6
	.section	.text.dhcp_create_msg.constprop.7,"ax",%progbits
	.align	1
	.p2align 2,,3
	.syntax unified
	.thumb
	.thumb_func
	.fpu softvfp
	.type	dhcp_create_msg.constprop.7, %function
dhcp_create_msg.constprop.7:
.LFB190:
	.loc 1 1874 0
	.cfi_startproc
	@ args = 0, pretend = 0, frame = 0
	@ frame_needed = 0, uses_anonymous_args = 0
.LVL110:
	.loc 1 1893 0
	cmp	r0, #0
	beq	.L146
	.loc 1 1894 0
	cmp	r1, #0
	beq	.L147
	.loc 1 1897 0
	movs	r2, #0
	.loc 1 1874 0
	push	{r4, r5, r6, r7, r8, lr}
	.cfi_def_cfa_offset 24
	.cfi_offset 4, -24
	.cfi_offset 5, -20
	.cfi_offset 6, -16
	.cfi_offset 7, -12
	.cfi_offset 8, -8
	.cfi_offset 14, -4
	mov	r5, r1
	mov	r6, r0
	.loc 1 1897 0
	mov	r1, #308
.LVL111:
	mov	r0, r2
.LVL112:
	bl	pbuf_alloc
.LVL113:
	mov	r3, r0
	str	r0, [r5, #12]
	.loc 1 1898 0
	cmp	r0, #0
	beq	.L148
	.loc 1 1909 0
	ldr	r2, .L164
	ldrb	r2, [r2]	@ zero_extendqisi2
	cmp	r2, #1
	beq	.L134
	ldrb	r2, [r5, #9]	@ zero_extendqisi2
	cmp	r2, #3
	beq	.L134
	ldr	r0, [r5]
	b	.L135
.L134:
	.loc 1 1915 0
	ldrb	r2, [r5, #10]	@ zero_extendqisi2
	cmp	r2, #0
	beq	.L136
	ldr	r2, .L164+4
	ldr	r0, [r2]
.L137:
	.loc 1 1922 0
	str	r0, [r5]
.L135:
	.loc 1 1929 0
	movs	r2, #1
	.loc 1 1933 0
	movs	r7, #0
	.loc 1 1927 0
	ldr	r4, [r3, #4]
	str	r4, [r5, #16]
	.loc 1 1929 0
	strb	r2, [r4]
	.loc 1 1931 0
	strb	r2, [r4, #1]
	.loc 1 1932 0
	ldrb	r3, [r6, #48]	@ zero_extendqisi2
	.loc 1 1933 0
	strb	r7, [r4, #3]
	.loc 1 1932 0
	strb	r3, [r4, #2]
	.loc 1 1934 0
	bl	lwip_htonl
.LVL114:
	str	r0, [r4, #4]	@ unaligned
	.loc 1 1936 0
	ldr	r8, [r5, #16]
	bl	sys_now
.LVL115:
	ldr	r3, [r5, #68]
	ldr	r2, .L164+8
	subs	r3, r0, r3
	umull	r2, r3, r2, r3
	.loc 1 1942 0
	ldr	r4, [r5, #16]
	.loc 1 1936 0
	lsrs	r3, r3, #6
	strh	r3, [r8, #8]	@ unaligned
	.loc 1 1943 0
	strb	r7, [r4, #12]
	strb	r7, [r4, #13]
	strb	r7, [r4, #14]
	strb	r7, [r4, #15]
	.loc 1 1942 0
	strb	r7, [r4, #10]
	strb	r7, [r4, #11]
	.loc 1 1947 0
	ldrb	r3, [r5, #9]	@ zero_extendqisi2
	.loc 1 1946 0
	subs	r3, r3, #4
	cmp	r3, #1
	.loc 1 1948 0
	itt	ls
	ldrls	r3, [r6, #4]
	strls	r3, [r4, #12]	@ unaligned
	.loc 1 1950 0
	movs	r3, #0
	strb	r3, [r4, #16]
	strb	r3, [r4, #17]
	strb	r3, [r4, #18]
	strb	r3, [r4, #19]
	.loc 1 1951 0
	strb	r3, [r4, #20]
	strb	r3, [r4, #21]
	strb	r3, [r4, #22]
	strb	r3, [r4, #23]
	.loc 1 1952 0
	strb	r3, [r4, #24]
	strb	r3, [r4, #25]
	strb	r3, [r4, #26]
	strb	r3, [r4, #27]
.LVL116:
	ldrb	r2, [r6, #48]	@ zero_extendqisi2
	.loc 1 1955 0
	cmp	r2, #0
	bne	.L163
	strb	r2, [r4, #28]
.LVL117:
	strb	r2, [r4, #29]
.LVL118:
.L141:
	movs	r3, #0
	strb	r3, [r4, #30]
.LVL119:
.L142:
	movs	r3, #0
	strb	r3, [r4, #31]
.LVL120:
.L143:
	movs	r3, #0
	strb	r3, [r4, #32]
.LVL121:
.L144:
	movs	r6, #0
.LVL122:
	strb	r3, [r4, #33]
.LVL123:
	mov	r1, r6
	movs	r2, #64
	strb	r6, [r4, #34]
.LVL124:
	strb	r6, [r4, #35]
.LVL125:
	strb	r6, [r4, #36]
.LVL126:
	strb	r6, [r4, #37]
.LVL127:
	strb	r6, [r4, #38]
.LVL128:
	strb	r6, [r4, #39]
.LVL129:
	strb	r6, [r4, #40]
.LVL130:
	strb	r6, [r4, #41]
.LVL131:
	strb	r6, [r4, #42]
.LVL132:
	strb	r6, [r4, #43]
.LVL133:
	add	r0, r4, #44
	bl	memset
.LVL134:
	mov	r1, r6
	movs	r2, #128
	add	r0, r4, #108
	bl	memset
.LVL135:
	.loc 1 1963 0
	mvn	r7, #125
	movs	r1, #99
	movs	r0, #83
	mov	r2, r4
	.loc 1 1964 0
	mov	r3, r6
	.loc 1 1963 0
	strb	r1, [r4, #236]
	strb	r7, [r4, #237]
	strb	r0, [r4, #238]
	strb	r1, [r2, #239]!
	.loc 1 1964 0
	strh	r6, [r5, #20]	@ movhi
.LVL136:
.L145:
	.loc 1 1967 0
	strb	r3, [r2, #1]!
.LVL137:
	adds	r3, r3, #1
.LVL138:
	.loc 1 1966 0
	cmp	r3, #68
	bne	.L145
.LVL139:
.LBB196:
.LBB197:
	.loc 1 1466 0
	movs	r6, #1
	.loc 1 1465 0
	movs	r7, #53
.LBE197:
.LBE196:
.LBB200:
.LBB201:
	.loc 1 1476 0
	movs	r1, #3
.LBE201:
.LBE200:
.LBB203:
.LBB198:
	.loc 1 1464 0
	ldrh	r3, [r5, #20]
.LBE198:
.LBE203:
	.loc 1 1972 0
	movs	r0, #0
.LBB204:
.LBB199:
	.loc 1 1465 0
	adds	r2, r4, r3
	strb	r7, [r2, #240]
	adds	r2, r3, r6
	.loc 1 1466 0
	uxtah	r2, r4, r2
	adds	r3, r3, #2
	strh	r3, [r5, #20]	@ movhi
	strb	r6, [r2, #240]
.LVL140:
.LBE199:
.LBE204:
.LBB205:
.LBB202:
	.loc 1 1475 0
	ldrh	r3, [r5, #20]
	.loc 1 1476 0
	add	r4, r4, r3
	add	r3, r3, r6
	strh	r3, [r5, #20]	@ movhi
	strb	r1, [r4, #240]
.LVL141:
	pop	{r4, r5, r6, r7, r8, pc}
.LVL142:
.L163:
.LBE202:
.LBE205:
	.loc 1 1955 0
	ldrb	r1, [r6, #49]	@ zero_extendqisi2
	cmp	r2, #1
	strb	r1, [r4, #28]
.LVL143:
	it	ne
	ldrbne	r3, [r6, #50]	@ zero_extendqisi2
	cmp	r2, #2
	strb	r3, [r4, #29]
.LVL144:
	bls	.L141
	ldrb	r3, [r6, #51]	@ zero_extendqisi2
	cmp	r2, #3
	strb	r3, [r4, #30]
.LVL145:
	bls	.L142
	ldrb	r3, [r6, #52]	@ zero_extendqisi2
	cmp	r2, #4
	strb	r3, [r4, #31]
.LVL146:
	bls	.L143
	ldrb	r3, [r6, #53]	@ zero_extendqisi2
	cmp	r2, #5
	strb	r3, [r4, #32]
.LVL147:
	ite	hi
	ldrbhi	r3, [r6, #54]	@ zero_extendqisi2
	movls	r3, #0
	b	.L144
.LVL148:
.L136:
	.loc 1 1917 0
	bl	rand
.LVL149:
	ldr	r2, .L164+4
	ldr	r3, [r5, #12]
	str	r0, [r2]
	b	.L137
.LVL150:
.L147:
	.cfi_def_cfa_offset 0
	.cfi_restore 4
	.cfi_restore 5
	.cfi_restore 6
	.cfi_restore 7
	.cfi_restore 8
	.cfi_restore 14
	.loc 1 1894 0
	mvn	r0, #5
.LVL151:
	bx	lr
.LVL152:
.L148:
	.cfi_def_cfa_offset 24
	.cfi_offset 4, -24
	.cfi_offset 5, -20
	.cfi_offset 6, -16
	.cfi_offset 7, -12
	.cfi_offset 8, -8
	.cfi_offset 14, -4
	.loc 1 1901 0
	mov	r0, #-1
	pop	{r4, r5, r6, r7, r8, pc}
.LVL153:
.L146:
	.cfi_def_cfa_offset 0
	.cfi_restore 4
	.cfi_restore 5
	.cfi_restore 6
	.cfi_restore 7
	.cfi_restore 8
	.cfi_restore 14
	.loc 1 1893 0
	mvn	r0, #15
.LVL154:
	bx	lr
.L165:
	.align	2
.L164:
	.word	.LANCHOR0
	.word	.LANCHOR1
	.word	274877907
	.cfi_endproc
.LFE190:
	.size	dhcp_create_msg.constprop.7, .-dhcp_create_msg.constprop.7
	.section	.text.dhcp_select,"ax",%progbits
	.align	1
	.p2align 2,,3
	.syntax unified
	.thumb
	.thumb_func
	.fpu softvfp
	.type	dhcp_select, %function
dhcp_select:
.LFB151:
	.loc 1 360 0
	.cfi_startproc
	@ args = 0, pretend = 0, frame = 0
	@ frame_needed = 0, uses_anonymous_args = 0
.LVL155:
	push	{r4, r5, r6, r7, r8, r9, r10, lr}
	.cfi_def_cfa_offset 32
	.cfi_offset 4, -32
	.cfi_offset 5, -28
	.cfi_offset 6, -24
	.cfi_offset 7, -20
	.cfi_offset 8, -16
	.cfi_offset 9, -12
	.cfi_offset 10, -8
	.cfi_offset 14, -4
	.loc 1 361 0
	ldr	r4, [r0, #32]
.LVL156:
	.loc 1 360 0
	sub	sp, sp, #8
	.cfi_def_cfa_offset 40
.LBB206:
.LBB207:
	.loc 1 1449 0
	ldrb	r3, [r4, #9]	@ zero_extendqisi2
.LBE207:
.LBE206:
	.loc 1 360 0
	mov	r5, r0
.LBB209:
.LBB208:
	.loc 1 1449 0
	cmp	r3, #1
	beq	.L167
	.loc 1 1451 0
	movs	r3, #0
	.loc 1 1450 0
	movs	r2, #1
	.loc 1 1451 0
	strb	r3, [r4, #10]
	.loc 1 1450 0
	strb	r2, [r4, #9]
	.loc 1 1452 0
	strh	r3, [r4, #22]	@ movhi
.L167:
.LVL157:
.LBE208:
.LBE209:
	.loc 1 370 0
	mov	r1, r4
	mov	r0, r5
.LVL158:
	bl	dhcp_create_msg.constprop.7
.LVL159:
	.loc 1 371 0
	mov	r6, r0
	cbz	r0, .L185
.LVL160:
.L168:
	.loc 1 409 0
	ldrb	r3, [r4, #10]	@ zero_extendqisi2
	cmp	r3, #255
	beq	.L176
	.loc 1 410 0
	adds	r3, r3, #1
	uxtb	r3, r3
	.loc 1 412 0
	cmp	r3, #5
	.loc 1 410 0
	strb	r3, [r4, #10]
	.loc 1 412 0
	bhi	.L176
	.loc 1 412 0 is_stmt 0 discriminator 1
	mov	r2, #1000
	.loc 1 416 0 is_stmt 1 discriminator 1
	mov	r0, r6
	.loc 1 412 0 discriminator 1
	lsl	r3, r2, r3
	ldr	r1, .L186
	addw	r3, r3, #499
	umull	r2, r3, r1, r3
	ubfx	r3, r3, #5, #16
	.loc 1 413 0 discriminator 1
	strh	r3, [r4, #22]	@ movhi
	.loc 1 416 0 discriminator 1
	add	sp, sp, #8
	.cfi_remember_state
	.cfi_def_cfa_offset 32
	@ sp needed
	pop	{r4, r5, r6, r7, r8, r9, r10, pc}
.LVL161:
.L176:
	.cfi_restore_state
	.loc 1 360 0
	movs	r3, #120
	.loc 1 416 0
	mov	r0, r6
	.loc 1 413 0
	strh	r3, [r4, #22]	@ movhi
	.loc 1 416 0
	add	sp, sp, #8
	.cfi_remember_state
	.cfi_def_cfa_offset 32
	@ sp needed
	pop	{r4, r5, r6, r7, r8, r9, r10, pc}
.LVL162:
.L185:
	.cfi_restore_state
.LBB210:
.LBB211:
	.loc 1 1466 0
	mov	ip, #2
	.loc 1 1465 0
	mov	r8, #57
.LBE211:
.LBE210:
.LBB213:
.LBB214:
	movs	r0, #50
.LVL163:
	.loc 1 1466 0
	movs	r7, #4
.LBE214:
.LBE213:
.LBB216:
.LBB212:
	.loc 1 1464 0
	ldrh	r2, [r4, #20]
	ldr	r3, [r4, #16]
.LVL164:
	.loc 1 1465 0
	adds	r1, r2, #1
	add	lr, r3, r2
	.loc 1 1466 0
	uxtah	r1, r3, r1
	add	r2, r2, ip
	.loc 1 1465 0
	strb	r8, [lr, #240]
	.loc 1 1466 0
	strh	r2, [r4, #20]	@ movhi
	strb	ip, [r1, #240]
.LVL165:
.LBE212:
.LBE216:
.LBB217:
.LBB218:
	.loc 1 1482 0
	ldrh	r2, [r4, #20]
.LBE218:
.LBE217:
	.loc 1 373 0
	ldrh	ip, [r5, #46]
.LVL166:
.LBB220:
.LBB219:
	.loc 1 1483 0
	adds	r1, r3, r2
	lsr	lr, ip, #8
	strb	lr, [r1, #240]
	adds	r1, r2, #1
	.loc 1 1484 0
	uxtah	r1, r3, r1
	adds	r2, r2, #2
	strh	r2, [r4, #20]	@ movhi
	strb	ip, [r1, #240]
.LVL167:
.LBE219:
.LBE220:
.LBB221:
.LBB215:
	.loc 1 1464 0
	ldrh	r2, [r4, #20]
	.loc 1 1465 0
	adds	r1, r2, #1
	add	ip, r3, r2
	.loc 1 1466 0
	uxtah	r3, r3, r1
	adds	r2, r2, #2
	.loc 1 1465 0
	strb	r0, [ip, #240]
	.loc 1 1466 0
	strh	r2, [r4, #20]	@ movhi
	strb	r7, [r3, #240]
.LVL168:
.LBE215:
.LBE221:
	.loc 1 378 0
	ldr	r0, [r4, #40]
	bl	lwip_htonl
.LVL169:
.LBB222:
.LBB223:
	.loc 1 1490 0
	ldrh	r3, [r4, #20]
	ldr	r2, [r4, #16]
.LVL170:
	.loc 1 1491 0
	lsr	lr, r0, #24
	add	ip, r2, r3
	adds	r1, r3, #1
	strb	lr, [ip, #240]
	.loc 1 1492 0
	uxtah	r1, r2, r1
	lsr	lr, r0, #16
	strb	lr, [r1, #240]
	add	ip, r3, #2
	.loc 1 1493 0
	adds	r1, r3, #3
	uxtah	ip, r2, ip
	lsr	lr, r0, #8
	.loc 1 1494 0
	uxtah	r2, r2, r1
	add	r3, r3, r7
	.loc 1 1493 0
	strb	lr, [ip, #240]
	.loc 1 1494 0
	strh	r3, [r4, #20]	@ movhi
	strb	r0, [r2, #240]
.LVL171:
.LBE223:
.LBE222:
	.loc 1 381 0
	ldr	r0, [r4, #36]
	bl	lwip_htonl
.LVL172:
	cmp	r0, #0
	bne	.L169
	ldr	ip, [r4, #16]
.L170:
.LVL173:
.LBB224:
.LBB225:
	.loc 1 1476 0
	mov	r8, #1
.LBE225:
.LBE224:
.LBB230:
.LBB231:
	.loc 1 1465 0
	mov	r10, #55
	.loc 1 1466 0
	mov	r9, #4
.LBE231:
.LBE230:
.LBB233:
.LBB226:
	.loc 1 1476 0
	movs	r1, #3
	movs	r2, #28
	movs	r7, #6
.LBE226:
.LBE233:
.LBB234:
.LBB235:
	.loc 1 2007 0
	movs	r0, #255
.LBE235:
.LBE234:
.LBB239:
.LBB232:
	.loc 1 1464 0
	ldrh	r3, [r4, #20]
	.loc 1 1465 0
	add	lr, ip, r3
	strb	r10, [lr, #240]
	add	lr, r3, r8
	.loc 1 1466 0
	uxtah	lr, ip, lr
	adds	r3, r3, #2
	strh	r3, [r4, #20]	@ movhi
	strb	r9, [lr, #240]
.LVL174:
.LBE232:
.LBE239:
.LBB240:
.LBB227:
	.loc 1 1475 0
	ldrh	r3, [r4, #20]
	.loc 1 1476 0
	add	lr, r3, r8
	add	r3, r3, ip
	strh	lr, [r4, #20]	@ movhi
	strb	r8, [r3, #240]
.LVL175:
	.loc 1 1475 0
	ldrh	r3, [r4, #20]
	.loc 1 1476 0
	add	lr, r3, r8
	add	r3, r3, ip
	strh	lr, [r4, #20]	@ movhi
	strb	r1, [r3, #240]
.LVL176:
	.loc 1 1475 0
	ldrh	r3, [r4, #20]
	.loc 1 1476 0
	add	r1, r3, r8
	add	r3, r3, ip
	strh	r1, [r4, #20]	@ movhi
	strb	r2, [r3, #240]
.LVL177:
	.loc 1 1475 0
	ldrh	r3, [r4, #20]
	.loc 1 1476 0
	add	r1, r3, r8
	uxth	r2, r1
.LBE227:
.LBE240:
.LBB241:
.LBB236:
	.loc 1 2007 0
	adds	r1, r3, #2
	uxth	r1, r1
	add	lr, ip, r2
.LBE236:
.LBE241:
.LBB242:
.LBB228:
	.loc 1 1476 0
	add	r3, r3, ip
.LBE228:
.LBE242:
.LBB243:
.LBB237:
	.loc 1 2009 0
	cmp	r1, #67
.LBE237:
.LBE243:
.LBB244:
.LBB229:
	.loc 1 1476 0
	strb	r7, [r3, #240]
.LVL178:
.LBE229:
.LBE244:
.LBB245:
.LBB238:
	.loc 1 2007 0
	strh	r1, [r4, #20]	@ movhi
	strb	r0, [lr, #240]
	.loc 1 2009 0
	bhi	.L171
	mov	r3, r1
	.loc 1 2012 0
	mov	lr, #0
.L172:
	adds	r7, r3, #1
	add	r0, ip, r3
	uxth	r3, r7
	.loc 1 2009 0
	cmp	r3, #68
	.loc 1 2012 0
	strb	lr, [r0, #240]
	.loc 1 2009 0
	bne	.L172
	subs	r1, r1, r2
	adds	r1, r1, #67
	uxth	r1, r1
	strh	r1, [r4, #20]	@ movhi
.L171:
.LVL179:
.LBE238:
.LBE245:
	.loc 1 400 0
	adds	r1, r1, #240
	uxth	r1, r1
	ldr	r0, [r4, #12]
	bl	pbuf_realloc
.LVL180:
	.loc 1 403 0
	ldr	r3, .L186+4
	ldr	r1, [r4, #12]
	ldr	r0, [r3]
	ldr	r3, .L186+8
	str	r5, [sp]
	str	r3, [sp, #4]
	ldr	r2, .L186+12
	movs	r3, #67
	bl	udp_sendto_if_src
.LVL181:
.LBB246:
.LBB247:
	.loc 1 1984 0
	ldr	r0, [r4, #12]
	.loc 1 1986 0
	cbz	r0, .L173
	.loc 1 1987 0
	bl	pbuf_free
.LVL182:
.L173:
	.loc 1 1989 0
	movs	r3, #0
	str	r3, [r4, #12]
	.loc 1 1990 0
	str	r3, [r4, #16]
	b	.L168
.LVL183:
.L169:
.LBE247:
.LBE246:
.LBB248:
.LBB249:
	.loc 1 1465 0
	mov	ip, #54
	.loc 1 1464 0
	ldrh	r3, [r4, #20]
	ldr	r1, [r4, #16]
.LVL184:
	.loc 1 1465 0
	adds	r2, r3, #1
	adds	r0, r1, r3
	.loc 1 1466 0
	uxtah	r2, r1, r2
	adds	r3, r3, #2
	.loc 1 1465 0
	strb	ip, [r0, #240]
	.loc 1 1466 0
	strh	r3, [r4, #20]	@ movhi
	strb	r7, [r2, #240]
.LVL185:
.LBE249:
.LBE248:
	.loc 1 386 0
	ldr	r0, [r4, #36]
	bl	lwip_htonl
.LVL186:
.LBB250:
.LBB251:
	.loc 1 1490 0
	ldrh	r3, [r4, #20]
	ldr	ip, [r4, #16]
.LVL187:
	.loc 1 1491 0
	adds	r2, r3, #1
	add	r1, ip, r3
	lsrs	r7, r0, #24
	strb	r7, [r1, #240]
	.loc 1 1492 0
	uxtah	r2, ip, r2
	lsrs	r7, r0, #16
	strb	r7, [r2, #240]
	adds	r1, r3, #2
	.loc 1 1493 0
	adds	r2, r3, #3
	uxtah	r1, ip, r1
	lsrs	r7, r0, #8
	.loc 1 1494 0
	uxtah	r2, ip, r2
	adds	r3, r3, #4
	.loc 1 1493 0
	strb	r7, [r1, #240]
	.loc 1 1494 0
	strh	r3, [r4, #20]	@ movhi
	strb	r0, [r2, #240]
	b	.L170
.L187:
	.align	2
.L186:
	.word	274877907
	.word	.LANCHOR2
	.word	ip_addr_any
	.word	ip_addr_broadcast
.LBE251:
.LBE250:
	.cfi_endproc
.LFE151:
	.size	dhcp_select, .-dhcp_select
	.section	.text.dhcp_recv,"ax",%progbits
	.align	1
	.p2align 2,,3
	.syntax unified
	.thumb
	.thumb_func
	.fpu softvfp
	.type	dhcp_recv, %function
dhcp_recv:
.LFB178:
	.loc 1 1751 0
	.cfi_startproc
	@ args = 4, pretend = 0, frame = 40
	@ frame_needed = 0, uses_anonymous_args = 0
.LVL188:
	.loc 1 1752 0
	ldr	r3, .L346
.LVL189:
	.loc 1 1751 0
	push	{r4, r5, r6, r7, r8, r9, r10, fp, lr}
	.cfi_def_cfa_offset 36
	.cfi_offset 4, -36
	.cfi_offset 5, -32
	.cfi_offset 6, -28
	.cfi_offset 7, -24
	.cfi_offset 8, -20
	.cfi_offset 9, -16
	.cfi_offset 10, -12
	.cfi_offset 11, -8
	.cfi_offset 14, -4
	.loc 1 1752 0
	ldr	r5, [r3, #4]
.LVL190:
	.loc 1 1751 0
	sub	sp, sp, #44
	.cfi_def_cfa_offset 80
	.loc 1 1753 0
	ldr	r7, [r5, #32]
.LVL191:
	.loc 1 1751 0
	mov	fp, r2
	.loc 1 1761 0
	cbz	r7, .L189
	.loc 1 1761 0 discriminator 1
	ldrb	r3, [r7, #8]	@ zero_extendqisi2
	cbnz	r3, .L336
.LVL192:
.L238:
	.loc 1 1861 0
	movs	r3, #0
	str	r3, [r7, #4]
.L189:
	.loc 1 1863 0
	mov	r0, fp
	bl	pbuf_free
.LVL193:
	.loc 1 1864 0
	add	sp, sp, #44
	.cfi_remember_state
	.cfi_def_cfa_offset 36
	@ sp needed
	pop	{r4, r5, r6, r7, r8, r9, r10, fp, pc}
.LVL194:
.L336:
	.cfi_restore_state
	.loc 1 1778 0
	ldrh	r3, [r2, #10]
	cmp	r3, #43
	bls	.L238
	.loc 1 1754 0
	ldr	r3, [r2, #4]
	.loc 1 1783 0
	ldrb	r2, [r3]	@ zero_extendqisi2
.LVL195:
	cmp	r2, #2
	bne	.L238
.LVL196:
	.loc 1 1788 0 discriminator 1
	ldrb	r2, [r5, #48]	@ zero_extendqisi2
	cbz	r2, .L191
	.loc 1 1789 0
	ldrb	r0, [r5, #49]	@ zero_extendqisi2
.LVL197:
	ldrb	r1, [r3, #28]	@ zero_extendqisi2
.LVL198:
	cmp	r0, r1
	bne	.L238
.LVL199:
	.loc 1 1788 0
	cmp	r2, #1
	bls	.L191
	.loc 1 1789 0
	ldrb	r0, [r3, #29]	@ zero_extendqisi2
	ldrb	r1, [r5, #50]	@ zero_extendqisi2
	cmp	r0, r1
	bne	.L238
.LVL200:
	.loc 1 1788 0
	cmp	r2, #2
	beq	.L191
	.loc 1 1789 0
	ldrb	r0, [r3, #30]	@ zero_extendqisi2
	ldrb	r1, [r5, #51]	@ zero_extendqisi2
	cmp	r0, r1
	bne	.L238
.LVL201:
	.loc 1 1788 0
	cmp	r2, #3
	beq	.L191
	.loc 1 1789 0
	ldrb	r0, [r3, #31]	@ zero_extendqisi2
	ldrb	r1, [r5, #52]	@ zero_extendqisi2
	cmp	r0, r1
	bne	.L238
.LVL202:
	.loc 1 1788 0
	cmp	r2, #4
	beq	.L191
	.loc 1 1789 0
	ldrb	r0, [r3, #32]	@ zero_extendqisi2
	ldrb	r1, [r5, #53]	@ zero_extendqisi2
	cmp	r0, r1
	bne	.L238
.LVL203:
	.loc 1 1788 0
	cmp	r2, #5
	beq	.L191
	.loc 1 1789 0
	ldrb	r1, [r3, #33]	@ zero_extendqisi2
	ldrb	r2, [r5, #54]	@ zero_extendqisi2
	cmp	r1, r2
	bne	.L238
.LVL204:
.L191:
	.loc 1 1797 0
	ldr	r0, [r3, #4]	@ unaligned
	bl	lwip_htonl
.LVL205:
	ldr	r3, [r7]
	cmp	r0, r3
	bne	.L238
.LVL206:
.LBB267:
.LBB268:
	.loc 1 1544 0
	movs	r2, #0
	ldr	r3, .L346+4
	ldr	r1, .L346+4
	str	r2, [r3, #4]	@ unaligned
	strh	r2, [r3, #8]	@ unaligned
	.loc 1 1546 0
	ldrh	r3, [fp, #10]
	.loc 1 1544 0
	str	r2, [r1]	@ unaligned
	.loc 1 1546 0
	cmp	r3, #43
	bls	.L238
	.loc 1 1541 0
	str	r2, [sp, #20]
	.loc 1 1560 0
	ldrh	r2, [fp, #8]
	.loc 1 1549 0
	ldr	r1, [fp, #4]
	.loc 1 1560 0
	str	r2, [sp, #4]
	.loc 1 1558 0
	movs	r2, #240
	str	fp, [sp, #12]
	mov	fp, r2
.LVL207:
	.loc 1 1549 0
	str	r1, [r7, #4]
.LVL208:
	str	r5, [sp, #28]
	str	r7, [sp, #16]
.LVL209:
.L193:
	.loc 1 1558 0
	ldr	r6, [sp, #12]
	ldr	r2, [sp, #4]
	b	.L194
.LVL210:
.L338:
	ldrh	r3, [r6, #10]
.LVL211:
.L194:
	.loc 1 1563 0
	cmp	r3, fp
	.loc 1 1564 0
	sub	r0, fp, r3
	.loc 1 1565 0
	sub	r1, r2, r3
	.loc 1 1563 0
	bhi	.L337
	.loc 1 1566 0
	ldr	r6, [r6]
.LVL212:
	.loc 1 1564 0
	uxth	fp, r0
.LVL213:
	.loc 1 1565 0
	uxth	r2, r1
.LVL214:
	.loc 1 1563 0
	cmp	r6, #0
	bne	.L338
.L223:
.LVL215:
.L327:
	ldr	r7, [sp, #16]
	ldr	fp, [sp, #12]
	b	.L238
.LVL216:
.L337:
	str	r2, [sp, #4]
.LVL217:
	.loc 1 1575 0
	ldr	r1, [sp, #4]
	.loc 1 1573 0
	ldr	r2, [r6, #4]
.LVL218:
	.loc 1 1575 0
	cmp	fp, r1
	.loc 1 1573 0
	str	r2, [sp, #8]
.LVL219:
	.loc 1 1575 0
	bcs	.L229
	ldrb	r2, [r2, fp]	@ zero_extendqisi2
.LVL220:
	mov	r1, fp
	cmp	r2, #255
	beq	.L229
	mov	r4, fp
	str	fp, [sp]
	str	fp, [sp, #24]
.LVL221:
.L242:
.LBB269:
	.loc 1 1580 0
	mov	r0, r4
	.loc 1 1582 0
	adds	r0, r0, #1
	.loc 1 1580 0
	add	r10, r4, #2
	.loc 1 1582 0
	cmp	r0, r3
	.loc 1 1580 0
	uxth	r10, r10
.LVL222:
	.loc 1 1582 0
	bge	.L198
	.loc 1 1583 0
	ldr	r4, [sp, #8]
	add	r1, r1, r4
	ldrb	r4, [r1, #1]	@ zero_extendqisi2
.LVL223:
.L199:
	.loc 1 1589 0
	cmp	r2, #59
	bhi	.L243
	tbh	[pc, r2, lsl #1]
.L244:
	.2byte	(.L201-.L244)/2
	.2byte	(.L203-.L244)/2
	.2byte	(.L243-.L244)/2
	.2byte	(.L205-.L244)/2
	.2byte	(.L243-.L244)/2
	.2byte	(.L243-.L244)/2
	.2byte	(.L206-.L244)/2
	.2byte	(.L243-.L244)/2
	.2byte	(.L243-.L244)/2
	.2byte	(.L243-.L244)/2
	.2byte	(.L243-.L244)/2
	.2byte	(.L243-.L244)/2
	.2byte	(.L243-.L244)/2
	.2byte	(.L243-.L244)/2
	.2byte	(.L243-.L244)/2
	.2byte	(.L243-.L244)/2
	.2byte	(.L243-.L244)/2
	.2byte	(.L243-.L244)/2
	.2byte	(.L243-.L244)/2
	.2byte	(.L243-.L244)/2
	.2byte	(.L243-.L244)/2
	.2byte	(.L243-.L244)/2
	.2byte	(.L243-.L244)/2
	.2byte	(.L243-.L244)/2
	.2byte	(.L243-.L244)/2
	.2byte	(.L243-.L244)/2
	.2byte	(.L243-.L244)/2
	.2byte	(.L243-.L244)/2
	.2byte	(.L243-.L244)/2
	.2byte	(.L243-.L244)/2
	.2byte	(.L243-.L244)/2
	.2byte	(.L243-.L244)/2
	.2byte	(.L243-.L244)/2
	.2byte	(.L243-.L244)/2
	.2byte	(.L243-.L244)/2
	.2byte	(.L243-.L244)/2
	.2byte	(.L243-.L244)/2
	.2byte	(.L243-.L244)/2
	.2byte	(.L243-.L244)/2
	.2byte	(.L243-.L244)/2
	.2byte	(.L243-.L244)/2
	.2byte	(.L243-.L244)/2
	.2byte	(.L243-.L244)/2
	.2byte	(.L243-.L244)/2
	.2byte	(.L243-.L244)/2
	.2byte	(.L243-.L244)/2
	.2byte	(.L243-.L244)/2
	.2byte	(.L243-.L244)/2
	.2byte	(.L243-.L244)/2
	.2byte	(.L243-.L244)/2
	.2byte	(.L243-.L244)/2
	.2byte	(.L208-.L244)/2
	.2byte	(.L209-.L244)/2
	.2byte	(.L210-.L244)/2
	.2byte	(.L211-.L244)/2
	.2byte	(.L243-.L244)/2
	.2byte	(.L243-.L244)/2
	.2byte	(.L243-.L244)/2
	.2byte	(.L212-.L244)/2
	.2byte	(.L213-.L244)/2
	.p2align 1
.L210:
	.loc 1 1637 0
	cmp	r4, #1
	bne	.L327
.LVL224:
	.loc 1 1638 0
	mov	fp, r4
	.loc 1 1657 0
	ldr	r3, [sp]
	adds	r3, r3, #3
.LVL225:
	uxth	r3, r3
	str	r3, [sp]
.LVL226:
.L204:
.LBB270:
	.loc 1 1659 0
	movs	r2, #0
	.loc 1 1663 0
	ldr	r3, .L346+4
	.loc 1 1659 0
	str	r2, [sp, #36]
	.loc 1 1663 0
	ldrb	r3, [r3, fp]	@ zero_extendqisi2
	cmp	r3, #0
	bne	.L215
	ldr	r3, .L346+4
	mov	r5, fp
	add	r8, r3, fp
	ldr	r3, .L346+8
	add	r9, r3, fp, lsl #2
	b	.L219
.LVL227:
.L339:
	.loc 1 1668 0
	cmp	r4, #4
	bls	.L218
	.loc 1 1670 0
	lsls	r2, r4, #30
	bne	.L327
	.loc 1 1671 0
	mov	r3, #1
	.loc 1 1672 0
	ldr	r0, [sp, #36]
	.loc 1 1671 0
	strb	r3, [r8]
	.loc 1 1672 0
	bl	lwip_htonl
.LVL228:
	.loc 1 1663 0
	ldrb	r3, [r8, #1]!	@ zero_extendqisi2
	.loc 1 1673 0
	subs	r4, r4, #4
.LVL229:
	.loc 1 1675 0
	adds	r5, r5, #1
.LVL230:
	.loc 1 1672 0
	str	r0, [r9], #4
	.loc 1 1673 0
	uxtb	r4, r4
.LDL1:
.LVL231:
	.loc 1 1663 0
	cmp	r3, #0
	bne	.L215
.L219:
	cmp	r4, #4
	mov	r7, r4
	it	cs
	movcs	r7, #4
	sub	r3, r5, fp
	add	r3, r10, r3, lsl #2
.LVL232:
	.loc 1 1665 0
	uxth	r3, r3
	mov	r2, r7
	add	r1, sp, #36
	mov	r0, r6
	bl	pbuf_copy_partial
.LVL233:
	cmp	r0, r7
	beq	.L339
	b	.L327
.LVL234:
.L209:
.LBE270:
	.loc 1 1631 0
	cmp	r4, #1
	bne	.L327
	.loc 1 1633 0
	ldr	r3, [sp, #24]
	cmp	r3, #240
	bne	.L327
.LVL235:
	.loc 1 1657 0
	ldr	r3, [sp]
	.loc 1 1634 0
	mov	fp, #0
	.loc 1 1657 0
	adds	r3, r3, #3
.LVL236:
	uxth	r3, r3
	str	r3, [sp]
	b	.L204
.LVL237:
.L208:
	.loc 1 1617 0
	cmp	r4, #4
	bne	.L327
.LVL238:
	.loc 1 1657 0
	ldr	r3, [sp]
	.loc 1 1618 0
	mov	fp, #3
	.loc 1 1657 0
	adds	r3, r3, #6
.LVL239:
	uxth	r3, r3
	str	r3, [sp]
	b	.L204
.LVL240:
.L253:
	.loc 1 1585 0
	movs	r4, #0
.LVL241:
.L206:
	.loc 1 1609 0
	lsls	r1, r4, #30
	bne	.L327
	.loc 1 1611 0
	cmp	r4, #8
	mov	r2, r4
.LVL242:
	it	cs
	movcs	r2, #8
.LVL243:
	.loc 1 1612 0
	cmp	r4, r2
	bcc	.L327
.LVL244:
	.loc 1 1657 0
	add	r4, r4, r10
.LVL245:
	uxth	r1, r4
.LVL246:
	str	r1, [sp]
	.loc 1 1658 0
	cbz	r2, .L202
	mov	r4, r2
	.loc 1 1613 0
	mov	fp, #8
	b	.L204
.L347:
	.align	2
.L346:
	.word	ip_data
	.word	dhcp_rx_options_given
	.word	dhcp_rx_options_val
.LVL247:
.L201:
	.loc 1 1657 0
	uxth	r2, r0
.LVL248:
	mov	r1, r2
	str	r2, [sp]
.LVL249:
.L202:
	.loc 1 1687 0
	cmp	r3, r1
	bhi	.L224
	.loc 1 1688 0
	subs	r2, r1, r3
	.loc 1 1689 0
	ldr	r1, [sp, #4]
	.loc 1 1688 0
	uxth	r2, r2
	.loc 1 1689 0
	subs	r3, r1, r3
	uxth	r3, r3
	.loc 1 1690 0
	cmp	r2, r3
	.loc 1 1688 0
	str	r2, [sp]
.LVL250:
	.loc 1 1689 0
	str	r3, [sp, #4]
.LVL251:
	.loc 1 1690 0
	bcs	.L229
	.loc 1 1691 0
	ldr	r6, [r6]
.LVL252:
	.loc 1 1692 0
	cmp	r6, #0
	beq	.L327
	.loc 1 1693 0
	ldr	r3, [r6, #4]
.LVL253:
	str	r3, [sp, #8]
.LVL254:
.L228:
.LBE269:
	.loc 1 1575 0
	ldr	r3, [sp, #8]
	ldr	r1, [sp]
	mov	r2, r3
	ldrb	r2, [r2, r1]	@ zero_extendqisi2
	cmp	r2, #255
	beq	.L229
	ldrh	r3, [r6, #10]
	mov	r4, r1
	b	.L242
.LVL255:
.L213:
.LBB273:
	.loc 1 1649 0
	cmp	r4, #4
	bne	.L327
.LVL256:
	.loc 1 1657 0
	ldr	r3, [sp]
	.loc 1 1650 0
	mov	fp, #5
	.loc 1 1657 0
	adds	r3, r3, #6
.LVL257:
	uxth	r3, r3
	str	r3, [sp]
	b	.L204
.LVL258:
.L212:
	.loc 1 1645 0
	cmp	r4, #4
	bne	.L327
.LVL259:
	.loc 1 1657 0
	ldr	r3, [sp]
	.loc 1 1646 0
	mov	fp, r4
	.loc 1 1657 0
	adds	r3, r3, #6
.LVL260:
	uxth	r3, r3
	str	r3, [sp]
	b	.L204
.LVL261:
.L211:
	.loc 1 1641 0
	cmp	r4, #4
	bne	.L327
.LVL262:
	.loc 1 1657 0
	ldr	r3, [sp]
	.loc 1 1642 0
	mov	fp, #2
	.loc 1 1657 0
	adds	r3, r3, #6
.LVL263:
	uxth	r3, r3
	str	r3, [sp]
	b	.L204
.LVL264:
.L205:
	.loc 1 1603 0
	cmp	r4, #3
	bls	.L327
.LVL265:
	.loc 1 1657 0
	add	r4, r4, r10
.LVL266:
	uxth	r3, r4
.LVL267:
	str	r3, [sp]
	.loc 1 1604 0
	mov	fp, #7
	.loc 1 1602 0
	movs	r4, #4
	b	.L204
.LVL268:
.L203:
	.loc 1 1598 0
	cmp	r4, #4
	bne	.L327
.LVL269:
	.loc 1 1657 0
	ldr	r3, [sp]
	.loc 1 1599 0
	mov	fp, #6
	.loc 1 1657 0
	adds	r3, r3, #6
.LVL270:
	uxth	r3, r3
	str	r3, [sp]
	b	.L204
.LVL271:
.L251:
	.loc 1 1585 0
	movs	r4, #0
.LVL272:
.L243:
	.loc 1 1657 0
	add	r4, r4, r10
.LVL273:
	uxth	r2, r4
.LVL274:
	str	r2, [sp]
	mov	r1, r2
	b	.L202
.LVL275:
.L198:
	.loc 1 1585 0
	ldr	r1, [r6]
	cmp	r1, #0
	beq	.L200
	ldr	r1, [r1, #4]
	ldrb	r4, [r1]	@ zero_extendqisi2
	b	.L199
.LVL276:
.L224:
.LBE273:
	.loc 1 1575 0
	ldr	r3, [sp, #4]
	cmp	r3, r1
	bhi	.L228
.LVL277:
.L229:
	.loc 1 1701 0
	ldr	r3, .L348
	ldrb	r3, [r3]	@ zero_extendqisi2
	cbz	r3, .L227
.LBB274:
	.loc 1 1703 0
	movs	r2, #0
	.loc 1 1702 0
	ldr	r3, .L348+4
	.loc 1 1703 0
	ldr	r1, .L348
	.loc 1 1702 0
	ldr	r3, [r3]
.LVL278:
	.loc 1 1703 0
	strb	r2, [r1]
	.loc 1 1704 0
	cmp	r3, #1
	beq	.L331
	.loc 1 1707 0
	cmp	r3, #2
	beq	.L245
	.loc 1 1710 0
	cmp	r3, #3
	beq	.L340
.LVL279:
.L227:
.LBE274:
	.loc 1 1737 0
	ldr	r3, [sp, #20]
	cmp	r3, #0
	beq	.L341
.L245:
	.loc 1 1738 0
	movs	r3, #0
	str	r3, [sp, #20]
.LVL280:
	.loc 1 1740 0
	movs	r3, #108
	.loc 1 1739 0
	mov	fp, #44
	.loc 1 1740 0
	str	r3, [sp, #4]
.L231:
	ldr	r3, [sp, #12]
	ldrh	r3, [r3, #10]
	b	.L193
.LVL281:
.L218:
.LBB275:
.LBB271:
	.loc 1 1677 0
	beq	.L342
	.loc 1 1680 0
	cmp	r4, #1
	bne	.L327
	.loc 1 1681 0
	ldrb	r0, [sp, #36]	@ zero_extendqisi2
.L222:
	.loc 1 1683 0
	mov	r2, #1
	ldr	r3, .L348
	strb	r2, [r3, r5]
	.loc 1 1684 0
	ldr	r3, .L348+4
	str	r0, [r3, r5, lsl #2]
.LVL282:
.L215:
	ldrh	r3, [r6, #10]
	ldr	r1, [sp]
	b	.L202
.LVL283:
.L200:
.LBE271:
	.loc 1 1589 0
	cmp	r2, #59
	bhi	.L251
	adr	r1, .L247
	ldr	pc, [r1, r2, lsl #2]
	.p2align 2
.L247:
	.word	.L201+1
	.word	.L327+1
	.word	.L251+1
	.word	.L327+1
	.word	.L251+1
	.word	.L251+1
	.word	.L253+1
	.word	.L251+1
	.word	.L251+1
	.word	.L251+1
	.word	.L251+1
	.word	.L251+1
	.word	.L251+1
	.word	.L251+1
	.word	.L251+1
	.word	.L251+1
	.word	.L251+1
	.word	.L251+1
	.word	.L251+1
	.word	.L251+1
	.word	.L251+1
	.word	.L251+1
	.word	.L251+1
	.word	.L251+1
	.word	.L251+1
	.word	.L251+1
	.word	.L251+1
	.word	.L251+1
	.word	.L251+1
	.word	.L251+1
	.word	.L251+1
	.word	.L251+1
	.word	.L251+1
	.word	.L251+1
	.word	.L251+1
	.word	.L251+1
	.word	.L251+1
	.word	.L251+1
	.word	.L251+1
	.word	.L251+1
	.word	.L251+1
	.word	.L251+1
	.word	.L251+1
	.word	.L251+1
	.word	.L251+1
	.word	.L251+1
	.word	.L251+1
	.word	.L251+1
	.word	.L251+1
	.word	.L251+1
	.word	.L251+1
	.word	.L327+1
	.word	.L327+1
	.word	.L327+1
	.word	.L327+1
	.word	.L251+1
	.word	.L251+1
	.word	.L251+1
	.word	.L327+1
	.word	.L327+1
.LVL284:
	.p2align 1
.L340:
.LBE275:
.LBB276:
	.loc 1 1711 0
	movs	r3, #1
.LVL285:
	str	r3, [sp, #20]
.LVL286:
.L331:
.LBE276:
	.loc 1 1735 0
	movs	r3, #236
	.loc 1 1734 0
	mov	fp, #108
	.loc 1 1735 0
	str	r3, [sp, #4]
	b	.L231
.LVL287:
.L342:
.LBB277:
.LBB272:
	.loc 1 1678 0
	ldr	r0, [sp, #36]
	bl	lwip_htonl
.LVL288:
	b	.L222
.LVL289:
.L341:
.LBE272:
.LBE277:
.LBE268:
.LBE267:
	.loc 1 1811 0
	ldr	r3, .L348
	ldr	r5, [sp, #28]
	ldrb	r3, [r3, #1]	@ zero_extendqisi2
	ldr	r7, [sp, #16]
	ldr	fp, [sp, #12]
	cmp	r3, #0
	beq	.L238
	.loc 1 1817 0
	ldr	r2, .L348+4
	ldrb	r3, [r2, #4]	@ zero_extendqisi2
.LVL290:
	.loc 1 1819 0
	cmp	r3, #5
	beq	.L343
	.loc 1 1845 0
	cmp	r3, #6
	beq	.L344
	.loc 1 1852 0
	cmp	r3, #2
	bne	.L238
	.loc 1 1852 0 is_stmt 0 discriminator 1
	ldrb	r3, [r7, #9]	@ zero_extendqisi2
.LVL291:
	cmp	r3, #6
	bne	.L238
.LBB278:
.LBB279:
	.loc 1 334 0 is_stmt 1
	ldr	r3, .L348
.LBE279:
.LBE278:
	.loc 1 1854 0
	ldrh	r1, [sp, #20]
.LBB282:
.LBB280:
	.loc 1 334 0
	ldrb	r3, [r3, #2]	@ zero_extendqisi2
.LBE280:
.LBE282:
	.loc 1 1854 0
	strh	r1, [r7, #22]	@ movhi
.LVL292:
.LBB283:
.LBB281:
	.loc 1 329 0
	ldr	r4, [r5, #32]
.LVL293:
	.loc 1 334 0
	cmp	r3, #0
	beq	.L238
	.loc 1 335 0
	ldr	r0, [r2, #8]
	bl	lwip_htonl
.LVL294:
	.loc 1 339 0
	ldr	r3, [r4, #4]
	.loc 1 335 0
	str	r0, [r4, #36]
	.loc 1 339 0
	ldr	r3, [r3, #16]	@ unaligned
	.loc 1 343 0
	mov	r0, r5
	.loc 1 339 0
	str	r3, [r4, #40]
	.loc 1 343 0
	bl	dhcp_select
.LVL295:
	b	.L238
.LVL296:
.L343:
.LBE281:
.LBE283:
	.loc 1 1822 0
	ldrb	r3, [r7, #9]	@ zero_extendqisi2
.LVL297:
	cmp	r3, #1
	beq	.L345
	.loc 1 1838 0
	subs	r3, r3, #3
	cmp	r3, #2
	bhi	.L238
	.loc 1 1840 0
	ldr	r0, [r5, #32]
	bl	dhcp_handle_ack.isra.6
.LVL298:
.L332:
	.loc 1 1841 0
	mov	r0, r5
	bl	dhcp_bind
.LVL299:
	b	.L238
.LVL300:
.L344:
	.loc 1 1846 0 discriminator 1
	ldrb	r3, [r7, #9]	@ zero_extendqisi2
.LVL301:
	.loc 1 1845 0 discriminator 1
	subs	r2, r3, #3
	cmp	r2, #2
	bls	.L240
	.loc 1 1846 0
	cmp	r3, #1
	bne	.L238
.L240:
.LVL302:
.LBB284:
.LBB285:
	.loc 1 274 0
	ldr	r3, [r5, #32]
.LVL303:
.LBB286:
.LBB287:
	.loc 1 1449 0
	ldrb	r2, [r3, #9]	@ zero_extendqisi2
	cmp	r2, #12
	beq	.L241
	.loc 1 1451 0
	movs	r2, #0
	.loc 1 1450 0
	movs	r1, #12
	.loc 1 1451 0
	strb	r2, [r3, #10]
.LVL304:
	.loc 1 1450 0
	strb	r1, [r3, #9]
	.loc 1 1452 0
	strh	r2, [r3, #22]	@ movhi
.L241:
.LVL305:
.LBE287:
.LBE286:
	.loc 1 282 0
	ldr	r3, .L348+8
.LVL306:
	mov	r0, r5
	mov	r2, r3
	mov	r1, r3
	bl	netif_set_addr
.LVL307:
	.loc 1 284 0
	mov	r0, r5
	bl	dhcp_discover
.LVL308:
	b	.L238
.LVL309:
.L345:
.LBE285:
.LBE284:
	.loc 1 1823 0
	ldr	r0, [r5, #32]
	bl	dhcp_handle_ack.isra.6
.LVL310:
	.loc 1 1825 0
	ldrb	r3, [r5, #55]	@ zero_extendqisi2
	lsls	r3, r3, #28
	bpl	.L332
.LVL311:
.LBB288:
.LBB289:
	.loc 1 300 0
	ldr	r4, [r5, #32]
.LVL312:
.LBB290:
.LBB291:
	.loc 1 1449 0
	ldrb	r3, [r4, #9]	@ zero_extendqisi2
	cmp	r3, #8
	beq	.L236
	.loc 1 1450 0
	movs	r3, #8
	.loc 1 1451 0
	ldr	r1, [sp, #20]
	.loc 1 1450 0
	strb	r3, [r4, #9]
	.loc 1 1451 0
	strb	r1, [r4, #10]
	.loc 1 1452 0
	strh	r1, [r4, #22]	@ movhi
.L236:
.LVL313:
.LBE291:
.LBE290:
	.loc 1 308 0
	mov	r0, r5
	movs	r2, #0
	add	r1, r4, #40
	bl	etharp_query
.LVL314:
	.loc 1 312 0
	ldrb	r3, [r4, #10]	@ zero_extendqisi2
	cmp	r3, #255
	.loc 1 313 0
	itt	ne
	addne	r3, r3, #1
	strbne	r3, [r4, #10]
.LVL315:
	.loc 1 316 0
	movs	r3, #1
	strh	r3, [r4, #22]	@ movhi
	b	.L238
.L349:
	.align	2
.L348:
	.word	dhcp_rx_options_given
	.word	dhcp_rx_options_val
	.word	ip_addr_any
.LBE289:
.LBE288:
	.cfi_endproc
.LFE178:
	.size	dhcp_recv, .-dhcp_recv
	.section	.text.dhcp_reboot,"ax",%progbits
	.align	1
	.p2align 2,,3
	.syntax unified
	.thumb
	.thumb_func
	.fpu softvfp
	.type	dhcp_reboot, %function
dhcp_reboot:
.LFB169:
	.loc 1 1298 0
	.cfi_startproc
	@ args = 0, pretend = 0, frame = 0
	@ frame_needed = 0, uses_anonymous_args = 0
.LVL316:
	push	{r4, r5, r6, r7, r8, r9, r10, fp, lr}
	.cfi_def_cfa_offset 36
	.cfi_offset 4, -36
	.cfi_offset 5, -32
	.cfi_offset 6, -28
	.cfi_offset 7, -24
	.cfi_offset 8, -20
	.cfi_offset 9, -16
	.cfi_offset 10, -12
	.cfi_offset 11, -8
	.cfi_offset 14, -4
	.loc 1 1299 0
	ldr	r4, [r0, #32]
.LVL317:
	.loc 1 1298 0
	sub	sp, sp, #12
	.cfi_def_cfa_offset 48
.LBB292:
.LBB293:
	.loc 1 1449 0
	ldrb	r3, [r4, #9]	@ zero_extendqisi2
.LBE293:
.LBE292:
	.loc 1 1298 0
	mov	r5, r0
.LBB295:
.LBB294:
	.loc 1 1449 0
	cmp	r3, #3
	beq	.L351
	.loc 1 1451 0
	movs	r3, #0
	.loc 1 1450 0
	movs	r2, #3
	.loc 1 1451 0
	strb	r3, [r4, #10]
	.loc 1 1450 0
	strb	r2, [r4, #9]
	.loc 1 1452 0
	strh	r3, [r4, #22]	@ movhi
.L351:
.LVL318:
.LBE294:
.LBE295:
	.loc 1 1307 0
	mov	r1, r4
	mov	r0, r5
.LVL319:
	bl	dhcp_create_msg.constprop.7
.LVL320:
	.loc 1 1308 0
	mov	r6, r0
	cbz	r0, .L367
.LVL321:
.L352:
	.loc 1 1335 0
	ldrb	r3, [r4, #10]	@ zero_extendqisi2
	cmp	r3, #255
	beq	.L358
	.loc 1 1336 0
	adds	r3, r3, #1
	uxtb	r3, r3
	.loc 1 1338 0
	cmp	r3, #9
	.loc 1 1336 0
	strb	r3, [r4, #10]
	.loc 1 1338 0
	bhi	.L358
	.loc 1 1342 0 discriminator 1
	mov	r0, r6
	.loc 1 1338 0 discriminator 1
	rsb	r2, r3, r3, lsl #5
	add	r3, r3, r2, lsl #2
	lsls	r3, r3, #3
	ldr	r2, .L368
	uxth	r3, r3
	addw	r3, r3, #499
	umull	r2, r3, r2, r3
	ubfx	r3, r3, #5, #16
	.loc 1 1339 0 discriminator 1
	strh	r3, [r4, #22]	@ movhi
	.loc 1 1342 0 discriminator 1
	add	sp, sp, #12
	.cfi_remember_state
	.cfi_def_cfa_offset 36
	@ sp needed
	pop	{r4, r5, r6, r7, r8, r9, r10, fp, pc}
.LVL322:
.L358:
	.cfi_restore_state
	.loc 1 1298 0
	movs	r3, #20
	.loc 1 1342 0
	mov	r0, r6
	.loc 1 1339 0
	strh	r3, [r4, #22]	@ movhi
	.loc 1 1342 0
	add	sp, sp, #12
	.cfi_remember_state
	.cfi_def_cfa_offset 36
	@ sp needed
	pop	{r4, r5, r6, r7, r8, r9, r10, fp, pc}
.LVL323:
.L367:
	.cfi_restore_state
.LBB296:
.LBB297:
	.loc 1 1466 0
	mov	lr, #2
	.loc 1 1465 0
	mov	r9, #57
.LBE297:
.LBE296:
.LBB299:
.LBB300:
	.loc 1 1484 0
	mov	ip, #64
.LBE300:
.LBE299:
.LBB303:
.LBB304:
	.loc 1 1466 0
	movs	r7, #4
	.loc 1 1465 0
	movs	r0, #50
.LVL324:
.LBE304:
.LBE303:
.LBB307:
.LBB298:
	.loc 1 1464 0
	ldrh	r2, [r4, #20]
	ldr	r3, [r4, #16]
.LVL325:
	.loc 1 1465 0
	adds	r1, r2, #1
	add	r8, r3, r2
	.loc 1 1466 0
	uxtah	r1, r3, r1
	add	r2, r2, lr
	.loc 1 1465 0
	strb	r9, [r8, #240]
	.loc 1 1466 0
	strh	r2, [r4, #20]	@ movhi
	strb	lr, [r1, #240]
.LVL326:
.LBE298:
.LBE307:
.LBB308:
.LBB301:
	.loc 1 1482 0
	ldrh	r2, [r4, #20]
.LBE301:
.LBE308:
.LBB309:
.LBB310:
	.loc 1 1476 0
	mov	r9, #1
.LBE310:
.LBE309:
.LBB316:
.LBB302:
	.loc 1 1483 0
	adds	r1, r3, r2
	strb	lr, [r1, #240]
	adds	r1, r2, #1
	.loc 1 1484 0
	uxtah	r1, r3, r1
	add	r2, r2, lr
	strh	r2, [r4, #20]	@ movhi
	strb	ip, [r1, #240]
.LVL327:
.LBE302:
.LBE316:
.LBB317:
.LBB305:
	.loc 1 1464 0
	ldrh	r2, [r4, #20]
.LBE305:
.LBE317:
.LBB318:
.LBB311:
	.loc 1 1476 0
	mov	r8, #3
.LBE311:
.LBE318:
.LBB319:
.LBB306:
	.loc 1 1465 0
	adds	r1, r2, #1
	add	ip, r3, r2
	.loc 1 1466 0
	uxtah	r3, r3, r1
	add	r2, r2, lr
	.loc 1 1465 0
	strb	r0, [ip, #240]
	.loc 1 1466 0
	strh	r2, [r4, #20]	@ movhi
	strb	r7, [r3, #240]
.LVL328:
.LBE306:
.LBE319:
	.loc 1 1313 0
	ldr	r0, [r4, #40]
	bl	lwip_htonl
.LVL329:
.LBB320:
.LBB321:
	.loc 1 1465 0
	mov	r10, #55
.LBE321:
.LBE320:
.LBB323:
.LBB312:
	.loc 1 1476 0
	mov	lr, #28
.LBE312:
.LBE323:
.LBB324:
.LBB325:
	.loc 1 1490 0
	ldrh	r2, [r4, #20]
	ldr	r3, [r4, #16]
.LVL330:
.LBE325:
.LBE324:
.LBB327:
.LBB313:
	.loc 1 1476 0
	mov	ip, #6
.LBE313:
.LBE327:
.LBB328:
.LBB326:
	.loc 1 1491 0
	lsr	fp, r0, #24
	adds	r1, r3, r2
	strb	fp, [r1, #240]
	add	r1, r2, r9
	.loc 1 1492 0
	lsr	fp, r0, #16
	uxtah	r1, r3, r1
	strb	fp, [r1, #240]
	adds	r1, r2, #2
	.loc 1 1493 0
	uxtah	r1, r3, r1
	lsr	fp, r0, #8
	strb	fp, [r1, #240]
	add	r1, r2, r8
	.loc 1 1494 0
	uxtah	r1, r3, r1
	add	r2, r2, r7
	strh	r2, [r4, #20]	@ movhi
	strb	r0, [r1, #240]
.LVL331:
.LBE326:
.LBE328:
.LBB329:
.LBB322:
	.loc 1 1464 0
	ldrh	r2, [r4, #20]
	.loc 1 1465 0
	adds	r1, r3, r2
	strb	r10, [r1, #240]
	add	r1, r2, r9
	.loc 1 1466 0
	uxtah	r1, r3, r1
	adds	r2, r2, #2
	strh	r2, [r4, #20]	@ movhi
	strb	r7, [r1, #240]
.LVL332:
.LBE322:
.LBE329:
.LBB330:
.LBB314:
	.loc 1 1475 0
	ldrh	r2, [r4, #20]
	.loc 1 1476 0
	add	r1, r2, r9
	add	r2, r2, r3
	strh	r1, [r4, #20]	@ movhi
	strb	r9, [r2, #240]
.LVL333:
	.loc 1 1475 0
	ldrh	r2, [r4, #20]
	.loc 1 1476 0
	add	r1, r2, r9
	add	r2, r2, r3
	strh	r1, [r4, #20]	@ movhi
	strb	r8, [r2, #240]
.LVL334:
	.loc 1 1475 0
	ldrh	r2, [r4, #20]
	.loc 1 1476 0
	add	r1, r2, r9
	add	r2, r2, r3
	strh	r1, [r4, #20]	@ movhi
	strb	lr, [r2, #240]
.LVL335:
	.loc 1 1475 0
	ldrh	r2, [r4, #20]
	.loc 1 1476 0
	add	r1, r2, r9
	uxth	r0, r1
.LBE314:
.LBE330:
.LBB331:
.LBB332:
	.loc 1 2007 0
	adds	r1, r2, #2
.LBE332:
.LBE331:
.LBB334:
.LBB315:
	.loc 1 1476 0
	add	r2, r2, r3
	strb	ip, [r2, #240]
.LVL336:
.LBE315:
.LBE334:
.LBB335:
.LBB333:
	.loc 1 2007 0
	mov	r2, #-1
	uxth	r1, r1
	adds	r7, r3, r0
	.loc 1 2009 0
	cmp	r1, #67
	.loc 1 2007 0
	strh	r1, [r4, #20]	@ movhi
	strb	r2, [r7, #240]
	.loc 1 2009 0
	bhi	.L353
	mov	r2, r1
	.loc 1 2012 0
	mov	lr, r6
.L354:
	add	ip, r2, #1
	adds	r7, r3, r2
	uxth	r2, ip
	.loc 1 2009 0
	cmp	r2, #68
	.loc 1 2012 0
	strb	lr, [r7, #240]
	.loc 1 2009 0
	bne	.L354
	subs	r1, r1, r0
	adds	r1, r1, #67
	uxth	r1, r1
	strh	r1, [r4, #20]	@ movhi
.L353:
.LVL337:
.LBE333:
.LBE335:
	.loc 1 1326 0
	adds	r1, r1, #240
	uxth	r1, r1
	ldr	r0, [r4, #12]
	bl	pbuf_realloc
.LVL338:
	.loc 1 1329 0
	ldr	r3, .L368+4
	ldr	r1, [r4, #12]
	ldr	r0, [r3]
	ldr	r2, .L368+8
	str	r5, [sp]
	movs	r3, #67
	bl	udp_sendto_if
.LVL339:
.LBB336:
.LBB337:
	.loc 1 1984 0
	ldr	r0, [r4, #12]
	.loc 1 1986 0
	cbz	r0, .L355
	.loc 1 1987 0
	bl	pbuf_free
.LVL340:
.L355:
	.loc 1 1989 0
	movs	r3, #0
	str	r3, [r4, #12]
	.loc 1 1990 0
	str	r3, [r4, #16]
	b	.L352
.L369:
	.align	2
.L368:
	.word	274877907
	.word	.LANCHOR2
	.word	ip_addr_broadcast
.LBE337:
.LBE336:
	.cfi_endproc
.LFE169:
	.size	dhcp_reboot, .-dhcp_reboot
	.section	.text.dhcp_set_struct,"ax",%progbits
	.align	1
	.p2align 2,,3
	.global	dhcp_set_struct
	.syntax unified
	.thumb
	.thumb_func
	.fpu softvfp
	.type	dhcp_set_struct, %function
dhcp_set_struct:
.LFB158:
	.loc 1 701 0
	.cfi_startproc
	@ args = 0, pretend = 0, frame = 0
	@ frame_needed = 0, uses_anonymous_args = 0
.LVL341:
	push	{r3, r4, r5, lr}
	.cfi_def_cfa_offset 16
	.cfi_offset 3, -16
	.cfi_offset 4, -12
	.cfi_offset 5, -8
	.cfi_offset 14, -4
	.loc 1 701 0
	mov	r4, r1
	mov	r5, r0
	.loc 1 707 0
	movs	r2, #72
	mov	r0, r1
.LVL342:
	movs	r1, #0
.LVL343:
	bl	memset
.LVL344:
	.loc 1 709 0
	str	r4, [r5, #32]
	pop	{r3, r4, r5, pc}
	.cfi_endproc
.LFE158:
	.size	dhcp_set_struct, .-dhcp_set_struct
	.section	.text.dhcp_cleanup,"ax",%progbits
	.align	1
	.p2align 2,,3
	.global	dhcp_cleanup
	.syntax unified
	.thumb
	.thumb_func
	.fpu softvfp
	.type	dhcp_cleanup, %function
dhcp_cleanup:
.LFB159:
	.loc 1 722 0
	.cfi_startproc
	@ args = 0, pretend = 0, frame = 0
	@ frame_needed = 0, uses_anonymous_args = 0
.LVL345:
	.loc 1 725 0
	ldr	r3, [r0, #32]
	cbz	r3, .L378
	.loc 1 722 0
	push	{r4, lr}
	.cfi_def_cfa_offset 8
	.cfi_offset 4, -8
	.cfi_offset 14, -4
	mov	r4, r0
	.loc 1 726 0
	mov	r0, r3
.LVL346:
	bl	mem_free
.LVL347:
	.loc 1 727 0
	movs	r3, #0
	str	r3, [r4, #32]
	pop	{r4, pc}
.LVL348:
.L378:
	.cfi_def_cfa_offset 0
	.cfi_restore 4
	.cfi_restore 14
	bx	lr
	.cfi_endproc
.LFE159:
	.size	dhcp_cleanup, .-dhcp_cleanup
	.section	.text.dhcp_start,"ax",%progbits
	.align	1
	.p2align 2,,3
	.global	dhcp_start
	.syntax unified
	.thumb
	.thumb_func
	.fpu softvfp
	.type	dhcp_start, %function
dhcp_start:
.LFB160:
	.loc 1 746 0
	.cfi_startproc
	@ args = 0, pretend = 0, frame = 0
	@ frame_needed = 0, uses_anonymous_args = 0
.LVL349:
	.loc 1 750 0
	cmp	r0, #0
	beq	.L394
	.loc 1 746 0
	push	{r3, r4, r5, r6, r7, r8, r9, lr}
	.cfi_def_cfa_offset 32
	.cfi_offset 3, -32
	.cfi_offset 4, -28
	.cfi_offset 5, -24
	.cfi_offset 6, -20
	.cfi_offset 7, -16
	.cfi_offset 8, -12
	.cfi_offset 9, -8
	.cfi_offset 14, -4
	.loc 1 751 0
	ldrb	r3, [r0, #55]	@ zero_extendqisi2
	lsls	r3, r3, #31
	bpl	.L395
	.loc 1 756 0
	ldrh	r3, [r0, #46]
	.loc 1 752 0
	ldr	r5, [r0, #32]
.LVL350:
	.loc 1 756 0
	cmp	r3, #576
	bcc	.L385
	.loc 1 762 0
	movs	r3, #0
	ldr	r8, .L431+16
	mov	r4, r0
	strb	r3, [r8]
	.loc 1 766 0
	cmp	r5, #0
	beq	.L424
	.loc 1 783 0
	ldrb	r3, [r5, #8]	@ zero_extendqisi2
.LBB354:
.LBB355:
	.loc 1 250 0
	ldr	r6, .L431
.LBE355:
.LBE354:
	.loc 1 783 0
	cbnz	r3, .L425
.L388:
	.loc 1 789 0
	ldr	r0, [r5, #40]
.LVL351:
	bl	lwip_htonl
.LVL352:
	cbnz	r0, .L426
.L386:
	.loc 1 807 0
	bl	sys_now
.LVL353:
	bl	srand
.LVL354:
	.loc 1 812 0
	movs	r2, #72
	movs	r1, #0
	mov	r0, r5
	bl	memset
.LVL355:
.LBB362:
.LBB363:
	.loc 1 223 0
	ldrb	r7, [r6]	@ zero_extendqisi2
	cbz	r7, .L427
.L391:
.LBE363:
.LBE362:
	.loc 1 820 0
	movs	r3, #1
.LBB367:
.LBB364:
	.loc 1 241 0
	add	r7, r7, r3
.LBE364:
.LBE367:
	.loc 1 820 0
	strb	r3, [r5, #8]
.LBB368:
.LBB365:
	.loc 1 241 0
	strb	r7, [r6]
.LBE365:
.LBE368:
	.loc 1 832 0
	bl	sys_now
.LVL356:
	str	r0, [r5, #68]
	.loc 1 833 0
	mov	r0, r4
	bl	dhcp_discover
.LVL357:
	.loc 1 834 0
	cmp	r0, #0
	bne	.L428
.LVL358:
.L382:
	.loc 1 840 0
	pop	{r3, r4, r5, r6, r7, r8, r9, pc}
.LVL359:
.L425:
.LBB369:
.LBB360:
	.loc 1 251 0
	ldrb	r7, [r6]	@ zero_extendqisi2
	subs	r7, r7, #1
	uxtb	r7, r7
	strb	r7, [r6]
	.loc 1 253 0
	cmp	r7, #0
	bne	.L388
.LBB356:
.LBB357:
	.loc 1 254 0
	ldr	r9, .L431+12
	ldr	r0, [r9]
.LVL360:
	bl	udp_remove
.LVL361:
.LBE357:
.LBE356:
.LBE360:
.LBE369:
	.loc 1 789 0
	ldr	r0, [r5, #40]
.LBB370:
.LBB361:
.LBB359:
.LBB358:
	.loc 1 255 0
	str	r7, [r9]
.LBE358:
.LBE359:
.LBE361:
.LBE370:
	.loc 1 789 0
	bl	lwip_htonl
.LVL362:
	cmp	r0, #0
	beq	.L386
.L426:
.LBB371:
.LBB372:
	.loc 1 223 0
	ldrb	r7, [r6]	@ zero_extendqisi2
	cbz	r7, .L429
.L390:
.LBE372:
.LBE371:
	.loc 1 793 0
	mov	r9, #1
.LBB376:
.LBB373:
	.loc 1 241 0
	add	r7, r7, r9
.LBE373:
.LBE376:
	.loc 1 793 0
	strb	r9, [r5, #8]
.LBB377:
.LBB374:
	.loc 1 241 0
	strb	r7, [r6]
.LBE374:
.LBE377:
	.loc 1 794 0
	bl	sys_now
.LVL363:
	.loc 1 795 0
	strb	r9, [r8]
	.loc 1 794 0
	str	r0, [r5, #68]
	.loc 1 796 0
	mov	r0, r4
	.loc 1 840 0
	pop	{r3, r4, r5, r6, r7, r8, r9, lr}
	.cfi_remember_state
	.cfi_restore 14
	.cfi_restore 9
	.cfi_restore 8
	.cfi_restore 7
	.cfi_restore 6
	.cfi_restore 5
	.cfi_restore 4
	.cfi_restore 3
	.cfi_def_cfa_offset 0
.LVL364:
	.loc 1 796 0
	b	dhcp_reboot
.LVL365:
.L427:
	.cfi_restore_state
.LBB378:
.LBB366:
	.loc 1 227 0
	bl	udp_new
.LVL366:
	ldr	r8, .L431+12
	str	r0, [r8]
	.loc 1 229 0
	cmp	r0, #0
	beq	.L385
	.loc 1 233 0
	ldrb	r1, [r0, #8]	@ zero_extendqisi2
	.loc 1 236 0
	movs	r2, #68
	.loc 1 233 0
	orr	r1, r1, #32
	strb	r1, [r0, #8]
	.loc 1 236 0
	ldr	r1, .L431+4
	bl	udp_bind
.LVL367:
	.loc 1 237 0
	movs	r2, #67
	ldr	r1, .L431+4
	ldr	r0, [r8]
	bl	udp_connect
.LVL368:
	.loc 1 238 0
	mov	r2, r7
	ldr	r0, [r8]
	ldr	r1, .L431+8
	bl	udp_recv
.LVL369:
	ldrb	r7, [r6]	@ zero_extendqisi2
	b	.L391
.L429:
.LBE366:
.LBE378:
.LBB379:
.LBB375:
	.loc 1 227 0
	bl	udp_new
.LVL370:
	ldr	r9, .L431+12
	str	r0, [r9]
	.loc 1 229 0
	cbz	r0, .L385
	.loc 1 233 0
	ldrb	r1, [r0, #8]	@ zero_extendqisi2
	.loc 1 236 0
	movs	r2, #68
	.loc 1 233 0
	orr	r1, r1, #32
	strb	r1, [r0, #8]
	.loc 1 236 0
	ldr	r1, .L431+4
	bl	udp_bind
.LVL371:
	.loc 1 237 0
	movs	r2, #67
	ldr	r1, .L431+4
	ldr	r0, [r9]
	bl	udp_connect
.LVL372:
	.loc 1 238 0
	mov	r2, r7
	ldr	r0, [r9]
	ldr	r1, .L431+8
	bl	udp_recv
.LVL373:
	ldrb	r7, [r6]	@ zero_extendqisi2
	b	.L390
.LVL374:
.L424:
.LBE375:
.LBE379:
	.loc 1 768 0
	movs	r0, #72
.LVL375:
	bl	mem_malloc
.LVL376:
	.loc 1 769 0
	mov	r5, r0
	cbz	r0, .L385
	.loc 1 775 0
	str	r0, [r4, #32]
	ldr	r6, .L431
	b	.L386
.LVL377:
.L385:
	.loc 1 758 0
	mov	r0, #-1
	pop	{r3, r4, r5, r6, r7, r8, r9, pc}
.LVL378:
.L395:
	.loc 1 750 0
	mvn	r0, #15
.LVL379:
	b	.L382
.LVL380:
.L428:
.LBB380:
.LBB381:
	.loc 1 1419 0
	ldr	r4, [r4, #32]
.LVL381:
	.loc 1 1423 0
	cmp	r4, #0
	beq	.L385
.LVL382:
.LBB382:
.LBB383:
	.loc 1 1449 0
	ldrb	r3, [r4, #9]	@ zero_extendqisi2
	cbz	r3, .L392
	.loc 1 1450 0
	movs	r3, #0
	strb	r3, [r4, #9]
	.loc 1 1451 0
	strb	r3, [r4, #10]
	.loc 1 1452 0
	strh	r3, [r4, #22]	@ movhi
.L392:
.LVL383:
.LBE383:
.LBE382:
	.loc 1 1434 0
	ldrb	r3, [r4, #8]	@ zero_extendqisi2
	cmp	r3, #0
	beq	.L385
.LBB384:
.LBB385:
	.loc 1 251 0
	ldrb	r5, [r6]	@ zero_extendqisi2
.LVL384:
	subs	r5, r5, #1
	uxtb	r5, r5
	strb	r5, [r6]
	.loc 1 253 0
	cbz	r5, .L430
.LVL385:
.L393:
.LBE385:
.LBE384:
	.loc 1 1436 0
	movs	r3, #0
	strb	r3, [r4, #8]
.LBE381:
.LBE380:
	.loc 1 837 0
	mov	r0, #-1
	pop	{r3, r4, r5, r6, r7, r8, r9, pc}
.LVL386:
.L394:
	.cfi_def_cfa_offset 0
	.cfi_restore 3
	.cfi_restore 4
	.cfi_restore 5
	.cfi_restore 6
	.cfi_restore 7
	.cfi_restore 8
	.cfi_restore 9
	.cfi_restore 14
	.loc 1 750 0
	mvn	r0, #15
.LVL387:
	bx	lr
.LVL388:
.L430:
	.cfi_def_cfa_offset 32
	.cfi_offset 3, -32
	.cfi_offset 4, -28
	.cfi_offset 5, -24
	.cfi_offset 6, -20
	.cfi_offset 7, -16
	.cfi_offset 8, -12
	.cfi_offset 9, -8
	.cfi_offset 14, -4
.LBB391:
.LBB390:
.LBB389:
.LBB388:
.LBB386:
.LBB387:
	.loc 1 254 0
	ldr	r6, .L431+12
	ldr	r0, [r6]
.LVL389:
	bl	udp_remove
.LVL390:
	.loc 1 255 0
	str	r5, [r6]
	b	.L393
.L432:
	.align	2
.L431:
	.word	.LANCHOR3
	.word	ip_addr_any
	.word	dhcp_recv
	.word	.LANCHOR2
	.word	.LANCHOR0
.LBE387:
.LBE386:
.LBE388:
.LBE389:
.LBE390:
.LBE391:
	.cfi_endproc
.LFE160:
	.size	dhcp_start, .-dhcp_start
	.section	.text.dhcp_inform,"ax",%progbits
	.align	1
	.p2align 2,,3
	.global	dhcp_inform
	.syntax unified
	.thumb
	.thumb_func
	.fpu softvfp
	.type	dhcp_inform, %function
dhcp_inform:
.LFB161:
	.loc 1 854 0
	.cfi_startproc
	@ args = 0, pretend = 0, frame = 72
	@ frame_needed = 0, uses_anonymous_args = 0
.LVL391:
	.loc 1 858 0
	cmp	r0, #0
	beq	.L453
	.loc 1 854 0
	push	{r4, r5, r6, r7, lr}
	.cfi_def_cfa_offset 20
	.cfi_offset 4, -20
	.cfi_offset 5, -16
	.cfi_offset 6, -12
	.cfi_offset 7, -8
	.cfi_offset 14, -4
.LBB408:
.LBB409:
	.loc 1 223 0
	ldr	r6, .L458
.LBE409:
.LBE408:
	.loc 1 854 0
	sub	sp, sp, #84
	.cfi_def_cfa_offset 104
.LBB414:
.LBB410:
	.loc 1 223 0
	ldrb	r5, [r6]	@ zero_extendqisi2
	mov	r4, r0
	cmp	r5, #0
	beq	.L456
.LVL392:
.L435:
.LBE410:
.LBE414:
	.loc 1 864 0
	movs	r2, #72
	movs	r1, #0
.LBB415:
.LBB411:
	.loc 1 241 0
	adds	r5, r5, #1
.LBE411:
.LBE415:
	.loc 1 864 0
	add	r0, sp, #8
.LBB416:
.LBB412:
	.loc 1 241 0
	strb	r5, [r6]
.LBE412:
.LBE416:
	.loc 1 864 0
	bl	memset
.LVL393:
.LBB417:
.LBB418:
	.loc 1 1450 0
	movs	r3, #7
.LBE418:
.LBE417:
	.loc 1 868 0
	add	r1, sp, #8
.LVL394:
	movs	r2, #8
	mov	r0, r4
.LBB420:
.LBB419:
	.loc 1 1450 0
	strb	r3, [sp, #17]
.LVL395:
.LBE419:
.LBE420:
	.loc 1 868 0
	bl	dhcp_create_msg
.LVL396:
	.loc 1 869 0
	cmp	r0, #0
	bne	.L436
.LBB421:
.LBB422:
	.loc 1 1466 0
	movs	r1, #2
	.loc 1 1465 0
	mov	lr, #57
.LBE422:
.LBE421:
.LBB425:
.LBB426:
	.loc 1 2007 0
	mov	ip, #255
.LBE426:
.LBE425:
.LBB432:
.LBB423:
	.loc 1 1464 0
	ldrh	r3, [sp, #28]
	ldr	r5, [sp, #24]
.LVL397:
	.loc 1 1465 0
	adds	r2, r3, #1
	adds	r7, r5, r3
	.loc 1 1466 0
	uxtah	r2, r5, r2
	.loc 1 1465 0
	strb	lr, [r7, #240]
	.loc 1 1466 0
	strb	r1, [r2, #240]
.LVL398:
.LBE423:
.LBE432:
	.loc 1 871 0
	ldrh	r7, [r4, #46]
.LVL399:
.LBB433:
.LBB424:
	.loc 1 1466 0
	adds	r2, r3, r1
.LBE424:
.LBE433:
.LBB434:
.LBB435:
	.loc 1 1483 0
	uxtah	r2, r5, r2
	lsrs	r1, r7, #8
	strb	r1, [r2, #240]
.LBE435:
.LBE434:
.LBB439:
.LBB427:
	.loc 1 2007 0
	adds	r1, r3, #5
.LBE427:
.LBE439:
.LBB440:
.LBB436:
	.loc 1 1483 0
	adds	r2, r3, #3
.LBE436:
.LBE440:
.LBB441:
.LBB428:
	.loc 1 2007 0
	uxth	r1, r1
.LBE428:
.LBE441:
.LBB442:
.LBB437:
	.loc 1 1484 0
	adds	r3, r3, #4
	uxtah	r2, r5, r2
.LBE437:
.LBE442:
.LBB443:
.LBB429:
	.loc 1 2007 0
	uxtah	r3, r5, r3
	.loc 1 2009 0
	cmp	r1, #67
.LBE429:
.LBE443:
.LBB444:
.LBB438:
	.loc 1 1484 0
	strb	r7, [r2, #240]
.LVL400:
.LBE438:
.LBE444:
.LBB445:
.LBB430:
	.loc 1 2007 0
	strh	r1, [sp, #28]	@ movhi
	strb	ip, [r3, #240]
	.loc 1 2009 0
	bls	.L447
.L437:
.LVL401:
.LBE430:
.LBE445:
	.loc 1 875 0
	adds	r1, r1, #240
	uxth	r1, r1
	ldr	r0, [sp, #20]
.LVL402:
	bl	pbuf_realloc
.LVL403:
	.loc 1 879 0
	ldr	r3, .L458+4
	ldr	r1, [sp, #20]
	ldr	r0, [r3]
	ldr	r2, .L458+8
	str	r4, [sp]
	movs	r3, #67
	bl	udp_sendto_if
.LVL404:
.LBB446:
.LBB447:
	.loc 1 1984 0
	ldr	r0, [sp, #20]
	.loc 1 1986 0
	cbz	r0, .L439
	.loc 1 1987 0
	bl	pbuf_free
.LVL405:
.L439:
	.loc 1 1989 0
	movs	r3, #0
	str	r3, [sp, #20]
	.loc 1 1990 0
	str	r3, [sp, #24]
.LVL406:
.L436:
.LBE447:
.LBE446:
.LBB448:
.LBB449:
	.loc 1 251 0
	ldrb	r4, [r6]	@ zero_extendqisi2
.LVL407:
	subs	r4, r4, #1
	uxtb	r4, r4
	strb	r4, [r6]
	.loc 1 253 0
	cbz	r4, .L457
.L433:
.LBE449:
.LBE448:
	.loc 1 887 0
	add	sp, sp, #84
	.cfi_remember_state
	.cfi_def_cfa_offset 20
	@ sp needed
	pop	{r4, r5, r6, r7, pc}
.LVL408:
.L456:
	.cfi_restore_state
.LBB453:
.LBB413:
	.loc 1 227 0
	bl	udp_new
.LVL409:
	ldr	r7, .L458+4
	str	r0, [r7]
	.loc 1 229 0
	cmp	r0, #0
	beq	.L433
	.loc 1 233 0
	ldrb	r1, [r0, #8]	@ zero_extendqisi2
	.loc 1 236 0
	movs	r2, #68
	.loc 1 233 0
	orr	r1, r1, #32
	strb	r1, [r0, #8]
	.loc 1 236 0
	ldr	r1, .L458+12
	bl	udp_bind
.LVL410:
	.loc 1 237 0
	movs	r2, #67
	ldr	r1, .L458+12
	ldr	r0, [r7]
	bl	udp_connect
.LVL411:
	.loc 1 238 0
	mov	r2, r5
	ldr	r0, [r7]
	ldr	r1, .L458+16
	bl	udp_recv
.LVL412:
	ldrb	r5, [r6]	@ zero_extendqisi2
	b	.L435
.LVL413:
.L453:
	.cfi_def_cfa_offset 0
	.cfi_restore 4
	.cfi_restore 5
	.cfi_restore 6
	.cfi_restore 7
	.cfi_restore 14
	bx	lr
.LVL414:
.L447:
	.cfi_def_cfa_offset 104
	.cfi_offset 4, -20
	.cfi_offset 5, -16
	.cfi_offset 6, -12
	.cfi_offset 7, -8
	.cfi_offset 14, -4
	adds	r2, r1, #1
.LBE413:
.LBE453:
.LBB454:
.LBB431:
	.loc 1 2012 0
	adds	r3, r5, r1
	uxth	r1, r2
	.loc 1 2009 0
	cmp	r1, #68
	.loc 1 2012 0
	strb	r0, [r3, #240]
	.loc 1 2009 0
	bne	.L447
	strh	r1, [sp, #28]	@ movhi
	b	.L437
.LVL415:
.L457:
.LBE431:
.LBE454:
.LBB455:
.LBB452:
.LBB450:
.LBB451:
	.loc 1 254 0
	ldr	r5, .L458+4
	ldr	r0, [r5]
	bl	udp_remove
.LVL416:
	.loc 1 255 0
	str	r4, [r5]
	b	.L433
.L459:
	.align	2
.L458:
	.word	.LANCHOR3
	.word	.LANCHOR2
	.word	ip_addr_broadcast
	.word	ip_addr_any
	.word	dhcp_recv
.LBE451:
.LBE450:
.LBE452:
.LBE455:
	.cfi_endproc
.LFE161:
	.size	dhcp_inform, .-dhcp_inform
	.section	.text.dhcp_network_changed,"ax",%progbits
	.align	1
	.p2align 2,,3
	.global	dhcp_network_changed
	.syntax unified
	.thumb
	.thumb_func
	.fpu softvfp
	.type	dhcp_network_changed, %function
dhcp_network_changed:
.LFB162:
	.loc 1 896 0
	.cfi_startproc
	@ args = 0, pretend = 0, frame = 0
	@ frame_needed = 0, uses_anonymous_args = 0
.LVL417:
	push	{r3, r4, r5, lr}
	.cfi_def_cfa_offset 16
	.cfi_offset 3, -16
	.cfi_offset 4, -12
	.cfi_offset 5, -8
	.cfi_offset 14, -4
	.loc 1 897 0
	ldr	r5, [r0, #32]
.LVL418:
	.loc 1 899 0
	cbz	r5, .L460
	.loc 1 901 0
	ldrb	r3, [r5, #9]	@ zero_extendqisi2
	mov	r4, r0
	cmp	r3, #10
	bhi	.L462
	tbb	[pc, r3]
.L463:
	.byte	(.L460-.L463)/2
	.byte	(.L462-.L463)/2
	.byte	(.L462-.L463)/2
	.byte	(.L464-.L463)/2
	.byte	(.L464-.L463)/2
	.byte	(.L464-.L463)/2
	.byte	(.L462-.L463)/2
	.byte	(.L462-.L463)/2
	.byte	(.L462-.L463)/2
	.byte	(.L462-.L463)/2
	.byte	(.L464-.L463)/2
	.p2align 1
.L460:
	pop	{r3, r4, r5, pc}
.LVL419:
.L464:
	.loc 1 906 0
	movs	r3, #0
	strb	r3, [r5, #10]
	.loc 1 907 0
	bl	sys_now
.LVL420:
	str	r0, [r5, #68]
	.loc 1 908 0
	mov	r0, r4
	.loc 1 929 0
	pop	{r3, r4, r5, lr}
	.cfi_remember_state
	.cfi_restore 14
	.cfi_restore 5
	.cfi_restore 4
	.cfi_restore 3
	.cfi_def_cfa_offset 0
.LVL421:
	.loc 1 908 0
	b	dhcp_reboot
.LVL422:
.L462:
	.cfi_restore_state
	.loc 1 924 0
	movs	r3, #0
	strb	r3, [r5, #10]
	.loc 1 925 0
	bl	sys_now
.LVL423:
	str	r0, [r5, #68]
	.loc 1 926 0
	mov	r0, r4
	.loc 1 929 0
	pop	{r3, r4, r5, lr}
	.cfi_restore 14
	.cfi_restore 5
	.cfi_restore 4
	.cfi_restore 3
	.cfi_def_cfa_offset 0
.LVL424:
	.loc 1 926 0
	b	dhcp_discover
.LVL425:
	.cfi_endproc
.LFE162:
	.size	dhcp_network_changed, .-dhcp_network_changed
	.section	.text.dhcp_arp_reply,"ax",%progbits
	.align	1
	.p2align 2,,3
	.global	dhcp_arp_reply
	.syntax unified
	.thumb
	.thumb_func
	.fpu softvfp
	.type	dhcp_arp_reply, %function
dhcp_arp_reply:
.LFB163:
	.loc 1 941 0
	.cfi_startproc
	@ args = 0, pretend = 0, frame = 0
	@ frame_needed = 0, uses_anonymous_args = 0
.LVL426:
	.loc 1 944 0
	cbz	r0, .L491
	.loc 1 941 0
	push	{r4, r5, r6, r7, lr}
	.cfi_def_cfa_offset 20
	.cfi_offset 4, -20
	.cfi_offset 5, -16
	.cfi_offset 6, -12
	.cfi_offset 7, -8
	.cfi_offset 14, -4
	.loc 1 945 0
	ldr	r4, [r0, #32]
.LVL427:
	.loc 1 941 0
	sub	sp, sp, #12
	.cfi_def_cfa_offset 32
	mov	r5, r0
	.loc 1 948 0
	cbz	r4, .L469
	.loc 1 948 0 discriminator 1
	ldrb	r2, [r4, #9]	@ zero_extendqisi2
	cmp	r2, #8
	beq	.L494
.LVL428:
.L469:
	.loc 1 960 0
	add	sp, sp, #12
	.cfi_remember_state
	.cfi_def_cfa_offset 20
	@ sp needed
	pop	{r4, r5, r6, r7, pc}
.LVL429:
.L494:
	.cfi_restore_state
	.loc 1 953 0
	ldr	r1, [r1]
.LVL430:
	ldr	r2, [r4, #40]
	cmp	r1, r2
	bne	.L469
.LVL431:
.LBB472:
.LBB473:
.LBB474:
.LBB475:
	.loc 1 1451 0
	movs	r3, #0
	.loc 1 1450 0
	movs	r2, #12
	.loc 1 1451 0
	strb	r3, [r4, #10]
	.loc 1 1450 0
	strb	r2, [r4, #9]
	.loc 1 1452 0
	strh	r3, [r4, #22]	@ movhi
.LVL432:
.LBE475:
.LBE474:
	.loc 1 980 0
	movs	r2, #4
	mov	r1, r4
	bl	dhcp_create_msg
.LVL433:
	.loc 1 981 0
	mov	r6, r0
	cbz	r0, .L495
.LVL434:
.L471:
	.loc 1 1005 0
	ldrb	r3, [r4, #10]	@ zero_extendqisi2
	cmp	r3, #255
	.loc 1 1006 0
	itt	ne
	addne	r3, r3, #1
	strbne	r3, [r4, #10]
.LVL435:
	.loc 1 1009 0
	movs	r3, #20
	strh	r3, [r4, #22]	@ movhi
	b	.L469
.LVL436:
.L491:
	.cfi_def_cfa_offset 0
	.cfi_restore 4
	.cfi_restore 5
	.cfi_restore 6
	.cfi_restore 7
	.cfi_restore 14
	bx	lr
.LVL437:
.L495:
	.cfi_def_cfa_offset 32
	.cfi_offset 4, -20
	.cfi_offset 5, -16
	.cfi_offset 6, -12
	.cfi_offset 7, -8
	.cfi_offset 14, -4
.LBB476:
.LBB477:
	.loc 1 1466 0
	movs	r7, #4
	.loc 1 1465 0
	mov	ip, #50
	.loc 1 1464 0
	ldrh	r3, [r4, #20]
	ldr	r1, [r4, #16]
.LVL438:
	.loc 1 1465 0
	adds	r2, r3, #1
	adds	r0, r1, r3
.LVL439:
	.loc 1 1466 0
	uxtah	r2, r1, r2
	adds	r3, r3, #2
	.loc 1 1465 0
	strb	ip, [r0, #240]
	.loc 1 1466 0
	strh	r3, [r4, #20]	@ movhi
	strb	r7, [r2, #240]
.LVL440:
.LBE477:
.LBE476:
	.loc 1 983 0
	ldr	r0, [r4, #40]
	bl	lwip_htonl
.LVL441:
.LBB478:
.LBB479:
	.loc 1 1465 0
	mov	ip, #54
.LBE479:
.LBE478:
.LBB481:
.LBB482:
	.loc 1 1490 0
	ldrh	r3, [r4, #20]
	ldr	r2, [r4, #16]
.LVL442:
	.loc 1 1491 0
	lsr	lr, r0, #24
	adds	r1, r2, r3
	strb	lr, [r1, #240]
	adds	r1, r3, #1
	.loc 1 1492 0
	uxtah	r1, r2, r1
	lsr	lr, r0, #16
	strb	lr, [r1, #240]
	adds	r1, r3, #2
	.loc 1 1493 0
	lsr	lr, r0, #8
	uxtah	r1, r2, r1
	strb	lr, [r1, #240]
	adds	r1, r3, #3
	.loc 1 1494 0
	uxtah	r1, r2, r1
	add	r3, r3, r7
	strh	r3, [r4, #20]	@ movhi
	strb	r0, [r1, #240]
.LVL443:
.LBE482:
.LBE481:
.LBB483:
.LBB480:
	.loc 1 1464 0
	ldrh	r3, [r4, #20]
	.loc 1 1465 0
	adds	r1, r3, #1
	adds	r0, r2, r3
	.loc 1 1466 0
	uxtah	r2, r2, r1
	adds	r3, r3, #2
	.loc 1 1465 0
	strb	ip, [r0, #240]
	.loc 1 1466 0
	strh	r3, [r4, #20]	@ movhi
	strb	r7, [r2, #240]
.LVL444:
.LBE480:
.LBE483:
	.loc 1 987 0
	ldr	r0, [r4, #36]
	bl	lwip_htonl
.LVL445:
.LBB484:
.LBB485:
	.loc 1 2007 0
	mov	ip, #255
.LBE485:
.LBE484:
.LBB490:
.LBB491:
	.loc 1 1490 0
	ldrh	r3, [r4, #20]
	ldr	r7, [r4, #16]
.LVL446:
	.loc 1 1491 0
	adds	r2, r3, #1
	adds	r1, r7, r3
	lsr	lr, r0, #24
	strb	lr, [r1, #240]
	.loc 1 1492 0
	uxtah	r2, r7, r2
	adds	r1, r3, #2
	lsr	lr, r0, #16
	strb	lr, [r2, #240]
	.loc 1 1493 0
	uxtah	r1, r7, r1
	lsr	lr, r0, #8
	strb	lr, [r1, #240]
.LBE491:
.LBE490:
.LBB495:
.LBB486:
	.loc 1 2007 0
	adds	r1, r3, #5
.LBE486:
.LBE495:
.LBB496:
.LBB492:
	.loc 1 1493 0
	adds	r2, r3, #3
.LBE492:
.LBE496:
.LBB497:
.LBB487:
	.loc 1 2007 0
	uxth	r1, r1
.LBE487:
.LBE497:
.LBB498:
.LBB493:
	.loc 1 1494 0
	adds	r3, r3, #4
	uxtah	r2, r7, r2
.LBE493:
.LBE498:
.LBB499:
.LBB488:
	.loc 1 2007 0
	uxtah	r3, r7, r3
	.loc 1 2009 0
	cmp	r1, #67
.LBE488:
.LBE499:
.LBB500:
.LBB494:
	.loc 1 1494 0
	strb	r0, [r2, #240]
.LVL447:
.LBE494:
.LBE500:
.LBB501:
.LBB489:
	.loc 1 2007 0
	strh	r1, [r4, #20]	@ movhi
	strb	ip, [r3, #240]
	.loc 1 2009 0
	bhi	.L472
	.loc 1 2012 0
	mov	r0, r6
.L484:
	adds	r2, r1, #1
	adds	r3, r7, r1
	uxth	r1, r2
	.loc 1 2009 0
	cmp	r1, #68
	.loc 1 2012 0
	strb	r0, [r3, #240]
	.loc 1 2009 0
	bne	.L484
	strh	r1, [r4, #20]	@ movhi
.L472:
.LVL448:
.LBE489:
.LBE501:
	.loc 1 995 0
	adds	r1, r1, #240
	uxth	r1, r1
	ldr	r0, [r4, #12]
	bl	pbuf_realloc
.LVL449:
	.loc 1 998 0
	ldr	r3, .L496
	ldr	r1, [r4, #12]
	ldr	r0, [r3]
	ldr	r3, .L496+4
	str	r5, [sp]
	str	r3, [sp, #4]
	ldr	r2, .L496+8
	movs	r3, #67
	bl	udp_sendto_if_src
.LVL450:
.LBB502:
.LBB503:
	.loc 1 1984 0
	ldr	r0, [r4, #12]
	.loc 1 1986 0
	cbz	r0, .L474
	.loc 1 1987 0
	bl	pbuf_free
.LVL451:
.L474:
	.loc 1 1989 0
	movs	r3, #0
	str	r3, [r4, #12]
	.loc 1 1990 0
	str	r3, [r4, #16]
	b	.L471
.L497:
	.align	2
.L496:
	.word	.LANCHOR2
	.word	ip_addr_any
	.word	ip_addr_broadcast
.LBE503:
.LBE502:
.LBE473:
.LBE472:
	.cfi_endproc
.LFE163:
	.size	dhcp_arp_reply, .-dhcp_arp_reply
	.section	.text.dhcp_renew,"ax",%progbits
	.align	1
	.p2align 2,,3
	.global	dhcp_renew
	.syntax unified
	.thumb
	.thumb_func
	.fpu softvfp
	.type	dhcp_renew, %function
dhcp_renew:
.LFB167:
	.loc 1 1196 0
	.cfi_startproc
	@ args = 0, pretend = 0, frame = 0
	@ frame_needed = 0, uses_anonymous_args = 0
.LVL452:
	push	{r4, r5, r6, r7, r8, r9, r10, fp, lr}
	.cfi_def_cfa_offset 36
	.cfi_offset 4, -36
	.cfi_offset 5, -32
	.cfi_offset 6, -28
	.cfi_offset 7, -24
	.cfi_offset 8, -20
	.cfi_offset 9, -16
	.cfi_offset 10, -12
	.cfi_offset 11, -8
	.cfi_offset 14, -4
	.loc 1 1197 0
	ldr	r4, [r0, #32]
.LVL453:
	.loc 1 1196 0
	sub	sp, sp, #12
	.cfi_def_cfa_offset 48
.LBB504:
.LBB505:
	.loc 1 1449 0
	ldrb	r3, [r4, #9]	@ zero_extendqisi2
.LBE505:
.LBE504:
	.loc 1 1196 0
	mov	r5, r0
.LBB507:
.LBB506:
	.loc 1 1449 0
	cmp	r3, #5
	beq	.L499
	.loc 1 1451 0
	movs	r3, #0
	.loc 1 1450 0
	movs	r2, #5
	.loc 1 1451 0
	strb	r3, [r4, #10]
	.loc 1 1450 0
	strb	r2, [r4, #9]
	.loc 1 1452 0
	strh	r3, [r4, #22]	@ movhi
.L499:
.LVL454:
.LBE506:
.LBE507:
	.loc 1 1205 0
	mov	r1, r4
	mov	r0, r5
.LVL455:
	bl	dhcp_create_msg.constprop.7
.LVL456:
	.loc 1 1206 0
	mov	r6, r0
	cmp	r0, #0
	bne	.L500
.LBB508:
.LBB509:
	.loc 1 1476 0
	mov	lr, #1
.LBE509:
.LBE508:
.LBB514:
.LBB515:
	.loc 1 1465 0
	mov	fp, #57
	.loc 1 1466 0
	mov	r10, #2
.LBE515:
.LBE514:
.LBB518:
.LBB519:
	.loc 1 1465 0
	mov	r9, #55
	.loc 1 1466 0
	mov	r8, #4
.LBE519:
.LBE518:
.LBB521:
.LBB510:
	.loc 1 1476 0
	mov	ip, #3
	movs	r7, #28
	ldr	r3, [r4, #16]
.LVL457:
.LBE510:
.LBE521:
.LBB522:
.LBB516:
	.loc 1 1464 0
	ldrh	r2, [r4, #20]
.LBE516:
.LBE522:
.LBB523:
.LBB511:
	.loc 1 1476 0
	movs	r0, #6
.LVL458:
.LBE511:
.LBE523:
.LBB524:
.LBB517:
	.loc 1 1465 0
	adds	r1, r3, r2
	strb	fp, [r1, #240]
	add	r1, r2, lr
	.loc 1 1466 0
	uxtah	r1, r3, r1
	add	r2, r2, r10
	strh	r2, [r4, #20]	@ movhi
	strb	r10, [r1, #240]
.LVL459:
.LBE517:
.LBE524:
.LBB525:
.LBB526:
	.loc 1 1482 0
	ldrh	r2, [r4, #20]
.LBE526:
.LBE525:
	.loc 1 1208 0
	ldrh	r1, [r5, #46]
.LVL460:
.LBB528:
.LBB527:
	.loc 1 1483 0
	add	r10, r3, r2
	lsr	fp, r1, #8
	strb	fp, [r10, #240]
	.loc 1 1484 0
	add	r10, r2, #2
	.loc 1 1483 0
	add	r2, r2, lr
	.loc 1 1484 0
	uxtah	r2, r3, r2
	strh	r10, [r4, #20]	@ movhi
	strb	r1, [r2, #240]
.LVL461:
.LBE527:
.LBE528:
.LBB529:
.LBB520:
	.loc 1 1464 0
	ldrh	r2, [r4, #20]
	.loc 1 1465 0
	adds	r1, r3, r2
	strb	r9, [r1, #240]
	add	r1, r2, lr
	.loc 1 1466 0
	uxtah	r1, r3, r1
	adds	r2, r2, #2
	strh	r2, [r4, #20]	@ movhi
	strb	r8, [r1, #240]
.LVL462:
.LBE520:
.LBE529:
.LBB530:
.LBB512:
	.loc 1 1475 0
	ldrh	r2, [r4, #20]
	.loc 1 1476 0
	add	r1, r2, lr
	add	r2, r2, r3
	strh	r1, [r4, #20]	@ movhi
	strb	lr, [r2, #240]
.LVL463:
	.loc 1 1475 0
	ldrh	r2, [r4, #20]
	.loc 1 1476 0
	add	r1, r2, lr
	add	r2, r2, r3
	strh	r1, [r4, #20]	@ movhi
	strb	ip, [r2, #240]
.LVL464:
	.loc 1 1475 0
	ldrh	r2, [r4, #20]
	.loc 1 1476 0
	add	r1, r2, lr
	add	r2, r2, r3
	strh	r1, [r4, #20]	@ movhi
	strb	r7, [r2, #240]
.LVL465:
	.loc 1 1475 0
	ldrh	r2, [r4, #20]
	.loc 1 1476 0
	add	r1, r2, lr
	uxth	r7, r1
.LBE512:
.LBE530:
.LBB531:
.LBB532:
	.loc 1 2007 0
	adds	r1, r2, #2
.LBE532:
.LBE531:
.LBB534:
.LBB513:
	.loc 1 1476 0
	add	r2, r2, r3
	strb	r0, [r2, #240]
.LVL466:
.LBE513:
.LBE534:
.LBB535:
.LBB533:
	.loc 1 2007 0
	mov	r2, #-1
	uxth	r1, r1
	add	ip, r3, r7
	.loc 1 2009 0
	cmp	r1, #67
	.loc 1 2007 0
	strh	r1, [r4, #20]	@ movhi
	strb	r2, [ip, #240]
	.loc 1 2009 0
	bhi	.L501
	mov	r2, r1
	.loc 1 2012 0
	mov	lr, r6
.L502:
	add	ip, r2, #1
	adds	r0, r3, r2
	uxth	r2, ip
	.loc 1 2009 0
	cmp	r2, #68
	.loc 1 2012 0
	strb	lr, [r0, #240]
	.loc 1 2009 0
	bne	.L502
	subs	r1, r1, r7
	adds	r1, r1, #67
	uxth	r1, r1
	strh	r1, [r4, #20]	@ movhi
.L501:
.LVL467:
.LBE533:
.LBE535:
	.loc 1 1222 0
	adds	r1, r1, #240
	uxth	r1, r1
	ldr	r0, [r4, #12]
	bl	pbuf_realloc
.LVL468:
	.loc 1 1224 0
	ldr	r3, .L515
	ldr	r1, [r4, #12]
	ldr	r0, [r3]
	add	r2, r4, #36
	str	r5, [sp]
	movs	r3, #67
	bl	udp_sendto_if
.LVL469:
.LBB536:
.LBB537:
	.loc 1 1984 0
	ldr	r0, [r4, #12]
	.loc 1 1986 0
	cbz	r0, .L503
	.loc 1 1987 0
	bl	pbuf_free
.LVL470:
.L503:
	.loc 1 1989 0
	movs	r3, #0
	str	r3, [r4, #12]
	.loc 1 1990 0
	str	r3, [r4, #16]
.LVL471:
.L500:
.LBE537:
.LBE536:
	.loc 1 1231 0
	ldrb	r3, [r4, #10]	@ zero_extendqisi2
	cmp	r3, #255
	beq	.L506
	.loc 1 1232 0
	adds	r3, r3, #1
	uxtb	r3, r3
	.loc 1 1235 0
	cmp	r3, #9
	.loc 1 1232 0
	strb	r3, [r4, #10]
	.loc 1 1235 0
	bhi	.L506
	.loc 1 1239 0 discriminator 1
	mov	r0, r6
	.loc 1 1235 0 discriminator 1
	rsb	r2, r3, r3, lsl #5
	add	r3, r3, r2, lsl #2
	lsls	r3, r3, #4
	ldr	r2, .L515+4
	uxth	r3, r3
	addw	r3, r3, #499
	umull	r2, r3, r2, r3
	ubfx	r3, r3, #5, #16
	.loc 1 1236 0 discriminator 1
	strh	r3, [r4, #22]	@ movhi
	.loc 1 1239 0 discriminator 1
	add	sp, sp, #12
	.cfi_remember_state
	.cfi_def_cfa_offset 36
	@ sp needed
	pop	{r4, r5, r6, r7, r8, r9, r10, fp, pc}
.LVL472:
.L506:
	.cfi_restore_state
	.loc 1 1196 0
	movs	r3, #40
	.loc 1 1239 0
	mov	r0, r6
	.loc 1 1236 0
	strh	r3, [r4, #22]	@ movhi
	.loc 1 1239 0
	add	sp, sp, #12
	.cfi_def_cfa_offset 36
	@ sp needed
	pop	{r4, r5, r6, r7, r8, r9, r10, fp, pc}
.LVL473:
.L516:
	.align	2
.L515:
	.word	.LANCHOR2
	.word	274877907
	.cfi_endproc
.LFE167:
	.size	dhcp_renew, .-dhcp_renew
	.section	.text.dhcp_release,"ax",%progbits
	.align	1
	.p2align 2,,3
	.global	dhcp_release
	.syntax unified
	.thumb
	.thumb_func
	.fpu softvfp
	.type	dhcp_release, %function
dhcp_release:
.LFB170:
	.loc 1 1353 0
	.cfi_startproc
	@ args = 0, pretend = 0, frame = 8
	@ frame_needed = 0, uses_anonymous_args = 0
.LVL474:
	push	{r4, r5, r6, r7, lr}
	.cfi_def_cfa_offset 20
	.cfi_offset 4, -20
	.cfi_offset 5, -16
	.cfi_offset 6, -12
	.cfi_offset 7, -8
	.cfi_offset 14, -4
	.loc 1 1354 0
	ldr	r4, [r0, #32]
.LVL475:
	.loc 1 1353 0
	sub	sp, sp, #20
	.cfi_def_cfa_offset 40
	.loc 1 1360 0
	cmp	r4, #0
	beq	.L525
.LBB538:
.LBB539:
	.loc 1 2027 0
	ldrb	r3, [r4, #9]	@ zero_extendqisi2
.LBE539:
.LBE538:
	.loc 1 1363 0
	ldr	r2, [r4, #36]
.LBB543:
.LBB540:
	.loc 1 2027 0
	cmp	r3, #10
.LBE540:
.LBE543:
	.loc 1 1363 0
	str	r2, [sp, #12]
.LVL476:
.LBB544:
.LBB541:
	.loc 1 2027 0
	beq	.L527
	cmp	r3, #5
	beq	.L527
	sub	r5, r3, #4
	clz	r5, r5
	lsrs	r5, r5, #5
.LVL477:
.LBE541:
.LBE544:
.LBB545:
.LBB546:
	.loc 1 1449 0
	cbnz	r3, .L519
.L520:
.LVL478:
.LBE546:
.LBE545:
	.loc 1 1370 0
	movs	r3, #0
	str	r3, [r4, #36]
	.loc 1 1371 0
	str	r3, [r4, #40]
	.loc 1 1372 0
	str	r3, [r4, #44]
	.loc 1 1373 0
	str	r3, [r4, #48]
	.loc 1 1377 0
	str	r3, [r4, #64]
	str	r3, [r4, #60]
	str	r3, [r4, #56]
	.loc 1 1378 0
	str	r3, [r4, #28]
	str	r3, [r4, #32]
	.loc 1 1380 0
	cbnz	r5, .L538
.LVL479:
.L518:
	.loc 1 1406 0
	mov	r0, r5
.LVL480:
	add	sp, sp, #20
	.cfi_remember_state
	.cfi_def_cfa_offset 20
	@ sp needed
	pop	{r4, r5, r6, r7, pc}
.LVL481:
.L527:
	.cfi_restore_state
.LBB548:
.LBB542:
	.loc 1 2027 0
	movs	r5, #1
.LVL482:
.L519:
.LBE542:
.LBE548:
.LBB549:
.LBB547:
	.loc 1 1450 0
	movs	r3, #0
	strb	r3, [r4, #9]
	.loc 1 1451 0
	strb	r3, [r4, #10]
	.loc 1 1452 0
	strh	r3, [r4, #22]	@ movhi
	b	.L520
.LVL483:
.L538:
.LBE547:
.LBE549:
	.loc 1 1386 0
	movs	r2, #7
	mov	r1, r4
	mov	r6, r0
	bl	dhcp_create_msg
.LVL484:
	.loc 1 1387 0
	mov	r5, r0
	cbz	r0, .L539
.LVL485:
.L521:
	.loc 1 1403 0
	ldr	r3, .L540
	mov	r0, r6
	mov	r2, r3
	mov	r1, r3
	bl	netif_set_addr
.LVL486:
	.loc 1 1406 0
	mov	r0, r5
	add	sp, sp, #20
	.cfi_remember_state
	.cfi_def_cfa_offset 20
	@ sp needed
	pop	{r4, r5, r6, r7, pc}
.LVL487:
.L539:
	.cfi_restore_state
.LBB550:
.LBB551:
	.loc 1 1465 0
	mov	ip, #54
	.loc 1 1466 0
	movs	r7, #4
	.loc 1 1464 0
	ldrh	r3, [r4, #20]
	ldr	r1, [r4, #16]
.LVL488:
	.loc 1 1465 0
	adds	r2, r3, #1
	adds	r0, r1, r3
.LVL489:
	.loc 1 1466 0
	uxtah	r2, r1, r2
	adds	r3, r3, #2
	.loc 1 1465 0
	strb	ip, [r0, #240]
	.loc 1 1466 0
	strh	r3, [r4, #20]	@ movhi
.LBE551:
.LBE550:
	.loc 1 1389 0
	ldr	r0, [sp, #12]
.LBB553:
.LBB552:
	.loc 1 1466 0
	strb	r7, [r2, #240]
.LVL490:
.LBE552:
.LBE553:
	.loc 1 1389 0
	bl	lwip_htonl
.LVL491:
.LBB554:
.LBB555:
	.loc 1 2007 0
	mov	ip, #255
.LBE555:
.LBE554:
.LBB560:
.LBB561:
	.loc 1 1490 0
	ldrh	r3, [r4, #20]
	ldr	r7, [r4, #16]
.LVL492:
	.loc 1 1491 0
	lsrs	r1, r0, #24
	adds	r2, r7, r3
	strb	r1, [r2, #240]
	adds	r2, r3, #1
	.loc 1 1492 0
	uxtah	r2, r7, r2
	lsrs	r1, r0, #16
	strb	r1, [r2, #240]
	adds	r2, r3, #2
	.loc 1 1493 0
	uxtah	r2, r7, r2
	lsrs	r1, r0, #8
	strb	r1, [r2, #240]
.LBE561:
.LBE560:
.LBB565:
.LBB556:
	.loc 1 2007 0
	adds	r1, r3, #5
.LBE556:
.LBE565:
.LBB566:
.LBB562:
	.loc 1 1493 0
	adds	r2, r3, #3
.LBE562:
.LBE566:
.LBB567:
.LBB557:
	.loc 1 2007 0
	uxth	r1, r1
.LBE557:
.LBE567:
.LBB568:
.LBB563:
	.loc 1 1494 0
	adds	r3, r3, #4
	uxtah	r2, r7, r2
.LBE563:
.LBE568:
.LBB569:
.LBB558:
	.loc 1 2007 0
	uxtah	r3, r7, r3
	.loc 1 2009 0
	cmp	r1, #67
.LBE558:
.LBE569:
.LBB570:
.LBB564:
	.loc 1 1494 0
	strb	r0, [r2, #240]
.LVL493:
.LBE564:
.LBE570:
.LBB571:
.LBB559:
	.loc 1 2007 0
	strh	r1, [r4, #20]	@ movhi
	strb	ip, [r3, #240]
	.loc 1 2009 0
	bhi	.L522
	.loc 1 2012 0
	mov	r0, r5
.L533:
	adds	r2, r1, #1
	adds	r3, r7, r1
	uxth	r1, r2
	.loc 1 2009 0
	cmp	r1, #68
	.loc 1 2012 0
	strb	r0, [r3, #240]
	.loc 1 2009 0
	bne	.L533
	strh	r1, [r4, #20]	@ movhi
.L522:
.LVL494:
.LBE559:
.LBE571:
	.loc 1 1393 0
	adds	r1, r1, #240
	uxth	r1, r1
	ldr	r0, [r4, #12]
	bl	pbuf_realloc
.LVL495:
	.loc 1 1395 0
	ldr	r3, .L540+4
	ldr	r1, [r4, #12]
	ldr	r0, [r3]
	add	r2, sp, #12
	str	r6, [sp]
	movs	r3, #67
	bl	udp_sendto_if
.LVL496:
.LBB572:
.LBB573:
	.loc 1 1984 0
	ldr	r0, [r4, #12]
	.loc 1 1986 0
	cbz	r0, .L524
	.loc 1 1987 0
	bl	pbuf_free
.LVL497:
.L524:
	.loc 1 1989 0
	movs	r3, #0
	str	r3, [r4, #12]
	.loc 1 1990 0
	str	r3, [r4, #16]
	b	.L521
.LVL498:
.L525:
.LBE573:
.LBE572:
	.loc 1 1361 0
	mvn	r5, #15
	b	.L518
.L541:
	.align	2
.L540:
	.word	ip_addr_any
	.word	.LANCHOR2
	.cfi_endproc
.LFE170:
	.size	dhcp_release, .-dhcp_release
	.section	.text.dhcp_coarse_tmr,"ax",%progbits
	.align	1
	.p2align 2,,3
	.global	dhcp_coarse_tmr
	.syntax unified
	.thumb
	.thumb_func
	.fpu softvfp
	.type	dhcp_coarse_tmr, %function
dhcp_coarse_tmr:
.LFB152:
	.loc 1 425 0
	.cfi_startproc
	@ args = 0, pretend = 0, frame = 0
	@ frame_needed = 0, uses_anonymous_args = 0
	push	{r4, r5, r6, r7, r8, r9, r10, fp, lr}
	.cfi_def_cfa_offset 36
	.cfi_offset 4, -36
	.cfi_offset 5, -32
	.cfi_offset 6, -28
	.cfi_offset 7, -24
	.cfi_offset 8, -20
	.cfi_offset 9, -16
	.cfi_offset 10, -12
	.cfi_offset 11, -8
	.cfi_offset 14, -4
	.loc 1 426 0
	ldr	r3, .L602
	.loc 1 425 0
	sub	sp, sp, #12
	.cfi_def_cfa_offset 48
	.loc 1 426 0
	ldr	r5, [r3]
.LVL499:
	.loc 1 429 0
	cbz	r5, .L542
	ldr	fp, .L602+4
.LBB595:
.LBB596:
.LBB597:
.LBB598:
.LBB599:
	.loc 1 1276 0
	ldr	r9, .L602+8
	ldr	r8, .L602+12
.L560:
.LBE599:
.LBE598:
.LBE597:
.LBE596:
	.loc 1 431 0
	ldr	r4, [r5, #32]
.LVL500:
	.loc 1 432 0
	cbz	r4, .L545
	.loc 1 432 0 discriminator 1
	ldrb	r3, [r4, #9]	@ zero_extendqisi2
	cbz	r3, .L545
	.loc 1 434 0
	ldrh	r1, [r4, #34]
	cbz	r1, .L547
	.loc 1 434 0 is_stmt 0 discriminator 1
	ldrh	r2, [r4, #32]
	adds	r2, r2, #1
	uxth	r2, r2
	cmp	r1, r2
	strh	r2, [r4, #32]	@ movhi
	beq	.L599
.L547:
	.loc 1 444 0 is_stmt 1
	ldrh	r2, [r4, #30]
	cbz	r2, .L548
	.loc 1 444 0 is_stmt 0 discriminator 1
	subs	r1, r2, #1
	cmp	r2, #1
	strh	r1, [r4, #30]	@ movhi
	beq	.L600
.L548:
	.loc 1 449 0 is_stmt 1
	ldrh	r2, [r4, #28]
	cbz	r2, .L545
	.loc 1 449 0 is_stmt 0 discriminator 1
	subs	r1, r2, #1
	cmp	r2, #1
	strh	r1, [r4, #28]	@ movhi
	beq	.L601
.L545:
	.loc 1 456 0 is_stmt 1
	ldr	r5, [r5]
.LVL501:
.LBE595:
	.loc 1 429 0
	cmp	r5, #0
	bne	.L560
.LVL502:
.L542:
	.loc 1 458 0
	add	sp, sp, #12
	.cfi_remember_state
	.cfi_def_cfa_offset 36
	@ sp needed
	pop	{r4, r5, r6, r7, r8, r9, r10, fp, pc}
.LVL503:
.L599:
	.cfi_restore_state
.LBB650:
	.loc 1 439 0
	mov	r0, r5
	bl	igmp_report_groups_leave
.LVL504:
	.loc 1 441 0
	mov	r0, r5
	bl	dhcp_release
.LVL505:
	.loc 1 442 0
	mov	r0, r5
	bl	dhcp_discover
.LVL506:
	b	.L545
.L600:
.LVL507:
.LBB646:
.LBB644:
	.loc 1 587 0
	and	r2, r3, #251
	cmp	r2, #1
	beq	.L549
	cmp	r3, #10
	beq	.L549
	.loc 1 588 0
	cmp	r3, #4
	bne	.L545
	b	.L550
.LVL508:
.L601:
.LBE644:
.LBE646:
.LBB647:
.LBB648:
	.loc 1 554 0
	cmp	r3, #1
	beq	.L558
	cmp	r3, #10
	beq	.L558
	cmp	r3, #5
	bne	.L545
.L559:
	.loc 1 567 0
	mov	r0, r5
	bl	dhcp_renew
.LVL509:
	.loc 1 569 0
	ldrh	r3, [r4, #26]
	ldrh	r2, [r4, #32]
	subs	r3, r3, r2
	cmp	r3, #1
	.loc 1 571 0
	itt	gt
	asrgt	r3, r3, #1
	strhgt	r3, [r4, #28]	@ movhi
	b	.L545
.L558:
	.loc 1 564 0
	bl	sys_now
.LVL510:
	str	r0, [r4, #68]
	b	.L559
.LVL511:
.L549:
.LBE648:
.LBE647:
.LBB649:
.LBB645:
.LBB641:
.LBB638:
.LBB600:
.LBB601:
	.loc 1 1451 0
	movs	r3, #0
	.loc 1 1450 0
	movs	r2, #4
	.loc 1 1451 0
	strb	r3, [r4, #10]
	.loc 1 1450 0
	strb	r2, [r4, #9]
	.loc 1 1452 0
	strh	r3, [r4, #22]	@ movhi
.LVL512:
.L550:
.LBE601:
.LBE600:
	.loc 1 1257 0
	mov	r1, r4
	mov	r0, r5
	bl	dhcp_create_msg.constprop.7
.LVL513:
	.loc 1 1258 0
	cmp	r0, #0
	bne	.L551
.LBB602:
.LBB603:
	.loc 1 1465 0
	mov	lr, #57
	.loc 1 1466 0
	movs	r1, #2
.LBE603:
.LBE602:
.LBB605:
.LBB606:
	.loc 1 1465 0
	mov	ip, #55
	.loc 1 1466 0
	movs	r7, #4
	ldr	r3, [r4, #16]
.LVL514:
.LBE606:
.LBE605:
.LBB609:
.LBB604:
	.loc 1 1464 0
	ldrh	r2, [r4, #20]
	.loc 1 1465 0
	adds	r6, r3, r2
	strb	lr, [r6, #240]
	adds	r6, r2, #1
	.loc 1 1466 0
	uxtah	r6, r3, r6
	add	r2, r2, r1
	strh	r2, [r4, #20]	@ movhi
	strb	r1, [r6, #240]
.LVL515:
.LBE604:
.LBE609:
.LBB610:
.LBB611:
	.loc 1 1482 0
	ldrh	r2, [r4, #20]
.LBE611:
.LBE610:
	.loc 1 1260 0
	ldrh	r1, [r5, #46]
.LVL516:
.LBB613:
.LBB612:
	.loc 1 1483 0
	add	lr, r3, r2
	lsr	r10, r1, #8
	strb	r10, [lr, #240]
	.loc 1 1484 0
	add	lr, r2, #2
	.loc 1 1483 0
	adds	r2, r2, #1
	.loc 1 1484 0
	uxtah	r2, r3, r2
	strh	lr, [r4, #20]	@ movhi
	strb	r1, [r2, #240]
.LVL517:
.LBE612:
.LBE613:
.LBB614:
.LBB607:
	.loc 1 1464 0
	ldrh	r2, [r4, #20]
.LBE607:
.LBE614:
.LBB615:
.LBB616:
	.loc 1 2007 0
	movs	r6, #255
.LBE616:
.LBE615:
.LBB622:
.LBB608:
	.loc 1 1465 0
	adds	r1, r3, r2
	strb	ip, [r1, #240]
	adds	r1, r2, #1
	.loc 1 1466 0
	uxtah	r1, r3, r1
	adds	r2, r2, #2
	strh	r2, [r4, #20]	@ movhi
	strb	r7, [r1, #240]
.LVL518:
.LBE608:
.LBE622:
.LBB623:
.LBB624:
	.loc 1 1475 0
	ldrh	r2, [r4, #20]
	.loc 1 1476 0
	mov	ip, #6
	adds	r1, r2, #1
	strh	r1, [r4, #20]	@ movhi
	mov	r1, #1
	add	r2, r2, r3
	strb	r1, [r2, #240]
.LVL519:
	.loc 1 1475 0
	ldrh	r2, [r4, #20]
	.loc 1 1476 0
	adds	r1, r2, #1
	strh	r1, [r4, #20]	@ movhi
	mov	r1, #3
	add	r2, r2, r3
	strb	r1, [r2, #240]
.LVL520:
	.loc 1 1475 0
	ldrh	r2, [r4, #20]
	.loc 1 1476 0
	adds	r1, r2, #1
	strh	r1, [r4, #20]	@ movhi
	mov	r1, #28
	add	r2, r2, r3
	strb	r1, [r2, #240]
.LVL521:
	.loc 1 1475 0
	ldrh	r2, [r4, #20]
.LBE624:
.LBE623:
.LBB628:
.LBB617:
	.loc 1 2007 0
	adds	r1, r2, #2
.LBE617:
.LBE628:
.LBB629:
.LBB625:
	.loc 1 1476 0
	adds	r7, r2, #1
.LBE625:
.LBE629:
.LBB630:
.LBB618:
	.loc 1 2007 0
	uxth	r1, r1
.LBE618:
.LBE630:
.LBB631:
.LBB626:
	.loc 1 1476 0
	add	r2, r2, r3
.LBE626:
.LBE631:
.LBB632:
.LBB619:
	.loc 1 2007 0
	uxtah	r7, r3, r7
	.loc 1 2009 0
	cmp	r1, #67
.LBE619:
.LBE632:
.LBB633:
.LBB627:
	.loc 1 1476 0
	strb	ip, [r2, #240]
.LVL522:
.LBE627:
.LBE633:
.LBB634:
.LBB620:
	.loc 1 2007 0
	strh	r1, [r4, #20]	@ movhi
	strb	r6, [r7, #240]
	.loc 1 2009 0
	bls	.L584
.L552:
.LVL523:
.LBE620:
.LBE634:
	.loc 1 1273 0
	adds	r1, r1, #240
	uxth	r1, r1
	ldr	r0, [r4, #12]
.LVL524:
	bl	pbuf_realloc
.LVL525:
	.loc 1 1276 0
	ldr	r1, [r4, #12]
	ldr	r0, [r9]
	str	r5, [sp]
	movs	r3, #67
	mov	r2, r8
	bl	udp_sendto_if
.LVL526:
.LBB635:
.LBB636:
	.loc 1 1984 0
	ldr	r0, [r4, #12]
	.loc 1 1986 0
	cbz	r0, .L554
	.loc 1 1987 0
	bl	pbuf_free
.LVL527:
.L554:
	.loc 1 1989 0
	movs	r3, #0
	str	r3, [r4, #12]
	.loc 1 1990 0
	str	r3, [r4, #16]
.LVL528:
.L551:
.LBE636:
.LBE635:
	.loc 1 1282 0
	ldrb	r3, [r4, #10]	@ zero_extendqisi2
	cmp	r3, #255
	beq	.L557
	.loc 1 1283 0
	adds	r3, r3, #1
	uxtb	r3, r3
	.loc 1 1285 0
	cmp	r3, #9
	.loc 1 1283 0
	strb	r3, [r4, #10]
	.loc 1 1285 0
	bhi	.L557
	rsb	r2, r3, r3, lsl #5
	add	r3, r3, r2, lsl #2
	lsls	r3, r3, #3
	uxth	r3, r3
	addw	r3, r3, #499
	umull	r2, r3, fp, r3
	ubfx	r3, r3, #5, #16
.L556:
.LBE638:
.LBE641:
	.loc 1 596 0
	ldrh	r2, [r4, #34]
	ldrh	r1, [r4, #32]
.LBB642:
.LBB639:
	.loc 1 1286 0
	strh	r3, [r4, #22]	@ movhi
.LBE639:
.LBE642:
	.loc 1 596 0
	subs	r3, r2, r1
	cmp	r3, #1
	ble	.L545
	.loc 1 598 0
	asrs	r3, r3, #1
	strh	r3, [r4, #30]	@ movhi
	b	.L545
.LVL529:
.L584:
	adds	r6, r1, #1
.LBB643:
.LBB640:
.LBB637:
.LBB621:
	.loc 1 2012 0
	adds	r2, r3, r1
	uxth	r1, r6
	.loc 1 2009 0
	cmp	r1, #68
	.loc 1 2012 0
	strb	r0, [r2, #240]
	.loc 1 2009 0
	bne	.L584
	strh	r1, [r4, #20]	@ movhi
	b	.L552
.LVL530:
.L557:
.LBE621:
.LBE637:
.LBE640:
.LBE643:
.LBE645:
.LBE649:
.LBE650:
	.loc 1 425 0
	movs	r3, #20
	b	.L556
.L603:
	.align	2
.L602:
	.word	netif_list
	.word	274877907
	.word	.LANCHOR2
	.word	ip_addr_broadcast
	.cfi_endproc
.LFE152:
	.size	dhcp_coarse_tmr, .-dhcp_coarse_tmr
	.section	.text.dhcp_fine_tmr,"ax",%progbits
	.align	1
	.p2align 2,,3
	.global	dhcp_fine_tmr
	.syntax unified
	.thumb
	.thumb_func
	.fpu softvfp
	.type	dhcp_fine_tmr, %function
dhcp_fine_tmr:
.LFB153:
	.loc 1 469 0
	.cfi_startproc
	@ args = 0, pretend = 0, frame = 0
	@ frame_needed = 0, uses_anonymous_args = 0
	push	{r3, r4, r5, r6, r7, lr}
	.cfi_def_cfa_offset 24
	.cfi_offset 3, -24
	.cfi_offset 4, -20
	.cfi_offset 5, -16
	.cfi_offset 6, -12
	.cfi_offset 7, -8
	.cfi_offset 14, -4
	.loc 1 470 0
	ldr	r3, .L634
	ldr	r4, [r3]
.LVL531:
	.loc 1 472 0
	cbz	r4, .L604
.LBB658:
	.loc 1 481 0
	movs	r6, #0
.LBB659:
.LBB660:
.LBB661:
.LBB662:
	.loc 1 316 0
	movs	r7, #1
	b	.L618
.LVL532:
.L629:
.LBE662:
.LBE661:
.LBE660:
.LBE659:
	.loc 1 478 0
	subs	r3, r3, #1
	strh	r3, [r5, #22]	@ movhi
.L607:
	.loc 1 489 0
	ldr	r4, [r4]
.LVL533:
.LBE658:
	.loc 1 472 0
	cbz	r4, .L604
.LVL534:
.L618:
.LBB669:
	.loc 1 473 0
	ldr	r5, [r4, #32]
.LVL535:
	.loc 1 475 0
	cmp	r5, #0
	beq	.L607
	.loc 1 477 0
	ldrh	r3, [r5, #22]
	cmp	r3, #1
	bhi	.L629
	.loc 1 480 0
	bne	.L607
.LBB667:
.LBB665:
	.loc 1 508 0
	ldrb	r3, [r5, #9]	@ zero_extendqisi2
.LBE665:
.LBE667:
	.loc 1 481 0
	strh	r6, [r5, #22]	@ movhi
.LVL536:
.LBB668:
.LBB666:
	.loc 1 508 0
	cmp	r3, #12
	beq	.L628
	cmp	r3, #6
	beq	.L628
	.loc 1 512 0
	cmp	r3, #1
	beq	.L630
	.loc 1 523 0
	cmp	r3, #8
	beq	.L631
	.loc 1 534 0
	cmp	r3, #3
	bne	.L607
	.loc 1 535 0
	ldrb	r3, [r5, #10]	@ zero_extendqisi2
	.loc 1 536 0
	mov	r0, r4
	.loc 1 535 0
	cmp	r3, #1
	bls	.L632
	.loc 1 538 0
	bl	dhcp_discover
.LVL537:
	b	.L607
.LVL538:
.L604:
	pop	{r3, r4, r5, r6, r7, pc}
.LVL539:
.L630:
	.loc 1 514 0
	ldrb	r3, [r5, #10]	@ zero_extendqisi2
	.loc 1 515 0
	mov	r0, r4
	.loc 1 514 0
	cmp	r3, #5
	bhi	.L613
.LVL540:
	.loc 1 515 0
	bl	dhcp_select
.LVL541:
	b	.L607
.LVL542:
.L613:
	.loc 1 518 0
	bl	dhcp_release
.LVL543:
.L628:
	.loc 1 519 0
	mov	r0, r4
	bl	dhcp_discover
.LVL544:
	b	.L607
.L631:
	.loc 1 525 0
	ldrb	r3, [r5, #10]	@ zero_extendqisi2
	cmp	r3, #1
	bls	.L633
	.loc 1 531 0
	mov	r0, r4
	bl	dhcp_bind
.LVL545:
	b	.L607
.L633:
.LVL546:
.LBB664:
.LBB663:
	.loc 1 308 0
	movs	r2, #0
	add	r1, r5, #40
	mov	r0, r4
	bl	etharp_query
.LVL547:
	.loc 1 312 0
	ldrb	r3, [r5, #10]	@ zero_extendqisi2
	.loc 1 316 0
	strh	r7, [r5, #22]	@ movhi
	.loc 1 312 0
	cmp	r3, #255
	.loc 1 313 0
	itt	ne
	addne	r3, r3, #1
	strbne	r3, [r5, #10]
.LVL548:
	b	.L607
.LVL549:
.L632:
.LBE663:
.LBE664:
	.loc 1 536 0
	bl	dhcp_reboot
.LVL550:
	b	.L607
.L635:
	.align	2
.L634:
	.word	netif_list
.LBE666:
.LBE668:
.LBE669:
	.cfi_endproc
.LFE153:
	.size	dhcp_fine_tmr, .-dhcp_fine_tmr
	.section	.text.dhcp_stop,"ax",%progbits
	.align	1
	.p2align 2,,3
	.global	dhcp_stop
	.syntax unified
	.thumb
	.thumb_func
	.fpu softvfp
	.type	dhcp_stop, %function
dhcp_stop:
.LFB171:
	.loc 1 1416 0
	.cfi_startproc
	@ args = 0, pretend = 0, frame = 0
	@ frame_needed = 0, uses_anonymous_args = 0
.LVL551:
	.loc 1 1418 0
	cbz	r0, .L652
	.loc 1 1416 0
	push	{r4, r5, r6, lr}
	.cfi_def_cfa_offset 16
	.cfi_offset 4, -16
	.cfi_offset 5, -12
	.cfi_offset 6, -8
	.cfi_offset 14, -4
	.loc 1 1419 0
	ldr	r4, [r0, #32]
.LVL552:
	.loc 1 1423 0
	cbz	r4, .L636
.LVL553:
.LBB676:
.LBB677:
	.loc 1 1449 0
	ldrb	r3, [r4, #9]	@ zero_extendqisi2
	cbz	r3, .L640
	.loc 1 1450 0
	movs	r3, #0
	strb	r3, [r4, #9]
	.loc 1 1451 0
	strb	r3, [r4, #10]
	.loc 1 1452 0
	strh	r3, [r4, #22]	@ movhi
.L640:
.LVL554:
.LBE677:
.LBE676:
	.loc 1 1434 0
	ldrb	r3, [r4, #8]	@ zero_extendqisi2
	cbz	r3, .L636
.LBB678:
.LBB679:
	.loc 1 250 0
	ldr	r3, .L656
	.loc 1 251 0
	ldrb	r5, [r3]	@ zero_extendqisi2
	subs	r5, r5, #1
	uxtb	r5, r5
	strb	r5, [r3]
	.loc 1 253 0
	cbz	r5, .L655
.LVL555:
.L641:
.LBE679:
.LBE678:
	.loc 1 1436 0
	movs	r3, #0
	strb	r3, [r4, #8]
.L636:
	pop	{r4, r5, r6, pc}
.LVL556:
.L655:
.LBB683:
.LBB682:
.LBB680:
.LBB681:
	.loc 1 254 0
	ldr	r6, .L656+4
	ldr	r0, [r6]
.LVL557:
	bl	udp_remove
.LVL558:
	.loc 1 255 0
	str	r5, [r6]
	b	.L641
.LVL559:
.L652:
	.cfi_def_cfa_offset 0
	.cfi_restore 4
	.cfi_restore 5
	.cfi_restore 6
	.cfi_restore 14
	bx	lr
.L657:
	.align	2
.L656:
	.word	.LANCHOR3
	.word	.LANCHOR2
.LBE681:
.LBE680:
.LBE682:
.LBE683:
	.cfi_endproc
.LFE171:
	.size	dhcp_stop, .-dhcp_stop
	.section	.text.dhcp_supplied_address,"ax",%progbits
	.align	1
	.p2align 2,,3
	.global	dhcp_supplied_address
	.syntax unified
	.thumb
	.thumb_func
	.fpu softvfp
	.type	dhcp_supplied_address, %function
dhcp_supplied_address:
.LFB182:
	.loc 1 2024 0
	.cfi_startproc
	@ args = 0, pretend = 0, frame = 0
	@ frame_needed = 0, uses_anonymous_args = 0
	@ link register save eliminated.
.LVL560:
	.loc 1 2025 0
	cbz	r0, .L659
	.loc 1 2025 0 discriminator 1
	ldr	r0, [r0, #32]
.LVL561:
	cbz	r0, .L659
.LVL562:
.LBB684:
	.loc 1 2027 0
	ldrb	r0, [r0, #9]	@ zero_extendqisi2
.LVL563:
	cmp	r0, #10
	beq	.L663
	.loc 1 2027 0 is_stmt 0 discriminator 4
	subs	r0, r0, #4
	cmp	r0, #1
	ite	hi
	movhi	r0, #0
	movls	r0, #1
	bx	lr
.L663:
	movs	r0, #1
.LVL564:
.L659:
.LBE684:
	.loc 1 2031 0 is_stmt 1
	bx	lr
	.cfi_endproc
.LFE182:
	.size	dhcp_supplied_address, .-dhcp_supplied_address
	.comm	dhcp_rx_options_given,10,4
	.comm	dhcp_rx_options_val,40,4
	.section	.bss.dhcp_pcb,"aw",%nobits
	.align	2
	.set	.LANCHOR2,. + 0
	.type	dhcp_pcb, %object
	.size	dhcp_pcb, 4
dhcp_pcb:
	.space	4
	.section	.bss.dhcp_pcb_refcount,"aw",%nobits
	.set	.LANCHOR3,. + 0
	.type	dhcp_pcb_refcount, %object
	.size	dhcp_pcb_refcount, 1
dhcp_pcb_refcount:
	.space	1
	.section	.bss.is_fast_dhcp,"aw",%nobits
	.set	.LANCHOR0,. + 0
	.type	is_fast_dhcp, %object
	.size	is_fast_dhcp, 1
is_fast_dhcp:
	.space	1
	.section	.bss.xid.8215,"aw",%nobits
	.align	2
	.set	.LANCHOR1,. + 0
	.type	xid.8215, %object
	.size	xid.8215, 4
xid.8215:
	.space	4
	.text
.Letext0:
	.file 2 "/cygdrive/d/PUYA/HE3/sdk-ameba-v7.1d/tools/arm-none-eabi-gcc/asdk/cygwin/newlib/arm-none-eabi/include/machine/_default_types.h"
	.file 3 "/cygdrive/d/PUYA/HE3/sdk-ameba-v7.1d/tools/arm-none-eabi-gcc/asdk/cygwin/newlib/lib/gcc/arm-none-eabi/6.5.0/include/stddef.h"
	.file 4 "/cygdrive/d/PUYA/HE3/sdk-ameba-v7.1d/tools/arm-none-eabi-gcc/asdk/cygwin/newlib/arm-none-eabi/include/sys/lock.h"
	.file 5 "/cygdrive/d/PUYA/HE3/sdk-ameba-v7.1d/tools/arm-none-eabi-gcc/asdk/cygwin/newlib/arm-none-eabi/include/sys/_types.h"
	.file 6 "/cygdrive/d/PUYA/HE3/sdk-ameba-v7.1d/tools/arm-none-eabi-gcc/asdk/cygwin/newlib/arm-none-eabi/include/sys/reent.h"
	.file 7 "<built-in>"
	.file 8 "/cygdrive/d/PUYA/HE3/sdk-ameba-v7.1d/tools/arm-none-eabi-gcc/asdk/cygwin/newlib/arm-none-eabi/include/sys/_stdint.h"
	.file 9 "/cygdrive/d/PUYA/HE3/sdk-ameba-v7.1d/tools/arm-none-eabi-gcc/asdk/cygwin/newlib/arm-none-eabi/include/time.h"
	.file 10 "/cygdrive/d/PUYA/HE3/sdk-ameba-v7.1d/tools/arm-none-eabi-gcc/asdk/cygwin/newlib/lib/gcc/arm-none-eabi/6.5.0/include/stdarg.h"
	.file 11 "/cygdrive/d/PUYA/HE3/sdk-ameba-v7.1d/tools/arm-none-eabi-gcc/asdk/cygwin/newlib/arm-none-eabi/include/stdio.h"
	.file 12 "/cygdrive/d/PUYA/HE3/sdk-ameba-v7.1d/tools/arm-none-eabi-gcc/asdk/cygwin/newlib/arm-none-eabi/include/stdlib.h"
	.file 13 "../../../component/soc/realtek/8710c/cmsis/rtl8710c/include/basic_types.h"
	.file 14 "../../../component/common/network/lwip/lwip_v2.0.2/port/realtek/arch/cc.h"
	.file 15 "../../../component/common/network/lwip/lwip_v2.0.2/src/include/lwip/priv/memp_priv.h"
	.file 16 "../../../component/common/network/lwip/lwip_v2.0.2/src/include/lwip/memp.h"
	.file 17 "../../../component/common/network/lwip/lwip_v2.0.2/src/include/lwip/err.h"
	.file 18 "../../../component/common/network/lwip/lwip_v2.0.2/src/include/lwip/pbuf.h"
	.file 19 "../../../component/common/network/lwip/lwip_v2.0.2/src/include/lwip/ip4_addr.h"
	.file 20 "../../../component/common/network/lwip/lwip_v2.0.2/src/include/lwip/ip_addr.h"
	.file 21 "../../../component/common/network/lwip/lwip_v2.0.2/src/include/lwip/netif.h"
	.file 22 "../../../component/common/network/lwip/lwip_v2.0.2/src/include/lwip/prot/ip4.h"
	.file 23 "../../../component/common/network/lwip/lwip_v2.0.2/src/include/lwip/ip.h"
	.file 24 "../../../component/common/network/lwip/lwip_v2.0.2/src/include/lwip/udp.h"
	.file 25 "../../../component/common/network/lwip/lwip_v2.0.2/src/include/lwip/dhcp.h"
	.file 26 "../../../component/common/network/lwip/lwip_v2.0.2/src/include/lwip/prot/dhcp.h"
	.file 27 "../../../component/common/network/lwip/lwip_v2.0.2/src/include/lwip/dns.h"
	.file 28 "../inc/FreeRTOSConfig.h"
	.file 29 "../../../component/soc/realtek/8710c/app/rtl_printf/include/log_buf.h"
	.file 30 "../../../component/soc/realtek/8710c/app/stdio_port/stdio_port.h"
	.file 31 "../../../component/soc/realtek/8710c/app/rtl_printf/include/printf_entry.h"
	.file 32 "../../../component/soc/realtek/8710c/app/rtl_printf/include/rt_printf.h"
	.file 33 "../../../component/soc/realtek/8710c/misc/utilities/include/utility.h"
	.file 34 "../../../component/common/network/lwip/lwip_v2.0.2/src/include/lwip/def.h"
	.file 35 "../../../component/common/network/lwip/lwip_v2.0.2/src/include/lwip/etharp.h"
	.file 36 "../../../component/common/network/lwip/lwip_v2.0.2/src/include/lwip/sys.h"
	.file 37 "../../../component/common/network/lwip/lwip_v2.0.2/src/include/lwip/mem.h"