	.arch armv8-m.main
	.arch_extension dsp
	.eabi_attribute 20, 1
	.eabi_attribute 21, 1
	.eabi_attribute 23, 3
	.eabi_attribute 24, 1
	.eabi_attribute 25, 1
	.eabi_attribute 26, 1
	.eabi_attribute 30, 2
	.eabi_attribute 34, 1
	.eabi_attribute 18, 4
	.file	"epb_MmBp.c"
	.text
.Ltext0:
	.cfi_sections	.debug_frame
	.section	.text.epb_base_request_pack_size,"ax",%progbits
	.align	1
	.p2align 2,,3
	.global	epb_base_request_pack_size
	.syntax unified
	.thumb
	.thumb_func
	.fpu softvfp
	.type	epb_base_request_pack_size, %function
epb_base_request_pack_size:
.LFB1:
	.file 1 "../../../component/common/application/airsync/1.0.4/epb_MmBp.c"
	.loc 1 71 0
	.cfi_startproc
	@ args = 0, pretend = 0, frame = 0
	@ frame_needed = 0, uses_anonymous_args = 0
	@ link register save eliminated.
.LVL0:
	.loc 1 76 0
	movs	r0, #0
.LVL1:
	bx	lr
	.cfi_endproc
.LFE1:
	.size	epb_base_request_pack_size, .-epb_base_request_pack_size
	.section	.text.epb_pack_base_request,"ax",%progbits
	.align	1
	.p2align 2,,3
	.global	epb_pack_base_request
	.syntax unified
	.thumb
	.thumb_func
	.fpu softvfp
	.type	epb_pack_base_request, %function
epb_pack_base_request:
.LFB2:
	.loc 1 79 0
	.cfi_startproc
	@ args = 0, pretend = 0, frame = 16
	@ frame_needed = 0, uses_anonymous_args = 0
.LVL2:
	push	{lr}
	.cfi_def_cfa_offset 4
	.cfi_offset 14, -4
	sub	sp, sp, #20
	.cfi_def_cfa_offset 24
	.loc 1 82 0
	mov	r0, sp
.LVL3:
	bl	epb_pack_init
.LVL4:
	.loc 1 84 0
	mov	r0, sp
	bl	epb_get_packed_size
.LVL5:
	.loc 1 85 0
	add	sp, sp, #20
	.cfi_def_cfa_offset 4
	@ sp needed
	ldr	pc, [sp], #4
	.cfi_endproc
.LFE2:
	.size	epb_pack_base_request, .-epb_pack_base_request
	.section	.text.epb_unpack_base_response,"ax",%progbits
	.align	1
	.p2align 2,,3
	.global	epb_unpack_base_response
	.syntax unified
	.thumb
	.thumb_func
	.fpu softvfp
	.type	epb_unpack_base_response, %function
epb_unpack_base_response:
.LFB3:
	.loc 1 88 0
	.cfi_startproc
	@ args = 0, pretend = 0, frame = 16
	@ frame_needed = 0, uses_anonymous_args = 0
.LVL6:
	push	{r4, lr}
	.cfi_def_cfa_offset 8
	.cfi_offset 4, -8
	.cfi_offset 14, -4
	sub	sp, sp, #16
	.cfi_def_cfa_offset 24
	.loc 1 90 0
	mov	r2, r1
	mov	r1, r0
.LVL7:
	mov	r0, sp
.LVL8:
	bl	epb_unpack_init
.LVL9:
	.loc 1 92 0
	mov	r0, sp
	movs	r1, #8
	bl	epb_has_tag
.LVL10:
	cbz	r0, .L6
	.loc 1 97 0
	movs	r3, #97
	ldr	r2, .L13
	movs	r1, #16
	movs	r0, #0
	bl	os_mem_alloc_intern
.LVL11:
	.loc 1 98 0
	movs	r3, #0
	.loc 1 97 0
	mov	r4, r0
.LVL12:
	.loc 1 99 0
	movs	r1, #8
	.loc 1 98 0
	str	r3, [r0]	@ unaligned
	str	r3, [r0, #4]	@ unaligned
	str	r3, [r0, #8]	@ unaligned
	str	r3, [r0, #12]	@ unaligned
	.loc 1 99 0
	mov	r0, sp
.LVL13:
	bl	epb_get_int32
.LVL14:
	.loc 1 100 0
	movs	r1, #18
	.loc 1 99 0
	str	r0, [r4]
	.loc 1 100 0
	mov	r0, sp
	bl	epb_has_tag
.LVL15:
	cbnz	r0, .L12
	.loc 1 107 0
	mov	r0, r4
	add	sp, sp, #16
	.cfi_remember_state
	.cfi_def_cfa_offset 8
	@ sp needed
	pop	{r4, pc}
.LVL16:
.L12:
	.cfi_restore_state
	.loc 1 102 0
	mov	r0, sp
	add	r2, r4, #12
	movs	r1, #18
	bl	epb_get_string
.LVL17:
	.loc 1 103 0
	movs	r3, #1
	.loc 1 102 0
	str	r0, [r4, #8]
	.loc 1 107 0
	mov	r0, r4
	.loc 1 103 0
	strb	r3, [r4, #4]
	.loc 1 107 0
	add	sp, sp, #16
	.cfi_remember_state
	.cfi_def_cfa_offset 8
	@ sp needed
	pop	{r4, pc}
.LVL18:
.L6:
	.cfi_restore_state
	.loc 1 94 0
	mov	r4, r0
	.loc 1 107 0
	mov	r0, r4
	add	sp, sp, #16
	.cfi_def_cfa_offset 8
	@ sp needed
	pop	{r4, pc}
.L14:
	.align	2
.L13:
	.word	.LANCHOR0
	.cfi_endproc
.LFE3:
	.size	epb_unpack_base_response, .-epb_unpack_base_response
	.section	.text.epb_unpack_base_response_free,"ax",%progbits
	.align	1
	.p2align 2,,3
	.global	epb_unpack_base_response_free
	.syntax unified
	.thumb
	.thumb_func
	.fpu softvfp
	.type	epb_unpack_base_response_free, %function
epb_unpack_base_response_free:
.LFB4:
	.loc 1 110 0
	.cfi_startproc
	@ args = 0, pretend = 0, frame = 0
	@ frame_needed = 0, uses_anonymous_args = 0
	@ link register save eliminated.
.LVL19:
	.loc 1 111 0
	b	os_mem_free
.LVL20:
	.cfi_endproc
.LFE4:
	.size	epb_unpack_base_response_free, .-epb_unpack_base_response_free
	.section	.text.epb_unpack_base_push,"ax",%progbits
	.align	1
	.p2align 2,,3
	.global	epb_unpack_base_push
	.syntax unified
	.thumb
	.thumb_func
	.fpu softvfp
	.type	epb_unpack_base_push, %function
epb_unpack_base_push:
.LFB5:
	.loc 1 115 0
	.cfi_startproc
	@ args = 0, pretend = 0, frame = 16
	@ frame_needed = 0, uses_anonymous_args = 0
.LVL21:
	push	{lr}
	.cfi_def_cfa_offset 4
	.cfi_offset 14, -4
	sub	sp, sp, #20
	.cfi_def_cfa_offset 24
	.loc 1 117 0
	mov	r2, r1
	mov	r1, r0
.LVL22:
	mov	r0, sp
.LVL23:
	bl	epb_unpack_init
.LVL24:
	.loc 1 119 0
	movs	r3, #119
	ldr	r2, .L18
	movs	r1, #4
	movs	r0, #0
	bl	os_mem_alloc_intern
.LVL25:
	.loc 1 120 0
	movs	r3, #0
	str	r3, [r0]	@ unaligned
	.loc 1 123 0
	add	sp, sp, #20
	.cfi_def_cfa_offset 4
	@ sp needed
	ldr	pc, [sp], #4
.L19:
	.align	2
.L18:
	.word	.LANCHOR1
	.cfi_endproc
.LFE5:
	.size	epb_unpack_base_push, .-epb_unpack_base_push
	.section	.text.epb_unpack_base_push_free,"ax",%progbits
	.align	1
	.p2align 2,,3
	.global	epb_unpack_base_push_free
	.syntax unified
	.thumb
	.thumb_func
	.fpu softvfp
	.type	epb_unpack_base_push_free, %function
epb_unpack_base_push_free:
.LFB6:
	.loc 1 126 0
	.cfi_startproc
	@ args = 0, pretend = 0, frame = 0
	@ frame_needed = 0, uses_anonymous_args = 0
	@ link register save eliminated.
.LVL26:
	.loc 1 127 0
	b	os_mem_free
.LVL27:
	.cfi_endproc
.LFE6:
	.size	epb_unpack_base_push_free, .-epb_unpack_base_push_free
	.section	.text.epb_auth_request_pack_size,"ax",%progbits
	.align	1
	.p2align 2,,3
	.global	epb_auth_request_pack_size
	.syntax unified
	.thumb
	.thumb_func
	.fpu softvfp
	.type	epb_auth_request_pack_size, %function
epb_auth_request_pack_size:
.LFB7:
	.loc 1 131 0
	.cfi_startproc
	@ args = 0, pretend = 0, frame = 0
	@ frame_needed = 0, uses_anonymous_args = 0
.LVL28:
	push	{r3, r4, r5, lr}
	.cfi_def_cfa_offset 16
	.cfi_offset 3, -16
	.cfi_offset 4, -12
	.cfi_offset 5, -8
	.cfi_offset 14, -4
	.loc 1 131 0
	mov	r4, r0
.LVL29:
	.loc 1 136 0
	movs	r1, #0
	movs	r0, #10
.LVL30:
	bl	epb_length_delimited_pack_size
.LVL31:
	.loc 1 137 0
	ldrb	r3, [r4, #4]	@ zero_extendqisi2
	.loc 1 136 0
	mov	r5, r0
.LVL32:
	.loc 1 137 0
	cmp	r3, #0
	bne	.L47
.LVL33:
.L22:
	.loc 1 142 0
	movs	r2, #0
	ldr	r1, [r4, #16]
	movs	r0, #24
	bl	epb_varint32_pack_size
.LVL34:
	.loc 1 143 0
	movs	r2, #0
	.loc 1 142 0
	add	r5, r5, r0
.LVL35:
	.loc 1 143 0
	ldr	r1, [r4, #20]
	movs	r0, #32
	bl	epb_varint32_pack_size
.LVL36:
	.loc 1 144 0
	movs	r2, #0
	.loc 1 143 0
	add	r5, r5, r0
.LVL37:
	.loc 1 144 0
	ldrb	r1, [r4, #24]	@ zero_extendqisi2
	movs	r0, #40
	bl	epb_varint32_pack_size
.LVL38:
	.loc 1 145 0
	ldrb	r3, [r4, #25]	@ zero_extendqisi2
	.loc 1 144 0
	add	r5, r5, r0
.LVL39:
	.loc 1 145 0
	cbnz	r3, .L48
.L23:
	.loc 1 149 0
	ldrb	r3, [r4, #36]	@ zero_extendqisi2
	cbnz	r3, .L49
.L24:
	.loc 1 153 0
	ldrb	r3, [r4, #48]	@ zero_extendqisi2
	cbnz	r3, .L50
.L25:
	.loc 1 157 0
	ldrb	r3, [r4, #60]	@ zero_extendqisi2
	cbnz	r3, .L51
.L26:
	.loc 1 161 0
	ldrb	r3, [r4, #72]	@ zero_extendqisi2
	cbz	r3, .L21
	.loc 1 163 0
	ldr	r1, [r4, #80]
	movs	r0, #98
	bl	epb_length_delimited_pack_size
.LVL40:
	add	r5, r5, r0
.LVL41:
.L21:
	.loc 1 167 0
	mov	r0, r5
	pop	{r3, r4, r5, pc}
.LVL42:
.L51:
	.loc 1 159 0
	ldr	r1, [r4, #68]
	movs	r0, #90
	bl	epb_length_delimited_pack_size
.LVL43:
	add	r5, r5, r0
.LVL44:
	b	.L26
.L50:
	.loc 1 155 0
	ldr	r1, [r4, #56]
	movs	r0, #82
	bl	epb_length_delimited_pack_size
.LVL45:
	add	r5, r5, r0
.LVL46:
	b	.L25
.L49:
	.loc 1 151 0
	ldr	r1, [r4, #44]
	movs	r0, #58
	bl	epb_length_delimited_pack_size
.LVL47:
	add	r5, r5, r0
.LVL48:
	b	.L24
.L48:
	.loc 1 147 0
	ldr	r1, [r4, #32]
	movs	r0, #50
	bl	epb_length_delimited_pack_size
.LVL49:
	add	r5, r5, r0
.LVL50:
	b	.L23
.LVL51:
.L47:
	.loc 1 139 0
	ldr	r1, [r4, #12]
	movs	r0, #18
.LVL52:
	bl	epb_length_delimited_pack_size
.LVL53:
	add	r5, r5, r0
.LVL54:
	b	.L22
	.cfi_endproc
.LFE7:
	.size	epb_auth_request_pack_size, .-epb_auth_request_pack_size
	.section	.text.epb_pack_auth_request,"ax",%progbits
	.align	1
	.p2align 2,,3
	.global	epb_pack_auth_request
	.syntax unified
	.thumb
	.thumb_func
	.fpu softvfp
	.type	epb_pack_auth_request, %function
epb_pack_auth_request:
.LFB8:
	.loc 1 170 0
	.cfi_startproc
	@ args = 0, pretend = 0, frame = 32
	@ frame_needed = 0, uses_anonymous_args = 0
.LVL55:
	push	{r4, r5, r6, lr}
	.cfi_def_cfa_offset 16
	.cfi_offset 4, -16
	.cfi_offset 5, -12
	.cfi_offset 6, -8
	.cfi_offset 14, -4
	sub	sp, sp, #32
	.cfi_def_cfa_offset 48
	.loc 1 170 0
	mov	r5, r0
	.loc 1 172 0
	mov	r0, sp
.LVL56:
	bl	epb_pack_init
.LVL57:
	.loc 1 179 0
	movs	r1, #0
	movs	r3, #179
	mov	r0, r1
	ldr	r2, .L77
	bl	os_mem_alloc_intern
.LVL58:
.LBB32:
.LBB33:
	.loc 1 82 0
	movs	r2, #0
	mov	r1, r0
.LBE33:
.LBE32:
	.loc 1 179 0
	mov	r6, r0
.LVL59:
.LBB35:
.LBB34:
	.loc 1 82 0
	add	r0, sp, #16
.LVL60:
	bl	epb_pack_init
.LVL61:
	.loc 1 84 0
	add	r0, sp, #16
	bl	epb_get_packed_size
.LVL62:
.LBE34:
.LBE35:
	.loc 1 181 0
	subs	r4, r0, #0
	blt	.L73
	.loc 1 186 0
	movs	r3, #0
	mov	r2, r6
	movs	r1, #10
	mov	r0, sp
	bl	epb_set_message
.LVL63:
	mov	r4, r0
.LVL64:
	.loc 1 187 0
	mov	r0, r6
.LVL65:
	bl	os_mem_free
.LVL66:
	.loc 1 188 0
	cmp	r4, #0
	blt	.L52
	.loc 1 189 0
	ldrb	r3, [r5, #4]	@ zero_extendqisi2
	cbz	r3, .L57
	.loc 1 191 0
	ldr	r3, [r5, #12]
	ldr	r2, [r5, #8]
	movs	r1, #18
	mov	r0, sp
	bl	epb_set_bytes
.LVL67:
	.loc 1 193 0
	subs	r4, r0, #0
	blt	.L52
.LVL68:
.L57:
	.loc 1 195 0
	ldr	r2, [r5, #16]
	movs	r1, #24
	mov	r0, sp
	bl	epb_set_int32
.LVL69:
	.loc 1 196 0
	subs	r4, r0, #0
	blt	.L52
	.loc 1 197 0
	ldr	r2, [r5, #20]
	movs	r1, #32
	mov	r0, sp
.LVL70:
	bl	epb_set_int32
.LVL71:
	.loc 1 198 0
	subs	r4, r0, #0
	blt	.L52
	.loc 1 199 0
	ldrb	r2, [r5, #24]	@ zero_extendqisi2
	movs	r1, #40
	mov	r0, sp
.LVL72:
	bl	epb_set_enum
.LVL73:
	.loc 1 200 0
	subs	r4, r0, #0
	blt	.L52
	.loc 1 201 0
	ldrb	r3, [r5, #25]	@ zero_extendqisi2
	cbnz	r3, .L58
.L61:
	.loc 1 206 0
	ldrb	r3, [r5, #36]	@ zero_extendqisi2
	cbnz	r3, .L74
.L60:
	.loc 1 212 0
	ldrb	r3, [r5, #48]	@ zero_extendqisi2
	cbnz	r3, .L75
.L63:
	.loc 1 218 0
	ldrb	r3, [r5, #60]	@ zero_extendqisi2
	cmp	r3, #0
	bne	.L76
.L65:
	.loc 1 223 0
	ldrb	r3, [r5, #72]	@ zero_extendqisi2
	cbz	r3, .L67
	.loc 1 225 0
	ldr	r3, [r5, #80]
	ldr	r2, [r5, #76]
	movs	r1, #98
	mov	r0, sp
.LVL74:
	bl	epb_set_string
.LVL75:
	.loc 1 227 0
	subs	r4, r0, #0
	blt	.L52
.L67:
	.loc 1 230 0
	mov	r0, sp
.LVL76:
	bl	epb_get_packed_size
.LVL77:
	mov	r4, r0
.LVL78:
.L52:
	.loc 1 231 0
	mov	r0, r4
	add	sp, sp, #32
	.cfi_remember_state
	.cfi_def_cfa_offset 16
	@ sp needed
	pop	{r4, r5, r6, pc}
.LVL79:
.L73:
	.cfi_restore_state
	.loc 1 183 0
	mov	r0, r6
	bl	os_mem_free
.LVL80:
	.loc 1 231 0
	mov	r0, r4
	add	sp, sp, #32
	.cfi_remember_state
	.cfi_def_cfa_offset 16
	@ sp needed
	pop	{r4, r5, r6, pc}
.LVL81:
.L58:
	.cfi_restore_state
	.loc 1 203 0
	ldr	r3, [r5, #32]
	ldr	r2, [r5, #28]
	movs	r1, #50
	mov	r0, sp
.LVL82:
	bl	epb_set_bytes
.LVL83:
	.loc 1 204 0
	subs	r4, r0, #0
	bge	.L61
	b	.L52
.L74:
	.loc 1 208 0
	ldr	r3, [r5, #44]
	ldr	r2, [r5, #40]
	movs	r1, #58
	mov	r0, sp
.LVL84:
	bl	epb_set_bytes
.LVL85:
	.loc 1 210 0
	subs	r4, r0, #0
	bge	.L60
	b	.L52
.L75:
	.loc 1 214 0
	ldr	r3, [r5, #56]
	ldr	r2, [r5, #52]
	movs	r1, #82
	mov	r0, sp
.LVL86:
	bl	epb_set_string
.LVL87:
	.loc 1 216 0
	subs	r4, r0, #0
	bge	.L63
	b	.L52
.L76:
	.loc 1 220 0
	ldr	r3, [r5, #68]
	ldr	r2, [r5, #64]
	movs	r1, #90
	mov	r0, sp
.LVL88:
	bl	epb_set_string
.LVL89:
	.loc 1 221 0
	subs	r4, r0, #0
	bge	.L65
	b	.L52
.L78:
	.align	2
.L77:
	.word	.LANCHOR2
	.cfi_endproc
.LFE8:
	.size	epb_pack_auth_request, .-epb_pack_auth_request
	.section	.text.epb_unpack_auth_response,"ax",%progbits
	.align	1
	.p2align 2,,3
	.global	epb_unpack_auth_response
	.syntax unified
	.thumb
	.thumb_func
	.fpu softvfp
	.type	epb_unpack_auth_response, %function
epb_unpack_auth_response:
.LFB9:
	.loc 1 234 0
	.cfi_startproc
	@ args = 0, pretend = 0, frame = 40
	@ frame_needed = 0, uses_anonymous_args = 0
.LVL90:
	push	{r4, r5, r6, lr}
	.cfi_def_cfa_offset 16
	.cfi_offset 4, -16
	.cfi_offset 5, -12
	.cfi_offset 6, -8
	.cfi_offset 14, -4
	sub	sp, sp, #40
	.cfi_def_cfa_offset 56
	.loc 1 236 0
	mov	r2, r1
	mov	r1, r0
.LVL91:
	add	r0, sp, #8
.LVL92:
	bl	epb_unpack_init
.LVL93:
	.loc 1 241 0
	add	r0, sp, #8
	movs	r1, #10
	bl	epb_has_tag
.LVL94:
	cmp	r0, #0
	beq	.L80
	.loc 1 245 0
	movs	r1, #18
	add	r0, sp, #8
	bl	epb_has_tag
.LVL95:
	cmp	r0, #0
	beq	.L80
	.loc 1 250 0
	movs	r3, #250
	ldr	r2, .L94
	movs	r1, #12
	movs	r0, #0
	bl	os_mem_alloc_intern
.LVL96:
	.loc 1 251 0
	movs	r5, #0
	.loc 1 252 0
	add	r2, sp, #4
	.loc 1 251 0
	str	r5, [r0]	@ unaligned
	str	r5, [r0, #4]	@ unaligned
	str	r5, [r0, #8]	@ unaligned
	.loc 1 252 0
	movs	r1, #10
	.loc 1 250 0
	mov	r4, r0
.LVL97:
	.loc 1 252 0
	add	r0, sp, #8
.LVL98:
	bl	epb_get_message
.LVL99:
.LBB38:
.LBB39:
	.loc 1 90 0
	ldr	r2, [sp, #4]
	mov	r1, r0
	add	r0, sp, #24
.LVL100:
	bl	epb_unpack_init
.LVL101:
	.loc 1 92 0
	add	r0, sp, #24
	movs	r1, #8
	bl	epb_has_tag
.LVL102:
	mov	r6, r0
	cbz	r0, .L81
	.loc 1 97 0
	movs	r3, #97
	ldr	r2, .L94+4
	movs	r1, #16
	mov	r0, r5
	bl	os_mem_alloc_intern
.LVL103:
	.loc 1 99 0
	movs	r1, #8
	.loc 1 97 0
	mov	r6, r0
.LVL104:
	.loc 1 98 0
	str	r5, [r0]	@ unaligned
	str	r5, [r0, #4]	@ unaligned
	str	r5, [r0, #8]	@ unaligned
	str	r5, [r0, #12]	@ unaligned
	.loc 1 99 0
	add	r0, sp, #24
.LVL105:
	bl	epb_get_int32
.LVL106:
	.loc 1 100 0
	movs	r1, #18
	.loc 1 99 0
	str	r0, [r6]
	.loc 1 100 0
	add	r0, sp, #24
	bl	epb_has_tag
.LVL107:
	cbz	r0, .L82
	.loc 1 102 0
	add	r0, sp, #24
	add	r2, r6, #12
	movs	r1, #18
	bl	epb_get_string
.LVL108:
	.loc 1 103 0
	movs	r3, #1
	.loc 1 102 0
	str	r0, [r6, #8]
	.loc 1 103 0
	strb	r3, [r6, #4]
.L82:
.LVL109:
.LBE39:
.LBE38:
	.loc 1 253 0
	mov	r2, r4
	.loc 1 259 0
	add	r0, sp, #8
	.loc 1 253 0
	str	r6, [r2], #8
	.loc 1 259 0
	movs	r1, #18
	bl	epb_get_bytes
.LVL110:
	str	r0, [r4, #4]
	.loc 1 263 0
	mov	r0, r4
	add	sp, sp, #40
	.cfi_remember_state
	.cfi_def_cfa_offset 16
	@ sp needed
	pop	{r4, r5, r6, pc}
.LVL111:
.L80:
	.cfi_restore_state
	.loc 1 243 0
	movs	r4, #0
	.loc 1 263 0
	mov	r0, r4
	add	sp, sp, #40
	.cfi_remember_state
	.cfi_def_cfa_offset 16
	@ sp needed
	pop	{r4, r5, r6, pc}
.LVL112:
.L81:
	.cfi_restore_state
	.loc 1 253 0
	str	r0, [r4]
	.loc 1 256 0
	mov	r0, r4
	.loc 1 257 0
	mov	r4, r6
.LVL113:
	.loc 1 256 0
	bl	os_mem_free
.LVL114:
	.loc 1 263 0
	mov	r0, r4
	add	sp, sp, #40
	.cfi_def_cfa_offset 16
	@ sp needed
	pop	{r4, r5, r6, pc}
.L95:
	.align	2
.L94:
	.word	.LANCHOR3
	.word	.LANCHOR0
	.cfi_endproc
.LFE9:
	.size	epb_unpack_auth_response, .-epb_unpack_auth_response
	.section	.text.epb_unpack_auth_response_free,"ax",%progbits
	.align	1
	.p2align 2,,3
	.global	epb_unpack_auth_response_free
	.syntax unified
	.thumb
	.thumb_func
	.fpu softvfp
	.type	epb_unpack_auth_response_free, %function
epb_unpack_auth_response_free:
.LFB10:
	.loc 1 266 0
	.cfi_startproc
	@ args = 0, pretend = 0, frame = 0
	@ frame_needed = 0, uses_anonymous_args = 0
.LVL115:
	push	{r4, lr}
	.cfi_def_cfa_offset 8
	.cfi_offset 4, -8
	.cfi_offset 14, -4
	.loc 1 266 0
	mov	r4, r0
.LVL116:
.LBB40:
.LBB41:
	.loc 1 111 0
	ldr	r0, [r0]
.LVL117:
	bl	os_mem_free
.LVL118:
.LBE41:
.LBE40:
	.loc 1 268 0
	mov	r0, r4
	.loc 1 269 0
	pop	{r4, lr}
	.cfi_restore 14
	.cfi_restore 4
	.cfi_def_cfa_offset 0
.LVL119:
	.loc 1 268 0
	b	os_mem_free
.LVL120:
	.cfi_endproc
.LFE10:
	.size	epb_unpack_auth_response_free, .-epb_unpack_auth_response_free
	.section	.text.epb_init_request_pack_size,"ax",%progbits
	.align	1
	.p2align 2,,3
	.global	epb_init_request_pack_size
	.syntax unified
	.thumb
	.thumb_func
	.fpu softvfp
	.type	epb_init_request_pack_size, %function
epb_init_request_pack_size:
.LFB11:
	.loc 1 272 0
	.cfi_startproc
	@ args = 0, pretend = 0, frame = 0
	@ frame_needed = 0, uses_anonymous_args = 0
.LVL121:
	push	{r3, r4, r5, lr}
	.cfi_def_cfa_offset 16
	.cfi_offset 3, -16
	.cfi_offset 4, -12
	.cfi_offset 5, -8
	.cfi_offset 14, -4
	.loc 1 272 0
	mov	r4, r0
.LVL122:
	.loc 1 277 0
	movs	r1, #0
	movs	r0, #10
.LVL123:
	bl	epb_length_delimited_pack_size
.LVL124:
	.loc 1 278 0
	ldrb	r3, [r4, #4]	@ zero_extendqisi2
	.loc 1 277 0
	mov	r5, r0
.LVL125:
	.loc 1 278 0
	cbnz	r3, .L108
.LVL126:
.L99:
	.loc 1 283 0
	ldrb	r3, [r4, #16]	@ zero_extendqisi2
	cbz	r3, .L98
	.loc 1 285 0
	ldr	r1, [r4, #24]
	movs	r0, #26
	bl	epb_length_delimited_pack_size
.LVL127:
	add	r5, r5, r0
.LVL128:
.L98:
	.loc 1 289 0
	mov	r0, r5
	pop	{r3, r4, r5, pc}
.LVL129:
.L108:
	.loc 1 280 0
	ldr	r1, [r4, #12]
	movs	r0, #18
.LVL130:
	bl	epb_length_delimited_pack_size
.LVL131:
	add	r5, r5, r0
.LVL132:
	b	.L99
	.cfi_endproc
.LFE11:
	.size	epb_init_request_pack_size, .-epb_init_request_pack_size
	.section	.text.epb_pack_init_request,"ax",%progbits
	.align	1
	.p2align 2,,3
	.global	epb_pack_init_request
	.syntax unified
	.thumb
	.thumb_func
	.fpu softvfp
	.type	epb_pack_init_request, %function
epb_pack_init_request:
.LFB12:
	.loc 1 292 0
	.cfi_startproc
	@ args = 0, pretend = 0, frame = 32
	@ frame_needed = 0, uses_anonymous_args = 0
.LVL133:
	push	{r4, r5, r6, lr}
	.cfi_def_cfa_offset 16
	.cfi_offset 4, -16
	.cfi_offset 5, -12
	.cfi_offset 6, -8
	.cfi_offset 14, -4
	sub	sp, sp, #32
	.cfi_def_cfa_offset 48
	.loc 1 292 0
	mov	r6, r0
	.loc 1 294 0
	mov	r0, sp
.LVL134:
	bl	epb_pack_init
.LVL135:
	.loc 1 301 0
	movs	r1, #0
	movw	r3, #301
	mov	r0, r1
	ldr	r2, .L119
	bl	os_mem_alloc_intern
.LVL136:
.LBB42:
.LBB43:
	.loc 1 82 0
	movs	r2, #0
	mov	r1, r0
.LBE43:
.LBE42:
	.loc 1 301 0
	mov	r5, r0
.LVL137:
.LBB45:
.LBB44:
	.loc 1 82 0
	add	r0, sp, #16
.LVL138:
	bl	epb_pack_init
.LVL139:
	.loc 1 84 0
	add	r0, sp, #16
	bl	epb_get_packed_size
.LVL140:
.LBE44:
.LBE45:
	.loc 1 303 0
	subs	r4, r0, #0
	blt	.L118
	.loc 1 308 0
	movs	r3, #0
	mov	r2, r5
	movs	r1, #10
	mov	r0, sp
	bl	epb_set_message
.LVL141:
	mov	r4, r0
.LVL142:
	.loc 1 309 0
	mov	r0, r5
.LVL143:
	bl	os_mem_free
.LVL144:
	.loc 1 310 0
	cmp	r4, #0
	blt	.L109
	.loc 1 311 0
	ldrb	r3, [r6, #4]	@ zero_extendqisi2
	cbnz	r3, .L112
	.loc 1 317 0
	ldrb	r3, [r6, #16]	@ zero_extendqisi2
	cbnz	r3, .L113
.L114:
	.loc 1 324 0
	mov	r0, sp
	bl	epb_get_packed_size
.LVL145:
	mov	r4, r0
.LVL146:
.L109:
	.loc 1 325 0
	mov	r0, r4
	add	sp, sp, #32
	.cfi_remember_state
	.cfi_def_cfa_offset 16
	@ sp needed
	pop	{r4, r5, r6, pc}
.LVL147:
.L113:
	.cfi_restore_state
	.loc 1 319 0
	ldr	r3, [r6, #24]
	ldr	r2, [r6, #20]
	movs	r1, #26
	mov	r0, sp
	bl	epb_set_bytes
.LVL148:
	.loc 1 321 0
	subs	r4, r0, #0
	bge	.L114
	b	.L109
.LVL149:
.L112:
	.loc 1 313 0
	ldr	r3, [r6, #12]
	ldr	r2, [r6, #8]
	movs	r1, #18
	mov	r0, sp
	bl	epb_set_bytes
.LVL150:
	.loc 1 315 0
	subs	r4, r0, #0
	blt	.L109
	.loc 1 317 0
	ldrb	r3, [r6, #16]	@ zero_extendqisi2
	cmp	r3, #0
	bne	.L113
	b	.L114
.LVL151:
.L118:
	.loc 1 305 0
	mov	r0, r5
	bl	os_mem_free
.LVL152:
	.loc 1 325 0
	mov	r0, r4
	add	sp, sp, #32
	.cfi_def_cfa_offset 16
	@ sp needed
	pop	{r4, r5, r6, pc}
.LVL153:
.L120:
	.align	2
.L119:
	.word	.LANCHOR4
	.cfi_endproc
.LFE12:
	.size	epb_pack_init_request, .-epb_pack_init_request
	.section	.text.epb_unpack_init_response,"ax",%progbits
	.align	1
	.p2align 2,,3
	.global	epb_unpack_init_response
	.syntax unified
	.thumb
	.thumb_func
	.fpu softvfp
	.type	epb_unpack_init_response, %function
epb_unpack_init_response:
.LFB13:
	.loc 1 328 0
	.cfi_startproc
	@ args = 0, pretend = 0, frame = 40
	@ frame_needed = 0, uses_anonymous_args = 0
.LVL154:
	push	{r4, r5, lr}
	.cfi_def_cfa_offset 12
	.cfi_offset 4, -12
	.cfi_offset 5, -8
	.cfi_offset 14, -4
	sub	sp, sp, #44
	.cfi_def_cfa_offset 56
	.loc 1 330 0
	mov	r2, r1
	mov	r1, r0
.LVL155:
	add	r0, sp, #8
.LVL156:
	bl	epb_unpack_init
.LVL157:
	.loc 1 335 0
	add	r0, sp, #8
	movs	r1, #10
	bl	epb_has_tag
.LVL158:
	cmp	r0, #0
	beq	.L124
	.loc 1 339 0
	movs	r1, #16
	add	r0, sp, #8
	bl	epb_has_tag
.LVL159:
	cmp	r0, #0
	beq	.L124
	.loc 1 343 0
	movs	r1, #24
	add	r0, sp, #8
	bl	epb_has_tag
.LVL160:
	cmp	r0, #0
	beq	.L124
	.loc 1 348 0
	mov	r3, #348
	ldr	r2, .L184
	movs	r1, #92
	movs	r0, #0
	bl	os_mem_alloc_intern
.LVL161:
	.loc 1 349 0
	movs	r2, #92
	movs	r1, #0
	.loc 1 348 0
	mov	r4, r0
.LVL162:
	.loc 1 349 0
	bl	memset
.LVL163:
	.loc 1 350 0
	add	r2, sp, #4
	movs	r1, #10
	add	r0, sp, #8
	bl	epb_get_message
.LVL164:
.LBB48:
.LBB49:
	.loc 1 90 0
	ldr	r2, [sp, #4]
	mov	r1, r0
	add	r0, sp, #24
.LVL165:
	bl	epb_unpack_init
.LVL166:
	.loc 1 92 0
	add	r0, sp, #24
	movs	r1, #8
	bl	epb_has_tag
.LVL167:
	mov	r5, r0
	cmp	r0, #0
	beq	.L125
	.loc 1 97 0
	movs	r3, #97
	ldr	r2, .L184+4
	movs	r1, #16
	movs	r0, #0
	bl	os_mem_alloc_intern
.LVL168:
	.loc 1 98 0
	movs	r3, #0
	.loc 1 97 0
	mov	r5, r0
.LVL169:
	.loc 1 99 0
	movs	r1, #8
	.loc 1 98 0
	str	r3, [r0]	@ unaligned
	str	r3, [r0, #4]	@ unaligned
	str	r3, [r0, #8]	@ unaligned
	str	r3, [r0, #12]	@ unaligned
	.loc 1 99 0
	add	r0, sp, #24
.LVL170:
	bl	epb_get_int32
.LVL171:
	.loc 1 100 0
	movs	r1, #18
	.loc 1 99 0
	str	r0, [r5]
	.loc 1 100 0
	add	r0, sp, #24
	bl	epb_has_tag
.LVL172:
	cbz	r0, .L126
	.loc 1 102 0
	add	r0, sp, #24
	add	r2, r5, #12
	movs	r1, #18
	bl	epb_get_string
.LVL173:
	.loc 1 103 0
	movs	r3, #1
	.loc 1 102 0
	str	r0, [r5, #8]
	.loc 1 103 0
	strb	r3, [r5, #4]
.L126:
.LVL174:
.LBE49:
.LBE48:
	.loc 1 357 0
	movs	r1, #16
	.loc 1 351 0
	str	r5, [r4]
	.loc 1 357 0
	add	r0, sp, #8
	bl	epb_get_uint32
.LVL175:
	.loc 1 358 0
	movs	r1, #24
	.loc 1 357 0
	str	r0, [r4, #4]
	.loc 1 358 0
	add	r0, sp, #8
	bl	epb_get_uint32
.LVL176:
	.loc 1 359 0
	movs	r1, #32
	.loc 1 358 0
	str	r0, [r4, #8]
	.loc 1 359 0
	add	r0, sp, #8
	bl	epb_has_tag
.LVL177:
	cmp	r0, #0
	bne	.L175
.L136:
	.loc 1 364 0
	movs	r1, #40
	add	r0, sp, #8
	bl	epb_has_tag
.LVL178:
	cmp	r0, #0
	bne	.L176
.L127:
	.loc 1 369 0
	movs	r1, #48
	add	r0, sp, #8
	bl	epb_has_tag
.LVL179:
	cmp	r0, #0
	bne	.L177
.L128:
	.loc 1 375 0
	movs	r1, #90
	add	r0, sp, #8
	bl	epb_has_tag
.LVL180:
	cmp	r0, #0
	bne	.L178
.L129:
	.loc 1 381 0
	movs	r1, #96
	add	r0, sp, #8
	bl	epb_has_tag
.LVL181:
	cmp	r0, #0
	bne	.L179
.L130:
	.loc 1 386 0
	movs	r1, #106
	add	r0, sp, #8
	bl	epb_has_tag
.LVL182:
	cmp	r0, #0
	bne	.L180
.L131:
	.loc 1 391 0
	movs	r1, #114
	add	r0, sp, #8
	bl	epb_has_tag
.LVL183:
	cmp	r0, #0
	bne	.L181
.L132:
	.loc 1 396 0
	movs	r1, #120
	add	r0, sp, #8
	bl	epb_has_tag
.LVL184:
	cbnz	r0, .L182
.L133:
	.loc 1 401 0
	movw	r1, #32769
	add	r0, sp, #8
	bl	epb_has_tag
.LVL185:
	cbnz	r0, .L183
.L134:
	.loc 1 406 0
	movw	r1, #35329
	add	r0, sp, #8
	bl	epb_has_tag
.LVL186:
	cbz	r0, .L121
	.loc 1 408 0
	add	r0, sp, #8
	add	r2, r4, #88
	movw	r1, #35329
	bl	epb_get_string
.LVL187:
	.loc 1 410 0
	movs	r3, #1
	.loc 1 408 0
	str	r0, [r4, #84]
	.loc 1 414 0
	mov	r0, r4
	.loc 1 410 0
	strb	r3, [r4, #80]
	.loc 1 414 0
	add	sp, sp, #44
	.cfi_remember_state
	.cfi_def_cfa_offset 12
	@ sp needed
	pop	{r4, r5, pc}
.LVL188:
.L124:
	.cfi_restore_state
	.loc 1 337 0
	movs	r4, #0
.L121:
	.loc 1 414 0
	mov	r0, r4
	add	sp, sp, #44
	.cfi_remember_state
	.cfi_def_cfa_offset 12
	@ sp needed
	pop	{r4, r5, pc}
.LVL189:
.L183:
	.cfi_restore_state
	.loc 1 403 0
	movw	r1, #32769
	add	r0, sp, #8
	bl	epb_get_int32
.LVL190:
	.loc 1 404 0
	movs	r3, #1
	.loc 1 403 0
	str	r0, [r4, #76]
	.loc 1 404 0
	strb	r3, [r4, #72]
	b	.L134
.L182:
	.loc 1 398 0
	movs	r1, #120
	add	r0, sp, #8
	bl	epb_get_int32
.LVL191:
	.loc 1 399 0
	movs	r3, #1
	.loc 1 398 0
	str	r0, [r4, #68]
	.loc 1 399 0
	strb	r3, [r4, #64]
	b	.L133
.L181:
	.loc 1 393 0
	add	r2, r4, #60
	movs	r1, #114
	add	r0, sp, #8
	bl	epb_get_string
.LVL192:
	.loc 1 394 0
	movs	r3, #1
	.loc 1 393 0
	str	r0, [r4, #56]
	.loc 1 394 0
	strb	r3, [r4, #52]
	b	.L132
.L180:
	.loc 1 388 0
	add	r2, r4, #48
	movs	r1, #106
	add	r0, sp, #8
	bl	epb_get_string
.LVL193:
	.loc 1 389 0
	movs	r3, #1
	.loc 1 388 0
	str	r0, [r4, #44]
	.loc 1 389 0
	strb	r3, [r4, #42]
	b	.L131
.L179:
	.loc 1 383 0
	movs	r1, #96
	add	r0, sp, #8
	bl	epb_get_enum
.LVL194:
	.loc 1 384 0
	movs	r3, #1
	.loc 1 383 0
	strb	r0, [r4, #41]
	.loc 1 384 0
	strb	r3, [r4, #40]
	b	.L130
.L178:
	.loc 1 377 0
	add	r2, r4, #36
	movs	r1, #90
	add	r0, sp, #8
	bl	epb_get_string
.LVL195:
	.loc 1 379 0
	movs	r3, #1
	.loc 1 377 0
	str	r0, [r4, #32]
	.loc 1 379 0
	strb	r3, [r4, #28]
	b	.L129
.L177:
	.loc 1 371 0
	movs	r1, #48
	add	r0, sp, #8
	bl	epb_get_uint32
.LVL196:
	.loc 1 373 0
	movs	r3, #1
	.loc 1 371 0
	str	r0, [r4, #24]
	.loc 1 373 0
	strb	r3, [r4, #22]
	b	.L128
.L176:
	.loc 1 366 0
	movs	r1, #40
	add	r0, sp, #8
	bl	epb_get_enum
.LVL197:
	.loc 1 367 0
	movs	r3, #1
	.loc 1 366 0
	strb	r0, [r4, #21]
	.loc 1 367 0
	strb	r3, [r4, #20]
	b	.L127
.L175:
	.loc 1 361 0
	movs	r1, #32
	add	r0, sp, #8
	bl	epb_get_uint32
.LVL198:
	.loc 1 362 0
	movs	r3, #1
	.loc 1 361 0
	str	r0, [r4, #16]
	.loc 1 362 0
	strb	r3, [r4, #12]
	b	.L136
.L125:
	.loc 1 351 0
	str	r0, [r4]
	.loc 1 354 0
	mov	r0, r4
	.loc 1 355 0
	mov	r4, r5
.LVL199:
	.loc 1 354 0
	bl	os_mem_free
.LVL200:
	.loc 1 414 0
	mov	r0, r4
	add	sp, sp, #44
	.cfi_def_cfa_offset 12
	@ sp needed
	pop	{r4, r5, pc}
.L185:
	.align	2
.L184:
	.word	.LANCHOR5
	.word	.LANCHOR0
	.cfi_endproc
.LFE13:
	.size	epb_unpack_init_response, .-epb_unpack_init_response
	.section	.text.epb_unpack_init_response_free,"ax",%progbits
	.align	1
	.p2align 2,,3
	.global	epb_unpack_init_response_free
	.syntax unified
	.thumb
	.thumb_func
	.fpu softvfp
	.type	epb_unpack_init_response_free, %function
epb_unpack_init_response_free:
.LFB14:
	.loc 1 417 0
	.cfi_startproc
	@ args = 0, pretend = 0, frame = 0
	@ frame_needed = 0, uses_anonymous_args = 0
.LVL201:
	push	{r4, lr}
	.cfi_def_cfa_offset 8
	.cfi_offset 4, -8
	.cfi_offset 14, -4
	.loc 1 417 0
	mov	r4, r0
.LVL202:
.LBB50:
.LBB51:
	.loc 1 111 0
	ldr	r0, [r0]
.LVL203:
	bl	os_mem_free
.LVL204:
.LBE51:
.LBE50:
	.loc 1 419 0
	mov	r0, r4
	.loc 1 420 0
	pop	{r4, lr}
	.cfi_restore 14
	.cfi_restore 4
	.cfi_def_cfa_offset 0
.LVL205:
	.loc 1 419 0
	b	os_mem_free
.LVL206:
	.cfi_endproc
.LFE14:
	.size	epb_unpack_init_response_free, .-epb_unpack_init_response_free
	.section	.text.epb_send_data_request_pack_size,"ax",%progbits
	.align	1
	.p2align 2,,3
	.global	epb_send_data_request_pack_size
	.syntax unified
	.thumb
	.thumb_func
	.fpu softvfp
	.type	epb_send_data_request_pack_size, %function
epb_send_data_request_pack_size:
.LFB15:
	.loc 1 423 0
	.cfi_startproc
	@ args = 0, pretend = 0, frame = 0
	@ frame_needed = 0, uses_anonymous_args = 0
.LVL207:
	push	{r3, r4, r5, lr}
	.cfi_def_cfa_offset 16
	.cfi_offset 3, -16
	.cfi_offset 4, -12
	.cfi_offset 5, -8
	.cfi_offset 14, -4
	.loc 1 428 0
	movs	r1, #0
	.loc 1 423 0
	mov	r5, r0
.LVL208:
	.loc 1 428 0
	movs	r0, #10
.LVL209:
	bl	epb_length_delimited_pack_size
.LVL210:
	.loc 1 429 0
	ldr	r1, [r5, #8]
	.loc 1 428 0
	mov	r4, r0
.LVL211:
	.loc 1 429 0
	movs	r0, #18
.LVL212:
	bl	epb_length_delimited_pack_size
.LVL213:
	.loc 1 430 0
	ldrb	r3, [r5, #12]	@ zero_extendqisi2
	.loc 1 429 0
	add	r4, r4, r0
.LVL214:
	.loc 1 430 0
	cbz	r3, .L188
	.loc 1 432 0
	ldrh	r1, [r5, #14]
	movs	r2, #0
	movs	r0, #24
	bl	epb_varint32_pack_size
.LVL215:
	add	r4, r4, r0
.LVL216:
.L188:
	.loc 1 436 0
	mov	r0, r4
	pop	{r3, r4, r5, pc}
	.cfi_endproc
.LFE15:
	.size	epb_send_data_request_pack_size, .-epb_send_data_request_pack_size
	.section	.text.epb_pack_send_data_request,"ax",%progbits
	.align	1
	.p2align 2,,3
	.global	epb_pack_send_data_request
	.syntax unified
	.thumb
	.thumb_func
	.fpu softvfp
	.type	epb_pack_send_data_request, %function
epb_pack_send_data_request:
.LFB16:
	.loc 1 439 0
	.cfi_startproc
	@ args = 0, pretend = 0, frame = 32
	@ frame_needed = 0, uses_anonymous_args = 0
.LVL217:
	push	{r4, r5, r6, lr}
	.cfi_def_cfa_offset 16
	.cfi_offset 4, -16
	.cfi_offset 5, -12
	.cfi_offset 6, -8
	.cfi_offset 14, -4
	sub	sp, sp, #32
	.cfi_def_cfa_offset 48
	.loc 1 439 0
	mov	r6, r0
	.loc 1 441 0
	mov	r0, sp
.LVL218:
	bl	epb_pack_init
.LVL219:
	.loc 1 448 0
	movs	r1, #0
	mov	r3, #448
	mov	r0, r1
	ldr	r2, .L201
	bl	os_mem_alloc_intern
.LVL220:
.LBB52:
.LBB53:
	.loc 1 82 0
	movs	r2, #0
	mov	r1, r0
.LBE53:
.LBE52:
	.loc 1 448 0
	mov	r5, r0
.LVL221:
.LBB55:
.LBB54:
	.loc 1 82 0
	add	r0, sp, #16
.LVL222:
	bl	epb_pack_init
.LVL223:
	.loc 1 84 0
	add	r0, sp, #16
	bl	epb_get_packed_size
.LVL224:
.LBE54:
.LBE55:
	.loc 1 450 0
	subs	r4, r0, #0
	blt	.L200
	.loc 1 455 0
	movs	r3, #0
	mov	r2, r5
	movs	r1, #10
	mov	r0, sp
	bl	epb_set_message
.LVL225:
	mov	r4, r0
.LVL226:
	.loc 1 456 0
	mov	r0, r5
.LVL227:
	bl	os_mem_free
.LVL228:
	.loc 1 457 0
	cmp	r4, #0
	blt	.L194
	.loc 1 458 0
	ldr	r3, [r6, #8]
	ldr	r2, [r6, #4]
	movs	r1, #18
	mov	r0, sp
	bl	epb_set_bytes
.LVL229:
	.loc 1 459 0
	subs	r4, r0, #0
	blt	.L194
	.loc 1 460 0
	ldrb	r3, [r6, #12]	@ zero_extendqisi2
	cbz	r3, .L198
	.loc 1 462 0
	ldrh	r2, [r6, #14]
	movs	r1, #24
	mov	r0, sp
.LVL230:
	bl	epb_set_enum
.LVL231:
	.loc 1 463 0
	subs	r4, r0, #0
	blt	.L194
.L198:
	.loc 1 466 0
	mov	r0, sp
.LVL232:
	bl	epb_get_packed_size
.LVL233:
	mov	r4, r0
.LVL234:
.L194:
	.loc 1 467 0
	mov	r0, r4
	add	sp, sp, #32
	.cfi_remember_state
	.cfi_def_cfa_offset 16
	@ sp needed
	pop	{r4, r5, r6, pc}
.LVL235:
.L200:
	.cfi_restore_state
	.loc 1 452 0
	mov	r0, r5
	bl	os_mem_free
.LVL236:
	.loc 1 467 0
	mov	r0, r4
	add	sp, sp, #32
	.cfi_def_cfa_offset 16
	@ sp needed
	pop	{r4, r5, r6, pc}
.LVL237:
.L202:
	.align	2
.L201:
	.word	.LANCHOR6
	.cfi_endproc
.LFE16:
	.size	epb_pack_send_data_request, .-epb_pack_send_data_request
	.section	.text.epb_unpack_send_data_response,"ax",%progbits
	.align	1
	.p2align 2,,3
	.global	epb_unpack_send_data_response
	.syntax unified
	.thumb
	.thumb_func
	.fpu softvfp
	.type	epb_unpack_send_data_response, %function
epb_unpack_send_data_response:
.LFB17:
	.loc 1 470 0
	.cfi_startproc
	@ args = 0, pretend = 0, frame = 40
	@ frame_needed = 0, uses_anonymous_args = 0
.LVL238:
	push	{r4, r5, r6, lr}
	.cfi_def_cfa_offset 16
	.cfi_offset 4, -16
	.cfi_offset 5, -12
	.cfi_offset 6, -8
	.cfi_offset 14, -4
	sub	sp, sp, #40
	.cfi_def_cfa_offset 56
	.loc 1 472 0
	mov	r2, r1
	mov	r1, r0
.LVL239:
	add	r0, sp, #8
.LVL240:
	bl	epb_unpack_init
.LVL241:
	.loc 1 477 0
	add	r0, sp, #8
	movs	r1, #10
	bl	epb_has_tag
.LVL242:
	cmp	r0, #0
	beq	.L208
	.loc 1 482 0
	movw	r3, #483
	ldr	r2, .L214
	movs	r1, #16
	movs	r0, #0
	bl	os_mem_alloc_intern
.LVL243:
	.loc 1 484 0
	movs	r5, #0
	.loc 1 485 0
	add	r2, sp, #4
	.loc 1 484 0
	str	r5, [r0]	@ unaligned
	str	r5, [r0, #4]	@ unaligned
	str	r5, [r0, #8]	@ unaligned
	str	r5, [r0, #12]	@ unaligned
	.loc 1 485 0
	movs	r1, #10
	.loc 1 482 0
	mov	r4, r0
.LVL244:
	.loc 1 485 0
	add	r0, sp, #8
.LVL245:
	bl	epb_get_message
.LVL246:
.LBB58:
.LBB59:
	.loc 1 90 0
	ldr	r2, [sp, #4]
	mov	r1, r0
	add	r0, sp, #24
.LVL247:
	bl	epb_unpack_init
.LVL248:
	.loc 1 92 0
	add	r0, sp, #24
	movs	r1, #8
	bl	epb_has_tag
.LVL249:
	mov	r6, r0
	cmp	r0, #0
	beq	.L205
	.loc 1 97 0
	movs	r3, #97
	ldr	r2, .L214+4
	movs	r1, #16
	mov	r0, r5
	bl	os_mem_alloc_intern
.LVL250:
	.loc 1 99 0
	movs	r1, #8
	.loc 1 97 0
	mov	r6, r0
.LVL251:
	.loc 1 98 0
	str	r5, [r0]	@ unaligned
	str	r5, [r0, #4]	@ unaligned
	str	r5, [r0, #8]	@ unaligned
	str	r5, [r0, #12]	@ unaligned
	.loc 1 99 0
	add	r0, sp, #24
.LVL252:
	bl	epb_get_int32
.LVL253:
	.loc 1 100 0
	movs	r1, #18
	.loc 1 99 0
	str	r0, [r6]
	.loc 1 100 0
	add	r0, sp, #24
	bl	epb_has_tag
.LVL254:
	cbnz	r0, .L213
.L206:
.LVL255:
.LBE59:
.LBE58:
	.loc 1 486 0
	str	r6, [r4]
	.loc 1 492 0
	movs	r1, #18
	add	r0, sp, #8
	bl	epb_has_tag
.LVL256:
	cbnz	r0, .L207
	.loc 1 499 0
	mov	r0, r4
	add	sp, sp, #40
	.cfi_remember_state
	.cfi_def_cfa_offset 16
	@ sp needed
	pop	{r4, r5, r6, pc}
.LVL257:
.L207:
	.cfi_restore_state
	.loc 1 494 0
	add	r0, sp, #8
	add	r2, r4, #12
	movs	r1, #18
	bl	epb_get_bytes
.LVL258:
	.loc 1 495 0
	movs	r3, #1
	.loc 1 494 0
	str	r0, [r4, #8]
	.loc 1 499 0
	mov	r0, r4
	.loc 1 495 0
	strb	r3, [r4, #4]
	.loc 1 499 0
	add	sp, sp, #40
	.cfi_remember_state
	.cfi_def_cfa_offset 16
	@ sp needed
	pop	{r4, r5, r6, pc}
.LVL259:
.L213:
	.cfi_restore_state
.LBB61:
.LBB60:
	.loc 1 102 0
	add	r0, sp, #24
	add	r2, r6, #12
	movs	r1, #18
	bl	epb_get_string
.LVL260:
	.loc 1 103 0
	movs	r3, #1
	.loc 1 102 0
	str	r0, [r6, #8]
	.loc 1 103 0
	strb	r3, [r6, #4]
	b	.L206
.LVL261:
.L208:
.LBE60:
.LBE61:
	.loc 1 479 0
	mov	r4, r0
	.loc 1 499 0
	mov	r0, r4
	add	sp, sp, #40
	.cfi_remember_state
	.cfi_def_cfa_offset 16
	@ sp needed
	pop	{r4, r5, r6, pc}
.LVL262:
.L205:
	.cfi_restore_state
	.loc 1 486 0
	str	r0, [r4]
	.loc 1 489 0
	mov	r0, r4
	.loc 1 490 0
	mov	r4, r6
.LVL263:
	.loc 1 489 0
	bl	os_mem_free
.LVL264:
	.loc 1 499 0
	mov	r0, r4
	add	sp, sp, #40
	.cfi_def_cfa_offset 16
	@ sp needed
	pop	{r4, r5, r6, pc}
.L215:
	.align	2
.L214:
	.word	.LANCHOR7
	.word	.LANCHOR0
	.cfi_endproc
.LFE17:
	.size	epb_unpack_send_data_response, .-epb_unpack_send_data_response
	.section	.text.epb_unpack_send_data_response_free,"ax",%progbits
	.align	1
	.p2align 2,,3
	.global	epb_unpack_send_data_response_free
	.syntax unified
	.thumb
	.thumb_func
	.fpu softvfp
	.type	epb_unpack_send_data_response_free, %function
epb_unpack_send_data_response_free:
.LFB18:
	.loc 1 502 0
	.cfi_startproc
	@ args = 0, pretend = 0, frame = 0
	@ frame_needed = 0, uses_anonymous_args = 0
.LVL265:
	push	{r4, lr}
	.cfi_def_cfa_offset 8
	.cfi_offset 4, -8
	.cfi_offset 14, -4
	.loc 1 502 0
	mov	r4, r0
.LVL266:
.LBB62:
.LBB63:
	.loc 1 111 0
	ldr	r0, [r0]
.LVL267:
	bl	os_mem_free
.LVL268:
.LBE63:
.LBE62:
	.loc 1 504 0
	mov	r0, r4
	.loc 1 505 0
	pop	{r4, lr}
	.cfi_restore 14
	.cfi_restore 4
	.cfi_def_cfa_offset 0
.LVL269:
	.loc 1 504 0
	b	os_mem_free
.LVL270:
	.cfi_endproc
.LFE18:
	.size	epb_unpack_send_data_response_free, .-epb_unpack_send_data_response_free
	.section	.text.epb_unpack_recv_data_push,"ax",%progbits
	.align	1
	.p2align 2,,3
	.global	epb_unpack_recv_data_push
	.syntax unified
	.thumb
	.thumb_func
	.fpu softvfp
	.type	epb_unpack_recv_data_push, %function
epb_unpack_recv_data_push:
.LFB19:
	.loc 1 508 0
	.cfi_startproc
	@ args = 0, pretend = 0, frame = 40
	@ frame_needed = 0, uses_anonymous_args = 0
.LVL271:
	push	{r4, r5, lr}
	.cfi_def_cfa_offset 12
	.cfi_offset 4, -12
	.cfi_offset 5, -8
	.cfi_offset 14, -4
	sub	sp, sp, #44
	.cfi_def_cfa_offset 56
	.loc 1 510 0
	mov	r2, r1
	mov	r1, r0
.LVL272:
	add	r0, sp, #8
.LVL273:
	bl	epb_unpack_init
.LVL274:
	.loc 1 515 0
	add	r0, sp, #8
	movs	r1, #10
	bl	epb_has_tag
.LVL275:
	cmp	r0, #0
	beq	.L221
	.loc 1 519 0
	movs	r1, #18
	add	r0, sp, #8
	bl	epb_has_tag
.LVL276:
	cmp	r0, #0
	beq	.L221
	.loc 1 524 0
	mov	r3, #524
	ldr	r2, .L230
	movs	r1, #16
	movs	r0, #0
	bl	os_mem_alloc_intern
.LVL277:
	.loc 1 525 0
	movs	r5, #0
	.loc 1 524 0
	mov	r4, r0
.LVL278:
	.loc 1 526 0
	add	r2, sp, #4
	.loc 1 525 0
	str	r5, [r0]	@ unaligned
	str	r5, [r0, #4]	@ unaligned
	str	r5, [r0, #8]	@ unaligned
	str	r5, [r0, #12]	@ unaligned
	.loc 1 526 0
	movs	r1, #10
	add	r0, sp, #8
.LVL279:
	bl	epb_get_message
.LVL280:
.LBB66:
.LBB67:
	.loc 1 117 0
	ldr	r2, [sp, #4]
	mov	r1, r0
	add	r0, sp, #24
.LVL281:
	bl	epb_unpack_init
.LVL282:
	.loc 1 119 0
	movs	r3, #119
	ldr	r2, .L230+4
	movs	r1, #4
	mov	r0, r5
	bl	os_mem_alloc_intern
.LVL283:
.LBE67:
.LBE66:
	.loc 1 527 0
	mov	r2, r4
.LBB69:
.LBB68:
	.loc 1 120 0
	str	r5, [r0]	@ unaligned
.LVL284:
.LBE68:
.LBE69:
	.loc 1 533 0
	movs	r1, #18
	.loc 1 527 0
	str	r0, [r2], #8
	.loc 1 533 0
	add	r0, sp, #8
	bl	epb_get_bytes
.LVL285:
	.loc 1 534 0
	movs	r1, #24
	.loc 1 533 0
	str	r0, [r4, #4]
	.loc 1 534 0
	add	r0, sp, #8
	bl	epb_has_tag
.LVL286:
	cbnz	r0, .L229
	.loc 1 541 0
	mov	r0, r4
	add	sp, sp, #44
	.cfi_remember_state
	.cfi_def_cfa_offset 12
	@ sp needed
	pop	{r4, r5, pc}
.LVL287:
.L229:
	.cfi_restore_state
	.loc 1 536 0
	add	r0, sp, #8
	movs	r1, #24
	bl	epb_get_enum
.LVL288:
	.loc 1 537 0
	movs	r3, #1
	.loc 1 536 0
	strh	r0, [r4, #14]	@ movhi
	.loc 1 541 0
	mov	r0, r4
	.loc 1 537 0
	strb	r3, [r4, #12]
	.loc 1 541 0
	add	sp, sp, #44
	.cfi_remember_state
	.cfi_def_cfa_offset 12
	@ sp needed
	pop	{r4, r5, pc}
.LVL289:
.L221:
	.cfi_restore_state
	.loc 1 517 0
	movs	r4, #0
	.loc 1 541 0
	mov	r0, r4
	add	sp, sp, #44
	.cfi_def_cfa_offset 12
	@ sp needed
	pop	{r4, r5, pc}
.L231:
	.align	2
.L230:
	.word	.LANCHOR8
	.word	.LANCHOR1
	.cfi_endproc
.LFE19:
	.size	epb_unpack_recv_data_push, .-epb_unpack_recv_data_push
	.section	.text.epb_unpack_recv_data_push_free,"ax",%progbits
	.align	1
	.p2align 2,,3
	.global	epb_unpack_recv_data_push_free
	.syntax unified
	.thumb
	.thumb_func
	.fpu softvfp
	.type	epb_unpack_recv_data_push_free, %function
epb_unpack_recv_data_push_free:
.LFB20:
	.loc 1 544 0
	.cfi_startproc
	@ args = 0, pretend = 0, frame = 0
	@ frame_needed = 0, uses_anonymous_args = 0
.LVL290:
	push	{r4, lr}
	.cfi_def_cfa_offset 8
	.cfi_offset 4, -8
	.cfi_offset 14, -4
	.loc 1 544 0
	mov	r4, r0
.LVL291:
.LBB70:
.LBB71:
	.loc 1 127 0
	ldr	r0, [r0]
.LVL292:
	bl	os_mem_free
.LVL293:
.LBE71:
.LBE70:
	.loc 1 546 0
	mov	r0, r4
	.loc 1 547 0
	pop	{r4, lr}
	.cfi_restore 14
	.cfi_restore 4
	.cfi_def_cfa_offset 0
.LVL294:
	.loc 1 546 0
	b	os_mem_free
.LVL295:
	.cfi_endproc
.LFE20:
	.size	epb_unpack_recv_data_push_free, .-epb_unpack_recv_data_push_free
	.section	.text.epb_unpack_switch_view_push,"ax",%progbits
	.align	1
	.p2align 2,,3
	.global	epb_unpack_switch_view_push
	.syntax unified
	.thumb
	.thumb_func
	.fpu softvfp
	.type	epb_unpack_switch_view_push, %function
epb_unpack_switch_view_push:
.LFB21:
	.loc 1 550 0
	.cfi_startproc
	@ args = 0, pretend = 0, frame = 40
	@ frame_needed = 0, uses_anonymous_args = 0
.LVL296:
	push	{r4, r5, lr}
	.cfi_def_cfa_offset 12
	.cfi_offset 4, -12
	.cfi_offset 5, -8
	.cfi_offset 14, -4
	sub	sp, sp, #44
	.cfi_def_cfa_offset 56
	.loc 1 552 0
	mov	r2, r1
	mov	r1, r0
.LVL297:
	add	r0, sp, #8
.LVL298:
	bl	epb_unpack_init
.LVL299:
	.loc 1 557 0
	add	r0, sp, #8
	movs	r1, #10
	bl	epb_has_tag
.LVL300:
	cmp	r0, #0
	beq	.L237
	.loc 1 561 0
	movs	r1, #16
	add	r0, sp, #8
	bl	epb_has_tag
.LVL301:
	cbz	r0, .L237
	.loc 1 565 0
	movs	r1, #24
	add	r0, sp, #8
	bl	epb_has_tag
.LVL302:
	cbz	r0, .L237
	.loc 1 570 0
	movw	r3, #570
	ldr	r2, .L245
	movs	r1, #8
	movs	r0, #0
	bl	os_mem_alloc_intern
.LVL303:
	.loc 1 571 0
	movs	r5, #0
	.loc 1 570 0
	mov	r4, r0
.LVL304:
	.loc 1 572 0
	add	r2, sp, #4
	.loc 1 571 0
	str	r5, [r0]	@ unaligned
	str	r5, [r0, #4]	@ unaligned
	.loc 1 572 0
	movs	r1, #10
	add	r0, sp, #8
.LVL305:
	bl	epb_get_message
.LVL306:
.LBB74:
.LBB75:
	.loc 1 117 0
	ldr	r2, [sp, #4]
	mov	r1, r0
	add	r0, sp, #24
.LVL307:
	bl	epb_unpack_init
.LVL308:
	.loc 1 119 0
	ldr	r2, .L245+4
	mov	r0, r5
	movs	r3, #119
	movs	r1, #4
	bl	os_mem_alloc_intern
.LVL309:
	mov	r3, r0
.LVL310:
	.loc 1 120 0
	str	r5, [r0]	@ unaligned
.LVL311:
.LBE75:
.LBE74:
	.loc 1 579 0
	movs	r1, #16
	.loc 1 573 0
	str	r3, [r4]
	.loc 1 579 0
	add	r0, sp, #8
	bl	epb_get_enum
.LVL312:
	.loc 1 580 0
	movs	r1, #24
	.loc 1 579 0
	strb	r0, [r4, #4]
	.loc 1 580 0
	add	r0, sp, #8
	bl	epb_get_enum
.LVL313:
	strb	r0, [r4, #5]
	.loc 1 583 0
	mov	r0, r4
	add	sp, sp, #44
	.cfi_remember_state
	.cfi_def_cfa_offset 12
	@ sp needed
	pop	{r4, r5, pc}
.LVL314:
.L237:
	.cfi_restore_state
	.loc 1 559 0
	movs	r4, #0
	.loc 1 583 0
	mov	r0, r4
	add	sp, sp, #44
	.cfi_def_cfa_offset 12
	@ sp needed
	pop	{r4, r5, pc}
.L246:
	.align	2
.L245:
	.word	.LANCHOR9
	.word	.LANCHOR1
	.cfi_endproc
.LFE21:
	.size	epb_unpack_switch_view_push, .-epb_unpack_switch_view_push
	.section	.text.epb_unpack_switch_view_push_free,"ax",%progbits
	.align	1
	.p2align 2,,3
	.global	epb_unpack_switch_view_push_free
	.syntax unified
	.thumb
	.thumb_func
	.fpu softvfp
	.type	epb_unpack_switch_view_push_free, %function
epb_unpack_switch_view_push_free:
.LFB22:
	.loc 1 586 0
	.cfi_startproc
	@ args = 0, pretend = 0, frame = 0
	@ frame_needed = 0, uses_anonymous_args = 0
.LVL315:
	push	{r4, lr}
	.cfi_def_cfa_offset 8
	.cfi_offset 4, -8
	.cfi_offset 14, -4
	.loc 1 586 0
	mov	r4, r0
.LVL316:
.LBB76:
.LBB77:
	.loc 1 127 0
	ldr	r0, [r0]
.LVL317:
	bl	os_mem_free
.LVL318:
.LBE77:
.LBE76:
	.loc 1 588 0
	mov	r0, r4
	.loc 1 589 0
	pop	{r4, lr}
	.cfi_restore 14
	.cfi_restore 4
	.cfi_def_cfa_offset 0
.LVL319:
	.loc 1 588 0
	b	os_mem_free
.LVL320:
	.cfi_endproc
.LFE22:
	.size	epb_unpack_switch_view_push_free, .-epb_unpack_switch_view_push_free
	.section	.text.epb_unpack_switch_backgroud_push,"ax",%progbits
	.align	1
	.p2align 2,,3
	.global	epb_unpack_switch_backgroud_push
	.syntax unified
	.thumb
	.thumb_func
	.fpu softvfp
	.type	epb_unpack_switch_backgroud_push, %function
epb_unpack_switch_backgroud_push:
.LFB23:
	.loc 1 592 0
	.cfi_startproc
	@ args = 0, pretend = 0, frame = 40
	@ frame_needed = 0, uses_anonymous_args = 0
.LVL321:
	push	{r4, r5, lr}
	.cfi_def_cfa_offset 12
	.cfi_offset 4, -12
	.cfi_offset 5, -8
	.cfi_offset 14, -4
	sub	sp, sp, #44
	.cfi_def_cfa_offset 56
	.loc 1 594 0
	mov	r2, r1
	mov	r1, r0
.LVL322:
	add	r0, sp, #8
.LVL323:
	bl	epb_unpack_init
.LVL324:
	.loc 1 599 0
	add	r0, sp, #8
	movs	r1, #10
	bl	epb_has_tag
.LVL325:
	cbz	r0, .L252
	.loc 1 603 0
	movs	r1, #16
	add	r0, sp, #8
	bl	epb_has_tag
.LVL326:
	cbz	r0, .L252
	.loc 1 608 0
	movw	r3, #609
	ldr	r2, .L257
	movs	r1, #8
	movs	r0, #0
	bl	os_mem_alloc_intern
.LVL327:
	.loc 1 610 0
	movs	r5, #0
	.loc 1 608 0
	mov	r4, r0
.LVL328:
	.loc 1 611 0
	add	r2, sp, #4
	.loc 1 610 0
	str	r5, [r0]	@ unaligned
	str	r5, [r0, #4]	@ unaligned
	.loc 1 611 0
	movs	r1, #10
	add	r0, sp, #8
.LVL329:
	bl	epb_get_message
.LVL330:
.LBB80:
.LBB81:
	.loc 1 117 0
	ldr	r2, [sp, #4]
	mov	r1, r0
	add	r0, sp, #24
.LVL331:
	bl	epb_unpack_init
.LVL332:
	.loc 1 119 0
	ldr	r2, .L257+4
	mov	r0, r5
	movs	r3, #119
	movs	r1, #4
	bl	os_mem_alloc_intern
.LVL333:
	mov	r3, r0
.LVL334:
	.loc 1 120 0
	str	r5, [r0]	@ unaligned
.LVL335:
.LBE81:
.LBE80:
	.loc 1 618 0
	movs	r1, #16
	add	r0, sp, #8
	.loc 1 612 0
	str	r3, [r4]
	.loc 1 618 0
	bl	epb_get_enum
.LVL336:
	strb	r0, [r4, #4]
	.loc 1 622 0
	mov	r0, r4
	add	sp, sp, #44
	.cfi_remember_state
	.cfi_def_cfa_offset 12
	@ sp needed
	pop	{r4, r5, pc}
.LVL337:
.L252:
	.cfi_restore_state
	.loc 1 601 0
	movs	r4, #0
	.loc 1 622 0
	mov	r0, r4
	add	sp, sp, #44
	.cfi_def_cfa_offset 12
	@ sp needed
	pop	{r4, r5, pc}
.L258:
	.align	2
.L257:
	.word	.LANCHOR10
	.word	.LANCHOR1
	.cfi_endproc
.LFE23:
	.size	epb_unpack_switch_backgroud_push, .-epb_unpack_switch_backgroud_push
	.section	.text.epb_unpack_switch_backgroud_push_free,"ax",%progbits
	.align	1
	.p2align 2,,3
	.global	epb_unpack_switch_backgroud_push_free
	.syntax unified
	.thumb
	.thumb_func
	.fpu softvfp
	.type	epb_unpack_switch_backgroud_push_free, %function
epb_unpack_switch_backgroud_push_free:
.LFB24:
	.loc 1 625 0
	.cfi_startproc
	@ args = 0, pretend = 0, frame = 0
	@ frame_needed = 0, uses_anonymous_args = 0
.LVL338:
	push	{r4, lr}
	.cfi_def_cfa_offset 8
	.cfi_offset 4, -8
	.cfi_offset 14, -4
	.loc 1 625 0
	mov	r4, r0
.LVL339:
.LBB82:
.LBB83:
	.loc 1 127 0
	ldr	r0, [r0]
.LVL340:
	bl	os_mem_free
.LVL341:
.LBE83:
.LBE82:
	.loc 1 627 0
	mov	r0, r4
	.loc 1 628 0
	pop	{r4, lr}
	.cfi_restore 14
	.cfi_restore 4
	.cfi_def_cfa_offset 0
.LVL342:
	.loc 1 627 0
	b	os_mem_free
.LVL343:
	.cfi_endproc
.LFE24:
	.size	epb_unpack_switch_backgroud_push_free, .-epb_unpack_switch_backgroud_push_free
	.section	.rodata.__func__.6167,"a",%progbits
	.align	2
	.set	.LANCHOR0,. + 0
	.type	__func__.6167, %object
	.size	__func__.6167, 25
__func__.6167:
	.ascii	"epb_unpack_base_response\000"
	.section	.rodata.__func__.6177,"a",%progbits
	.align	2
	.set	.LANCHOR1,. + 0
	.type	__func__.6177, %object
	.size	__func__.6177, 21
__func__.6177:
	.ascii	"epb_unpack_base_push\000"
	.section	.rodata.__func__.6195,"a",%progbits
	.align	2
	.set	.LANCHOR2,. + 0
	.type	__func__.6195, %object
	.size	__func__.6195, 22
__func__.6195:
	.ascii	"epb_pack_auth_request\000"
	.section	.rodata.__func__.6204,"a",%progbits
	.align	2
	.set	.LANCHOR3,. + 0
	.type	__func__.6204, %object
	.size	__func__.6204, 25
__func__.6204:
	.ascii	"epb_unpack_auth_response\000"
	.section	.rodata.__func__.6222,"a",%progbits
	.align	2
	.set	.LANCHOR4,. + 0
	.type	__func__.6222, %object
	.size	__func__.6222, 22
__func__.6222:
	.ascii	"epb_pack_init_request\000"
	.section	.rodata.__func__.6231,"a",%progbits
	.align	2
	.set	.LANCHOR5,. + 0
	.type	__func__.6231, %object
	.size	__func__.6231, 25
__func__.6231:
	.ascii	"epb_unpack_init_response\000"
	.section	.rodata.__func__.6249,"a",%progbits
	.align	2
	.set	.LANCHOR6,. + 0
	.type	__func__.6249, %object
	.size	__func__.6249, 27
__func__.6249:
	.ascii	"epb_pack_send_data_request\000"
	.section	.rodata.__func__.6258,"a",%progbits
	.align	2
	.set	.LANCHOR7,. + 0
	.type	__func__.6258, %object
	.size	__func__.6258, 30
__func__.6258:
	.ascii	"epb_unpack_send_data_response\000"
	.section	.rodata.__func__.6270,"a",%progbits
	.align	2
	.set	.LANCHOR8,. + 0
	.type	__func__.6270, %object
	.size	__func__.6270, 26
__func__.6270:
	.ascii	"epb_unpack_recv_data_push\000"
	.section	.rodata.__func__.6282,"a",%progbits
	.align	2
	.set	.LANCHOR9,. + 0
	.type	__func__.6282, %object
	.size	__func__.6282, 28
__func__.6282:
	.ascii	"epb_unpack_switch_view_push\000"
	.section	.rodata.__func__.6294,"a",%progbits
	.align	2
	.set	.LANCHOR10,. + 0
	.type	__func__.6294, %object
	.size	__func__.6294, 33
__func__.6294:
	.ascii	"epb_unpack_switch_backgroud_push\000"
	.text
.Letext0:
	.file 2 "/cygdrive/d/PUYA/HE3/sdk-ameba-v7.1d/tools/arm-none-eabi-gcc/asdk/cygwin/newlib/arm-none-eabi/include/machine/_default_types.h"
	.file 3 "/cygdrive/d/PUYA/HE3/sdk-ameba-v7.1d/tools/arm-none-eabi-gcc/asdk/cygwin/newlib/arm-none-eabi/include/sys/lock.h"
	.file 4 "/cygdrive/d/PUYA/HE3/sdk-ameba-v7.1d/tools/arm-none-eabi-gcc/asdk/cygwin/newlib/arm-none-eabi/include/sys/_types.h"
	.file 5 "/cygdrive/d/PUYA/HE3/sdk-ameba-v7.1d/tools/arm-none-eabi-gcc/asdk/cygwin/newlib/lib/gcc/arm-none-eabi/6.5.0/include/stddef.h"
	.file 6 "/cygdrive/d/PUYA/HE3/sdk-ameba-v7.1d/tools/arm-none-eabi-gcc/asdk/cygwin/newlib/arm-none-eabi/include/sys/reent.h"
	.file 7 "/cygdrive/d/PUYA/HE3/sdk-ameba-v7.1d/tools/arm-none-eabi-gcc/asdk/cygwin/newlib/arm-none-eabi/include/sys/_stdint.h"
	.file 8 "/cygdrive/d/PUYA/HE3/sdk-ameba-v7.1d/tools/arm-none-eabi-gcc/asdk/cygwin/newlib/arm-none-eabi/include/time.h"
	.file 9 "/cygdrive/d/PUYA/HE3/sdk-ameba-v7.1d/tools/arm-none-eabi-gcc/asdk/cygwin/newlib/arm-none-eabi/include/stdlib.h"
	.file 10 "../../../component/common/application/airsync/1.0.4/epb.h"
	.file 11 "../../../component/common/application/airsync/1.0.4/epb_MmBp.h"
	.file 12 "../../../component/common/bluetooth/realtek/sdk/inc/platform/mem_types.h"
	.file 13 "../../../component/common/bluetooth/realtek/sdk/inc/os/os_mem.h"