	.arch armv8-m.main
	.arch_extension dsp
	.eabi_attribute 20, 1
	.eabi_attribute 21, 1
	.eabi_attribute 23, 3
	.eabi_attribute 24, 1
	.eabi_attribute 25, 1
	.eabi_attribute 26, 1
	.eabi_attribute 30, 2
	.eabi_attribute 34, 1
	.eabi_attribute 18, 4
	.file	"etharp.c"
	.text
.Ltext0:
	.cfi_sections	.debug_frame
	.section	.text.etharp_find_entry.isra.0,"ax",%progbits
	.align	1
	.p2align 2,,3
	.syntax unified
	.thumb
	.thumb_func
	.fpu softvfp
	.type	etharp_find_entry.isra.0, %function
etharp_find_entry.isra.0:
.LFB17:
	.file 1 "../../../component/common/network/lwip/lwip_v2.0.2/src/core/ipv4/etharp.c"
	.loc 1 263 0
	.cfi_startproc
	@ args = 0, pretend = 0, frame = 0
	@ frame_needed = 0, uses_anonymous_args = 0
.LVL0:
	push	{r3, r4, r5, r6, r7, r8, r9, r10, fp, lr}
	.cfi_def_cfa_offset 40
	.cfi_offset 3, -40
	.cfi_offset 4, -36
	.cfi_offset 5, -32
	.cfi_offset 6, -28
	.cfi_offset 7, -24
	.cfi_offset 8, -20
	.cfi_offset 9, -16
	.cfi_offset 10, -12
	.cfi_offset 11, -8
	.cfi_offset 14, -4
	.loc 1 263 0
	mov	fp, r1
.LBB36:
	.loc 1 291 0
	ldr	r4, .L291
	cmp	r0, #0
	beq	.L259
	ldrb	r5, [r4, #20]	@ zero_extendqisi2
.LVL1:
	.loc 1 293 0
	cmp	r5, #0
	beq	.L74
	.loc 1 301 0
	ldr	r6, [r0]
	ldr	r3, [r4, #4]
	cmp	r6, r3
	beq	.L186
	.loc 1 311 0
	cmp	r5, #1
	beq	.L76
	.loc 1 330 0
	cmp	r5, #4
	bhi	.L187
.LBE36:
	.loc 1 271 0
	mov	r9, #0
	.loc 1 269 0
	movs	r2, #10
	.loc 1 271 0
	mov	lr, r9
.LBB37:
	.loc 1 335 0
	mov	ip, r9
.LBE37:
	.loc 1 265 0
	mov	r8, r2
.LBB38:
	.loc 1 334 0
	ldrh	r5, [r4, #18]
.LVL2:
.L77:
	.loc 1 291 0
	ldrb	r10, [r4, #44]	@ zero_extendqisi2
.LVL3:
	.loc 1 293 0
	cmp	r10, #0
	bne	.L236
	.loc 1 296 0
	movs	r3, #1
.LVL4:
	.loc 1 291 0
	ldrb	r7, [r4, #68]	@ zero_extendqisi2
.LVL5:
.L84:
	.loc 1 297 0
	cmp	r7, #0
	bne	.L260
.LVL6:
.L89:
	.loc 1 291 0
	ldrb	r7, [r4, #92]	@ zero_extendqisi2
.LVL7:
.L91:
	.loc 1 297 0
	cmp	r7, #0
	bne	.L261
.LVL8:
.L96:
	.loc 1 291 0
	ldrb	r7, [r4, #116]	@ zero_extendqisi2
.LVL9:
.L98:
	.loc 1 297 0
	cmp	r7, #0
	bne	.L262
.LVL10:
.L103:
	.loc 1 291 0
	ldrb	r7, [r4, #140]	@ zero_extendqisi2
.LVL11:
.L105:
	.loc 1 297 0
	cmp	r7, #0
	bne	.L263
.LVL12:
.L110:
	.loc 1 291 0
	ldrb	r7, [r4, #164]	@ zero_extendqisi2
.LVL13:
.L112:
	.loc 1 297 0
	cmp	r7, #0
	bne	.L264
.LVL14:
.L117:
	.loc 1 291 0
	ldrb	r7, [r4, #188]	@ zero_extendqisi2
.LVL15:
.L119:
	.loc 1 297 0
	cmp	r7, #0
	bne	.L265
.LVL16:
.L124:
	.loc 1 291 0
	ldrb	r7, [r4, #212]	@ zero_extendqisi2
.LVL17:
.L126:
	.loc 1 297 0
	cmp	r7, #0
	bne	.L266
.LVL18:
.L131:
	.loc 1 291 0
	ldrb	r7, [r4, #236]	@ zero_extendqisi2
.LVL19:
.L132:
	.loc 1 297 0
	cmp	r7, #0
	bne	.L267
.LVL20:
.L73:
.LBE38:
	.loc 1 345 0
	tst	fp, #2
	bne	.L234
	cmp	r3, #10
	mov	r7, r0
	beq	.L268
	mov	r5, r3
	.loc 1 363 0
	uxtb	r8, r3
.LVL21:
.L140:
	.loc 1 401 0
	lsls	r1, r5, #1
	.loc 1 399 0
	cbz	r7, .L145
	.loc 1 401 0
	ldr	r2, [r7]
	adds	r3, r1, r5
	add	r3, r4, r3, lsl #3
	str	r2, [r3, #4]
.L145:
	.loc 1 403 0
	movs	r3, #0
	add	r1, r1, r5
	add	r4, r4, r1, lsl #3
	.loc 1 407 0
	sxtb	r0, r8
	.loc 1 403 0
	strh	r3, [r4, #18]	@ movhi
	pop	{r3, r4, r5, r6, r7, r8, r9, r10, fp, pc}
.LVL22:
.L74:
.LBB39:
	.loc 1 291 0
	ldrb	r10, [r4, #44]	@ zero_extendqisi2
.LVL23:
	.loc 1 297 0
	cmp	r10, #0
	bne	.L269
.LBE39:
	.loc 1 269 0
	movs	r2, #10
.LBB40:
	.loc 1 291 0
	ldrb	r7, [r4, #68]	@ zero_extendqisi2
.LBE40:
	.loc 1 271 0
	mov	r5, r10
	mov	r9, r10
	mov	lr, r10
.LBB41:
	.loc 1 296 0
	mov	r3, r10
.LBE41:
	.loc 1 265 0
	mov	ip, r2
	mov	r8, r2
.LVL24:
.LBB42:
	.loc 1 297 0
	cmp	r7, #0
	beq	.L89
.L260:
	ldr	r6, [r0]
.LVL25:
.L88:
	.loc 1 301 0
	ldr	r1, [r4, #52]
.LVL26:
	cmp	r6, r1
	beq	.L193
	.loc 1 311 0
	cmp	r7, #1
	beq	.L85
	.loc 1 330 0
	cmp	r7, #4
	bhi	.L86
	.loc 1 334 0
	ldrh	r7, [r4, #66]
.LVL27:
	cmp	r7, r5
	bcs	.L194
.LVL28:
.L86:
	.loc 1 293 0
	cmp	r3, #10
	.loc 1 291 0
	ldrb	r7, [r4, #92]	@ zero_extendqisi2
.LVL29:
	.loc 1 293 0
	bne	.L91
.LVL30:
	cbnz	r7, .L95
	.loc 1 296 0
	movs	r3, #3
	b	.L96
.LVL31:
.L269:
.LBE42:
	.loc 1 269 0
	movs	r2, #10
	.loc 1 271 0
	mov	r9, r5
	mov	lr, r5
.LBB43:
	.loc 1 296 0
	mov	r3, r5
.LBE43:
	.loc 1 265 0
	mov	ip, r2
	mov	r8, r2
	ldr	r6, [r0]
.LVL32:
.L149:
.LBB44:
	.loc 1 301 0
	ldr	r7, [r4, #28]
	cmp	r6, r7
	beq	.L189
	.loc 1 311 0
	cmp	r10, #1
	beq	.L80
	.loc 1 330 0
	cmp	r10, #4
	bhi	.L81
	.loc 1 334 0
	ldrh	r7, [r4, #42]
	cmp	r7, r5
	bcs	.L190
.L81:
.LVL33:
	.loc 1 293 0
	cmp	r3, #10
	.loc 1 291 0
	ldrb	r7, [r4, #68]	@ zero_extendqisi2
.LVL34:
	.loc 1 293 0
	bne	.L84
.LVL35:
	cmp	r7, #0
	bne	.L88
	.loc 1 296 0
	movs	r3, #2
	b	.L89
.LVL36:
.L261:
	ldr	r6, [r0]
.LVL37:
.L95:
	.loc 1 301 0
	ldr	r1, [r4, #76]
	cmp	r6, r1
	beq	.L198
	.loc 1 311 0
	cmp	r7, #1
	beq	.L92
	.loc 1 330 0
	cmp	r7, #4
	bhi	.L93
	.loc 1 334 0
	ldrh	r7, [r4, #90]
.LVL38:
	cmp	r7, r5
	bcs	.L199
.LVL39:
.L93:
	.loc 1 293 0
	cmp	r3, #10
	.loc 1 291 0
	ldrb	r7, [r4, #116]	@ zero_extendqisi2
.LVL40:
	.loc 1 293 0
	bne	.L98
.LVL41:
	cbnz	r7, .L102
	.loc 1 296 0
	movs	r3, #4
	b	.L103
.LVL42:
.L268:
.LBE44:
	.loc 1 347 0
	lsls	r3, fp, #31
	bpl	.L234
	.loc 1 367 0
	cmp	ip, #10
	beq	.L141
	.loc 1 369 0
	uxtb	r8, ip
.LVL43:
.L142:
.LBB45:
.LBB46:
	.loc 1 180 0
	lsl	r6, r8, #1
	add	r9, r6, r8
	lsl	r9, r9, #3
	ldr	r0, [r4, r9]
.LBE46:
.LBE45:
	.loc 1 391 0
	mov	r5, r8
.LVL44:
.LBB48:
.LBB47:
	.loc 1 180 0
	cbz	r0, .L144
	.loc 1 183 0
	bl	pbuf_free
.LVL45:
	.loc 1 184 0
	movs	r3, #0
	str	r3, [r4, r9]
.L144:
	.loc 1 187 0
	movs	r3, #0
	add	r6, r6, r8
	add	r6, r4, r6, lsl #3
	strb	r3, [r6, #20]
	b	.L140
.LVL46:
.L262:
	ldr	r6, [r0]
.LVL47:
.L102:
.LBE47:
.LBE48:
.LBB49:
	.loc 1 301 0
	ldr	r1, [r4, #100]
	cmp	r6, r1
	beq	.L203
	.loc 1 311 0
	cmp	r7, #1
	beq	.L99
	.loc 1 330 0
	cmp	r7, #4
	bhi	.L100
	.loc 1 334 0
	ldrh	r7, [r4, #114]
.LVL48:
	cmp	r7, r5
	bcs	.L204
.LVL49:
.L100:
	.loc 1 293 0
	cmp	r3, #10
	.loc 1 291 0
	ldrb	r7, [r4, #140]	@ zero_extendqisi2
.LVL50:
	.loc 1 293 0
	bne	.L105
.LVL51:
	cbnz	r7, .L109
	.loc 1 296 0
	movs	r3, #5
	b	.L110
.LVL52:
.L263:
	ldr	r6, [r0]
.LVL53:
.L109:
	.loc 1 301 0
	ldr	r1, [r4, #124]
	cmp	r6, r1
	beq	.L208
	.loc 1 311 0
	cmp	r7, #1
	beq	.L106
	.loc 1 330 0
	cmp	r7, #4
	bhi	.L107
	.loc 1 334 0
	ldrh	r7, [r4, #138]
.LVL54:
	cmp	r7, r5
	bcs	.L209
.LVL55:
.L107:
	.loc 1 293 0
	cmp	r3, #10
	.loc 1 291 0
	ldrb	r7, [r4, #164]	@ zero_extendqisi2
.LVL56:
	.loc 1 293 0
	bne	.L112
.LVL57:
	cbnz	r7, .L116
	.loc 1 296 0
	movs	r3, #6
	b	.L117
.LVL58:
.L264:
	ldr	r6, [r0]
.LVL59:
.L116:
	.loc 1 301 0
	ldr	r1, [r4, #148]
	cmp	r6, r1
	beq	.L213
	.loc 1 311 0
	cmp	r7, #1
	beq	.L113
	.loc 1 330 0
	cmp	r7, #4
	bhi	.L114
	.loc 1 334 0
	ldrh	r7, [r4, #162]
.LVL60:
	cmp	r7, r5
	bcs	.L214
.LVL61:
.L114:
	.loc 1 293 0
	cmp	r3, #10
	.loc 1 291 0
	ldrb	r7, [r4, #188]	@ zero_extendqisi2
.LVL62:
	.loc 1 293 0
	bne	.L119
.LVL63:
	cbnz	r7, .L123
	.loc 1 296 0
	movs	r3, #7
	b	.L124
.LVL64:
.L265:
	ldr	r6, [r0]
.LVL65:
.L123:
	.loc 1 301 0
	ldr	r1, [r4, #172]
	cmp	r6, r1
	beq	.L218
	.loc 1 311 0
	cmp	r7, #1
	beq	.L120
	.loc 1 330 0
	cmp	r7, #4
	bhi	.L121
	.loc 1 334 0
	ldrh	r7, [r4, #186]
.LVL66:
	cmp	r7, r5
	bcs	.L219
.LVL67:
.L121:
	.loc 1 293 0
	cmp	r3, #10
	.loc 1 291 0
	ldrb	r7, [r4, #212]	@ zero_extendqisi2
.LVL68:
	.loc 1 293 0
	bne	.L126
.LVL69:
	cbnz	r7, .L130
	.loc 1 296 0
	movs	r3, #8
	b	.L131
.LVL70:
.L266:
	ldr	r6, [r0]
.LVL71:
.L130:
	.loc 1 301 0
	ldr	r1, [r4, #196]
	cmp	r6, r1
	beq	.L223
	.loc 1 311 0
	cmp	r7, #1
	beq	.L127
	.loc 1 330 0
	cmp	r7, #4
	bhi	.L128
	.loc 1 334 0
	ldrh	r7, [r4, #210]
.LVL72:
	cmp	r7, r5
	bcs	.L224
.LVL73:
.L128:
	.loc 1 293 0
	cmp	r3, #10
	.loc 1 291 0
	ldrb	r7, [r4, #236]	@ zero_extendqisi2
.LVL74:
	.loc 1 293 0
	bne	.L132
.LVL75:
	cbnz	r7, .L134
.LVL76:
.L228:
	.loc 1 296 0
	movs	r3, #9
	b	.L73
.LVL77:
.L267:
	ldr	r6, [r0]
.LVL78:
.L134:
	.loc 1 301 0
	ldr	r1, [r4, #220]
	cmp	r6, r1
.LBE49:
	.loc 1 290 0
	it	eq
	moveq	r0, #9
.LVL79:
.LBB50:
	.loc 1 301 0
	beq	.L75
	.loc 1 311 0
	cmp	r7, #1
	beq	.L270
	.loc 1 330 0
	cmp	r7, #4
	bhi	.L73
	.loc 1 334 0
	ldrh	r6, [r4, #234]
	.loc 1 335 0
	cmp	r6, r5
	it	cs
	movcs	ip, #9
.LVL80:
	b	.L73
.LVL81:
.L141:
.LBE50:
	.loc 1 374 0
	cmp	r8, #10
	bne	.L271
	.loc 1 379 0
	cmp	r2, #10
	beq	.L234
	.loc 1 381 0
	uxtb	r8, r2
.LVL82:
	b	.L142
.LVL83:
.L76:
.LBB51:
	.loc 1 313 0
	ldr	r5, [r4]
.LVL84:
	cmp	r5, #0
	beq	.L272
.LBE51:
	.loc 1 271 0
	movs	r5, #0
	.loc 1 265 0
	mov	ip, #10
	.loc 1 271 0
	mov	r9, r5
.LBB52:
	.loc 1 315 0
	mov	r2, r5
.LBE52:
	.loc 1 265 0
	mov	r8, ip
.LBB53:
	.loc 1 314 0
	ldrh	lr, [r4, #18]
.LVL85:
	b	.L77
.LVL86:
.L80:
	.loc 1 313 0
	ldr	r7, [r4, #24]
	cmp	r7, #0
	beq	.L273
	.loc 1 314 0
	ldrh	r7, [r4, #42]
	cmp	r7, lr
	bcc	.L81
	mov	lr, r7
	.loc 1 315 0
	mov	r2, r10
	b	.L81
.LVL87:
.L85:
	.loc 1 313 0
	ldr	r7, [r4, #48]
.LVL88:
	cmp	r7, #0
	beq	.L274
	.loc 1 314 0
	ldrh	r7, [r4, #66]
	cmp	r7, lr
	bcc	.L86
	mov	lr, r7
.LVL89:
	.loc 1 315 0
	movs	r2, #2
.LVL90:
	b	.L86
.L292:
	.align	2
.L291:
	.word	.LANCHOR0
.LVL91:
.L92:
	.loc 1 313 0
	ldr	r7, [r4, #72]
.LVL92:
	cmp	r7, #0
	beq	.L275
	.loc 1 314 0
	ldrh	r7, [r4, #90]
	cmp	r7, lr
	bcc	.L93
	mov	lr, r7
.LVL93:
	.loc 1 315 0
	movs	r2, #3
.LVL94:
	b	.L93
.LVL95:
.L99:
	.loc 1 313 0
	ldr	r7, [r4, #96]
.LVL96:
	cmp	r7, #0
	beq	.L276
	.loc 1 314 0
	ldrh	r7, [r4, #114]
	cmp	r7, lr
	bcc	.L100
	mov	lr, r7
.LVL97:
	.loc 1 315 0
	movs	r2, #4
.LVL98:
	b	.L100
.LVL99:
.L106:
	.loc 1 313 0
	ldr	r7, [r4, #120]
.LVL100:
	cmp	r7, #0
	beq	.L277
	.loc 1 314 0
	ldrh	r7, [r4, #138]
	cmp	r7, lr
	bcc	.L107
	mov	lr, r7
.LVL101:
	.loc 1 315 0
	movs	r2, #5
.LVL102:
	b	.L107
.LVL103:
.L113:
	.loc 1 313 0
	ldr	r7, [r4, #144]
.LVL104:
	cmp	r7, #0
	beq	.L278
	.loc 1 314 0
	ldrh	r7, [r4, #162]
	cmp	r7, lr
	bcc	.L114
	mov	lr, r7
.LVL105:
	.loc 1 315 0
	movs	r2, #6
.LVL106:
	b	.L114
.LVL107:
.L120:
	.loc 1 313 0
	ldr	r7, [r4, #168]
.LVL108:
	cmp	r7, #0
	beq	.L279
	.loc 1 314 0
	ldrh	r7, [r4, #186]
	cmp	r7, lr
	bcc	.L121
	mov	lr, r7
.LVL109:
	.loc 1 315 0
	movs	r2, #7
.LVL110:
	b	.L121
.LVL111:
.L127:
	.loc 1 313 0
	ldr	r7, [r4, #192]
.LVL112:
	cmp	r7, #0
	beq	.L280
	.loc 1 314 0
	ldrh	r7, [r4, #210]
	cmp	r7, lr
	bcc	.L128
	mov	lr, r7
.LVL113:
	.loc 1 315 0
	movs	r2, #8
.LVL114:
	b	.L128
.LVL115:
.L270:
	.loc 1 313 0
	ldr	r5, [r4, #216]
.LVL116:
	cmp	r5, #0
	beq	.L137
	.loc 1 314 0
	ldrh	r5, [r4, #234]
	.loc 1 315 0
	cmp	r5, lr
	it	cs
	movcs	r2, #9
.LVL117:
	b	.L73
.LVL118:
.L271:
.LBE53:
	.loc 1 376 0
	uxtb	r8, r8
.LVL119:
	b	.L142
.LVL120:
.L259:
.LBB54:
	.loc 1 291 0
	ldrb	r3, [r4, #20]	@ zero_extendqisi2
.LVL121:
	.loc 1 293 0
	cbz	r3, .L3
	.loc 1 311 0
	cmp	r3, #1
	beq	.L281
	.loc 1 330 0
	cmp	r3, #4
.LBE54:
	.loc 1 269 0
	mov	r2, #10
.LBB55:
	.loc 1 330 0
	bhi	.L150
.LBE55:
	.loc 1 265 0
	mov	r8, r2
	.loc 1 271 0
	mov	r7, r0
	mov	r6, r0
.LBB56:
	.loc 1 335 0
	mov	ip, r0
	.loc 1 334 0
	ldrh	lr, [r4, #18]
.LVL122:
.L6:
	.loc 1 291 0
	ldrb	r9, [r4, #44]	@ zero_extendqisi2
.LVL123:
	.loc 1 293 0
	cmp	r9, #0
	bne	.L235
	.loc 1 296 0
	movs	r3, #1
	b	.L7
.LVL124:
.L223:
.LBE56:
	.loc 1 290 0
	movs	r0, #8
.LVL125:
.L75:
.LBB57:
	.loc 1 308 0
	sxtb	r0, r0
	pop	{r3, r4, r5, r6, r7, r8, r9, r10, fp, pc}
.LVL126:
.L236:
	.loc 1 293 0
	movs	r3, #10
	b	.L149
.LVL127:
.L3:
.LBE57:
	.loc 1 269 0
	movs	r2, #10
.LBB58:
	.loc 1 291 0
	ldrb	r9, [r4, #44]	@ zero_extendqisi2
.LVL128:
.LBE58:
	.loc 1 271 0
	mov	lr, r0
	.loc 1 265 0
	mov	ip, r2
	mov	r8, r2
	.loc 1 271 0
	mov	r7, r0
	mov	r6, r0
.LBB59:
	.loc 1 296 0
	mov	r3, r0
	.loc 1 297 0
	cmp	r9, #0
	bne	.L148
.LVL129:
.L7:
	.loc 1 291 0
	ldrb	r5, [r4, #68]	@ zero_extendqisi2
.LVL130:
.L12:
	.loc 1 297 0
	cmp	r5, #0
	bne	.L18
.LVL131:
.L17:
	.loc 1 291 0
	ldrb	r5, [r4, #92]	@ zero_extendqisi2
.LVL132:
.L20:
	.loc 1 297 0
	cmp	r5, #0
	bne	.L26
.LVL133:
.L25:
	.loc 1 291 0
	ldrb	r5, [r4, #116]	@ zero_extendqisi2
.LVL134:
.L28:
	.loc 1 297 0
	cmp	r5, #0
	bne	.L34
.LVL135:
.L33:
	.loc 1 291 0
	ldrb	r5, [r4, #140]	@ zero_extendqisi2
.LVL136:
.L36:
	.loc 1 297 0
	cmp	r5, #0
	bne	.L42
.LVL137:
.L41:
	.loc 1 291 0
	ldrb	r5, [r4, #164]	@ zero_extendqisi2
.LVL138:
.L44:
	.loc 1 297 0
	cmp	r5, #0
	bne	.L50
.LVL139:
.L49:
	.loc 1 291 0
	ldrb	r5, [r4, #188]	@ zero_extendqisi2
.LVL140:
.L52:
	.loc 1 297 0
	cmp	r5, #0
	bne	.L58
.LVL141:
.L57:
	.loc 1 291 0
	ldrb	r5, [r4, #212]	@ zero_extendqisi2
.LVL142:
.L60:
	.loc 1 297 0
	cmp	r5, #0
	bne	.L66
.LVL143:
.L65:
	.loc 1 291 0
	ldrb	r5, [r4, #236]	@ zero_extendqisi2
.LVL144:
.L68:
	.loc 1 297 0
	cmp	r5, #0
	beq	.L73
.LVL145:
.L72:
	.loc 1 311 0
	cmp	r5, #1
	beq	.L69
	.loc 1 330 0
	cmp	r5, #4
	bhi	.L73
	.loc 1 334 0
	ldrh	r5, [r4, #234]
.LVL146:
	.loc 1 335 0
	cmp	r5, lr
	it	cs
	movcs	ip, #9
.LVL147:
	b	.L73
.LVL148:
.L187:
.LBE59:
	.loc 1 271 0
	movs	r5, #0
.LVL149:
	.loc 1 269 0
	movs	r2, #10
	.loc 1 271 0
	mov	r9, r5
	mov	lr, r5
	.loc 1 265 0
	mov	ip, r2
	mov	r8, r2
	b	.L77
.LVL150:
.L235:
.LBB60:
	.loc 1 293 0
	movs	r3, #10
.LVL151:
.L148:
	.loc 1 311 0
	cmp	r9, #1
	beq	.L282
	.loc 1 330 0
	cmp	r9, #4
	bhi	.L10
	.loc 1 334 0
	ldrh	r5, [r4, #42]
	cmp	r5, lr
	bcc	.L10
	mov	lr, r5
	.loc 1 335 0
	mov	ip, #1
.L10:
.LVL152:
	.loc 1 293 0
	cmp	r3, #10
	.loc 1 291 0
	ldrb	r5, [r4, #68]	@ zero_extendqisi2
.LVL153:
	.loc 1 293 0
	bne	.L12
.LVL154:
	cbnz	r5, .L18
	.loc 1 296 0
	movs	r3, #2
	b	.L17
.LVL155:
.L18:
	.loc 1 311 0
	cmp	r5, #1
	beq	.L283
	.loc 1 330 0
	cmp	r5, #4
	bhi	.L15
	.loc 1 334 0
	ldrh	r5, [r4, #66]
.LVL156:
	cmp	r5, lr
	bcc	.L15
	mov	lr, r5
.LVL157:
	.loc 1 335 0
	mov	ip, #2
.LVL158:
.L15:
	.loc 1 293 0
	cmp	r3, #10
	.loc 1 291 0
	ldrb	r5, [r4, #92]	@ zero_extendqisi2
.LVL159:
	.loc 1 293 0
	bne	.L20
.LVL160:
	cbnz	r5, .L26
	.loc 1 296 0
	movs	r3, #3
	b	.L25
.LVL161:
.L26:
	.loc 1 311 0
	cmp	r5, #1
	beq	.L284
	.loc 1 330 0
	cmp	r5, #4
	bhi	.L23
	.loc 1 334 0
	ldrh	r5, [r4, #90]
.LVL162:
	cmp	r5, lr
	bcc	.L23
	mov	lr, r5
.LVL163:
	.loc 1 335 0
	mov	ip, #3
.LVL164:
.L23:
	.loc 1 293 0
	cmp	r3, #10
	.loc 1 291 0
	ldrb	r5, [r4, #116]	@ zero_extendqisi2
.LVL165:
	.loc 1 293 0
	bne	.L28
.LVL166:
	cbnz	r5, .L34
	.loc 1 296 0
	movs	r3, #4
	b	.L33
.LVL167:
.L34:
	.loc 1 311 0
	cmp	r5, #1
	beq	.L285
	.loc 1 330 0
	cmp	r5, #4
	bhi	.L31
	.loc 1 334 0
	ldrh	r5, [r4, #114]
.LVL168:
	cmp	r5, lr
	bcc	.L31
	mov	lr, r5
.LVL169:
	.loc 1 335 0
	mov	ip, #4
.LVL170:
.L31:
	.loc 1 293 0
	cmp	r3, #10
	.loc 1 291 0
	ldrb	r5, [r4, #140]	@ zero_extendqisi2
.LVL171:
	.loc 1 293 0
	bne	.L36
.LVL172:
	cbnz	r5, .L42
	.loc 1 296 0
	movs	r3, #5
	b	.L41
.LVL173:
.L42:
	.loc 1 311 0
	cmp	r5, #1
	beq	.L286
	.loc 1 330 0
	cmp	r5, #4
	bhi	.L39
	.loc 1 334 0
	ldrh	r5, [r4, #138]
.LVL174:
	cmp	r5, lr
	bcc	.L39
	mov	lr, r5
.LVL175:
	.loc 1 335 0
	mov	ip, #5
.LVL176:
.L39:
	.loc 1 293 0
	cmp	r3, #10
	.loc 1 291 0
	ldrb	r5, [r4, #164]	@ zero_extendqisi2
.LVL177:
	.loc 1 293 0
	bne	.L44
.LVL178:
	cbnz	r5, .L50
	.loc 1 296 0
	movs	r3, #6
	b	.L49
.LVL179:
.L58:
	.loc 1 311 0
	cmp	r5, #1
	beq	.L287
	.loc 1 330 0
	cmp	r5, #4
	bhi	.L55
	.loc 1 334 0
	ldrh	r5, [r4, #186]
.LVL180:
	cmp	r5, lr
	bcc	.L55
	mov	lr, r5
.LVL181:
	.loc 1 335 0
	mov	ip, #7
.LVL182:
.L55:
	.loc 1 293 0
	cmp	r3, #10
	.loc 1 291 0
	ldrb	r5, [r4, #212]	@ zero_extendqisi2
.LVL183:
	.loc 1 293 0
	bne	.L60
.LVL184:
	cbnz	r5, .L66
	.loc 1 296 0
	movs	r3, #8
	b	.L65
.LVL185:
.L50:
	.loc 1 311 0
	cmp	r5, #1
	beq	.L288
	.loc 1 330 0
	cmp	r5, #4
	bhi	.L47
	.loc 1 334 0
	ldrh	r5, [r4, #162]
.LVL186:
	cmp	r5, lr
	bcc	.L47
	mov	lr, r5
.LVL187:
	.loc 1 335 0
	mov	ip, #6
.LVL188:
.L47:
	.loc 1 293 0
	cmp	r3, #10
	.loc 1 291 0
	ldrb	r5, [r4, #188]	@ zero_extendqisi2
.LVL189:
	.loc 1 293 0
	bne	.L52
.LVL190:
	cmp	r5, #0
	bne	.L58
	.loc 1 296 0
	movs	r3, #7
	b	.L57
.LVL191:
.L66:
	.loc 1 311 0
	cmp	r5, #1
	beq	.L289
	.loc 1 330 0
	cmp	r5, #4
	bhi	.L63
	.loc 1 334 0
	ldrh	r5, [r4, #210]
.LVL192:
	cmp	r5, lr
	bcc	.L63
	mov	lr, r5
.LVL193:
	.loc 1 335 0
	mov	ip, #8
.LVL194:
.L63:
	.loc 1 293 0
	cmp	r3, #10
	.loc 1 291 0
	ldrb	r5, [r4, #236]	@ zero_extendqisi2
.LVL195:
	.loc 1 293 0
	bne	.L68
.LVL196:
	cmp	r5, #0
	bne	.L72
	b	.L228
.LVL197:
.L190:
	.loc 1 334 0
	mov	r5, r7
	.loc 1 335 0
	mov	ip, #1
	b	.L81
.LVL198:
.L194:
	.loc 1 334 0
	mov	r5, r7
.LVL199:
	.loc 1 335 0
	mov	ip, #2
.LVL200:
	b	.L86
.LVL201:
.L199:
	.loc 1 334 0
	mov	r5, r7
.LVL202:
	.loc 1 335 0
	mov	ip, #3
.LVL203:
	b	.L93
.LVL204:
.L204:
	.loc 1 334 0
	mov	r5, r7
.LVL205:
	.loc 1 335 0
	mov	ip, #4
.LVL206:
	b	.L100
.LVL207:
.L209:
	.loc 1 334 0
	mov	r5, r7
.LVL208:
	.loc 1 335 0
	mov	ip, #5
.LVL209:
	b	.L107
.LVL210:
.L214:
	.loc 1 334 0
	mov	r5, r7
.LVL211:
	.loc 1 335 0
	mov	ip, #6
.LVL212:
	b	.L114
.LVL213:
.L219:
	.loc 1 334 0
	mov	r5, r7
.LVL214:
	.loc 1 335 0
	mov	ip, #7
.LVL215:
	b	.L121
.LVL216:
.L224:
	.loc 1 334 0
	mov	r5, r7
.LVL217:
	.loc 1 335 0
	mov	ip, #8
.LVL218:
	b	.L128
.LVL219:
.L281:
	.loc 1 313 0
	ldr	r3, [r4]
.LVL220:
	cmp	r3, #0
	beq	.L5
.LBE60:
	.loc 1 265 0
	mov	ip, #10
.LBB61:
	.loc 1 314 0
	ldrh	r6, [r4, #18]
.LVL221:
.LBE61:
	.loc 1 265 0
	mov	r8, ip
	.loc 1 271 0
	mov	lr, r0
	mov	r7, r0
.LBB62:
	.loc 1 315 0
	mov	r2, r0
	b	.L6
.LVL222:
.L282:
	.loc 1 313 0
	ldr	r5, [r4, #24]
	cmp	r5, #0
	beq	.L9
	.loc 1 314 0
	ldrh	r5, [r4, #42]
	cmp	r5, r6
	bcc	.L10
	mov	r6, r5
	.loc 1 315 0
	mov	r2, r9
	b	.L10
.LVL223:
.L283:
	.loc 1 313 0
	ldr	r5, [r4, #48]
.LVL224:
	cmp	r5, #0
	beq	.L14
	.loc 1 314 0
	ldrh	r5, [r4, #66]
	cmp	r5, r6
	bcc	.L15
	mov	r6, r5
.LVL225:
	.loc 1 315 0
	movs	r2, #2
.LVL226:
	b	.L15
.LVL227:
.L284:
	.loc 1 313 0
	ldr	r5, [r4, #72]
.LVL228:
	cmp	r5, #0
	beq	.L22
	.loc 1 314 0
	ldrh	r5, [r4, #90]
	cmp	r5, r6
	bcc	.L23
	mov	r6, r5
.LVL229:
	.loc 1 315 0
	movs	r2, #3
.LVL230:
	b	.L23
.LVL231:
.L285:
	.loc 1 313 0
	ldr	r5, [r4, #96]
.LVL232:
	cmp	r5, #0
	beq	.L30
	.loc 1 314 0
	ldrh	r5, [r4, #114]
	cmp	r5, r6
	bcc	.L31
	mov	r6, r5
.LVL233:
	.loc 1 315 0
	movs	r2, #4
.LVL234:
	b	.L31
.LVL235:
.L286:
	.loc 1 313 0
	ldr	r5, [r4, #120]
.LVL236:
	cmp	r5, #0
	beq	.L38
	.loc 1 314 0
	ldrh	r5, [r4, #138]
	cmp	r5, r6
	bcc	.L39
	mov	r6, r5
.LVL237:
	.loc 1 315 0
	movs	r2, #5
.LVL238:
	b	.L39
.LVL239:
.L288:
	.loc 1 313 0
	ldr	r5, [r4, #144]
.LVL240:
	cmp	r5, #0
	beq	.L46
	.loc 1 314 0
	ldrh	r5, [r4, #162]
	cmp	r5, r6
	bcc	.L47
	mov	r6, r5
.LVL241:
	.loc 1 315 0
	movs	r2, #6
.LVL242:
	b	.L47
.LVL243:
.L287:
	.loc 1 313 0
	ldr	r5, [r4, #168]
.LVL244:
	cmp	r5, #0
	beq	.L54
	.loc 1 314 0
	ldrh	r5, [r4, #186]
	cmp	r5, r6
	bcc	.L55
	mov	r6, r5
.LVL245:
	.loc 1 315 0
	movs	r2, #7
.LVL246:
	b	.L55
.LVL247:
.L289:
	.loc 1 313 0
	ldr	r5, [r4, #192]
.LVL248:
	cmp	r5, #0
	beq	.L62
	.loc 1 314 0
	ldrh	r5, [r4, #210]
	cmp	r5, r6
	bcc	.L63
	mov	r6, r5
.LVL249:
	.loc 1 315 0
	movs	r2, #8
.LVL250:
	b	.L63
.LVL251:
.L69:
	.loc 1 313 0
	ldr	r5, [r4, #216]
.LVL252:
	cmp	r5, #0
	beq	.L290
	.loc 1 314 0
	ldrh	r5, [r4, #234]
	.loc 1 315 0
	cmp	r5, r6
	it	cs
	movcs	r2, #9
.LVL253:
	b	.L73
.LVL254:
.L234:
.LBE62:
	.loc 1 349 0
	mov	r0, #-1
	pop	{r3, r4, r5, r6, r7, r8, r9, r10, fp, pc}
.LVL255:
.L150:
	.loc 1 271 0
	mov	lr, r0
	.loc 1 265 0
	mov	ip, r2
	mov	r8, r2
	.loc 1 271 0
	mov	r7, r0
	mov	r6, r0
	b	.L6
.LVL256:
.L272:
	.loc 1 269 0
	movs	r2, #10
	.loc 1 271 0
	mov	lr, r5
.LBB63:
	.loc 1 322 0
	mov	r8, r5
.LBE63:
	.loc 1 265 0
	mov	ip, r2
.LBB64:
	.loc 1 321 0
	ldrh	r9, [r4, #18]
.LVL257:
	b	.L77
.LVL258:
.L186:
.LBE64:
	.loc 1 290 0
	movs	r0, #0
.LVL259:
	b	.L75
.LVL260:
.L189:
	movs	r0, #1
.LVL261:
	b	.L75
.LVL262:
.L276:
.LBB65:
	.loc 1 321 0
	ldrh	r7, [r4, #114]
	cmp	r7, r9
	bcc	.L100
	mov	r9, r7
.LVL263:
	.loc 1 322 0
	mov	r8, #4
.LVL264:
	b	.L100
.LVL265:
.L275:
	.loc 1 321 0
	ldrh	r7, [r4, #90]
	cmp	r7, r9
	bcc	.L93
	mov	r9, r7
.LVL266:
	.loc 1 322 0
	mov	r8, #3
.LVL267:
	b	.L93
.LVL268:
.L273:
	.loc 1 321 0
	ldrh	r7, [r4, #42]
	cmp	r7, r9
	bcc	.L81
	mov	r9, r7
	.loc 1 322 0
	mov	r8, r10
	b	.L81
.LVL269:
.L274:
	.loc 1 321 0
	ldrh	r7, [r4, #66]
	cmp	r7, r9
	bcc	.L86
	mov	r9, r7
.LVL270:
	.loc 1 322 0
	mov	r8, #2
.LVL271:
	b	.L86
.LVL272:
.L279:
	.loc 1 321 0
	ldrh	r7, [r4, #186]
	cmp	r7, r9
	bcc	.L121
	mov	r9, r7
.LVL273:
	.loc 1 322 0
	mov	r8, #7
.LVL274:
	b	.L121
.LVL275:
.L280:
	.loc 1 321 0
	ldrh	r7, [r4, #210]
	cmp	r7, r9
	bcc	.L128
	mov	r9, r7
.LVL276:
	.loc 1 322 0
	mov	r8, #8
.LVL277:
	b	.L128
.LVL278:
.L278:
	.loc 1 321 0
	ldrh	r7, [r4, #162]
	cmp	r7, r9
	bcc	.L114
	mov	r9, r7
.LVL279:
	.loc 1 322 0
	mov	r8, #6
.LVL280:
	b	.L114
.LVL281:
.L277:
	.loc 1 321 0
	ldrh	r7, [r4, #138]
	cmp	r7, r9
	bcc	.L107
	mov	r9, r7
.LVL282:
	.loc 1 322 0
	mov	r8, #5
.LVL283:
	b	.L107
.LVL284:
.L193:
.LBE65:
	.loc 1 290 0
	movs	r0, #2
.LVL285:
	b	.L75
.LVL286:
.L203:
	movs	r0, #4
.LVL287:
	b	.L75
.LVL288:
.L208:
	movs	r0, #5
.LVL289:
	b	.L75
.LVL290:
.L198:
	movs	r0, #3
.LVL291:
	b	.L75
.LVL292:
.L213:
	movs	r0, #6
.LVL293:
	b	.L75
.LVL294:
.L218:
	movs	r0, #7
.LVL295:
	b	.L75
.LVL296:
.L137:
.LBB66:
	.loc 1 321 0
	ldrh	r5, [r4, #234]
	.loc 1 322 0
	cmp	r5, r9
	it	cs
	movcs	r8, #9
.LVL297:
	b	.L73
.LVL298:
.L9:
	.loc 1 321 0
	ldrh	r5, [r4, #42]
	cmp	r5, r7
	bcc	.L10
	mov	r7, r5
	.loc 1 322 0
	mov	r8, r9
	b	.L10
.LVL299:
.L14:
	.loc 1 321 0
	ldrh	r5, [r4, #66]
	cmp	r5, r7
	bcc	.L15
	mov	r7, r5
.LVL300:
	.loc 1 322 0
	mov	r8, #2
.LVL301:
	b	.L15
.LVL302:
.L38:
	.loc 1 321 0
	ldrh	r5, [r4, #138]
	cmp	r5, r7
	bcc	.L39
	mov	r7, r5
.LVL303:
	.loc 1 322 0
	mov	r8, #5
.LVL304:
	b	.L39
.LVL305:
.L30:
	.loc 1 321 0
	ldrh	r5, [r4, #114]
	cmp	r5, r7
	bcc	.L31
	mov	r7, r5
.LVL306:
	.loc 1 322 0
	mov	r8, #4
.LVL307:
	b	.L31
.LVL308:
.L46:
	.loc 1 321 0
	ldrh	r5, [r4, #162]
	cmp	r5, r7
	bcc	.L47
	mov	r7, r5
.LVL309:
	.loc 1 322 0
	mov	r8, #6
.LVL310:
	b	.L47
.LVL311:
.L5:
.LBE66:
	.loc 1 269 0
	movs	r2, #10
.LBB67:
	.loc 1 321 0
	ldrh	r7, [r4, #18]
.LVL312:
.LBE67:
	.loc 1 265 0
	mov	ip, r2
	.loc 1 271 0
	mov	lr, r0
	mov	r6, r0
.LBB68:
	.loc 1 322 0
	mov	r8, r0
	b	.L6
.LVL313:
.L22:
	.loc 1 321 0
	ldrh	r5, [r4, #90]
	cmp	r5, r7
	bcc	.L23
	mov	r7, r5
.LVL314:
	.loc 1 322 0
	mov	r8, #3
.LVL315:
	b	.L23
.LVL316:
.L54:
	.loc 1 321 0
	ldrh	r5, [r4, #186]
	cmp	r5, r7
	bcc	.L55
	mov	r7, r5
.LVL317:
	.loc 1 322 0
	mov	r8, #7
.LVL318:
	b	.L55
.LVL319:
.L290:
	.loc 1 321 0
	ldrh	r5, [r4, #234]
	.loc 1 322 0
	cmp	r5, r7
	it	cs
	movcs	r8, #9
.LVL320:
	b	.L73
.LVL321:
.L62:
	.loc 1 321 0
	ldrh	r5, [r4, #210]
	cmp	r5, r7
	bcc	.L63
	mov	r7, r5
.LVL322:
	.loc 1 322 0
	mov	r8, #8
.LVL323:
	b	.L63
.LBE68:
	.cfi_endproc
.LFE17:
	.size	etharp_find_entry.isra.0, .-etharp_find_entry.isra.0
	.section	.text.etharp_add_static_entry,"ax",%progbits
	.align	1
	.p2align 2,,3
	.global	etharp_add_static_entry
	.syntax unified
	.thumb
	.thumb_func
	.fpu softvfp
	.type	etharp_add_static_entry, %function
etharp_add_static_entry:
.LFB5:
	.loc 1 511 0
	.cfi_startproc
	@ args = 0, pretend = 0, frame = 0
	@ frame_needed = 0, uses_anonymous_args = 0
.LVL324:
	push	{r4, r5, r6, r7, r8, r9, lr}
	.cfi_def_cfa_offset 28
	.cfi_offset 4, -28
	.cfi_offset 5, -24
	.cfi_offset 6, -20
	.cfi_offset 7, -16
	.cfi_offset 8, -12
	.cfi_offset 9, -8
	.cfi_offset 14, -4
	sub	sp, sp, #12
	.cfi_def_cfa_offset 40
	.loc 1 511 0
	mov	r9, r1
	mov	r4, r0
	.loc 1 518 0
	bl	ip4_route
.LVL325:
	.loc 1 519 0
	cmp	r0, #0
	beq	.L297
.LVL326:
.LBB72:
.LBB73:
	.loc 1 438 0
	cmp	r4, #0
	beq	.L296
	mov	r5, r0
	.loc 1 438 0
	ldr	r0, [r4]
.LVL327:
	cmp	r0, #0
	beq	.L296
	.loc 1 439 0
	mov	r1, r5
	bl	ip4_addr_isbroadcast_u32
.LVL328:
	.loc 1 438 0
	mov	r8, r0
	cbnz	r0, .L296
	.loc 1 440 0
	ldr	r3, [r4]
	and	r3, r3, #240
	.loc 1 439 0
	cmp	r3, #224
	beq	.L296
	.loc 1 445 0
	mov	r0, r4
	movs	r1, #5
	bl	etharp_find_entry.isra.0
.LVL329:
	.loc 1 447 0
	cmp	r0, #0
.LVL330:
	blt	.L294
	.loc 1 472 0
	movs	r4, #12
.LVL331:
	movs	r3, #24
	.loc 1 454 0
	movs	r1, #5
	ldr	r7, .L306
	add	r6, r0, r0, lsl #1
	lsls	r6, r6, #3
	.loc 1 472 0
	smlabb	r3, r3, r0, r4
	.loc 1 454 0
	adds	r2, r7, r6
	strb	r1, [r2, #20]
	.loc 1 466 0
	str	r5, [r2, #8]
	.loc 1 472 0
	ldr	r0, [r9]	@ unaligned
	adds	r1, r7, r3
	str	r0, [r7, r3]
	ldrh	r3, [r9, #4]	@ unaligned
	strh	r3, [r1, #4]	@ unaligned
	.loc 1 488 0
	ldr	r4, [r7, r6]
	.loc 1 474 0
	strh	r8, [r2, #18]	@ movhi
	.loc 1 488 0
	cbz	r4, .L298
.LVL332:
.LBB74:
	.loc 1 493 0
	mov	r2, #2048
	mov	r3, r9
	str	r2, [sp]
	mov	r1, r4
	add	r2, r5, #49
	mov	r0, r5
	.loc 1 490 0
	str	r8, [r7, r6]
	.loc 1 493 0
	bl	ethernet_output
.LVL333:
	.loc 1 495 0
	mov	r0, r4
	bl	pbuf_free
.LVL334:
.LBE74:
	.loc 1 497 0
	mov	r0, r8
.LVL335:
.L294:
.LBE73:
.LBE72:
	.loc 1 524 0
	add	sp, sp, #12
	.cfi_remember_state
	.cfi_def_cfa_offset 28
	@ sp needed
	pop	{r4, r5, r6, r7, r8, r9, pc}
.LVL336:
.L296:
	.cfi_restore_state
.LBB77:
.LBB75:
	.loc 1 442 0
	mvn	r0, #15
.LBE75:
.LBE77:
	.loc 1 524 0
	add	sp, sp, #12
	.cfi_remember_state
	.cfi_def_cfa_offset 28
	@ sp needed
	pop	{r4, r5, r6, r7, r8, r9, pc}
.LVL337:
.L298:
	.cfi_restore_state
.LBB78:
.LBB76:
	.loc 1 497 0
	mov	r0, r4
.LBE76:
.LBE78:
	.loc 1 524 0
	add	sp, sp, #12
	.cfi_remember_state
	.cfi_def_cfa_offset 28
	@ sp needed
	pop	{r4, r5, r6, r7, r8, r9, pc}
.LVL338:
.L297:
	.cfi_restore_state
	.loc 1 520 0
	mvn	r0, #3
.LVL339:
	b	.L294
.L307:
	.align	2
.L306:
	.word	.LANCHOR0
	.cfi_endproc
.LFE5:
	.size	etharp_add_static_entry, .-etharp_add_static_entry
	.section	.text.etharp_remove_static_entry,"ax",%progbits
	.align	1
	.p2align 2,,3
	.global	etharp_remove_static_entry
	.syntax unified
	.thumb
	.thumb_func
	.fpu softvfp
	.type	etharp_remove_static_entry, %function
etharp_remove_static_entry:
.LFB6:
	.loc 1 536 0
	.cfi_startproc
	@ args = 0, pretend = 0, frame = 0
	@ frame_needed = 0, uses_anonymous_args = 0
.LVL340:
	cmp	r0, #0
	beq	.L363
.LVL341:
	push	{r3, r4, r5, r6, r7, lr}
	.cfi_def_cfa_offset 24
	.cfi_offset 3, -24
	.cfi_offset 4, -20
	.cfi_offset 5, -16
	.cfi_offset 6, -12
	.cfi_offset 7, -8
	.cfi_offset 14, -4
.LBB86:
.LBB87:
.LBB88:
	.loc 1 291 0
	ldr	r4, .L464
	.loc 1 293 0
	ldrb	r3, [r4, #20]	@ zero_extendqisi2
	cmp	r3, #0
	beq	.L310
	.loc 1 301 0
	ldr	r3, [r0]
	ldr	r2, [r4, #4]
	cmp	r3, r2
	beq	.L455
.LVL342:
	.loc 1 293 0
	ldrb	r2, [r4, #44]	@ zero_extendqisi2
	cmp	r2, #0
	beq	.L314
	.loc 1 301 0
	ldr	r2, [r4, #28]
	cmp	r3, r2
	beq	.L369
.LVL343:
	.loc 1 293 0
	ldrb	r2, [r4, #68]	@ zero_extendqisi2
	cmp	r2, #0
	beq	.L316
	.loc 1 301 0
	ldr	r2, [r4, #52]
	cmp	r3, r2
	beq	.L371
.LVL344:
	.loc 1 293 0
	ldrb	r2, [r4, #92]	@ zero_extendqisi2
	cmp	r2, #0
	beq	.L318
	.loc 1 301 0
	ldr	r2, [r4, #76]
	cmp	r3, r2
	beq	.L373
.LVL345:
	.loc 1 293 0
	ldrb	r2, [r4, #116]	@ zero_extendqisi2
	cmp	r2, #0
	beq	.L320
	.loc 1 301 0
	ldr	r2, [r4, #100]
	cmp	r3, r2
	beq	.L375
.LVL346:
	.loc 1 293 0
	ldrb	r2, [r4, #140]	@ zero_extendqisi2
	cmp	r2, #0
	beq	.L322
	.loc 1 301 0
	ldr	r2, [r4, #124]
	cmp	r3, r2
	beq	.L377
.LVL347:
	.loc 1 293 0
	ldrb	r2, [r4, #164]	@ zero_extendqisi2
	cbz	r2, .L324
	.loc 1 301 0
	ldr	r2, [r4, #148]
	cmp	r3, r2
	beq	.L379
.LVL348:
	.loc 1 293 0
	ldrb	r2, [r4, #188]	@ zero_extendqisi2
	cbz	r2, .L326
	.loc 1 301 0
	ldr	r2, [r4, #172]
	cmp	r3, r2
	beq	.L381
.LVL349:
	.loc 1 293 0
	ldrb	r2, [r4, #212]	@ zero_extendqisi2
	cbz	r2, .L328
	.loc 1 301 0
	ldr	r2, [r4, #196]
	cmp	r3, r2
	beq	.L384
.LVL350:
	.loc 1 293 0
	ldrb	r2, [r4, #236]	@ zero_extendqisi2
	cbnz	r2, .L359
.LVL351:
.L382:
	mov	r0, #-1
.LVL352:
	pop	{r3, r4, r5, r6, r7, pc}
.LVL353:
.L310:
	.loc 1 297 0
	ldrb	r3, [r4, #44]	@ zero_extendqisi2
	cmp	r3, #0
	bne	.L456
.LVL354:
.L314:
	.loc 1 291 0
	ldrb	r3, [r4, #68]	@ zero_extendqisi2
.LVL355:
	.loc 1 297 0
	cmp	r3, #0
	bne	.L457
.LVL356:
.L316:
	.loc 1 291 0
	ldrb	r3, [r4, #92]	@ zero_extendqisi2
.LVL357:
	.loc 1 297 0
	cmp	r3, #0
	bne	.L458
.LVL358:
.L318:
	.loc 1 291 0
	ldrb	r3, [r4, #116]	@ zero_extendqisi2
.LVL359:
	.loc 1 297 0
	cmp	r3, #0
	bne	.L459
.LVL360:
.L320:
	.loc 1 291 0
	ldrb	r3, [r4, #140]	@ zero_extendqisi2
.LVL361:
	.loc 1 297 0
	cmp	r3, #0
	bne	.L460
.LVL362:
.L322:
	.loc 1 291 0
	ldrb	r3, [r4, #164]	@ zero_extendqisi2
.LVL363:
	.loc 1 297 0
	cmp	r3, #0
	bne	.L461
.LVL364:
.L324:
	.loc 1 291 0
	ldrb	r3, [r4, #188]	@ zero_extendqisi2
.LVL365:
	.loc 1 297 0
	cmp	r3, #0
	bne	.L462
.LVL366:
.L326:
	.loc 1 291 0
	ldrb	r3, [r4, #212]	@ zero_extendqisi2
.LVL367:
	.loc 1 297 0
	cmp	r3, #0
	bne	.L463
.LVL368:
.L328:
	.loc 1 291 0
	ldrb	r3, [r4, #236]	@ zero_extendqisi2
.LVL369:
	.loc 1 297 0
	cmp	r3, #0
	beq	.L382
	ldr	r3, [r0]
.LVL370:
.L359:
	.loc 1 301 0
	ldr	r2, [r4, #220]
	cmp	r3, r2
.LBE88:
	.loc 1 290 0
	it	eq
	moveq	r7, #9
.LBB89:
	.loc 1 301 0
	bne	.L382
.LVL371:
.L311:
.LBE89:
.LBE87:
.LBE86:
	.loc 1 548 0
	lsls	r5, r7, #1
	adds	r6, r5, r7
	lsls	r6, r6, #3
	adds	r3, r4, r6
	ldrb	r3, [r3, #20]	@ zero_extendqisi2
	cmp	r3, #5
	bne	.L367
.LVL372:
.LBB100:
.LBB101:
	.loc 1 180 0
	ldr	r0, [r4, r6]
.LVL373:
	cbz	r0, .L329
	.loc 1 183 0
	bl	pbuf_free
.LVL374:
	.loc 1 184 0
	movs	r3, #0
	str	r3, [r4, r6]
.L329:
	.loc 1 187 0
	movs	r0, #0
	add	r5, r5, r7
	add	r4, r4, r5, lsl #3
	strb	r0, [r4, #20]
.LBE101:
.LBE100:
	.loc 1 554 0
	pop	{r3, r4, r5, r6, r7, pc}
.LVL375:
.L457:
.LBB102:
.LBB98:
.LBB90:
	.loc 1 301 0
	ldr	r3, [r0]
.LVL376:
	ldr	r2, [r4, #52]
	cmp	r3, r2
	bne	.L316
.LVL377:
.L371:
.LBE90:
	.loc 1 290 0
	movs	r7, #2
	b	.L311
.LVL378:
.L458:
.LBB91:
	.loc 1 301 0
	ldr	r3, [r0]
.LVL379:
	ldr	r2, [r4, #76]
	cmp	r3, r2
	bne	.L318
.LVL380:
.L373:
.LBE91:
	.loc 1 290 0
	movs	r7, #3
	b	.L311
.LVL381:
.L459:
.LBB92:
	.loc 1 301 0
	ldr	r3, [r0]
.LVL382:
	ldr	r2, [r4, #100]
	cmp	r3, r2
	bne	.L320
.LVL383:
.L375:
.LBE92:
	.loc 1 290 0
	movs	r7, #4
	b	.L311
.LVL384:
.L460:
.LBB93:
	.loc 1 301 0
	ldr	r3, [r0]
.LVL385:
	ldr	r2, [r4, #124]
	cmp	r3, r2
	bne	.L322
.LVL386:
.L377:
.LBE93:
	.loc 1 290 0
	movs	r7, #5
	b	.L311
.LVL387:
.L461:
.LBB94:
	.loc 1 301 0
	ldr	r3, [r0]
.LVL388:
	ldr	r2, [r4, #148]
	cmp	r3, r2
	bne	.L324
.LVL389:
.L379:
.LBE94:
	.loc 1 290 0
	movs	r7, #6
	b	.L311
.LVL390:
.L463:
.LBB95:
	.loc 1 301 0
	ldr	r3, [r0]
.LVL391:
	ldr	r2, [r4, #196]
	cmp	r3, r2
	bne	.L328
.LVL392:
.L384:
.LBE95:
	.loc 1 290 0
	movs	r7, #8
	b	.L311
.LVL393:
.L462:
.LBB96:
	.loc 1 301 0
	ldr	r3, [r0]
.LVL394:
	ldr	r2, [r4, #172]
	cmp	r3, r2
	bne	.L326
.LVL395:
.L381:
.LBE96:
	.loc 1 290 0
	movs	r7, #7
	b	.L311
.LVL396:
.L456:
.LBB97:
	.loc 1 301 0
	ldr	r3, [r0]
	ldr	r2, [r4, #28]
	cmp	r3, r2
	bne	.L314
.LVL397:
.L369:
.LBE97:
	.loc 1 290 0
	movs	r7, #1
	b	.L311
.LVL398:
.L363:
	.cfi_def_cfa_offset 0
	.cfi_restore 3
	.cfi_restore 4
	.cfi_restore 5
	.cfi_restore 6
	.cfi_restore 7
	.cfi_restore 14
.LBE98:
.LBE102:
	.loc 1 554 0
	mov	r0, #-1
.LVL399:
	bx	lr
.LVL400:
.L367:
	.cfi_def_cfa_offset 24
	.cfi_offset 3, -24
	.cfi_offset 4, -20
	.cfi_offset 5, -16
	.cfi_offset 6, -12
	.cfi_offset 7, -8
	.cfi_offset 14, -4
	.loc 1 550 0
	mvn	r0, #15
.LVL401:
	pop	{r3, r4, r5, r6, r7, pc}
.LVL402:
.L455:
.LBB103:
.LBB99:
	.loc 1 290 0
	movs	r7, #0
	b	.L311
.L465:
	.align	2
.L464:
	.word	.LANCHOR0
.LBE99:
.LBE103:
	.cfi_endproc
.LFE6:
	.size	etharp_remove_static_entry, .-etharp_remove_static_entry
	.section	.text.etharp_cleanup_netif,"ax",%progbits
	.align	1
	.p2align 2,,3
	.global	etharp_cleanup_netif
	.syntax unified
	.thumb
	.thumb_func
	.fpu softvfp
	.type	etharp_cleanup_netif, %function
etharp_cleanup_netif:
.LFB7:
	.loc 1 565 0
	.cfi_startproc
	@ args = 0, pretend = 0, frame = 0
	@ frame_needed = 0, uses_anonymous_args = 0
.LVL403:
	push	{r3, r4, r5, lr}
	.cfi_def_cfa_offset 16
	.cfi_offset 3, -16
	.cfi_offset 4, -12
	.cfi_offset 5, -8
	.cfi_offset 14, -4
.LBB104:
	.loc 1 569 0
	ldr	r4, .L540
.LBE104:
	.loc 1 565 0
	mov	r5, r0
.LBB107:
	.loc 1 570 0
	ldrb	r3, [r4, #20]	@ zero_extendqisi2
	cbz	r3, .L467
	ldr	r3, [r4, #8]
	cmp	r0, r3
	beq	.L530
.LVL404:
.L467:
	ldrb	r3, [r4, #44]	@ zero_extendqisi2
	cbz	r3, .L470
	ldr	r3, [r4, #32]
	cmp	r5, r3
	beq	.L531
.LVL405:
.L470:
	ldrb	r3, [r4, #68]	@ zero_extendqisi2
	cbz	r3, .L473
	ldr	r3, [r4, #56]
	cmp	r5, r3
	beq	.L532
.LVL406:
.L473:
	ldrb	r3, [r4, #92]	@ zero_extendqisi2
	cbz	r3, .L476
	ldr	r3, [r4, #80]
	cmp	r5, r3
	beq	.L533
.LVL407:
.L476:
	ldrb	r3, [r4, #116]	@ zero_extendqisi2
	cbz	r3, .L479
	ldr	r3, [r4, #104]
	cmp	r5, r3
	beq	.L534
.LVL408:
.L479:
	ldrb	r3, [r4, #140]	@ zero_extendqisi2
	cbz	r3, .L482
	ldr	r3, [r4, #128]
	cmp	r5, r3
	beq	.L535
.LVL409:
.L482:
	ldrb	r3, [r4, #164]	@ zero_extendqisi2
	cbz	r3, .L485
	ldr	r3, [r4, #152]
	cmp	r5, r3
	beq	.L536
.LVL410:
.L485:
	ldrb	r3, [r4, #188]	@ zero_extendqisi2
	cbz	r3, .L488
	ldr	r3, [r4, #176]
	cmp	r5, r3
	beq	.L537
.LVL411:
.L488:
	ldrb	r3, [r4, #212]	@ zero_extendqisi2
	cbz	r3, .L491
	ldr	r3, [r4, #200]
	cmp	r5, r3
	beq	.L538
.LVL412:
.L491:
	ldrb	r3, [r4, #236]	@ zero_extendqisi2
	cbz	r3, .L466
	.loc 1 570 0 is_stmt 0 discriminator 1
	ldr	r3, [r4, #224]
	cmp	r3, r5
	beq	.L539
.L466:
	pop	{r3, r4, r5, pc}
.LVL413:
.L539:
.LBB105:
.LBB106:
	.loc 1 180 0 is_stmt 1
	ldr	r0, [r4, #216]
	cbz	r0, .L495
	.loc 1 183 0
	bl	pbuf_free
.LVL414:
	.loc 1 184 0
	movs	r3, #0
	str	r3, [r4, #216]
.L495:
	.loc 1 187 0
	movs	r3, #0
	strb	r3, [r4, #236]
.LVL415:
	pop	{r3, r4, r5, pc}
.LVL416:
.L530:
	.loc 1 180 0
	ldr	r0, [r4]
.LVL417:
	cbz	r0, .L469
	.loc 1 183 0
	bl	pbuf_free
.LVL418:
	.loc 1 184 0
	movs	r3, #0
	str	r3, [r4]
.L469:
	.loc 1 187 0
	movs	r3, #0
	strb	r3, [r4, #20]
	b	.L467
.LVL419:
.L531:
	.loc 1 180 0
	ldr	r0, [r4, #24]
	cbz	r0, .L472
	.loc 1 183 0
	bl	pbuf_free
.LVL420:
	.loc 1 184 0
	movs	r3, #0
	str	r3, [r4, #24]
.L472:
	.loc 1 187 0
	movs	r3, #0
	strb	r3, [r4, #44]
	b	.L470
.LVL421:
.L532:
	.loc 1 180 0
	ldr	r0, [r4, #48]
	cbz	r0, .L475
	.loc 1 183 0
	bl	pbuf_free
.LVL422:
	.loc 1 184 0
	movs	r3, #0
	str	r3, [r4, #48]
.L475:
	.loc 1 187 0
	movs	r3, #0
	strb	r3, [r4, #68]
	b	.L473
.LVL423:
.L533:
	.loc 1 180 0
	ldr	r0, [r4, #72]
	cbz	r0, .L478
	.loc 1 183 0
	bl	pbuf_free
.LVL424:
	.loc 1 184 0
	movs	r3, #0
	str	r3, [r4, #72]
.L478:
	.loc 1 187 0
	movs	r3, #0
	strb	r3, [r4, #92]
	b	.L476
.LVL425:
.L534:
	.loc 1 180 0
	ldr	r0, [r4, #96]
	cbz	r0, .L481
	.loc 1 183 0
	bl	pbuf_free
.LVL426:
	.loc 1 184 0
	movs	r3, #0
	str	r3, [r4, #96]
.L481:
	.loc 1 187 0
	movs	r3, #0
	strb	r3, [r4, #116]
	b	.L479
.LVL427:
.L535:
	.loc 1 180 0
	ldr	r0, [r4, #120]
	cbz	r0, .L484
	.loc 1 183 0
	bl	pbuf_free
.LVL428:
	.loc 1 184 0
	movs	r3, #0
	str	r3, [r4, #120]
.L484:
	.loc 1 187 0
	movs	r3, #0
	strb	r3, [r4, #140]
	b	.L482
.LVL429:
.L536:
	.loc 1 180 0
	ldr	r0, [r4, #144]
	cbz	r0, .L487
	.loc 1 183 0
	bl	pbuf_free
.LVL430:
	.loc 1 184 0
	movs	r3, #0
	str	r3, [r4, #144]
.L487:
	.loc 1 187 0
	movs	r3, #0
	strb	r3, [r4, #164]
	b	.L485
.LVL431:
.L537:
	.loc 1 180 0
	ldr	r0, [r4, #168]
	cbz	r0, .L490
	.loc 1 183 0
	bl	pbuf_free
.LVL432:
	.loc 1 184 0
	movs	r3, #0
	str	r3, [r4, #168]
.L490:
	.loc 1 187 0
	movs	r3, #0
	strb	r3, [r4, #188]
	b	.L488
.LVL433:
.L538:
	.loc 1 180 0
	ldr	r0, [r4, #192]
	cbz	r0, .L493
	.loc 1 183 0
	bl	pbuf_free
.LVL434:
	.loc 1 184 0
	movs	r3, #0
	str	r3, [r4, #192]
.L493:
	.loc 1 187 0
	movs	r3, #0
	strb	r3, [r4, #212]
	b	.L491
.L541:
	.align	2
.L540:
	.word	.LANCHOR0
.LBE106:
.LBE105:
.LBE107:
	.cfi_endproc
.LFE7:
	.size	etharp_cleanup_netif, .-etharp_cleanup_netif
	.section	.text.etharp_find_addr,"ax",%progbits
	.align	1
	.p2align 2,,3
	.global	etharp_find_addr
	.syntax unified
	.thumb
	.thumb_func
	.fpu softvfp
	.type	etharp_find_addr, %function
etharp_find_addr:
.LFB8:
	.loc 1 590 0
	.cfi_startproc
	@ args = 0, pretend = 0, frame = 0
	@ frame_needed = 0, uses_anonymous_args = 0
	@ link register save eliminated.
.LVL435:
	cmp	r1, #0
	beq	.L596
.LVL436:
	push	{r4, r5}
	.cfi_def_cfa_offset 8
	.cfi_offset 4, -8
	.cfi_offset 5, -4
.LBB113:
.LBB114:
.LBB115:
	.loc 1 291 0
	ldr	r4, .L694
	.loc 1 293 0
	ldrb	r0, [r4, #20]	@ zero_extendqisi2
.LVL437:
	cmp	r0, #0
	beq	.L544
	.loc 1 301 0
	ldr	r0, [r1]
	ldr	r5, [r4, #4]
	cmp	r0, r5
	beq	.L685
.LVL438:
	.loc 1 293 0
	ldrb	r5, [r4, #44]	@ zero_extendqisi2
	cmp	r5, #0
	beq	.L548
	.loc 1 301 0
	ldr	r5, [r4, #28]
	cmp	r0, r5
	beq	.L602
.LVL439:
	.loc 1 293 0
	ldrb	r5, [r4, #68]	@ zero_extendqisi2
	cmp	r5, #0
	beq	.L550
	.loc 1 301 0
	ldr	r5, [r4, #52]
	cmp	r0, r5
	beq	.L604
.LVL440:
	.loc 1 293 0
	ldrb	r5, [r4, #92]	@ zero_extendqisi2
	cmp	r5, #0
	beq	.L552
	.loc 1 301 0
	ldr	r5, [r4, #76]
	cmp	r0, r5
	beq	.L606
.LVL441:
	.loc 1 293 0
	ldrb	r5, [r4, #116]	@ zero_extendqisi2
	cmp	r5, #0
	beq	.L554
	.loc 1 301 0
	ldr	r5, [r4, #100]
	cmp	r0, r5
	beq	.L608
.LVL442:
	.loc 1 293 0
	ldrb	r5, [r4, #140]	@ zero_extendqisi2
	cmp	r5, #0
	beq	.L556
	.loc 1 301 0
	ldr	r5, [r4, #124]
	cmp	r0, r5
	beq	.L610
.LVL443:
	.loc 1 293 0
	ldrb	r5, [r4, #164]	@ zero_extendqisi2
	cmp	r5, #0
	beq	.L558
	.loc 1 301 0
	ldr	r5, [r4, #148]
	cmp	r0, r5
	beq	.L612
.LVL444:
	.loc 1 293 0
	ldrb	r5, [r4, #188]	@ zero_extendqisi2
	cbz	r5, .L560
	.loc 1 301 0
	ldr	r5, [r4, #172]
	cmp	r0, r5
	beq	.L614
.LVL445:
	.loc 1 293 0
	ldrb	r5, [r4, #212]	@ zero_extendqisi2
	cbz	r5, .L562
	.loc 1 301 0
	ldr	r1, [r4, #196]
.LVL446:
	cmp	r0, r1
	beq	.L617
.LVL447:
	.loc 1 293 0
	ldrb	r1, [r4, #236]	@ zero_extendqisi2
	cbnz	r1, .L592
.LVL448:
.L615:
.LBE115:
.LBE114:
.LBE113:
	.loc 1 605 0
	pop	{r4, r5}
	.cfi_remember_state
	.cfi_restore 5
	.cfi_restore 4
	.cfi_def_cfa_offset 0
	.loc 1 604 0
	mov	r0, #-1
	.loc 1 605 0
	bx	lr
.LVL449:
.L544:
	.cfi_restore_state
.LBB131:
.LBB127:
.LBB116:
	.loc 1 297 0
	ldrb	r0, [r4, #44]	@ zero_extendqisi2
	cmp	r0, #0
	bne	.L686
.LVL450:
.L548:
	.loc 1 291 0
	ldrb	r0, [r4, #68]	@ zero_extendqisi2
.LVL451:
	.loc 1 297 0
	cmp	r0, #0
	bne	.L687
.LVL452:
.L550:
	.loc 1 291 0
	ldrb	r0, [r4, #92]	@ zero_extendqisi2
.LVL453:
	.loc 1 297 0
	cmp	r0, #0
	bne	.L688
.LVL454:
.L552:
	.loc 1 291 0
	ldrb	r0, [r4, #116]	@ zero_extendqisi2
.LVL455:
	.loc 1 297 0
	cmp	r0, #0
	bne	.L689
.LVL456:
.L554:
	.loc 1 291 0
	ldrb	r0, [r4, #140]	@ zero_extendqisi2
.LVL457:
	.loc 1 297 0
	cmp	r0, #0
	bne	.L690
.LVL458:
.L556:
	.loc 1 291 0
	ldrb	r0, [r4, #164]	@ zero_extendqisi2
.LVL459:
	.loc 1 297 0
	cmp	r0, #0
	bne	.L691
.LVL460:
.L558:
	.loc 1 291 0
	ldrb	r0, [r4, #188]	@ zero_extendqisi2
.LVL461:
	.loc 1 297 0
	cmp	r0, #0
	bne	.L692
.LVL462:
.L560:
	.loc 1 291 0
	ldrb	r0, [r4, #212]	@ zero_extendqisi2
.LVL463:
	.loc 1 297 0
	cmp	r0, #0
	bne	.L693
.LVL464:
.L562:
	.loc 1 291 0
	ldrb	r0, [r4, #236]	@ zero_extendqisi2
.LVL465:
	.loc 1 297 0
	cmp	r0, #0
	beq	.L615
	ldr	r0, [r1]
.LVL466:
.L592:
	.loc 1 301 0
	ldr	r1, [r4, #220]
	cmp	r0, r1
.LBE116:
	.loc 1 290 0
	it	eq
	moveq	r1, #9
.LBB117:
	.loc 1 301 0
	bne	.L615
.LVL467:
.L545:
.LBE117:
.LBE127:
.LBE131:
	.loc 1 599 0
	add	r0, r1, r1, lsl #1
	add	r0, r4, r0, lsl #3
	ldrb	r5, [r0, #20]	@ zero_extendqisi2
.LBB132:
.LBB128:
.LBB118:
	.loc 1 308 0
	sxtb	r0, r1
.LVL468:
.LBE118:
.LBE128:
.LBE132:
	.loc 1 599 0
	cmp	r5, #1
	bls	.L615
	add	r1, r1, r1, lsl #1
	lsls	r1, r1, #3
	.loc 1 600 0
	add	r5, r1, #12
	.loc 1 601 0
	adds	r1, r1, #4
	.loc 1 600 0
	add	r5, r5, r4
	.loc 1 601 0
	add	r4, r4, r1
	.loc 1 600 0
	str	r5, [r2]
	.loc 1 601 0
	str	r4, [r3]
	.loc 1 605 0
	pop	{r4, r5}
	.cfi_remember_state
	.cfi_restore 4
	.cfi_restore 5
	.cfi_def_cfa_offset 0
	bx	lr
.LVL469:
.L687:
	.cfi_restore_state
.LBB133:
.LBB129:
.LBB119:
	.loc 1 301 0
	ldr	r0, [r1]
.LVL470:
	ldr	r5, [r4, #52]
	cmp	r0, r5
	bne	.L550
.LVL471:
.L604:
.LBE119:
	.loc 1 290 0
	movs	r1, #2
.LVL472:
	b	.L545
.LVL473:
.L688:
.LBB120:
	.loc 1 301 0
	ldr	r0, [r1]
.LVL474:
	ldr	r5, [r4, #76]
	cmp	r0, r5
	bne	.L552
.LVL475:
.L606:
.LBE120:
	.loc 1 290 0
	movs	r1, #3
.LVL476:
	b	.L545
.LVL477:
.L689:
.LBB121:
	.loc 1 301 0
	ldr	r0, [r1]
.LVL478:
	ldr	r5, [r4, #100]
	cmp	r0, r5
	bne	.L554
.LVL479:
.L608:
.LBE121:
	.loc 1 290 0
	movs	r1, #4
.LVL480:
	b	.L545
.LVL481:
.L690:
.LBB122:
	.loc 1 301 0
	ldr	r0, [r1]
.LVL482:
	ldr	r5, [r4, #124]
	cmp	r0, r5
	bne	.L556
.LVL483:
.L610:
.LBE122:
	.loc 1 290 0
	movs	r1, #5
.LVL484:
	b	.L545
.LVL485:
.L691:
.LBB123:
	.loc 1 301 0
	ldr	r0, [r1]
.LVL486:
	ldr	r5, [r4, #148]
	cmp	r0, r5
	bne	.L558
.LVL487:
.L612:
.LBE123:
	.loc 1 290 0
	movs	r1, #6
.LVL488:
	b	.L545
.LVL489:
.L693:
.LBB124:
	.loc 1 301 0
	ldr	r0, [r1]
.LVL490:
	ldr	r5, [r4, #196]
	cmp	r0, r5
	bne	.L562
.LVL491:
.L617:
.LBE124:
	.loc 1 290 0
	movs	r1, #8
	b	.L545
.LVL492:
.L692:
.LBB125:
	.loc 1 301 0
	ldr	r0, [r1]
.LVL493:
	ldr	r5, [r4, #172]
	cmp	r0, r5
	bne	.L560
.LVL494:
.L614:
.LBE125:
	.loc 1 290 0
	movs	r1, #7
.LVL495:
	b	.L545
.LVL496:
.L686:
.LBB126:
	.loc 1 301 0
	ldr	r0, [r1]
	ldr	r5, [r4, #28]
	cmp	r0, r5
	bne	.L548
.LVL497:
.L602:
.LBE126:
	.loc 1 290 0
	movs	r1, #1
.LVL498:
	b	.L545
.LVL499:
.L596:
	.cfi_def_cfa_offset 0
	.cfi_restore 4
	.cfi_restore 5
.LBE129:
.LBE133:
	.loc 1 604 0
	mov	r0, #-1
.LVL500:
	bx	lr
.LVL501:
.L685:
	.cfi_def_cfa_offset 8
	.cfi_offset 4, -8
	.cfi_offset 5, -4
.LBB134:
.LBB130:
	.loc 1 290 0
	movs	r1, #0
.LVL502:
	b	.L545
.L695:
	.align	2
.L694:
	.word	.LANCHOR0
.LBE130:
.LBE134:
	.cfi_endproc
.LFE8:
	.size	etharp_find_addr, .-etharp_find_addr
	.section	.text.etharp_get_entry,"ax",%progbits
	.align	1
	.p2align 2,,3
	.global	etharp_get_entry
	.syntax unified
	.thumb
	.thumb_func
	.fpu softvfp
	.type	etharp_get_entry, %function
etharp_get_entry:
.LFB9:
	.loc 1 618 0
	.cfi_startproc
	@ args = 0, pretend = 0, frame = 0
	@ frame_needed = 0, uses_anonymous_args = 0
	@ link register save eliminated.
.LVL503:
	.loc 1 623 0
	cmp	r0, #9
	bhi	.L698
	.loc 1 618 0 discriminator 1
	push	{r4, r5, r6}
	.cfi_def_cfa_offset 12
	.cfi_offset 4, -12
	.cfi_offset 5, -8
	.cfi_offset 6, -4
	.loc 1 623 0 discriminator 1
	ldr	r4, .L704
	add	r5, r0, r0, lsl #1
	add	r5, r4, r5, lsl #3
	ldrb	r6, [r5, #20]	@ zero_extendqisi2
	cmp	r6, #1
	bls	.L699
	add	r0, r0, r0, lsl #1
.LVL504:
	lsls	r0, r0, #3
	.loc 1 625 0
	ldr	r6, [r5, #8]
	.loc 1 624 0
	adds	r5, r0, #4
	.loc 1 626 0
	adds	r0, r0, #12
	.loc 1 624 0
	add	r5, r5, r4
	.loc 1 626 0
	add	r4, r4, r0
	.loc 1 624 0
	str	r5, [r1]
	.loc 1 627 0
	movs	r0, #1
	.loc 1 625 0
	str	r6, [r2]
	.loc 1 626 0
	str	r4, [r3]
	.loc 1 631 0
	pop	{r4, r5, r6}
	.cfi_restore 6
	.cfi_restore 5
	.cfi_restore 4
	.cfi_def_cfa_offset 0
	bx	lr
.LVL505:
.L698:
	.loc 1 629 0
	movs	r0, #0
.LVL506:
	bx	lr
.LVL507:
.L699:
	.cfi_def_cfa_offset 12
	.cfi_offset 4, -12
	.cfi_offset 5, -8
	.cfi_offset 6, -4
	movs	r0, #0
.LVL508:
	.loc 1 631 0
	pop	{r4, r5, r6}
	.cfi_restore 4
	.cfi_restore 5
	.cfi_restore 6
	.cfi_def_cfa_offset 0
	bx	lr
.L705:
	.align	2
.L704:
	.word	.LANCHOR0
	.cfi_endproc
.LFE9:
	.size	etharp_get_entry, .-etharp_get_entry
	.section	.text.etharp_raw,"ax",%progbits
	.align	1
	.p2align 2,,3
	.global	etharp_raw
	.syntax unified
	.thumb
	.thumb_func
	.fpu softvfp
	.type	etharp_raw, %function
etharp_raw:
.LFB14:
	.loc 1 1129 0
	.cfi_startproc
	@ args = 16, pretend = 0, frame = 0
	@ frame_needed = 0, uses_anonymous_args = 0
.LVL509:
	push	{r4, r5, r6, r7, r8, r9, r10, fp, lr}
	.cfi_def_cfa_offset 36
	.cfi_offset 4, -36
	.cfi_offset 5, -32
	.cfi_offset 6, -28
	.cfi_offset 7, -24
	.cfi_offset 8, -20
	.cfi_offset 9, -16
	.cfi_offset 10, -12
	.cfi_offset 11, -8
	.cfi_offset 14, -4
	mov	r9, r0
	sub	sp, sp, #12
	.cfi_def_cfa_offset 48
	.loc 1 1129 0
	mov	r10, r1
	mov	fp, r2
	.loc 1 1137 0
	movs	r1, #28
.LVL510:
	movs	r2, #0
.LVL511:
	movs	r0, #2
.LVL512:
	.loc 1 1129 0
	mov	r8, r3
	ldr	r7, [sp, #52]
	ldrh	r5, [sp, #60]
	.loc 1 1137 0
	bl	pbuf_alloc
.LVL513:
	.loc 1 1139 0
	cmp	r0, #0
	beq	.L712
	mov	r4, r0
	.loc 1 1150 0
	mov	r0, r5
.LVL514:
	.loc 1 1148 0
	ldr	r6, [r4, #4]
.LVL515:
	.loc 1 1150 0
	bl	lwip_htons
.LVL516:
	.loc 1 1167 0
	movs	r1, #4
	.loc 1 1166 0
	mov	ip, #6
	.loc 1 1174 0
	movw	r2, #65193
	.loc 1 1150 0
	strh	r0, [r6, #6]	@ unaligned
	.loc 1 1156 0
	ldr	r0, [r8]	@ unaligned
	.loc 1 1160 0
	ldr	r3, [sp, #48]
	.loc 1 1156 0
	str	r0, [r6, #8]	@ unaligned
	ldrh	r0, [r8, #4]	@ unaligned
	.loc 1 1176 0
	subs	r5, r5, #3
	.loc 1 1156 0
	strh	r0, [r6, #12]	@ unaligned
	.loc 1 1157 0
	ldr	r0, [r7]	@ unaligned
	str	r0, [r6, #18]	@ unaligned
	ldrh	r0, [r7, #4]	@ unaligned
	strh	r0, [r6, #22]	@ unaligned
	.loc 1 1160 0
	ldr	r0, [r3]	@ unaligned
	.loc 1 1161 0
	ldr	r3, [sp, #56]
	.loc 1 1160 0
	str	r0, [r6, #14]	@ unaligned
	.loc 1 1161 0
	ldr	r0, [r3]	@ unaligned
	.loc 1 1174 0
	ldr	r3, [sp, #48]
	.loc 1 1161 0
	str	r0, [r6, #24]	@ unaligned
	.loc 1 1166 0
	strb	ip, [r6, #4]
	.loc 1 1167 0
	strb	r1, [r6, #5]
	.loc 1 1174 0
	ldrh	r1, [r3]
	.loc 1 1163 0
	ldr	r0, .L717
	.loc 1 1174 0
	cmp	r1, r2
	.loc 1 1163 0
	str	r0, [r6]	@ unaligned
	.loc 1 1174 0
	beq	.L716
	.loc 1 1185 0
	cmp	r5, #1
	.loc 1 1186 0
	ite	ls
	movwls	r1, #32821
	.loc 1 1189 0
	movwhi	r1, #2054
	mov	r3, fp
	str	r1, [sp]
	mov	r2, r10
	mov	r0, r9
	mov	r1, r4
	bl	ethernet_output
.LVL517:
.L710:
	.loc 1 1194 0
	mov	r0, r4
	bl	pbuf_free
.LVL518:
	.loc 1 1198 0
	movs	r0, #0
.LVL519:
.L707:
	.loc 1 1199 0
	add	sp, sp, #12
	.cfi_remember_state
	.cfi_def_cfa_offset 36
	@ sp needed
	pop	{r4, r5, r6, r7, r8, r9, r10, fp, pc}
.LVL520:
.L716:
	.cfi_restore_state
	.loc 1 1176 0
	cmp	r5, #1
	.loc 1 1177 0
	ite	ls
	movwls	r3, #32821
	.loc 1 1180 0
	movwhi	r3, #2054
	mov	r2, r10
	str	r3, [sp]
	mov	r0, r9
	ldr	r3, .L717+4
	mov	r1, r4
	bl	ethernet_output
.LVL521:
	b	.L710
.LVL522:
.L712:
	.loc 1 1143 0
	mov	r0, #-1
.LVL523:
	b	.L707
.L718:
	.align	2
.L717:
	.word	524544
	.word	ethbroadcast
	.cfi_endproc
.LFE14:
	.size	etharp_raw, .-etharp_raw
	.section	.text.etharp_input,"ax",%progbits
	.align	1
	.p2align 2,,3
	.global	etharp_input
	.syntax unified
	.thumb
	.thumb_func
	.fpu softvfp
	.type	etharp_input, %function
etharp_input:
.LFB10:
	.loc 1 647 0
	.cfi_startproc
	@ args = 0, pretend = 0, frame = 8
	@ frame_needed = 0, uses_anonymous_args = 0
.LVL524:
	.loc 1 653 0
	cmp	r1, #0
	beq	.L749
	.loc 1 647 0
	push	{r4, r5, r6, r7, r8, r9, r10, lr}
	.cfi_def_cfa_offset 32
	.cfi_offset 4, -32
	.cfi_offset 5, -28
	.cfi_offset 6, -24
	.cfi_offset 7, -20
	.cfi_offset 8, -16
	.cfi_offset 9, -12
	.cfi_offset 10, -8
	.cfi_offset 14, -4
	.loc 1 655 0
	ldr	r6, [r0, #4]
.LVL525:
	.loc 1 647 0
	sub	sp, sp, #24
	.cfi_def_cfa_offset 56
	.loc 1 658 0
	ldrh	r3, [r6]	@ unaligned
	mov	r5, r1
	cmp	r3, #256
	mov	r4, r0
	beq	.L753
.LVL526:
.L728:
	.loc 1 757 0 discriminator 2
	mov	r0, r4
	bl	pbuf_free
.LVL527:
	.loc 1 758 0 discriminator 2
	add	sp, sp, #24
	.cfi_remember_state
	.cfi_def_cfa_offset 32
	@ sp needed
	pop	{r4, r5, r6, r7, r8, r9, r10, pc}
.LVL528:
.L753:
	.cfi_restore_state
	.loc 1 658 0 discriminator 1
	ldrb	r3, [r6, #4]	@ zero_extendqisi2
	cmp	r3, #6
	bne	.L728
	.loc 1 659 0
	ldrb	r3, [r6, #5]	@ zero_extendqisi2
	cmp	r3, #4
	bne	.L728
	.loc 1 660 0
	ldrh	r3, [r6, #2]	@ unaligned
	cmp	r3, #8
	bne	.L728
	.loc 1 676 0
	mov	r0, r5
.LVL529:
	mov	r1, r6
.LVL530:
	bl	autoip_arp_reply
.LVL531:
	.loc 1 681 0
	ldr	r0, [r6, #14]	@ unaligned
	.loc 1 685 0
	ldr	r7, [r5, #4]
	.loc 1 681 0
	str	r0, [sp, #20]
	.loc 1 682 0
	ldr	r3, [r6, #24]	@ unaligned
.LVL532:
	.loc 1 697 0
	add	r8, r6, #8
	.loc 1 685 0
	cmp	r7, #0
	beq	.L752
.LVL533:
	.loc 1 697 0
	cmp	r3, r7
	bne	.L732
	.loc 1 689 0
	movs	r7, #1
.LVL534:
	.loc 1 697 0
	mov	r10, r7
.LVL535:
.L724:
.LBB138:
.LBB139:
	.loc 1 438 0 discriminator 4
	cmp	r0, #0
	beq	.L726
	.loc 1 439 0
	mov	r1, r5
	bl	ip4_addr_isbroadcast_u32
.LVL536:
	.loc 1 438 0
	mov	r9, r0
	cmp	r0, #0
	bne	.L726
	.loc 1 440 0
	ldr	r3, [sp, #20]
	and	r3, r3, #240
	.loc 1 439 0
	cmp	r3, #224
	beq	.L726
	.loc 1 445 0
	mov	r1, r10
	add	r0, sp, #20
.LVL537:
	bl	etharp_find_entry.isra.0
.LVL538:
	.loc 1 447 0
	cmp	r0, #0
.LVL539:
	blt	.L726
	.loc 1 455 0
	add	ip, r0, r0, lsl #1
	ldr	r1, .L754
	lsl	ip, ip, #3
	add	r2, r1, ip
	ldrb	r3, [r2, #20]	@ zero_extendqisi2
	cmp	r3, #5
	beq	.L726
	.loc 1 472 0
	mov	r10, #12
.LVL540:
	movs	r3, #24
	.loc 1 462 0
	mov	lr, #2
	.loc 1 472 0
	smlabb	r3, r3, r0, r10
	.loc 1 462 0
	strb	lr, [r2, #20]
	.loc 1 466 0
	str	r5, [r2, #8]
	.loc 1 472 0
	ldr	r0, [r8]	@ unaligned
	add	lr, r1, r3
	str	r0, [r1, r3]
	ldrh	r3, [r8, #4]	@ unaligned
	strh	r3, [lr, #4]	@ unaligned
	.loc 1 488 0
	ldr	r10, [r1, ip]
	.loc 1 474 0
	strh	r9, [r2, #18]	@ movhi
	.loc 1 488 0
	cmp	r10, #0
	beq	.L726
.LVL541:
.LBB140:
	.loc 1 493 0
	mov	r3, #2048
	add	r2, r5, #49
	str	r3, [sp]
	mov	r0, r5
	.loc 1 490 0
	str	r9, [r1, ip]
	.loc 1 493 0
	mov	r3, r8
	mov	r1, r10
	bl	ethernet_output
.LVL542:
	.loc 1 495 0
	mov	r0, r10
	bl	pbuf_free
.LVL543:
.L726:
.LBE140:
.LBE139:
.LBE138:
	.loc 1 701 0
	ldrh	r3, [r6, #6]	@ unaligned
	cmp	r3, #256
	beq	.L729
	cmp	r3, #512
	bne	.L728
	.loc 1 742 0
	mov	r0, r5
	add	r1, sp, #20
	bl	dhcp_arp_reply
.LVL544:
	.loc 1 750 0
	b	.L728
.LVL545:
.L749:
	.cfi_def_cfa_offset 0
	.cfi_restore 4
	.cfi_restore 5
	.cfi_restore 6
	.cfi_restore 7
	.cfi_restore 8
	.cfi_restore 9
	.cfi_restore 10
	.cfi_restore 14
	bx	lr
.LVL546:
.L732:
	.cfi_def_cfa_offset 56
	.cfi_offset 4, -32
	.cfi_offset 5, -28
	.cfi_offset 6, -24
	.cfi_offset 7, -20
	.cfi_offset 8, -16
	.cfi_offset 9, -12
	.cfi_offset 10, -8
	.cfi_offset 14, -4
	.loc 1 689 0
	movs	r7, #0
.LVL547:
.L752:
	.loc 1 697 0
	mov	r10, #2
	b	.L724
.LVL548:
.L729:
	.loc 1 710 0
	cmp	r7, #0
	beq	.L728
	.loc 1 712 0
	movs	r1, #2
	.loc 1 714 0
	adds	r0, r5, #4
	.loc 1 713 0
	add	r3, r5, #49
	.loc 1 712 0
	add	r6, sp, #20
.LVL549:
	str	r1, [sp, #12]
	str	r0, [sp]
	str	r8, [sp, #4]
	mov	r2, r8
	mov	r1, r3
	str	r6, [sp, #8]
	mov	r0, r5
	bl	etharp_raw
.LVL550:
	b	.L728
.L755:
	.align	2
.L754:
	.word	.LANCHOR0
	.cfi_endproc
.LFE10:
	.size	etharp_input, .-etharp_input
	.section	.text.etharp_tmr,"ax",%progbits
	.align	1
	.p2align 2,,3
	.global	etharp_tmr
	.syntax unified
	.thumb
	.thumb_func
	.fpu softvfp
	.type	etharp_tmr, %function
etharp_tmr:
.LFB2:
	.loc 1 205 0
	.cfi_startproc
	@ args = 0, pretend = 0, frame = 0
	@ frame_needed = 0, uses_anonymous_args = 0
.LVL551:
	push	{r4, r5, r6, r7, r8, lr}
	.cfi_def_cfa_offset 24
	.cfi_offset 4, -24
	.cfi_offset 5, -20
	.cfi_offset 6, -16
	.cfi_offset 7, -12
	.cfi_offset 8, -8
	.cfi_offset 14, -4
.LBB141:
.LBB142:
.LBB143:
	.loc 1 187 0
	movs	r6, #0
	ldr	r4, .L781
.LBE143:
.LBE142:
.LBB145:
.LBB146:
.LBB147:
.LBB148:
	.loc 1 1216 0
	ldr	r8, .L781+8
	ldr	r7, .L781+4
.LBE148:
.LBE147:
.LBE146:
.LBE145:
.LBE141:
	.loc 1 205 0
	sub	sp, sp, #16
	.cfi_def_cfa_offset 40
	add	r5, r4, #240
.LVL552:
.L765:
.LBB154:
	.loc 1 211 0
	ldrb	r3, [r4, #16]	@ zero_extendqisi2
.LVL553:
	.loc 1 212 0
	cbz	r3, .L758
	.loc 1 214 0
	cmp	r3, #5
	beq	.L758
	.loc 1 217 0
	ldrh	r2, [r4, #14]
	adds	r2, r2, #1
	uxth	r2, r2
	.loc 1 218 0
	cmp	r2, #300
	.loc 1 217 0
	strh	r2, [r4, #14]	@ movhi
	.loc 1 218 0
	bcs	.L760
	.loc 1 218 0 is_stmt 0 discriminator 1
	cmp	r3, #1
	beq	.L778
	.loc 1 226 0 is_stmt 1
	cmp	r3, #3
	beq	.L779
	.loc 1 229 0
	cmp	r3, #4
	bne	.L758
	.loc 1 232 0
	movs	r3, #2
.LVL554:
	strb	r3, [r4, #16]
.LVL555:
.L758:
	adds	r4, r4, #24
.LBE154:
	.loc 1 210 0 discriminator 2
	cmp	r4, r5
	bne	.L765
.L780:
	.loc 1 239 0
	add	sp, sp, #16
	.cfi_remember_state
	.cfi_def_cfa_offset 24
	@ sp needed
	pop	{r4, r5, r6, r7, r8, pc}
.LVL556:
.L778:
	.cfi_restore_state
.LBB155:
	.loc 1 219 0
	cmp	r2, #4
	bls	.L762
.L760:
.LBB152:
.LBB144:
	.loc 1 180 0
	ldr	r0, [r4, #-4]
	cbz	r0, .L763
	.loc 1 183 0
	bl	pbuf_free
.LVL557:
	.loc 1 184 0
	str	r6, [r4, #-4]
.L763:
	.loc 1 187 0
	strb	r6, [r4, #16]
	adds	r4, r4, #24
.LBE144:
.LBE152:
.LBE155:
	.loc 1 210 0
	cmp	r4, r5
	bne	.L765
	b	.L780
.LVL558:
.L779:
.LBB156:
	.loc 1 228 0
	movs	r3, #4
.LVL559:
	adds	r4, r4, #24
.LVL560:
	strb	r3, [r4, #-8]
.LVL561:
.LBE156:
	.loc 1 210 0
	cmp	r4, r5
	bne	.L765
	b	.L780
.LVL562:
.L762:
.LBB157:
	.loc 1 235 0
	ldr	r0, [r4, #4]
.LVL563:
.LBB153:
.LBB151:
.LBB150:
.LBB149:
	.loc 1 1216 0
	str	r3, [sp, #12]
	.loc 1 1217 0
	adds	r2, r0, #4
	.loc 1 1216 0
	add	r3, r0, #49
.LVL564:
	str	r4, [sp, #8]
	str	r2, [sp]
	str	r8, [sp, #4]
	mov	r1, r3
	mov	r2, r7
	adds	r4, r4, #24
.LVL565:
	bl	etharp_raw
.LVL566:
.LBE149:
.LBE150:
.LBE151:
.LBE153:
.LBE157:
	.loc 1 210 0
	cmp	r4, r5
	bne	.L765
	b	.L780
.L782:
	.align	2
.L781:
	.word	.LANCHOR0+4
	.word	ethbroadcast
	.word	ethzero
	.cfi_endproc
.LFE2:
	.size	etharp_tmr, .-etharp_tmr
	.section	.text.etharp_query,"ax",%progbits
	.align	1
	.p2align 2,,3
	.global	etharp_query
	.syntax unified
	.thumb
	.thumb_func
	.fpu softvfp
	.type	etharp_query, %function
etharp_query:
.LFB13:
	.loc 1 949 0
	.cfi_startproc
	@ args = 0, pretend = 0, frame = 0
	@ frame_needed = 0, uses_anonymous_args = 0
.LVL567:
	push	{r4, r5, r6, r7, r8, r9, r10, fp, lr}
	.cfi_def_cfa_offset 36
	.cfi_offset 4, -36
	.cfi_offset 5, -32
	.cfi_offset 6, -28
	.cfi_offset 7, -24
	.cfi_offset 8, -20
	.cfi_offset 9, -16
	.cfi_offset 10, -12
	.cfi_offset 11, -8
	.cfi_offset 14, -4
	mov	r4, r1
	sub	sp, sp, #20
	.cfi_def_cfa_offset 56
	.loc 1 949 0
	mov	r5, r0
.LVL568:
	.loc 1 956 0
	mov	r1, r0
.LVL569:
	ldr	r0, [r4]
.LVL570:
	.loc 1 949 0
	mov	r8, r2
	.loc 1 956 0
	bl	ip4_addr_isbroadcast_u32
.LVL571:
	cmp	r0, #0
	bne	.L799
	.loc 1 957 0 discriminator 1
	ldr	r3, [r4]
	and	r2, r3, #240
	.loc 1 956 0 discriminator 1
	cmp	r2, #224
	beq	.L799
	.loc 1 958 0
	cmp	r3, #0
	beq	.L799
	.loc 1 964 0
	movs	r1, #1
	mov	r0, r4
	bl	etharp_find_entry.isra.0
.LVL572:
	.loc 1 967 0
	subs	r7, r0, #0
	blt	.L800
	.loc 1 977 0
	lsl	r10, r7, #1
	ldr	r9, .L821+12
	add	r6, r10, r7
	add	r6, r9, r6, lsl #3
	ldrb	r3, [r6, #20]	@ zero_extendqisi2
	.loc 1 950 0
	add	fp, r5, #49
.LVL573:
	.loc 1 977 0
	cbz	r3, .L817
	.loc 1 990 0
	cmp	r8, #0
	beq	.L818
	.loc 1 1007 0
	cmp	r3, #1
	.loc 1 951 0
	mov	r0, #-1
.LVL574:
	.loc 1 1007 0
	bhi	.L819
.LVL575:
.L786:
	.loc 1 1013 0
	beq	.L820
.LVL576:
.L803:
	.loc 1 1102 0
	add	sp, sp, #20
	.cfi_remember_state
	.cfi_def_cfa_offset 36
	@ sp needed
	pop	{r4, r5, r6, r7, r8, r9, r10, fp, pc}
.LVL577:
.L817:
	.cfi_restore_state
	.loc 1 979 0
	mov	ip, #1
.LBB158:
.LBB159:
.LBB160:
.LBB161:
	.loc 1 1216 0
	ldr	r2, .L821
	.loc 1 1217 0
	adds	r3, r5, #4
	.loc 1 1216 0
	str	r2, [sp, #4]
	str	r3, [sp]
	str	r4, [sp, #8]
	str	ip, [sp, #12]
	mov	r3, fp
	ldr	r2, .L821+4
	mov	r1, fp
	mov	r0, r5
.LVL578:
.LBE161:
.LBE160:
.LBE159:
.LBE158:
	.loc 1 981 0
	str	r5, [r6, #8]
.LVL579:
	.loc 1 979 0
	strb	ip, [r6, #20]
.LBB168:
.LBB166:
.LBB164:
.LBB162:
	.loc 1 1216 0
	bl	etharp_raw
.LVL580:
.LBE162:
.LBE164:
.LBE166:
.LBE168:
	.loc 1 999 0
	cmp	r8, #0
	beq	.L803
	ldrb	r3, [r6, #20]	@ zero_extendqisi2
.LVL581:
	.loc 1 1007 0
	cmp	r3, #1
	bls	.L786
.LVL582:
.L819:
	.loc 1 1011 0
	movs	r2, #12
	movs	r3, #24
	mov	r6, #2048
	smlabb	r3, r3, r7, r2
	.loc 1 1009 0
	ldr	r4, .L821+8
.LVL583:
	.loc 1 1011 0
	str	r6, [sp]
	mov	r2, fp
	mov	r1, r8
	mov	r0, r5
.LVL584:
	add	r3, r3, r9
	.loc 1 1009 0
	strb	r7, [r4]
	.loc 1 1011 0
	bl	ethernet_output
.LVL585:
	.loc 1 1102 0
	add	sp, sp, #20
	.cfi_remember_state
	.cfi_def_cfa_offset 36
	@ sp needed
	pop	{r4, r5, r6, r7, r8, r9, r10, fp, pc}
.LVL586:
.L800:
	.cfi_restore_state
	mov	r0, r7
.LVL587:
	add	sp, sp, #20
	.cfi_remember_state
	.cfi_def_cfa_offset 36
	@ sp needed
	pop	{r4, r5, r6, r7, r8, r9, r10, fp, pc}
.LVL588:
.L820:
	.cfi_restore_state
.LBB169:
	.loc 1 1021 0
	cmp	r8, #0
	beq	.L787
	.loc 1 1023 0
	ldrb	r3, [r8, #12]	@ zero_extendqisi2
	cmp	r3, #1
	mov	r3, r8
	beq	.L790
.LVL589:
	b	.L788
.LVL590:
.L791:
	ldrb	r2, [r3, #12]	@ zero_extendqisi2
	cmp	r2, #1
	bne	.L788
.L790:
	.loc 1 1027 0
	ldr	r3, [r3]
.LVL591:
	.loc 1 1021 0
	cmp	r3, #0
	bne	.L791
.LVL592:
	.loc 1 1041 0
	mov	r0, r8
.LVL593:
	bl	pbuf_ref
.LVL594:
	mov	r4, r8
.LVL595:
.L793:
	.loc 1 1087 0
	add	r3, r10, r7
	ldr	r0, [r9, r3, lsl #3]
	cbz	r0, .L794
	.loc 1 1089 0
	bl	pbuf_free
.LVL596:
.L794:
	.loc 1 1092 0
	movs	r0, #0
	.loc 1 1091 0
	add	r7, r7, r10
	str	r4, [r9, r7, lsl #3]
.LVL597:
.LBE169:
	.loc 1 1102 0
	add	sp, sp, #20
	.cfi_remember_state
	.cfi_def_cfa_offset 36
	@ sp needed
	pop	{r4, r5, r6, r7, r8, r9, r10, fp, pc}
.LVL598:
.L799:
	.cfi_restore_state
	.loc 1 960 0
	mvn	r0, #15
	.loc 1 1102 0
	add	sp, sp, #20
	.cfi_remember_state
	.cfi_def_cfa_offset 36
	@ sp needed
	pop	{r4, r5, r6, r7, r8, r9, r10, fp, pc}
.LVL599:
.L788:
	.cfi_restore_state
.LBB170:
	.loc 1 1031 0
	ldrh	r1, [r3, #8]
	movs	r2, #0
	movs	r0, #2
.LVL600:
	bl	pbuf_alloc
.LVL601:
	.loc 1 1032 0
	mov	r4, r0
.LVL602:
	cbz	r0, .L815
	.loc 1 1033 0
	mov	r1, r8
	bl	pbuf_copy
.LVL603:
	cmp	r0, #0
	beq	.L793
	.loc 1 1034 0
	mov	r0, r4
	bl	pbuf_free
.LVL604:
	.loc 1 1098 0
	mov	r0, #-1
	b	.L803
.LVL605:
.L818:
.LBE170:
.LBB171:
.LBB167:
.LBB165:
.LBB163:
	.loc 1 1216 0
	movs	r1, #1
	ldr	r2, .L821
	.loc 1 1217 0
	adds	r3, r5, #4
	.loc 1 1216 0
	str	r1, [sp, #12]
	str	r2, [sp, #4]
	str	r3, [sp]
	str	r4, [sp, #8]
	mov	r0, r5
.LVL606:
	mov	r3, fp
	mov	r1, fp
	ldr	r2, .L821+4
	bl	etharp_raw
.LVL607:
	b	.L803
.LVL608:
.L787:
.LBE163:
.LBE165:
.LBE167:
.LBE171:
.LBB172:
	.loc 1 1041 0
	mov	r0, r8
.LVL609:
	bl	pbuf_ref
.LVL610:
.L815:
	.loc 1 1098 0
	mov	r0, #-1
	b	.L803
.L822:
	.align	2
.L821:
	.word	ethzero
	.word	ethbroadcast
	.word	.LANCHOR1
	.word	.LANCHOR0
.LBE172:
	.cfi_endproc
.LFE13:
	.size	etharp_query, .-etharp_query
	.section	.text.etharp_output,"ax",%progbits
	.align	1
	.p2align 2,,3
	.global	etharp_output
	.syntax unified
	.thumb
	.thumb_func
	.fpu softvfp
	.type	etharp_output, %function
etharp_output:
.LFB12:
	.loc 1 808 0
	.cfi_startproc
	@ args = 0, pretend = 0, frame = 8
	@ frame_needed = 0, uses_anonymous_args = 0
.LVL611:
	push	{r4, r5, r6, r7, r8, r9, r10, lr}
	.cfi_def_cfa_offset 32
	.cfi_offset 4, -32
	.cfi_offset 5, -28
	.cfi_offset 6, -24
	.cfi_offset 7, -20
	.cfi_offset 8, -16
	.cfi_offset 9, -12
	.cfi_offset 10, -8
	.cfi_offset 14, -4
	mov	r5, r0
	sub	sp, sp, #24
	.cfi_def_cfa_offset 56
	.loc 1 808 0
	mov	r7, r1
	.loc 1 821 0
	ldr	r0, [r2]
.LVL612:
	mov	r1, r5
.LVL613:
	.loc 1 808 0
	mov	r6, r2
.LVL614:
	.loc 1 821 0
	bl	ip4_addr_isbroadcast_u32
.LVL615:
	cmp	r0, #0
	bne	.L850
	.loc 1 825 0
	ldr	r2, [r6]
	and	r3, r2, #240
	cmp	r3, #224
	beq	.L868
.LBB191:
	.loc 1 840 0
	ldr	r3, [r5, #4]
	ldr	r1, [r5, #8]
	eors	r3, r3, r2
	tst	r3, r1
	beq	.L826
	.loc 1 840 0 is_stmt 0 discriminator 1
	movw	r1, #65193
	.loc 1 841 0 is_stmt 1 discriminator 1
	uxth	r3, r2
	.loc 1 840 0 discriminator 1
	cmp	r3, r1
	beq	.L826
.LVL616:
.LBB192:
	.loc 1 848 0
	ldr	r3, [r7, #4]
	ldr	r3, [r3, #12]	@ unaligned
	uxth	r3, r3
	cmp	r3, r1
	beq	.L826
	.loc 1 859 0
	ldr	r2, [r5, #12]
	cmp	r2, #0
	beq	.L851
	.loc 1 861 0
	add	r6, r5, #12
.LVL617:
.L826:
.LBE192:
	.loc 1 876 0
	ldr	r0, .L874
	ldr	r4, .L874+4
	ldrb	r3, [r0]	@ zero_extendqisi2
	add	r8, r3, r3, lsl #1
	add	r8, r4, r8, lsl #3
	ldrb	ip, [r8, #20]	@ zero_extendqisi2
	cmp	ip, #1
	bls	.L828
	.loc 1 876 0 is_stmt 0 discriminator 1
	ldr	r1, [r8, #4]
	cmp	r1, r2
	beq	.L869
.L828:
.LVL618:
	.loc 1 893 0 is_stmt 1
	ldrb	r3, [r4, #20]	@ zero_extendqisi2
	cmp	r3, #1
	bls	.L834
	ldr	r1, [r4, #4]
	cmp	r2, r1
	beq	.L853
.L834:
.LVL619:
	ldrb	r3, [r4, #44]	@ zero_extendqisi2
	cmp	r3, #1
	bls	.L836
	ldr	r1, [r4, #28]
	cmp	r1, r2
	beq	.L854
.L836:
.LVL620:
	ldrb	r3, [r4, #68]	@ zero_extendqisi2
	cmp	r3, #1
	bls	.L837
	ldr	r1, [r4, #52]
	cmp	r1, r2
	beq	.L855
.L837:
.LVL621:
	ldrb	r3, [r4, #92]	@ zero_extendqisi2
	cmp	r3, #1
	bls	.L838
	ldr	r1, [r4, #76]
	cmp	r2, r1
	beq	.L856
.L838:
.LVL622:
	ldrb	r3, [r4, #116]	@ zero_extendqisi2
	cmp	r3, #1
	bls	.L839
	ldr	r1, [r4, #100]
	cmp	r2, r1
	beq	.L857
.L839:
.LVL623:
	ldrb	r3, [r4, #140]	@ zero_extendqisi2
	cmp	r3, #1
	bls	.L840
	ldr	r1, [r4, #124]
	cmp	r2, r1
	beq	.L858
.L840:
.LVL624:
	ldrb	r3, [r4, #164]	@ zero_extendqisi2
	cmp	r3, #1
	bls	.L841
	ldr	r1, [r4, #148]
	cmp	r2, r1
	beq	.L859
.L841:
.LVL625:
	ldrb	r3, [r4, #188]	@ zero_extendqisi2
	cmp	r3, #1
	bls	.L842
	ldr	r1, [r4, #172]
	cmp	r2, r1
	beq	.L860
.L842:
.LVL626:
	ldrb	r3, [r4, #212]	@ zero_extendqisi2
	cmp	r3, #1
	bls	.L843
	ldr	r1, [r4, #196]
	cmp	r2, r1
	beq	.L861
.L843:
.LVL627:
	ldrb	r3, [r4, #236]	@ zero_extendqisi2
	cmp	r3, #1
	bls	.L844
	.loc 1 893 0 is_stmt 0 discriminator 1
	ldr	r1, [r4, #220]
	cmp	r1, r2
	beq	.L870
.L844:
.LVL628:
	.loc 1 905 0 is_stmt 1 discriminator 2
	mov	r2, r7
	mov	r1, r6
	mov	r0, r5
	bl	etharp_query
.LVL629:
.L827:
.LBE191:
	.loc 1 912 0
	add	sp, sp, #24
	.cfi_remember_state
	.cfi_def_cfa_offset 32
	@ sp needed
	pop	{r4, r5, r6, r7, r8, r9, r10, pc}
.LVL630:
.L850:
	.cfi_restore_state
	.loc 1 823 0
	ldr	r3, .L874+8
.L824:
.LVL631:
	.loc 1 911 0
	mov	r2, #2048
	mov	r1, r7
	str	r2, [sp]
	mov	r0, r5
	add	r2, r5, #49
	bl	ethernet_output
.LVL632:
	.loc 1 912 0
	add	sp, sp, #24
	.cfi_remember_state
	.cfi_def_cfa_offset 32
	@ sp needed
	pop	{r4, r5, r6, r7, r8, r9, r10, pc}
.LVL633:
.L868:
	.cfi_restore_state
	.loc 1 827 0
	mov	ip, #1
	.loc 1 829 0
	movs	r4, #94
	.loc 1 830 0
	ldrb	r3, [r6, #1]	@ zero_extendqisi2
	.loc 1 831 0
	ldrb	r1, [r6, #2]	@ zero_extendqisi2
	.loc 1 832 0
	ldrb	r2, [r6, #3]	@ zero_extendqisi2
	.loc 1 830 0
	and	r3, r3, #127
	strb	r3, [sp, #19]
	.loc 1 828 0
	strb	r0, [sp, #17]
	.loc 1 827 0
	strb	ip, [sp, #16]
	.loc 1 829 0
	strb	r4, [sp, #18]
	.loc 1 831 0
	strb	r1, [sp, #20]
	.loc 1 832 0
	strb	r2, [sp, #21]
.LVL634:
	.loc 1 834 0
	add	r3, sp, #16
.LVL635:
	b	.L824
.LVL636:
.L869:
.LBB246:
.LBB193:
.LBB194:
	.loc 1 771 0
	cmp	ip, #2
	beq	.L871
.L867:
	movs	r2, #24
	mla	r3, r2, r3, r4
.LVL637:
	add	r6, r5, #49
.LVL638:
	adds	r3, r3, #12
.L830:
	.loc 1 785 0
	mov	r4, #2048
	mov	r2, r6
	mov	r1, r7
	mov	r0, r5
	str	r4, [sp]
	bl	ethernet_output
.LVL639:
.LBE194:
.LBE193:
	.loc 1 883 0
	b	.L827
.LVL640:
.L853:
	.loc 1 893 0
	movs	r1, #0
	mov	r2, r1
.LVL641:
.L835:
.LBB213:
.LBB214:
	.loc 1 771 0
	cmp	r3, #2
.LBE214:
.LBE213:
	.loc 1 899 0
	strb	r1, [r0]
.LVL642:
.LBB237:
.LBB231:
	.loc 1 772 0
	add	r2, r2, r2, lsl #1
	.loc 1 771 0
	beq	.L845
	add	r4, r4, r2, lsl #3
	add	r3, r4, #12
	add	r8, r5, #49
.LVL643:
.L846:
	.loc 1 785 0
	mov	r4, #2048
	mov	r2, r8
	mov	r1, r7
	mov	r0, r5
	str	r4, [sp]
	bl	ethernet_output
.LVL644:
.LBE231:
.LBE237:
.LBE246:
	.loc 1 912 0
	add	sp, sp, #24
	.cfi_remember_state
	.cfi_def_cfa_offset 32
	@ sp needed
	pop	{r4, r5, r6, r7, r8, r9, r10, pc}
.LVL645:
.L845:
	.cfi_restore_state
.LBB247:
.LBB238:
.LBB232:
	.loc 1 772 0
	lsls	r6, r2, #3
.LVL646:
	add	r9, r4, r6
	ldrh	r3, [r9, #18]
	cmp	r3, #284
	bhi	.L872
	.loc 1 777 0
	cmp	r3, #270
	bcs	.L849
	add	r3, r6, #12
	add	r3, r3, r4
	add	r8, r5, #49
	b	.L846
.LVL647:
.L854:
.LBE232:
.LBE238:
	.loc 1 892 0
	movs	r1, #1
	.loc 1 893 0
	mov	r2, r1
	b	.L835
.LVL648:
.L855:
	.loc 1 892 0
	movs	r1, #2
	.loc 1 893 0
	mov	r2, r1
	b	.L835
.LVL649:
.L856:
	.loc 1 892 0
	movs	r1, #3
	.loc 1 893 0
	mov	r2, r1
	b	.L835
.LVL650:
.L857:
	.loc 1 892 0
	movs	r1, #4
	.loc 1 893 0
	mov	r2, r1
	b	.L835
.LVL651:
.L858:
	.loc 1 892 0
	movs	r1, #5
	.loc 1 893 0
	mov	r2, r1
	b	.L835
.LVL652:
.L872:
.LBB239:
.LBB233:
.LBB215:
.LBB216:
.LBB217:
.LBB218:
	.loc 1 1216 0
	movs	r0, #1
	ldr	r1, .L874+12
.LVL653:
.LBE218:
.LBE217:
.LBE216:
.LBE215:
	.loc 1 774 0
	adds	r3, r6, #4
	add	r3, r3, r4
.LBB222:
.LBB221:
.LBB220:
.LBB219:
	.loc 1 1216 0
	add	r8, r5, #49
	.loc 1 1217 0
	adds	r2, r5, #4
	.loc 1 1216 0
	str	r3, [sp, #8]
	str	r0, [sp, #12]
	str	r1, [sp, #4]
	str	r2, [sp]
	mov	r3, r8
	mov	r1, r8
	ldr	r2, .L874+8
	mov	r0, r5
	bl	etharp_raw
.LVL654:
.LBE219:
.LBE220:
.LBE221:
.LBE222:
	.loc 1 774 0
	cmp	r0, #0
	beq	.L848
	add	r3, r6, #12
	add	r3, r3, r4
	b	.L846
.LVL655:
.L859:
.LBE233:
.LBE239:
	.loc 1 892 0
	movs	r1, #6
	.loc 1 893 0
	mov	r2, r1
	b	.L835
.LVL656:
.L871:
.LBB240:
.LBB211:
	.loc 1 772 0
	ldrh	r2, [r8, #18]
	cmp	r2, #284
	bhi	.L873
	.loc 1 777 0
	cmp	r2, #270
	bcc	.L867
.LBB195:
.LBB196:
	.loc 1 1216 0
	movs	r1, #1
	add	r3, r3, r3, lsl #1
.LVL657:
	lsls	r3, r3, #3
.LBE196:
.LBE195:
	.loc 1 779 0
	add	r9, r3, #12
.LBB200:
.LBB197:
	.loc 1 1216 0
	ldr	ip, .L874+12
.LBE197:
.LBE200:
	.loc 1 779 0
	adds	r3, r3, #4
	add	r9, r9, r4
.LVL658:
.LBB201:
.LBB198:
	.loc 1 1216 0
	add	r6, r5, #49
.LVL659:
.LBE198:
.LBE201:
	.loc 1 779 0
	add	r4, r4, r3
.LBB202:
.LBB199:
	.loc 1 1217 0
	adds	r0, r5, #4
	.loc 1 1216 0
	str	r1, [sp, #12]
	str	r0, [sp]
	str	r4, [sp, #8]
	mov	r2, r9
	str	ip, [sp, #4]
	mov	r3, r6
.LVL660:
	mov	r1, r6
	mov	r0, r5
	bl	etharp_raw
.LVL661:
.LBE199:
.LBE202:
	.loc 1 779 0
	cmp	r0, #0
	bne	.L852
	.loc 1 780 0
	movs	r2, #3
	mov	r3, r9
	strb	r2, [r8, #20]
	b	.L830
.LVL662:
.L860:
.LBE211:
.LBE240:
	.loc 1 892 0
	movs	r1, #7
	.loc 1 893 0
	mov	r2, r1
	b	.L835
.LVL663:
.L849:
.LBB241:
.LBB234:
.LBB223:
.LBB224:
	.loc 1 1216 0
	movs	r3, #1
.LBE224:
.LBE223:
	.loc 1 779 0
	add	r10, r6, #12
.LBB228:
.LBB225:
	.loc 1 1216 0
	ldr	r1, .L874+12
.LVL664:
.LBE225:
.LBE228:
	.loc 1 779 0
	adds	r6, r6, #4
	add	r10, r10, r4
.LVL665:
.LBB229:
.LBB226:
	.loc 1 1216 0
	add	r8, r5, #49
	.loc 1 1217 0
	adds	r0, r5, #4
.LBE226:
.LBE229:
	.loc 1 779 0
	add	r4, r4, r6
.LBB230:
.LBB227:
	.loc 1 1216 0
	str	r3, [sp, #12]
	str	r1, [sp, #4]
	str	r0, [sp]
	str	r4, [sp, #8]
	mov	r2, r10
.LVL666:
	mov	r3, r8
	mov	r1, r8
	mov	r0, r5
	bl	etharp_raw
.LVL667:
.LBE227:
.LBE230:
	.loc 1 779 0
	cbnz	r0, .L862
	.loc 1 780 0
	movs	r2, #3
	mov	r3, r10
	strb	r2, [r9, #20]
	b	.L846
.LVL668:
.L861:
.LBE234:
.LBE241:
	.loc 1 892 0
	movs	r1, #8
	.loc 1 893 0
	mov	r2, r1
	b	.L835
.LVL669:
.L870:
	.loc 1 892 0
	movs	r1, #9
	.loc 1 893 0
	mov	r2, r1
	b	.L835
.LVL670:
.L848:
.LBB242:
.LBB235:
	.loc 1 775 0
	movs	r2, #3
	add	r3, r6, #12
	add	r3, r3, r4
	strb	r2, [r9, #20]
	b	.L846
.LVL671:
.L851:
.LBE235:
.LBE242:
.LBB243:
	.loc 1 865 0
	mvn	r0, #3
	b	.L827
.LVL672:
.L862:
.LBE243:
.LBB244:
.LBB236:
	.loc 1 779 0
	mov	r3, r10
	b	.L846
.LVL673:
.L873:
.LBE236:
.LBE244:
.LBB245:
.LBB212:
.LBB203:
.LBB204:
.LBB205:
.LBB206:
	.loc 1 1216 0
	movs	r0, #1
	add	r3, r3, r3, lsl #1
.LVL674:
	lsl	r9, r3, #3
.LVL675:
	ldr	r1, .L874+12
.LBE206:
.LBE205:
.LBE204:
.LBE203:
	.loc 1 774 0
	add	r3, r9, #4
	add	r3, r3, r4
.LBB210:
.LBB209:
.LBB208:
.LBB207:
	.loc 1 1216 0
	add	r6, r5, #49
.LVL676:
	.loc 1 1217 0
	adds	r2, r5, #4
	.loc 1 1216 0
	str	r3, [sp, #8]
	str	r0, [sp, #12]
	str	r1, [sp, #4]
	str	r2, [sp]
	mov	r3, r6
	mov	r1, r6
	ldr	r2, .L874+8
	mov	r0, r5
	bl	etharp_raw
.LVL677:
.LBE207:
.LBE208:
.LBE209:
.LBE210:
	.loc 1 774 0
	cbz	r0, .L832
	add	r3, r9, #12
	add	r3, r3, r4
	b	.L830
.L832:
	.loc 1 775 0
	movs	r2, #3
	add	r3, r9, #12
	add	r3, r3, r4
	strb	r2, [r8, #20]
	b	.L830
.L852:
	.loc 1 779 0
	mov	r3, r9
	b	.L830
.L875:
	.align	2
.L874:
	.word	.LANCHOR1
	.word	.LANCHOR0
	.word	ethbroadcast
	.word	ethzero
.LBE212:
.LBE245:
.LBE247:
	.cfi_endproc
.LFE12:
	.size	etharp_output, .-etharp_output
	.section	.text.etharp_request,"ax",%progbits
	.align	1
	.p2align 2,,3
	.global	etharp_request
	.syntax unified
	.thumb
	.thumb_func
	.fpu softvfp
	.type	etharp_request, %function
etharp_request:
.LFB16:
	.loc 1 1232 0
	.cfi_startproc
	@ args = 0, pretend = 0, frame = 0
	@ frame_needed = 0, uses_anonymous_args = 0
.LVL678:
	push	{r4, r5, r6, r7, r8, r9, r10, lr}
	.cfi_def_cfa_offset 32
	.cfi_offset 4, -32
	.cfi_offset 5, -28
	.cfi_offset 6, -24
	.cfi_offset 7, -20
	.cfi_offset 8, -16
	.cfi_offset 9, -12
	.cfi_offset 10, -8
	.cfi_offset 14, -4
.LBB252:
.LBB253:
.LBB254:
.LBB255:
	.loc 1 1137 0
	movs	r2, #0
.LBE255:
.LBE254:
.LBE253:
.LBE252:
	.loc 1 1232 0
	sub	sp, sp, #8
	.cfi_def_cfa_offset 40
	.loc 1 1232 0
	mov	r6, r0
.LVL679:
	mov	r8, r1
.LVL680:
.LBB262:
.LBB260:
.LBB258:
.LBB256:
	.loc 1 1137 0
	movs	r0, #2
.LVL681:
	movs	r1, #28
.LVL682:
	bl	pbuf_alloc
.LVL683:
	.loc 1 1139 0
	cbz	r0, .L880
	mov	r5, r0
	.loc 1 1150 0
	movs	r0, #1
.LVL684:
	.loc 1 1148 0
	ldr	r4, [r5, #4]
.LVL685:
	.loc 1 1150 0
	bl	lwip_htons
.LVL686:
	.loc 1 1163 0
	movs	r3, #0
	.loc 1 1150 0
	strh	r0, [r4, #6]	@ unaligned
	add	r7, r6, #49
.LVL687:
	.loc 1 1156 0
	ldr	r0, [r7]	@ unaligned
	.loc 1 1157 0
	ldr	r2, .L882
	.loc 1 1156 0
	str	r0, [r4, #8]	@ unaligned
	ldrh	r0, [r7, #4]	@ unaligned
	.loc 1 1163 0
	mov	lr, #1
	.loc 1 1156 0
	strh	r0, [r4, #12]	@ unaligned
	.loc 1 1157 0
	ldr	r0, [r2]	@ unaligned
	ldrh	r2, [r2, #4]	@ unaligned
	str	r0, [r4, #18]	@ unaligned
	strh	r2, [r4, #22]	@ unaligned
	.loc 1 1160 0
	ldr	r2, [r6, #4]	@ unaligned
	.loc 1 1164 0
	mov	ip, #8
	.loc 1 1160 0
	str	r2, [r4, #14]	@ unaligned
	.loc 1 1161 0
	ldr	r2, [r8]	@ unaligned
	.loc 1 1166 0
	mov	r10, #6
	.loc 1 1163 0
	strb	r3, [r4]
	.loc 1 1164 0
	strb	r3, [r4, #3]
	.loc 1 1167 0
	mov	r9, #4
	.loc 1 1180 0
	movw	r3, #2054
	.loc 1 1161 0
	str	r2, [r4, #24]	@ unaligned
	.loc 1 1163 0
	strb	lr, [r4, #1]
	.loc 1 1164 0
	strb	ip, [r4, #2]
	.loc 1 1166 0
	strb	r10, [r4, #4]
	.loc 1 1167 0
	strb	r9, [r4, #5]
	.loc 1 1180 0
	mov	r2, r7
	str	r3, [sp]
	mov	r1, r5
	ldr	r3, .L882+4
	mov	r0, r6
	.loc 1 1189 0
	bl	ethernet_output
.LVL688:
	.loc 1 1194 0
	mov	r0, r5
	bl	pbuf_free
.LVL689:
	.loc 1 1198 0
	movs	r0, #0
.LVL690:
.L877:
.LBE256:
.LBE258:
.LBE260:
.LBE262:
	.loc 1 1235 0
	add	sp, sp, #8
	.cfi_remember_state
	.cfi_def_cfa_offset 32
	@ sp needed
	pop	{r4, r5, r6, r7, r8, r9, r10, pc}
.LVL691:
.L880:
	.cfi_restore_state
.LBB263:
.LBB261:
.LBB259:
.LBB257:
	.loc 1 1143 0
	mov	r0, #-1
.LVL692:
	b	.L877
.L883:
	.align	2
.L882:
	.word	ethzero
	.word	ethbroadcast
.LBE257:
.LBE259:
.LBE261:
.LBE263:
	.cfi_endproc
.LFE16:
	.size	etharp_request, .-etharp_request
	.section	.bss.arp_table,"aw",%nobits
	.align	2
	.set	.LANCHOR0,. + 0
	.type	arp_table, %object
	.size	arp_table, 240
arp_table:
	.space	240
	.section	.bss.etharp_cached_entry,"aw",%nobits
	.set	.LANCHOR1,. + 0
	.type	etharp_cached_entry, %object
	.size	etharp_cached_entry, 1
etharp_cached_entry:
	.space	1
	.text
.Letext0:
	.file 2 "/cygdrive/d/PUYA/HE3/sdk-ameba-v7.1d/tools/arm-none-eabi-gcc/asdk/cygwin/newlib/lib/gcc/arm-none-eabi/6.5.0/include/stddef.h"
	.file 3 "/cygdrive/d/PUYA/HE3/sdk-ameba-v7.1d/tools/arm-none-eabi-gcc/asdk/cygwin/newlib/arm-none-eabi/include/sys/lock.h"
	.file 4 "/cygdrive/d/PUYA/HE3/sdk-ameba-v7.1d/tools/arm-none-eabi-gcc/asdk/cygwin/newlib/arm-none-eabi/include/sys/_types.h"
	.file 5 "/cygdrive/d/PUYA/HE3/sdk-ameba-v7.1d/tools/arm-none-eabi-gcc/asdk/cygwin/newlib/arm-none-eabi/include/sys/reent.h"
	.file 6 "/cygdrive/d/PUYA/HE3/sdk-ameba-v7.1d/tools/arm-none-eabi-gcc/asdk/cygwin/newlib/arm-none-eabi/include/time.h"
	.file 7 "/cygdrive/d/PUYA/HE3/sdk-ameba-v7.1d/tools/arm-none-eabi-gcc/asdk/cygwin/newlib/arm-none-eabi/include/stdlib.h"
	.file 8 "../../../component/common/network/lwip/lwip_v2.0.2/port/realtek/arch/cc.h"
	.file 9 "../../../component/common/network/lwip/lwip_v2.0.2/src/include/lwip/err.h"
	.file 10 "../../../component/common/network/lwip/lwip_v2.0.2/src/include/lwip/pbuf.h"
	.file 11 "../../../component/common/network/lwip/lwip_v2.0.2/src/include/lwip/ip4_addr.h"
	.file 12 "../../../component/common/network/lwip/lwip_v2.0.2/src/include/lwip/ip_addr.h"
	.file 13 "../../../component/common/network/lwip/lwip_v2.0.2/src/include/lwip/memp.h"
	.file 14 "../../../component/common/network/lwip/lwip_v2.0.2/src/include/lwip/priv/memp_priv.h"
	.file 15 "../../../component/common/network/lwip/lwip_v2.0.2/src/include/lwip/netif.h"
	.file 16 "../../../component/common/network/lwip/lwip_v2.0.2/src/include/lwip/prot/ip4.h"
	.file 17 "../../../component/common/network/lwip/lwip_v2.0.2/src/include/lwip/prot/ethernet.h"
	.file 18 "../../../component/common/network/lwip/lwip_v2.0.2/src/include/lwip/prot/etharp.h"
	.file 19 "../../../component/common/network/lwip/lwip_v2.0.2/src/include/lwip/ip.h"
	.file 20 "../../../component/common/network/lwip/lwip_v2.0.2/src/include/lwip/udp.h"
	.file 21 "../../../component/common/network/lwip/lwip_v2.0.2/src/include/netif/ethernet.h"
	.file 22 "../../../component/common/network/lwip/lwip_v2.0.2/src/include/lwip/autoip.h"
	.file 23 "../../../component/common/network/lwip/lwip_v2.0.2/src/include/lwip/dhcp.h"
	.file 24 "../../../component/common/network/lwip/lwip_v2.0.2/src/include/lwip/ip4.h"
	.file 25 "../../../component/common/network/lwip/lwip_v2.0.2/src/include/lwip/def.h"