	.arch armv8-m.main
	.arch_extension dsp
	.eabi_attribute 20, 1
	.eabi_attribute 21, 1
	.eabi_attribute 23, 3
	.eabi_attribute 24, 1
	.eabi_attribute 25, 1
	.eabi_attribute 26, 1
	.eabi_attribute 30, 2
	.eabi_attribute 34, 1
	.eabi_attribute 18, 4
	.file	"hal_spic.c"
	.text
.Ltext0:
	.cfi_sections	.debug_frame
	.section	.text.spic_load_default_setting,"ax",%progbits
	.align	1
	.p2align 2,,3
	.global	spic_load_default_setting
	.syntax unified
	.thumb
	.thumb_func
	.fpu softvfp
	.type	spic_load_default_setting, %function
spic_load_default_setting:
.LFB288:
	.file 1 "../../../component/soc/realtek/8710c/fwlib/source/ram_ns/hal_spic.c"
	.loc 1 80 0
	.cfi_startproc
	@ args = 0, pretend = 0, frame = 0
	@ frame_needed = 0, uses_anonymous_args = 0
	@ link register save eliminated.
.LVL0:
	.loc 1 81 0
	ldr	r3, .L2
	ldr	r3, [r3]
	bx	r3	@ indirect register sibling call
.LVL1:
.L3:
	.align	2
.L2:
	.word	hal_spic_stubs
	.cfi_endproc
.LFE288:
	.size	spic_load_default_setting, .-spic_load_default_setting
	.section	.text.spic_query_system_clk,"ax",%progbits
	.align	1
	.p2align 2,,3
	.global	spic_query_system_clk
	.syntax unified
	.thumb
	.thumb_func
	.fpu softvfp
	.type	spic_query_system_clk, %function
spic_query_system_clk:
.LFB289:
	.loc 1 94 0
	.cfi_startproc
	@ args = 0, pretend = 0, frame = 0
	@ frame_needed = 0, uses_anonymous_args = 0
	@ link register save eliminated.
	.loc 1 95 0
	ldr	r3, .L5
	ldr	r3, [r3, #4]
	bx	r3
.LVL2:
.L6:
	.align	2
.L5:
	.word	hal_spic_stubs
	.cfi_endproc
.LFE289:
	.size	spic_query_system_clk, .-spic_query_system_clk
	.section	.text.spic_clock_ctrl,"ax",%progbits
	.align	1
	.p2align 2,,3
	.global	spic_clock_ctrl
	.syntax unified
	.thumb
	.thumb_func
	.fpu softvfp
	.type	spic_clock_ctrl, %function
spic_clock_ctrl:
.LFB290:
	.loc 1 107 0
	.cfi_startproc
	@ args = 0, pretend = 0, frame = 0
	@ frame_needed = 0, uses_anonymous_args = 0
	@ link register save eliminated.
.LVL3:
	.loc 1 108 0
	ldr	r3, .L8
	ldr	r3, [r3, #8]
	bx	r3	@ indirect register sibling call
.LVL4:
.L9:
	.align	2
.L8:
	.word	hal_spic_stubs
	.cfi_endproc
.LFE290:
	.size	spic_clock_ctrl, .-spic_clock_ctrl
	.section	.text.spic_init_setting,"ax",%progbits
	.align	1
	.p2align 2,,3
	.global	spic_init_setting
	.syntax unified
	.thumb
	.thumb_func
	.fpu softvfp
	.type	spic_init_setting, %function
spic_init_setting:
.LFB291:
	.loc 1 127 0
	.cfi_startproc
	@ args = 0, pretend = 0, frame = 0
	@ frame_needed = 0, uses_anonymous_args = 0
	@ link register save eliminated.
.LVL5:
	.loc 1 128 0
	ldr	r3, .L11
	ldr	r3, [r3, #16]
	bx	r3
.LVL6:
.L12:
	.align	2
.L11:
	.word	hal_spic_stubs
	.cfi_endproc
.LFE291:
	.size	spic_init_setting, .-spic_init_setting
	.section	.text.spic_config_auto_mode,"ax",%progbits
	.align	1
	.p2align 2,,3
	.global	spic_config_auto_mode
	.syntax unified
	.thumb
	.thumb_func
	.fpu softvfp
	.type	spic_config_auto_mode, %function
spic_config_auto_mode:
.LFB292:
	.loc 1 141 0
	.cfi_startproc
	@ args = 0, pretend = 0, frame = 0
	@ frame_needed = 0, uses_anonymous_args = 0
.LVL7:
	push	{r4, r5, r6, lr}
	.cfi_def_cfa_offset 16
	.cfi_offset 4, -16
	.cfi_offset 5, -12
	.cfi_offset 6, -8
	.cfi_offset 14, -4
	.loc 1 150 0
	movs	r2, #0
	.loc 1 141 0
	mov	r5, r0
	.loc 1 155 0
	mov	r1, #2560
.LVL8:
	.loc 1 142 0
	ldr	r4, [r0, #12]
.LVL9:
	.loc 1 145 0
	ldrb	r3, [r0, #155]	@ zero_extendqisi2
	.loc 1 146 0
	ldrb	r6, [r5, #152]	@ zero_extendqisi2
	.loc 1 143 0
	ldr	r0, [r0, #88]
.LVL10:
	.loc 1 150 0
	strb	r2, [r5, #156]
.LVL11:
.LBB104:
.LBB105:
	.file 2 "../../../component/soc/realtek/8710c/fwlib/include/rtl8710c_spic.h"
	.loc 2 232 0
	str	r2, [r4, #8]
.LVL12:
.LBE105:
.LBE104:
	.loc 1 157 0
	str	r1, [r4, #288]
	.loc 1 159 0
	cmp	r3, #5
	bhi	.L14
	tbb	[pc, r3]
.L16:
	.byte	(.L15-.L16)/2
	.byte	(.L17-.L16)/2
	.byte	(.L18-.L16)/2
	.byte	(.L19-.L16)/2
	.byte	(.L20-.L16)/2
	.byte	(.L21-.L16)/2
	.p2align 1
.L21:
	.loc 1 192 0
	ldrb	r2, [r0, #21]	@ zero_extendqisi2
	ldr	r3, [r4, #240]
.LVL13:
	.loc 1 194 0
	mov	r0, r5
.LVL14:
	.loc 1 192 0
	bfi	r3, r2, #0, #8
	str	r3, [r4, #240]
	.loc 1 193 0
	ldrh	r3, [r4, #288]
	orr	r3, r3, #16
	strh	r3, [r4, #288]	@ movhi
	.loc 1 194 0
	bl	hal_flash_enable_qpi
.LVL15:
.L22:
	.loc 1 201 0
	movs	r3, #3
.LBB106:
.LBB107:
	.loc 2 218 0
	movs	r2, #1
.LBE107:
.LBE106:
	.loc 1 201 0
	strb	r3, [r5, #154]
	.loc 1 203 0
	ldr	r3, [r4, #284]
	orr	r3, r3, #196608
	str	r3, [r4, #284]
.LVL16:
.LBB109:
.LBB108:
	.loc 2 218 0
	str	r2, [r4, #8]
.LVL17:
	pop	{r4, r5, r6, pc}
.LVL18:
.L15:
.LBE108:
.LBE109:
	.loc 1 161 0
	ldrb	r3, [r0, #16]	@ zero_extendqisi2
.LVL19:
	uxtb	r3, r3
	str	r3, [r4, #224]
	.loc 1 162 0
	b	.L22
.LVL20:
.L17:
	.loc 1 165 0
	ldrb	r3, [r0, #17]	@ zero_extendqisi2
.LVL21:
	uxtb	r3, r3
	str	r3, [r4, #228]
	.loc 1 166 0
	ldrh	r3, [r4, #288]
	orr	r3, r3, #2
	strh	r3, [r4, #288]	@ movhi
	.loc 1 167 0
	b	.L22
.LVL22:
.L18:
	.loc 1 170 0
	ldrb	r3, [r0, #18]	@ zero_extendqisi2
.LVL23:
	uxtb	r3, r3
	str	r3, [r4, #232]
	.loc 1 171 0
	ldrh	r3, [r4, #288]
	orr	r3, r3, #4
	strh	r3, [r4, #288]	@ movhi
	.loc 1 172 0
	b	.L22
.LVL24:
.L19:
	.loc 1 175 0
	ldrb	r3, [r0, #20]	@ zero_extendqisi2
.LVL25:
	.loc 1 177 0
	cmp	r6, #2
	.loc 1 175 0
	uxtb	r3, r3
	str	r3, [r4, #236]
	.loc 1 176 0
	ldrh	r3, [r4, #288]
	orr	r3, r3, #8
	strh	r3, [r4, #288]	@ movhi
	.loc 1 177 0
	beq	.L23
	.loc 1 178 0
	subs	r6, r6, #4
.LVL26:
	cmp	r6, #2
	bhi	.L22
.LVL27:
.L23:
	.loc 1 181 0
	mov	r0, r5
.LVL28:
	bl	hal_flash_set_quad_enable
.LVL29:
	b	.L22
.LVL30:
.L20:
	.loc 1 186 0
	ldrb	r2, [r0, #21]	@ zero_extendqisi2
	ldr	r3, [r4, #240]
.LVL31:
	.loc 1 188 0
	mov	r0, r5
.LVL32:
	.loc 1 186 0
	bfi	r3, r2, #0, #8
	str	r3, [r4, #240]
	.loc 1 187 0
	ldrh	r3, [r4, #288]
	orr	r3, r3, #16
	strh	r3, [r4, #288]	@ movhi
	.loc 1 188 0
	bl	hal_flash_set_quad_enable
.LVL33:
	.loc 1 189 0
	b	.L22
.LVL34:
.L14:
	.loc 1 198 0
	ldr	r3, .L33
.LVL35:
	ldr	r3, [r3]
	ldr	r3, [r3]
	lsls	r3, r3, #23
	bpl	.L22
	.loc 1 198 0 is_stmt 0 discriminator 1
	ldr	r3, .L33+4
	ldr	r0, .L33+8
.LVL36:
	ldr	r3, [r3, #28]
	blx	r3
.LVL37:
	b	.L22
.L34:
	.align	2
.L33:
	.word	utility_stubs
	.word	stdio_printf_stubs
	.word	.LC0
	.cfi_endproc
.LFE292:
	.size	spic_config_auto_mode, .-spic_config_auto_mode
	.section	.text.spic_config_user_mode,"ax",%progbits
	.align	1
	.p2align 2,,3
	.global	spic_config_user_mode
	.syntax unified
	.thumb
	.thumb_func
	.fpu softvfp
	.type	spic_config_user_mode, %function
spic_config_user_mode:
.LFB293:
	.loc 1 216 0 is_stmt 1
	.cfi_startproc
	@ args = 0, pretend = 0, frame = 0
	@ frame_needed = 0, uses_anonymous_args = 0
	@ link register save eliminated.
.LVL38:
	.loc 1 217 0
	ldr	r3, .L36
	ldr	r3, [r3, #24]
	bx	r3	@ indirect register sibling call
.LVL39:
.L37:
	.align	2
.L36:
	.word	hal_spic_stubs
	.cfi_endproc
.LFE293:
	.size	spic_config_user_mode, .-spic_config_user_mode
	.section	.text.spic_verify_calibration_para,"ax",%progbits
	.align	1
	.p2align 2,,3
	.global	spic_verify_calibration_para
	.syntax unified
	.thumb
	.thumb_func
	.fpu softvfp
	.type	spic_verify_calibration_para, %function
spic_verify_calibration_para:
.LFB294:
	.loc 1 229 0
	.cfi_startproc
	@ args = 0, pretend = 0, frame = 0
	@ frame_needed = 0, uses_anonymous_args = 0
	@ link register save eliminated.
	.loc 1 230 0
	ldr	r3, .L39
	ldr	r3, [r3, #28]
	bx	r3
.LVL40:
.L40:
	.align	2
.L39:
	.word	hal_spic_stubs
	.cfi_endproc
.LFE294:
	.size	spic_verify_calibration_para, .-spic_verify_calibration_para
	.section	.text.spic_set_chnl_num,"ax",%progbits
	.align	1
	.p2align 2,,3
	.global	spic_set_chnl_num
	.syntax unified
	.thumb
	.thumb_func
	.fpu softvfp
	.type	spic_set_chnl_num, %function
spic_set_chnl_num:
.LFB295:
	.loc 1 243 0
	.cfi_startproc
	@ args = 0, pretend = 0, frame = 0
	@ frame_needed = 0, uses_anonymous_args = 0
	@ link register save eliminated.
.LVL41:
	.loc 1 244 0
	ldr	r3, .L42
	ldr	r3, [r3, #32]
	bx	r3	@ indirect register sibling call
.LVL42:
.L43:
	.align	2
.L42:
	.word	hal_spic_stubs
	.cfi_endproc
.LFE295:
	.size	spic_set_chnl_num, .-spic_set_chnl_num
	.section	.text.spic_set_delay_line,"ax",%progbits
	.align	1
	.p2align 2,,3
	.global	spic_set_delay_line
	.syntax unified
	.thumb
	.thumb_func
	.fpu softvfp
	.type	spic_set_delay_line, %function
spic_set_delay_line:
.LFB296:
	.loc 1 257 0
	.cfi_startproc
	@ args = 0, pretend = 0, frame = 0
	@ frame_needed = 0, uses_anonymous_args = 0
	@ link register save eliminated.
.LVL43:
	.loc 1 258 0
	ldr	r3, .L45
	ldr	r3, [r3, #36]
	bx	r3	@ indirect register sibling call
.LVL44:
.L46:
	.align	2
.L45:
	.word	hal_spic_stubs
	.cfi_endproc
.LFE296:
	.size	spic_set_delay_line, .-spic_set_delay_line
	.section	.text.spic_rx_cmd,"ax",%progbits
	.align	1
	.p2align 2,,3
	.global	spic_rx_cmd
	.syntax unified
	.thumb
	.thumb_func
	.fpu softvfp
	.type	spic_rx_cmd, %function
spic_rx_cmd:
.LFB297:
	.loc 1 273 0
	.cfi_startproc
	@ args = 0, pretend = 0, frame = 0
	@ frame_needed = 0, uses_anonymous_args = 0
	@ link register save eliminated.
.LVL45:
	push	{r4}
	.cfi_def_cfa_offset 4
	.cfi_offset 4, -4
	.loc 1 274 0
	ldr	r4, .L49
	ldr	r4, [r4, #40]
	mov	ip, r4
	.loc 1 275 0
	pop	{r4}
	.cfi_restore 4
	.cfi_def_cfa_offset 0
	.loc 1 274 0
	bx	ip	@ indirect register sibling call
.LVL46:
.L50:
	.align	2
.L49:
	.word	hal_spic_stubs
	.cfi_endproc
.LFE297:
	.size	spic_rx_cmd, .-spic_rx_cmd
	.section	.text.spic_tx_cmd_no_check,"ax",%progbits
	.align	1
	.p2align 2,,3
	.global	spic_tx_cmd_no_check
	.syntax unified
	.thumb
	.thumb_func
	.fpu softvfp
	.type	spic_tx_cmd_no_check, %function
spic_tx_cmd_no_check:
.LFB298:
	.loc 1 289 0
	.cfi_startproc
	@ args = 0, pretend = 0, frame = 0
	@ frame_needed = 0, uses_anonymous_args = 0
	@ link register save eliminated.
.LVL47:
	push	{r4}
	.cfi_def_cfa_offset 4
	.cfi_offset 4, -4
	.loc 1 290 0
	ldr	r4, .L53
	ldr	r4, [r4, #44]
	mov	ip, r4
	.loc 1 291 0
	pop	{r4}
	.cfi_restore 4
	.cfi_def_cfa_offset 0
	.loc 1 290 0
	bx	ip	@ indirect register sibling call
.LVL48:
.L54:
	.align	2
.L53:
	.word	hal_spic_stubs
	.cfi_endproc
.LFE298:
	.size	spic_tx_cmd_no_check, .-spic_tx_cmd_no_check
	.section	.text.spic_tx_cmd,"ax",%progbits
	.align	1
	.p2align 2,,3
	.global	spic_tx_cmd
	.syntax unified
	.thumb
	.thumb_func
	.fpu softvfp
	.type	spic_tx_cmd, %function
spic_tx_cmd:
.LFB299:
	.loc 1 305 0
	.cfi_startproc
	@ args = 0, pretend = 0, frame = 0
	@ frame_needed = 0, uses_anonymous_args = 0
	@ link register save eliminated.
.LVL49:
	push	{r4}
	.cfi_def_cfa_offset 4
	.cfi_offset 4, -4
	.loc 1 306 0
	ldr	r4, .L57
	ldr	r4, [r4, #48]
	mov	ip, r4
	.loc 1 307 0
	pop	{r4}
	.cfi_restore 4
	.cfi_def_cfa_offset 0
	.loc 1 306 0
	bx	ip	@ indirect register sibling call
.LVL50:
.L58:
	.align	2
.L57:
	.word	hal_spic_stubs
	.cfi_endproc
.LFE299:
	.size	spic_tx_cmd, .-spic_tx_cmd
	.section	.text.spic_wait_ready,"ax",%progbits
	.align	1
	.p2align 2,,3
	.global	spic_wait_ready
	.syntax unified
	.thumb
	.thumb_func
	.fpu softvfp
	.type	spic_wait_ready, %function
spic_wait_ready:
.LFB300:
	.loc 1 318 0
	.cfi_startproc
	@ args = 0, pretend = 0, frame = 0
	@ frame_needed = 0, uses_anonymous_args = 0
	@ link register save eliminated.
.LVL51:
	.loc 1 319 0
	ldr	r3, .L60
	ldr	r3, [r3, #52]
	bx	r3	@ indirect register sibling call
.LVL52:
.L61:
	.align	2
.L60:
	.word	hal_spic_stubs
	.cfi_endproc
.LFE300:
	.size	spic_wait_ready, .-spic_wait_ready
	.section	.text.spic_flush_fifo,"ax",%progbits
	.align	1
	.p2align 2,,3
	.global	spic_flush_fifo
	.syntax unified
	.thumb
	.thumb_func
	.fpu softvfp
	.type	spic_flush_fifo, %function
spic_flush_fifo:
.LFB301:
	.loc 1 331 0
	.cfi_startproc
	@ args = 0, pretend = 0, frame = 0
	@ frame_needed = 0, uses_anonymous_args = 0
	@ link register save eliminated.
.LVL53:
	.loc 1 332 0
	ldr	r3, .L63
	ldr	r3, [r3, #56]
	bx	r3	@ indirect register sibling call
.LVL54:
.L64:
	.align	2
.L63:
	.word	hal_spic_stubs
	.cfi_endproc
.LFE301:
	.size	spic_flush_fifo, .-spic_flush_fifo
	.section	.text.spic_pinmux_ctl,"ax",%progbits
	.align	1
	.p2align 2,,3
	.global	spic_pinmux_ctl
	.syntax unified
	.thumb
	.thumb_func
	.fpu softvfp
	.type	spic_pinmux_ctl, %function
spic_pinmux_ctl:
.LFB302:
	.loc 1 346 0
	.cfi_startproc
	@ args = 0, pretend = 0, frame = 0
	@ frame_needed = 0, uses_anonymous_args = 0
.LVL55:
	push	{r4, r5, r6, lr}
	.cfi_def_cfa_offset 16
	.cfi_offset 4, -16
	.cfi_offset 5, -12
	.cfi_offset 6, -8
	.cfi_offset 14, -4
	.loc 1 374 0
	cmp	r1, #1
	.loc 1 346 0
	mov	r5, r0
	.loc 1 348 0
	ldrb	r6, [r0, #147]	@ zero_extendqisi2
.LVL56:
	.loc 1 375 0
	mov	r1, #0
.LVL57:
	ldrb	r0, [r0, #140]	@ zero_extendqisi2
.LVL58:
	.loc 1 374 0
	beq	.L75
	.loc 1 385 0
	bl	hal_pinmux_unregister
.LVL59:
	.loc 1 386 0
	movs	r1, #0
	.loc 1 385 0
	mov	r4, r0
.LVL60:
	.loc 1 386 0
	ldrb	r0, [r5, #141]	@ zero_extendqisi2
.LVL61:
	bl	hal_pinmux_unregister
.LVL62:
	.loc 1 387 0
	movs	r1, #0
	.loc 1 386 0
	orrs	r4, r4, r0
.LVL63:
	.loc 1 387 0
	ldrb	r0, [r5, #142]	@ zero_extendqisi2
	bl	hal_pinmux_unregister
.LVL64:
	.loc 1 388 0
	movs	r1, #0
	.loc 1 387 0
	orrs	r4, r4, r0
.LVL65:
	.loc 1 388 0
	ldrb	r0, [r5, #143]	@ zero_extendqisi2
	bl	hal_pinmux_unregister
.LVL66:
	orrs	r4, r4, r0
.LVL67:
	.loc 1 390 0
	cbnz	r6, .L76
.LVL68:
.L65:
	.loc 1 398 0
	mov	r0, r4
	pop	{r4, r5, r6, pc}
.LVL69:
.L76:
	.loc 1 391 0
	movs	r1, #0
	ldrb	r0, [r5, #144]	@ zero_extendqisi2
	bl	hal_pinmux_unregister
.LVL70:
	.loc 1 392 0
	movs	r1, #0
	.loc 1 391 0
	mov	r6, r0
.LVL71:
	.loc 1 392 0
	ldrb	r0, [r5, #145]	@ zero_extendqisi2
.LVL72:
	bl	hal_pinmux_unregister
.LVL73:
	.loc 1 393 0
	movs	r3, #0
	.loc 1 392 0
	orrs	r0, r0, r6
	orrs	r4, r4, r0
.LVL74:
	.loc 1 393 0
	strb	r3, [r5, #147]
	.loc 1 398 0
	mov	r0, r4
	pop	{r4, r5, r6, pc}
.LVL75:
.L75:
	.loc 1 375 0
	bl	hal_pinmux_register
.LVL76:
	.loc 1 376 0
	movs	r1, #0
	.loc 1 375 0
	mov	r4, r0
.LVL77:
	.loc 1 376 0
	ldrb	r0, [r5, #141]	@ zero_extendqisi2
.LVL78:
	bl	hal_pinmux_register
.LVL79:
	.loc 1 377 0
	movs	r1, #0
	.loc 1 376 0
	orrs	r4, r4, r0
.LVL80:
	.loc 1 377 0
	ldrb	r0, [r5, #142]	@ zero_extendqisi2
	bl	hal_pinmux_register
.LVL81:
	.loc 1 378 0
	movs	r1, #0
	.loc 1 377 0
	orrs	r4, r4, r0
.LVL82:
	.loc 1 378 0
	ldrb	r0, [r5, #143]	@ zero_extendqisi2
	bl	hal_pinmux_register
.LVL83:
	orrs	r4, r4, r0
.LVL84:
	.loc 1 380 0
	cmp	r6, #0
	beq	.L65
	.loc 1 381 0
	movs	r1, #0
	ldrb	r0, [r5, #144]	@ zero_extendqisi2
	bl	hal_pinmux_register
.LVL85:
	.loc 1 382 0
	movs	r1, #0
	.loc 1 381 0
	mov	r6, r0
.LVL86:
	.loc 1 382 0
	ldrb	r0, [r5, #145]	@ zero_extendqisi2
.LVL87:
	bl	hal_pinmux_register
.LVL88:
	orrs	r0, r0, r6
	orrs	r4, r4, r0
.LVL89:
	b	.L65
	.cfi_endproc
.LFE302:
	.size	spic_pinmux_ctl, .-spic_pinmux_ctl
	.section	.text.spic_deinit,"ax",%progbits
	.align	1
	.p2align 2,,3
	.global	spic_deinit
	.syntax unified
	.thumb
	.thumb_func
	.fpu softvfp
	.type	spic_deinit, %function
spic_deinit:
.LFB304:
	.loc 1 489 0
	.cfi_startproc
	@ args = 0, pretend = 0, frame = 0
	@ frame_needed = 0, uses_anonymous_args = 0
.LVL90:
	push	{r3, r4, r5, lr}
	.cfi_def_cfa_offset 16
	.cfi_offset 3, -16
	.cfi_offset 4, -12
	.cfi_offset 5, -8
	.cfi_offset 14, -4
	.loc 1 489 0
	mov	r4, r0
.LVL91:
.LBB114:
.LBB115:
	.loc 1 385 0
	movs	r1, #0
	ldrb	r0, [r0, #140]	@ zero_extendqisi2
.LVL92:
	.loc 1 348 0
	ldrb	r5, [r4, #147]	@ zero_extendqisi2
.LVL93:
	.loc 1 385 0
	bl	hal_pinmux_unregister
.LVL94:
	.loc 1 386 0
	movs	r1, #0
	ldrb	r0, [r4, #141]	@ zero_extendqisi2
	bl	hal_pinmux_unregister
.LVL95:
	.loc 1 387 0
	movs	r1, #0
	ldrb	r0, [r4, #142]	@ zero_extendqisi2
	bl	hal_pinmux_unregister
.LVL96:
	.loc 1 388 0
	ldrb	r0, [r4, #143]	@ zero_extendqisi2
	movs	r1, #0
	bl	hal_pinmux_unregister
.LVL97:
	.loc 1 390 0
	cbz	r5, .L78
	.loc 1 391 0
	movs	r1, #0
	ldrb	r0, [r4, #144]	@ zero_extendqisi2
	bl	hal_pinmux_unregister
.LVL98:
	.loc 1 392 0
	movs	r1, #0
	ldrb	r0, [r4, #145]	@ zero_extendqisi2
	bl	hal_pinmux_unregister
.LVL99:
	.loc 1 393 0
	movs	r3, #0
	strb	r3, [r4, #147]
.L78:
.LVL100:
.LBE115:
.LBE114:
.LBB116:
.LBB117:
	.loc 1 108 0
	ldr	r3, .L83
	movs	r0, #0
	ldr	r3, [r3, #8]
	blx	r3
.LVL101:
.LBE117:
.LBE116:
	.loc 1 496 0
	movs	r0, #0
	pop	{r3, r4, r5, pc}
.LVL102:
.L84:
	.align	2
.L83:
	.word	hal_spic_stubs
	.cfi_endproc
.LFE304:
	.size	spic_deinit, .-spic_deinit
	.section	.text.spic_load_calibration_setting,"ax",%progbits
	.align	1
	.p2align 2,,3
	.global	spic_load_calibration_setting
	.syntax unified
	.thumb
	.thumb_func
	.fpu softvfp
	.type	spic_load_calibration_setting, %function
spic_load_calibration_setting:
.LFB306:
	.loc 1 806 0
	.cfi_startproc
	@ args = 0, pretend = 0, frame = 8
	@ frame_needed = 0, uses_anonymous_args = 0
.LVL103:
	push	{r4, r5, r6, r7, r8, r9, r10, fp, lr}
	.cfi_def_cfa_offset 36
	.cfi_offset 4, -36
	.cfi_offset 5, -32
	.cfi_offset 6, -28
	.cfi_offset 7, -24
	.cfi_offset 8, -20
	.cfi_offset 9, -16
	.cfi_offset 10, -12
	.cfi_offset 11, -8
	.cfi_offset 14, -4
.LBB118:
.LBB119:
	.loc 1 95 0
	ldr	r8, .L104+24
.LBE119:
.LBE118:
	.loc 1 806 0
	sub	sp, sp, #12
	.cfi_def_cfa_offset 48
.LBB123:
.LBB120:
	.loc 1 95 0
	ldr	r3, [r8, #4]
.LBE120:
.LBE123:
	.loc 1 806 0
	mov	r4, r0
	.loc 1 807 0
	ldrb	r6, [r0, #155]	@ zero_extendqisi2
.LVL104:
.LBB124:
.LBB121:
	.loc 1 95 0
	blx	r3
.LVL105:
.LBE121:
.LBE124:
	.loc 1 816 0
	movs	r3, #6
	.loc 1 818 0
	movs	r7, #3
.LBB125:
.LBB126:
	.loc 2 232 0
	movs	r1, #0
.LBE126:
.LBE125:
	.loc 1 816 0
	smlabb	r3, r3, r0, r6
.LBB128:
.LBB122:
	.loc 1 95 0
	mov	r9, r0
.LBE122:
.LBE128:
	.loc 1 809 0
	ldr	r0, [r4, #12]
.LVL106:
	.loc 1 818 0
	strb	r7, [r4, #154]
.LBB129:
.LBB127:
	.loc 2 232 0
	str	r1, [r0, #8]
.LBE127:
.LBE129:
	.loc 1 821 0
	ldr	r5, [r0, #284]
	.loc 1 816 0
	lsl	ip, r3, r7
.LVL107:
	.loc 1 821 0
	orr	r5, r5, #196608
	.loc 1 822 0
	add	r2, ip, #-1744830464
	add	r2, r2, #4160
	.loc 1 821 0
	str	r5, [r0, #284]
	.loc 1 822 0
	ldr	r5, [r2]
.LVL108:
	.loc 1 823 0
	ldr	r2, .L104
	ldr	r3, [r2, r3, lsl #3]
.LVL109:
	.loc 1 825 0
	adds	r2, r5, #1
	beq	.L85
	.loc 1 826 0
	eor	r2, r5, r3
	adds	r2, r2, #1
	beq	.L102
	.loc 1 846 0
	ldr	r2, .L104+4
	ldr	r2, [r2, #4]
	ldr	r2, [r2]
	lsls	r2, r2, #23
	bmi	.L103
.LVL110:
.L85:
	.loc 1 850 0
	add	sp, sp, #12
	.cfi_remember_state
	.cfi_def_cfa_offset 36
	@ sp needed
	pop	{r4, r5, r6, r7, r8, r9, r10, fp, pc}
.LVL111:
.L102:
	.cfi_restore_state
.LBB130:
.LBB131:
	.loc 2 232 0
	str	r1, [r0, #8]
.LVL112:
.LBE131:
.LBE130:
.LBB132:
.LBB133:
	.loc 2 264 0
	ldrh	r3, [r0, #20]
.LVL113:
.LBE133:
.LBE132:
	.loc 1 829 0
	uxtb	r2, r5
.LBB136:
.LBB134:
	.loc 2 264 0
	bfi	r3, r2, #0, #12
	strh	r3, [r0, #20]	@ movhi
.LVL114:
.LBE134:
.LBE136:
.LBB137:
.LBB138:
	.loc 2 279 0
	ldrh	r3, [r0, #276]
.LBE138:
.LBE137:
.LBB140:
.LBB135:
	.loc 2 264 0
	str	r2, [sp, #4]
.LVL115:
.LBE135:
.LBE140:
.LBB141:
.LBB139:
	.loc 2 279 0
	bfi	r3, r2, #0, #12
	strh	r3, [r0, #276]	@ movhi
.LVL116:
.LBE139:
.LBE141:
.LBB142:
.LBB143:
	.loc 2 296 0
	ldr	r3, [r0, #284]
.LBE143:
.LBE142:
	.loc 1 831 0
	ubfx	fp, r5, #8, #8
.LVL117:
.LBB146:
.LBB144:
	.loc 2 296 0
	uxtb	r1, fp
	bfi	r3, r1, #0, #12
.LBE144:
.LBE146:
	.loc 1 832 0
	ubfx	r10, r5, #16, #8
.LBB147:
.LBB145:
	.loc 2 296 0
	str	r3, [r0, #284]
.LVL118:
.LBE145:
.LBE147:
.LBB148:
.LBB149:
	.loc 1 258 0
	ldr	r3, [r8, #36]
	uxtb	r0, r10
.LVL119:
	blx	r3
.LVL120:
.LBE149:
.LBE148:
	.loc 1 833 0
	mov	r0, r4
	bl	spic_config_auto_mode
.LVL121:
.LBB150:
.LBB151:
	.loc 1 230 0
	ldr	r3, [r8, #28]
	blx	r3
.LVL122:
.LBE151:
.LBE150:
	.loc 1 835 0
	cmp	r0, #1
	bne	.L89
	smlabb	r7, r7, r6, r9
	.loc 1 840 0
	ldr	r1, .L104+4
	.loc 1 836 0
	ldr	r2, [sp, #4]
	add	r4, r4, r7, lsl #2
.LVL123:
	.loc 1 839 0
	ubfx	r3, r5, #24, #8
	.loc 1 840 0
	ldr	r1, [r1, #4]
	.loc 1 836 0
	strb	r2, [r4, #16]
	.loc 1 837 0
	strb	fp, [r4, #17]
	.loc 1 838 0
	strb	r10, [r4, #18]
	.loc 1 839 0
	strb	r3, [r4, #19]
	.loc 1 840 0
	ldr	r3, [r1]
	lsls	r0, r3, #23
	bpl	.L85
	.loc 1 840 0 is_stmt 0 discriminator 1
	ldr	r3, .L104+8
	mov	r2, r5
	ldr	r3, [r3, #28]
	mov	r1, r6
	str	r3, [sp, #4]
	ldr	r0, .L104+12
	b	.L101
.LVL124:
.L103:
	.loc 1 846 0 is_stmt 1 discriminator 1
	ldr	r0, .L104+8
.LVL125:
	add	r1, ip, #4160
	ldr	r0, [r0, #28]
	mov	r2, r5
	str	r0, [sp, #4]
	ldr	r4, [sp, #4]
.LVL126:
	ldr	r0, .L104+16
	mov	ip, r4
.LVL127:
	.loc 1 850 0 discriminator 1
	add	sp, sp, #12
	.cfi_remember_state
	.cfi_def_cfa_offset 36
	@ sp needed
	pop	{r4, r5, r6, r7, r8, r9, r10, fp, lr}
	.cfi_restore 14
	.cfi_restore 11
	.cfi_restore 10
	.cfi_restore 9
	.cfi_restore 8
	.cfi_restore 7
	.cfi_restore 6
	.cfi_restore 5
	.cfi_restore 4
	.cfi_def_cfa_offset 0
.LVL128:
	.loc 1 846 0 discriminator 1
	bx	ip
.LVL129:
.L89:
	.cfi_restore_state
	.loc 1 842 0
	mov	r0, r4
	bl	hal_flash_return_spi
.LVL130:
	.loc 1 843 0
	ldr	r3, .L104+4
	ldr	r3, [r3]
	ldr	r3, [r3]
	lsls	r1, r3, #23
	bpl	.L85
	.loc 1 843 0 is_stmt 0 discriminator 1
	mov	r2, r5
	mov	r1, r6
	ldr	r3, .L104+8
	ldr	r0, .L104+20
	ldr	r3, [r3, #28]
	str	r3, [sp, #4]
.LVL131:
.L101:
	.loc 1 850 0 is_stmt 1 discriminator 1
	add	sp, sp, #12
	.cfi_def_cfa_offset 36
	@ sp needed
	pop	{r4, r5, r6, r7, r8, r9, r10, fp, lr}
	.cfi_restore 14
	.cfi_restore 11
	.cfi_restore 10
	.cfi_restore 9
	.cfi_restore 8
	.cfi_restore 7
	.cfi_restore 6
	.cfi_restore 5
	.cfi_restore 4
	.cfi_def_cfa_offset 0
.LVL132:
	.loc 1 843 0 discriminator 1
	bx	r3
.LVL133:
.L105:
	.align	2
.L104:
	.word	-1744826300
	.word	utility_stubs
	.word	stdio_printf_stubs
	.word	.LC1
	.word	.LC3
	.word	.LC2
	.word	hal_spic_stubs
	.cfi_endproc
.LFE306:
	.size	spic_load_calibration_setting, .-spic_load_calibration_setting
	.section	.text.spic_store_calibration_setting,"ax",%progbits
	.align	1
	.p2align 2,,3
	.global	spic_store_calibration_setting
	.syntax unified
	.thumb
	.thumb_func
	.fpu softvfp
	.type	spic_store_calibration_setting, %function
spic_store_calibration_setting:
.LFB307:
	.loc 1 861 0
	.cfi_startproc
	@ args = 0, pretend = 0, frame = 8
	@ frame_needed = 0, uses_anonymous_args = 0
.LVL134:
	push	{r4, r5, r6, lr}
	.cfi_def_cfa_offset 16
	.cfi_offset 4, -16
	.cfi_offset 5, -12
	.cfi_offset 6, -8
	.cfi_offset 14, -4
.LBB152:
.LBB153:
	.loc 1 95 0
	ldr	r3, .L116
.LBE153:
.LBE152:
	.loc 1 861 0
	sub	sp, sp, #8
	.cfi_def_cfa_offset 24
.LBB156:
.LBB154:
	.loc 1 95 0
	ldr	r3, [r3, #4]
.LBE154:
.LBE156:
	.loc 1 862 0
	ldrb	r4, [r0, #155]	@ zero_extendqisi2
.LVL135:
	.loc 1 861 0
	mov	r5, r0
.LBB157:
.LBB155:
	.loc 1 95 0
	blx	r3
.LVL136:
.LBE155:
.LBE157:
	.loc 1 868 0
	movs	r1, #6
	smlabb	r1, r1, r0, r4
	lsls	r1, r1, #3
.LVL137:
	.loc 1 870 0
	add	r3, r1, #-1744830464
	add	r3, r3, #4160
	ldr	r2, [r3]
	.loc 1 872 0
	adds	r6, r2, #1
	.loc 1 870 0
	str	r2, [sp]
	.loc 1 872 0
	beq	.L115
	.loc 1 882 0
	ldr	r3, .L116+4
	ldr	r3, [r3]
	ldr	r3, [r3]
	lsls	r3, r3, #23
	bpl	.L106
	.loc 1 882 0 is_stmt 0 discriminator 1
	ldr	r3, .L116+8
	add	r1, r1, #4160
.LVL138:
	ldr	r3, [r3, #28]
	ldr	r0, .L116+12
	blx	r3
.LVL139:
.L106:
	.loc 1 885 0 is_stmt 1
	add	sp, sp, #8
	.cfi_remember_state
	.cfi_def_cfa_offset 16
	@ sp needed
	pop	{r4, r5, r6, pc}
.LVL140:
.L115:
	.cfi_restore_state
	.loc 1 874 0
	add	r4, r4, r4, lsl #1
.LVL141:
	add	r0, r0, r4
	adds	r0, r0, #4
	ldr	r4, [r5, r0, lsl #2]
	.loc 1 879 0
	add	r2, r1, #4160
	.loc 1 878 0
	mvns	r6, r4
	.loc 1 879 0
	mov	r3, sp
	mov	r0, r5
	movs	r1, #8
.LVL142:
	.loc 1 878 0
	stm	sp, {r4, r6}
	.loc 1 879 0
	bl	hal_flash_page_program
.LVL143:
	.loc 1 880 0
	ldr	r3, .L116+4
	ldr	r3, [r3, #4]
	ldr	r3, [r3]
	lsls	r2, r3, #23
	bpl	.L106
	.loc 1 880 0 is_stmt 0 discriminator 1
	ldr	r3, .L116+8
	ldr	r1, [sp]
	ldr	r3, [r3, #28]
	ldr	r0, .L116+16
	blx	r3
.LVL144:
	b	.L106
.L117:
	.align	2
.L116:
	.word	hal_spic_stubs
	.word	utility_stubs
	.word	stdio_printf_stubs
	.word	.LC5
	.word	.LC4
	.cfi_endproc
.LFE307:
	.size	spic_store_calibration_setting, .-spic_store_calibration_setting
	.section	.text.spic_calibration,"ax",%progbits
	.align	1
	.p2align 2,,3
	.global	spic_calibration
	.syntax unified
	.thumb
	.thumb_func
	.fpu softvfp
	.type	spic_calibration, %function
spic_calibration:
.LFB305:
	.loc 1 511 0 is_stmt 1
	.cfi_startproc
	@ args = 0, pretend = 0, frame = 40
	@ frame_needed = 0, uses_anonymous_args = 0
.LVL145:
	push	{r4, r5, r6, r7, r8, r9, r10, fp, lr}
	.cfi_def_cfa_offset 36
	.cfi_offset 4, -36
	.cfi_offset 5, -32
	.cfi_offset 6, -28
	.cfi_offset 7, -24
	.cfi_offset 8, -20
	.cfi_offset 9, -16
	.cfi_offset 10, -12
	.cfi_offset 11, -8
	.cfi_offset 14, -4
	mov	r4, r0
.LBB158:
.LBB159:
	.loc 1 95 0
	ldr	r3, .L166
.LBE159:
.LBE158:
	.loc 1 511 0
	sub	sp, sp, #44
	.cfi_def_cfa_offset 80
.LBB162:
.LBB160:
	.loc 1 95 0
	ldr	r3, [r3, #4]
.LBE160:
.LBE162:
	.loc 1 511 0
	str	r0, [sp, #36]
	str	r1, [sp, #24]
	.loc 1 512 0
	ldr	r10, [r0, #12]
.LVL146:
.LBB163:
.LBB161:
	.loc 1 95 0
	blx	r3
.LVL147:
	movs	r3, #3
.LBE161:
.LBE163:
	.loc 1 525 0
	mov	r2, r4
	ldrb	r4, [r4, #155]	@ zero_extendqisi2
.LVL148:
	mla	r3, r3, r4, r0
	add	r3, r2, r3, lsl #2
	str	r3, [sp, #32]
	.loc 1 529 0
	ldrb	r3, [r3, #19]	@ zero_extendqisi2
	cmp	r3, #0
	bne	.L119
.LVL149:
.L123:
	.loc 1 541 0
	ldr	r3, .L166+4
	ldr	r3, [r3, #8]
	ldr	r3, [r3]
	lsls	r5, r3, #23
	bmi	.L160
.L121:
	.loc 1 546 0
	mov	fp, #0
	cmp	r4, fp
	ite	eq
	moveq	r3, #4
	movne	r3, #2
	mov	r9, fp
	str	r3, [sp, #8]
	str	fp, [sp, #16]
	str	fp, [sp, #12]
.LVL150:
.L133:
	.loc 1 555 0
	ldr	r0, [sp, #24]
.LBB164:
.LBB165:
	.loc 2 232 0
	movs	r5, #0
.LBE165:
.LBE164:
	.loc 1 555 0
	mov	r6, r0
.LBB167:
.LBB168:
	.loc 2 264 0
	mov	r4, r3
.LBE168:
.LBE167:
.LBB171:
.LBB172:
	.loc 2 218 0
	movs	r1, #1
.LBE172:
.LBE171:
.LBB174:
.LBB166:
	.loc 2 232 0
	str	r5, [r10, #8]
.LVL151:
.LBE166:
.LBE174:
.LBB175:
.LBB169:
	.loc 2 264 0
	ldrh	r2, [r10, #20]
	str	r3, [sp, #28]
.LBE169:
.LBE175:
	.loc 1 555 0
	mul	r3, r6, r3
.LVL152:
.LBB176:
.LBB170:
	.loc 2 264 0
	bfi	r2, r4, #0, #12
	strh	r2, [r10, #20]	@ movhi
.LVL153:
.LBE170:
.LBE176:
	.loc 1 555 0
	lsls	r3, r3, r1
.LBB177:
.LBB178:
	.loc 2 279 0
	ldrh	r2, [r10, #276]
.LBE178:
.LBE177:
	.loc 1 555 0
	add	r6, r3, #20
.LBB181:
.LBB179:
	.loc 2 279 0
	bfi	r2, r4, #0, #12
.LBE179:
.LBE181:
	.loc 1 555 0
	cmp	r6, r3
.LBB182:
.LBB180:
	.loc 2 279 0
	strh	r2, [r10, #276]	@ movhi
.LVL154:
.LBE180:
.LBE182:
	.loc 1 555 0
	str	r3, [sp, #20]
	mov	r0, r3
.LBB183:
.LBB173:
	.loc 2 218 0
	str	r1, [r10, #8]
.LVL155:
.LBE173:
.LBE183:
	.loc 1 555 0
	bls	.L125
	ldr	r3, .L166
	mov	r8, r6
	ldr	r3, [r3, #28]
.LBB184:
.LBB185:
	.loc 2 232 0
	mov	r7, r5
	str	r3, [sp, #4]
	adds	r4, r0, r1
	mov	r6, fp
	b	.L126
.LVL156:
.L127:
.LBE185:
.LBE184:
	.loc 1 577 0
	cbz	r6, .L128
.LVL157:
	.loc 1 579 0
	cmp	r5, #0
	bne	.L129
.LVL158:
	.loc 1 583 0
	ldr	r3, .L166+4
	.loc 1 582 0
	sub	ip, fp, r9
.LVL159:
	.loc 1 583 0
	ldr	r3, [r3, #4]
	ldr	r3, [r3]
	lsls	r1, r3, #23
	bmi	.L161
	.loc 1 594 0
	mov	r6, r5
.LVL160:
	.loc 1 582 0
	mov	r5, ip
	str	fp, [sp, #16]
	str	r9, [sp, #12]
.LVL161:
.L128:
	.loc 1 555 0 discriminator 2
	cmp	r8, r4
	bls	.L162
.LVL162:
.L131:
	adds	r4, r4, #1
.LVL163:
.L126:
.LBB187:
.LBB188:
	.loc 2 218 0
	movs	r1, #1
.LBE188:
.LBE187:
.LBB190:
.LBB186:
	.loc 2 232 0
	str	r7, [r10, #8]
.LBE186:
.LBE190:
.LBB191:
.LBB192:
	.loc 2 296 0
	ldr	r3, [r10, #284]
	add	fp, r4, #-1
.LVL164:
	uxtb	r0, fp
	bfi	r3, r0, #0, #12
	str	r3, [r10, #284]
.LVL165:
.LBE192:
.LBE191:
.LBB193:
.LBB194:
	.loc 1 230 0
	ldr	r3, [sp, #4]
.LBE194:
.LBE193:
.LBB196:
.LBB189:
	.loc 2 218 0
	str	r1, [r10, #8]
.LVL166:
.LBE189:
.LBE196:
.LBB197:
.LBB195:
	.loc 1 230 0
	blx	r3
.LVL167:
.LBE195:
.LBE197:
	.loc 1 560 0
	cmp	r0, #1
	bne	.L127
	.loc 1 561 0
	cmp	r6, #0
	beq	.L138
	.loc 1 564 0
	ldr	r3, [sp, #20]
	adds	r3, r3, #19
	cmp	fp, r3
	bne	.L128
.LVL168:
	.loc 1 566 0
	sub	ip, fp, r9
	cmp	ip, r5
	bls	.L128
.LVL169:
	.loc 1 570 0
	ldr	r3, .L166+4
	ldr	r3, [r3, #4]
	ldr	r3, [r3]
	lsls	r0, r3, #23
	bmi	.L163
.LVL170:
.L141:
	.loc 1 555 0
	cmp	r8, r4
	str	fp, [sp, #16]
	mov	r5, ip
	str	r9, [sp, #12]
.LVL171:
	bhi	.L131
.LVL172:
.L162:
	mov	fp, r6
	.loc 1 599 0
	cmp	r5, #0
	bne	.L136
.LVL173:
.L125:
	.loc 1 549 0 discriminator 2
	ldr	r3, [sp, #8]
	adds	r3, r3, #1
	uxtb	r3, r3
	cmp	r3, #7
	str	r3, [sp, #8]
.LVL174:
	bne	.L133
	.loc 1 606 0
	movs	r0, #0
.LVL175:
.L143:
	.loc 1 633 0
	add	sp, sp, #44
	.cfi_remember_state
	.cfi_def_cfa_offset 36
	@ sp needed
	pop	{r4, r5, r6, r7, r8, r9, r10, fp, pc}
.LVL176:
.L129:
	.cfi_restore_state
	.loc 1 585 0
	sub	ip, fp, r9
	cmp	ip, r5
	bls	.L130
.LVL177:
	.loc 1 589 0
	ldr	r3, .L166+4
	ldr	r3, [r3, #4]
	ldr	r6, [r3]
.LVL178:
	ands	r6, r6, #256
	beq	.L141
	.loc 1 589 0 is_stmt 0 discriminator 1
	ldr	r3, .L166+8
	mov	r2, fp
	ldr	r3, [r3, #28]
	mov	r1, r9
	ldr	r0, .L166+12
	mov	r5, ip
	str	fp, [sp, #16]
	.loc 1 594 0 is_stmt 1 discriminator 1
	movs	r6, #0
	.loc 1 589 0 discriminator 1
	blx	r3
.LVL179:
	str	r9, [sp, #12]
	b	.L128
.LVL180:
.L138:
	mov	r9, fp
.LVL181:
	.loc 1 575 0
	mov	r6, r0
.LVL182:
	b	.L128
.LVL183:
.L130:
	.loc 1 555 0
	cmp	r8, r4
	bls	.L136
	.loc 1 594 0
	movs	r6, #0
	b	.L131
.LVL184:
.L161:
	.loc 1 583 0 discriminator 1
	ldr	r3, .L166+8
	mov	r2, fp
	ldr	r3, [r3, #28]
	mov	r1, r9
	ldr	r0, .L166+12
	str	fp, [sp, #16]
	.loc 1 594 0 discriminator 1
	mov	r6, r5
.LVL185:
	.loc 1 582 0 discriminator 1
	mov	r5, ip
	.loc 1 583 0 discriminator 1
	blx	r3
.LVL186:
	str	r9, [sp, #12]
	b	.L128
.LVL187:
.L136:
	.loc 1 600 0
	ldr	r3, .L166+4
	ldr	r3, [r3, #8]
	ldr	r3, [r3]
	lsls	r2, r3, #23
	bmi	.L164
.L132:
.LVL188:
	.loc 1 608 0
	ldr	r3, .L166+4
	ldr	r3, [r3, #4]
	ldr	r3, [r3]
	lsls	r3, r3, #23
	bmi	.L165
.LVL189:
.L135:
.LBB198:
.LBB199:
	.loc 2 232 0
	movs	r3, #0
.LBE199:
.LBE198:
	.loc 1 624 0
	movs	r4, #1
.LBB201:
.LBB200:
	.loc 2 232 0
	str	r3, [r10, #8]
.LVL190:
.LBE200:
.LBE201:
.LBB202:
.LBB203:
	.loc 2 264 0
	ldrh	r2, [r10, #20]
	ldr	r0, [sp, #28]
.LBE203:
.LBE202:
	.loc 1 619 0
	ldr	r1, [sp, #16]
.LBB205:
.LBB204:
	.loc 2 264 0
	bfi	r2, r0, #0, #12
	strh	r2, [r10, #20]	@ movhi
.LVL191:
.LBE204:
.LBE205:
.LBB206:
.LBB207:
	.loc 2 279 0
	ldrh	r2, [r10, #276]
.LBE207:
.LBE206:
	.loc 1 619 0
	ldr	r3, [sp, #12]
.LBB210:
.LBB208:
	.loc 2 279 0
	bfi	r2, r0, #0, #12
.LBE208:
.LBE210:
	.loc 1 619 0
	add	r3, r3, r1
	.loc 1 616 0
	ldrb	r0, [sp, #8]	@ zero_extendqisi2
	ldr	r1, [sp, #32]
.LBB211:
.LBB209:
	.loc 2 279 0
	strh	r2, [r10, #276]	@ movhi
.LVL192:
.LBE209:
.LBE211:
	.loc 1 616 0
	strb	r0, [r1, #16]
.LVL193:
.LBB212:
.LBB213:
	.loc 2 296 0
	ldr	r2, [r10, #284]
.LBE213:
.LBE212:
	.loc 1 620 0
	ubfx	r3, r3, #1, #8
.LVL194:
.LBB216:
.LBB214:
	.loc 2 296 0
	bfi	r2, r3, #0, #12
.LBE214:
.LBE216:
	.loc 1 629 0
	ldr	r0, [sp, #36]
.LBB217:
.LBB215:
	.loc 2 296 0
	str	r2, [r10, #284]
.LVL195:
.LBE215:
.LBE217:
	.loc 1 621 0
	strb	r3, [r1, #17]
	.loc 1 624 0
	strb	r4, [r1, #19]
.LVL196:
.LBB218:
.LBB219:
	.loc 2 218 0
	str	r4, [r10, #8]
.LVL197:
.LBE219:
.LBE218:
	.loc 1 629 0
	bl	spic_store_calibration_setting
.LVL198:
	.loc 1 631 0
	mov	r0, r4
	.loc 1 633 0
	add	sp, sp, #44
	.cfi_remember_state
	.cfi_def_cfa_offset 36
	@ sp needed
	pop	{r4, r5, r6, r7, r8, r9, r10, fp, pc}
.LVL199:
.L119:
	.cfi_restore_state
.LBB220:
.LBB221:
	.loc 2 232 0
	movs	r3, #0
.LBE221:
.LBE220:
.LBB223:
.LBB224:
	.loc 2 218 0
	movs	r1, #1
.LBE224:
.LBE223:
.LBB226:
.LBB227:
	.loc 2 264 0
	ldr	r0, [sp, #32]
.LVL200:
.LBE227:
.LBE226:
.LBB229:
.LBB222:
	.loc 2 232 0
	str	r3, [r10, #8]
.LVL201:
.LBE222:
.LBE229:
.LBB230:
.LBB228:
	.loc 2 264 0
	ldrb	r2, [r0, #16]	@ zero_extendqisi2
.LVL202:
	ldrh	r3, [r10, #20]
	bfi	r3, r2, #0, #12
	strh	r3, [r10, #20]	@ movhi
.LVL203:
.LBE228:
.LBE230:
.LBB231:
.LBB232:
	.loc 2 279 0
	ldrh	r3, [r10, #276]
	bfi	r3, r2, #0, #12
	strh	r3, [r10, #276]	@ movhi
.LVL204:
.LBE232:
.LBE231:
.LBB233:
.LBB234:
	.loc 2 296 0
	ldrb	r2, [r0, #17]	@ zero_extendqisi2
	ldr	r3, [r10, #284]
	bfi	r3, r2, #0, #12
	str	r3, [r10, #284]
.LVL205:
.LBE234:
.LBE233:
.LBB235:
.LBB236:
	.loc 1 230 0
	ldr	r3, .L166
.LBE236:
.LBE235:
.LBB238:
.LBB225:
	.loc 2 218 0
	str	r1, [r10, #8]
.LVL206:
.LBE225:
.LBE238:
.LBB239:
.LBB237:
	.loc 1 230 0
	ldr	r3, [r3, #28]
	blx	r3
.LVL207:
.LBE237:
.LBE239:
	.loc 1 536 0
	cmp	r0, #1
	bne	.L123
	b	.L143
.LVL208:
.L163:
	.loc 1 570 0 discriminator 1
	ldr	r3, .L166+8
	mov	r2, fp
	ldr	r3, [r3, #28]
	mov	r1, r9
	ldr	r0, .L166+12
	str	fp, [sp, #16]
	mov	r5, ip
	blx	r3
.LVL209:
	str	r9, [sp, #12]
	b	.L128
.LVL210:
.L160:
	.loc 1 541 0 discriminator 1
	ldr	r3, .L166+8
	ldr	r0, .L166+16
	ldr	r3, [r3, #28]
	blx	r3
.LVL211:
	b	.L121
.LVL212:
.L165:
	.loc 1 608 0 discriminator 1
	ldr	r2, .L166+8
	ldr	r3, [sp, #16]
	ldr	r4, [r2, #28]
.LVL213:
	ldr	r1, [sp, #8]
	ldr	r2, [sp, #12]
	ldr	r0, .L166+20
	blx	r4
.LVL214:
	b	.L135
.LVL215:
.L164:
	.loc 1 600 0 discriminator 1
	ldr	r3, .L166+8
	ldr	r0, .L166+24
	ldr	r3, [r3, #28]
	blx	r3
.LVL216:
	b	.L132
.L167:
	.align	2
.L166:
	.word	hal_spic_stubs
	.word	utility_stubs
	.word	stdio_printf_stubs
	.word	.LC7
	.word	.LC6
	.word	.LC9
	.word	.LC8
	.cfi_endproc
.LFE305:
	.size	spic_calibration, .-spic_calibration
	.section	.text.spic_init,"ax",%progbits
	.align	1
	.p2align 2,,3
	.global	spic_init
	.syntax unified
	.thumb
	.thumb_func
	.fpu softvfp
	.type	spic_init, %function
spic_init:
.LFB303:
	.loc 1 415 0
	.cfi_startproc
	@ args = 0, pretend = 0, frame = 8
	@ frame_needed = 0, uses_anonymous_args = 0
.LVL217:
	push	{r4, r5, r6, r7, r8, r9, r10, lr}
	.cfi_def_cfa_offset 32
	.cfi_offset 4, -32
	.cfi_offset 5, -28
	.cfi_offset 6, -24
	.cfi_offset 7, -20
	.cfi_offset 8, -16
	.cfi_offset 9, -12
	.cfi_offset 10, -8
	.cfi_offset 14, -4
	mov	r6, r1
	mov	r5, r0
.LBB254:
.LBB255:
	.loc 1 95 0
	ldr	r7, .L192
.LBE255:
.LBE254:
	.loc 1 415 0
	mov	r4, r2
	sub	sp, sp, #8
	.cfi_def_cfa_offset 40
.LBB258:
.LBB256:
	.loc 1 95 0
	ldr	r3, [r7, #4]
	blx	r3
.LVL218:
.LBE256:
.LBE258:
	.loc 1 423 0
	strb	r6, [r5, #155]
	.loc 1 426 0
	ldrb	r3, [r4]	@ zero_extendqisi2
	.loc 1 429 0
	ldrb	r1, [r4, #3]	@ zero_extendqisi2
	.loc 1 430 0
	ldrb	r2, [r4, #4]	@ zero_extendqisi2
	.loc 1 427 0
	ldrb	ip, [r4, #1]	@ zero_extendqisi2
	.loc 1 426 0
	strb	r3, [sp]
.LBB259:
.LBB260:
	.file 3 "../../../component/soc/realtek/8710c/misc/utilities/include/memory.h"
	.loc 3 81 0
	ldr	r8, .L192+16
.LBE260:
.LBE259:
	.loc 1 431 0
	ldrb	r3, [r4, #5]	@ zero_extendqisi2
.LBB262:
.LBB257:
	.loc 1 95 0
	mov	r9, r0
.LBE257:
.LBE262:
	.loc 1 428 0
	ldrb	r0, [r4, #2]	@ zero_extendqisi2
	.loc 1 429 0
	strb	r1, [sp, #3]
	.loc 1 428 0
	strb	r0, [sp, #2]
	.loc 1 430 0
	strb	r2, [sp, #4]
	.loc 1 431 0
	strb	r3, [sp, #5]
.LVL219:
	.loc 1 427 0
	strb	ip, [sp, #1]
.LBB263:
.LBB261:
	.loc 3 81 0
	ldr	r3, [r8, #16]
	add	r0, r5, #140
.LVL220:
	movs	r2, #6
	mov	r1, sp
	blx	r3
.LVL221:
.LBE261:
.LBE263:
	.loc 1 435 0
	subs	r3, r6, #3
	cmp	r3, #2
	bhi	.L169
	.loc 1 438 0
	movs	r3, #1
.LBB264:
.LBB265:
	.loc 1 375 0
	movs	r1, #0
.LBE265:
.LBE264:
	.loc 1 438 0
	strb	r3, [r5, #147]
.LVL222:
.LBB268:
.LBB266:
	.loc 1 375 0
	ldrb	r0, [r5, #140]	@ zero_extendqisi2
	bl	hal_pinmux_register
.LVL223:
	.loc 1 376 0
	movs	r1, #0
	.loc 1 375 0
	mov	r4, r0
.LVL224:
	.loc 1 376 0
	ldrb	r0, [r5, #141]	@ zero_extendqisi2
.LVL225:
	bl	hal_pinmux_register
.LVL226:
	.loc 1 377 0
	movs	r1, #0
	.loc 1 376 0
	orrs	r4, r4, r0
.LVL227:
	.loc 1 377 0
	ldrb	r0, [r5, #142]	@ zero_extendqisi2
	bl	hal_pinmux_register
.LVL228:
	.loc 1 378 0
	movs	r1, #0
	.loc 1 377 0
	orrs	r4, r4, r0
.LVL229:
	.loc 1 378 0
	ldrb	r0, [r5, #143]	@ zero_extendqisi2
	bl	hal_pinmux_register
.LVL230:
	orrs	r4, r4, r0
.LVL231:
.L170:
	.loc 1 381 0
	movs	r1, #0
	ldrb	r0, [r5, #144]	@ zero_extendqisi2
	bl	hal_pinmux_register
.LVL232:
	.loc 1 382 0
	movs	r1, #0
	.loc 1 381 0
	orrs	r4, r4, r0
.LVL233:
	.loc 1 382 0
	ldrb	r0, [r5, #145]	@ zero_extendqisi2
	bl	hal_pinmux_register
.LVL234:
	orrs	r4, r4, r0
.LVL235:
.LBE266:
.LBE268:
	.loc 1 441 0
	cbz	r4, .L189
.LVL236:
.L176:
	.loc 1 446 0
	movs	r4, #3
.L168:
	.loc 1 477 0
	mov	r0, r4
	add	sp, sp, #8
	.cfi_remember_state
	.cfi_def_cfa_offset 32
	@ sp needed
	pop	{r4, r5, r6, r7, r8, r9, r10, pc}
.LVL237:
.L169:
	.cfi_restore_state
.LBB269:
.LBB267:
	.loc 1 375 0
	movs	r1, #0
	ldrb	r0, [r5, #140]	@ zero_extendqisi2
	.loc 1 348 0
	ldrb	r10, [r5, #147]	@ zero_extendqisi2
.LVL238:
	.loc 1 375 0
	bl	hal_pinmux_register
.LVL239:
	.loc 1 376 0
	movs	r1, #0
	.loc 1 375 0
	mov	r4, r0
.LVL240:
	.loc 1 376 0
	ldrb	r0, [r5, #141]	@ zero_extendqisi2
.LVL241:
	bl	hal_pinmux_register
.LVL242:
	.loc 1 377 0
	movs	r1, #0
	.loc 1 376 0
	orrs	r4, r4, r0
.LVL243:
	.loc 1 377 0
	ldrb	r0, [r5, #142]	@ zero_extendqisi2
	bl	hal_pinmux_register
.LVL244:
	.loc 1 378 0
	movs	r1, #0
	.loc 1 377 0
	orrs	r4, r4, r0
.LVL245:
	.loc 1 378 0
	ldrb	r0, [r5, #143]	@ zero_extendqisi2
	bl	hal_pinmux_register
.LVL246:
	orrs	r4, r4, r0
.LVL247:
	.loc 1 380 0
	cmp	r10, #0
	bne	.L170
.LVL248:
.LBE267:
.LBE269:
	.loc 1 441 0
	cmp	r4, #0
	bne	.L176
.LVL249:
.L189:
.LBB270:
.LBB271:
	.loc 1 128 0
	ldr	r3, [r7, #16]
	mov	r1, r6
	mov	r0, r5
	blx	r3
.LVL250:
.LBE271:
.LBE270:
	.loc 1 442 0
	mov	r4, r0
	cbz	r0, .L190
	.loc 1 443 0
	movs	r4, #5
	.loc 1 477 0
	mov	r0, r4
	add	sp, sp, #8
	.cfi_remember_state
	.cfi_def_cfa_offset 32
	@ sp needed
	pop	{r4, r5, r6, r7, r8, r9, r10, pc}
.LVL251:
.L190:
	.cfi_restore_state
	.loc 1 449 0
	mov	r0, r5
	bl	hal_flash_support_new_type
.LVL252:
	.loc 1 450 0
	mov	r0, r5
	bl	spic_load_calibration_setting
.LVL253:
	movs	r3, #3
	smlabb	r9, r3, r6, r9
.LVL254:
	add	r9, r5, r9, lsl #2
	.loc 1 454 0
	ldr	r2, [r5, #92]
	.loc 1 456 0
	ldrb	r3, [r9, #19]	@ zero_extendqisi2
	.loc 1 454 0
	ldrb	r6, [r2, r6]	@ zero_extendqisi2
.LVL255:
	.loc 1 456 0
	cbz	r3, .L191
.LVL256:
.L173:
	.loc 1 461 0
	mov	r1, r6
	mov	r0, r5
	bl	spic_calibration
.LVL257:
	cmp	r0, #1
	beq	.L174
	.loc 1 462 0
	ldr	r3, [r8]
	ldr	r3, [r3]
	lsls	r3, r3, #23
	bpl	.L175
	.loc 1 462 0 is_stmt 0 discriminator 1
	ldr	r3, .L192+4
	ldr	r0, .L192+8
	ldr	r3, [r3, #28]
	blx	r3
.LVL258:
.L175:
	.loc 1 463 0 is_stmt 1
	mov	r0, r5
	bl	hal_flash_return_spi
.LVL259:
.L174:
.LBB272:
.LBB273:
	.loc 2 232 0
	movs	r1, #0
.LBE273:
.LBE272:
.LBB275:
.LBB276:
	.loc 2 218 0
	mov	ip, #1
.LBE276:
.LBE275:
	.loc 1 467 0
	ldr	r2, [r5, #12]
.LVL260:
	.loc 1 469 0
	lsl	r3, r6, ip
.LBB278:
.LBB274:
	.loc 2 232 0
	str	r1, [r2, #8]
.LVL261:
.LBE274:
.LBE278:
	.loc 1 469 0
	ldrb	r0, [r9, #17]	@ zero_extendqisi2
	ldrb	r6, [r9, #16]	@ zero_extendqisi2
.LVL262:
.LBB279:
.LBB280:
	.loc 1 217 0
	ldr	r1, [r7, #24]
.LBE280:
.LBE279:
	.loc 1 469 0
	mls	r3, r6, r3, r0
	ldr	r0, [r2, #284]
	uxtb	r3, r3
	bfi	r0, r3, #18, #8
	str	r0, [r2, #284]
.LVL263:
.LBB283:
.LBB281:
	.loc 1 217 0
	mov	r0, r5
.LBE281:
.LBE283:
.LBB284:
.LBB277:
	.loc 2 218 0
	str	ip, [r2, #8]
.LVL264:
.LBE277:
.LBE284:
.LBB285:
.LBB282:
	.loc 1 217 0
	blx	r1
.LVL265:
.LBE282:
.LBE285:
	.loc 1 474 0
	ldr	r3, .L192+12
	str	r5, [r3]
	.loc 1 476 0
	b	.L168
.LVL266:
.L191:
	.loc 1 457 0
	mov	r0, r5
	bl	spic_config_auto_mode
.LVL267:
	b	.L173
.L193:
	.align	2
.L192:
	.word	hal_spic_stubs
	.word	stdio_printf_stubs
	.word	.LC10
	.word	pglob_spic_adaptor
	.word	utility_stubs
	.cfi_endproc
.LFE303:
	.size	spic_init, .-spic_init
	.section	.text.spic_store_setting,"ax",%progbits
	.align	1
	.p2align 2,,3
	.global	spic_store_setting
	.syntax unified
	.thumb
	.thumb_func
	.fpu softvfp
	.type	spic_store_setting, %function
spic_store_setting:
.LFB308:
	.loc 1 899 0
	.cfi_startproc
	@ args = 0, pretend = 0, frame = 0
	@ frame_needed = 0, uses_anonymous_args = 0
.LVL268:
	push	{r3, r4, r5, r6, r7, r8, r9, lr}
	.cfi_def_cfa_offset 32
	.cfi_offset 3, -32
	.cfi_offset 4, -28
	.cfi_offset 5, -24
	.cfi_offset 6, -20
	.cfi_offset 7, -16
	.cfi_offset 8, -12
	.cfi_offset 9, -8
	.cfi_offset 14, -4
	.loc 1 899 0
	mov	r5, r0
.LBB286:
.LBB287:
	.loc 1 95 0
	ldr	r3, .L196
.LBE287:
.LBE286:
	.loc 1 899 0
	mov	r4, r1
.LBB290:
.LBB288:
	.loc 1 95 0
	ldr	r3, [r3, #4]
	blx	r3
.LVL269:
.LBE288:
.LBE290:
	.loc 1 901 0
	ldrb	r6, [r5, #155]	@ zero_extendqisi2
.LBB291:
.LBB292:
	.loc 3 81 0
	ldr	r7, .L196+4
.LBE292:
.LBE291:
	.loc 1 903 0
	strb	r6, [r4, #15]
.LBB294:
.LBB289:
	.loc 1 95 0
	mov	r9, r0
.LVL270:
.LBE289:
.LBE294:
.LBB295:
.LBB293:
	.loc 3 81 0
	add	r1, r5, #140
.LVL271:
	ldr	r3, [r7, #16]
	movs	r2, #6
	add	r0, r4, #8
.LVL272:
	blx	r3
.LVL273:
.LBE293:
.LBE295:
	.loc 1 908 0
	mov	r8, #3
	movs	r2, #4
	smlabb	r1, r8, r6, r2
	.loc 1 906 0
	ldrb	r3, [r5, #152]	@ zero_extendqisi2
	.loc 1 908 0
	add	r1, r1, r9
	.loc 1 906 0
	strb	r3, [r4, #14]
.LVL274:
.LBB296:
.LBB297:
	.loc 3 81 0
	add	r1, r5, r1, lsl #2
	ldr	r3, [r7, #16]
	adds	r0, r4, r2
.LVL275:
	blx	r3
.LVL276:
.LBE297:
.LBE296:
.LBB298:
.LBB299:
	ldr	r3, [r7, #16]
	mov	r2, r8
	add	r1, r5, #149
.LVL277:
	add	r0, r4, #17
.LVL278:
	blx	r3
.LVL279:
.LBE299:
.LBE298:
	.loc 1 910 0
	ldr	r3, [r5, #88]
	.loc 1 912 0
	ldr	r2, .L196+8
	.loc 1 910 0
	str	r3, [r4]
	.loc 1 911 0
	ldrb	r3, [r5, #147]	@ zero_extendqisi2
	.loc 1 912 0
	str	r2, [r4, #20]
	.loc 1 911 0
	strb	r3, [r4, #16]
	pop	{r3, r4, r5, r6, r7, r8, r9, pc}
.LVL280:
.L197:
	.align	2
.L196:
	.word	hal_spic_stubs
	.word	utility_stubs
	.word	-2028963601
	.cfi_endproc
.LFE308:
	.size	spic_store_setting, .-spic_store_setting
	.section	.text.spic_recover_setting,"ax",%progbits
	.align	1
	.p2align 2,,3
	.global	spic_recover_setting
	.syntax unified
	.thumb
	.thumb_func
	.fpu softvfp
	.type	spic_recover_setting, %function
spic_recover_setting:
.LFB309:
	.loc 1 927 0
	.cfi_startproc
	@ args = 0, pretend = 0, frame = 0
	@ frame_needed = 0, uses_anonymous_args = 0
.LVL281:
	push	{r3, r4, r5, r6, r7, r8, r9, r10, fp, lr}
	.cfi_def_cfa_offset 40
	.cfi_offset 3, -40
	.cfi_offset 4, -36
	.cfi_offset 5, -32
	.cfi_offset 6, -28
	.cfi_offset 7, -24
	.cfi_offset 8, -20
	.cfi_offset 9, -16
	.cfi_offset 10, -12
	.cfi_offset 11, -8
	.cfi_offset 14, -4
.LBB322:
.LBB323:
	.loc 1 95 0
	ldr	r8, .L209+4
.LBE323:
.LBE322:
	.loc 1 927 0
	mov	r4, r0
.LBB326:
.LBB324:
	.loc 1 95 0
	ldr	r3, [r8, #4]
.LBE324:
.LBE326:
	.loc 1 927 0
	mov	r6, r1
.LBB327:
.LBB325:
	.loc 1 95 0
	blx	r3
.LVL282:
	mov	r5, r0
.LBE325:
.LBE327:
	.loc 1 931 0
	ldrb	r7, [r6, #15]	@ zero_extendqisi2
.LVL283:
.LBB328:
.LBB329:
	.loc 3 81 0
	ldr	r10, .L209+8
.LBE329:
.LBE328:
	.loc 1 935 0
	add	r9, r6, #8
.LVL284:
.LBB332:
.LBB330:
	.loc 3 81 0
	mov	r1, r9
	ldr	r3, [r10, #16]
	movs	r2, #6
.LBE330:
.LBE332:
	.loc 1 933 0
	strb	r7, [r4, #155]
.LBB333:
.LBB331:
	.loc 3 81 0
	add	r0, r4, #140
.LVL285:
	add	fp, r7, r7, lsl #1
	blx	r3
.LVL286:
.LBE331:
.LBE333:
	.loc 1 936 0
	ldrb	r3, [r6, #14]	@ zero_extendqisi2
	.loc 1 938 0
	add	r0, fp, #4
	add	r0, r0, r5
.LBB334:
.LBB335:
	.loc 3 81 0
	adds	r1, r6, #4
.LBE335:
.LBE334:
	.loc 1 936 0
	strb	r3, [r4, #152]
.LVL287:
.LBB337:
.LBB336:
	.loc 3 81 0
	movs	r2, #4
	ldr	r3, [r10, #16]
	add	r0, r4, r0, lsl #2
	blx	r3
.LVL288:
.LBE336:
.LBE337:
.LBB338:
.LBB339:
	add	r1, r6, #17
.LVL289:
	ldr	r3, [r10, #16]
	movs	r2, #3
	add	r0, r4, #149
.LVL290:
	blx	r3
.LVL291:
.LBE339:
.LBE338:
	.loc 1 940 0
	ldr	r2, [r6]
.LBB340:
.LBB341:
	.loc 1 108 0
	ldr	r3, [r8, #8]
.LBE341:
.LBE340:
	.loc 1 940 0
	str	r2, [r4, #88]
	.loc 1 941 0
	ldrb	r2, [r6, #16]	@ zero_extendqisi2
.LBB344:
.LBB342:
	.loc 1 108 0
	movs	r0, #1
.LBE342:
.LBE344:
	.loc 1 941 0
	strb	r2, [r4, #147]
.LVL292:
.LBB345:
.LBB343:
	.loc 1 108 0
	blx	r3
.LVL293:
.LBE343:
.LBE345:
	.loc 1 947 0
	movs	r0, #1
	bl	hal_syson_spic_dev_ctrl
.LVL294:
.LBB346:
.LBB347:
	.loc 1 375 0
	movs	r1, #0
	ldrb	r0, [r4, #140]	@ zero_extendqisi2
	.loc 1 348 0
	ldrb	r6, [r4, #147]	@ zero_extendqisi2
.LVL295:
	.loc 1 375 0
	bl	hal_pinmux_register
.LVL296:
	.loc 1 376 0
	movs	r1, #0
	ldrb	r0, [r4, #141]	@ zero_extendqisi2
	bl	hal_pinmux_register
.LVL297:
	.loc 1 377 0
	movs	r1, #0
	ldrb	r0, [r4, #142]	@ zero_extendqisi2
	bl	hal_pinmux_register
.LVL298:
	.loc 1 378 0
	ldrb	r0, [r4, #143]	@ zero_extendqisi2
	movs	r1, #0
	bl	hal_pinmux_register
.LVL299:
	.loc 1 380 0
	cmp	r6, #0
	bne	.L208
.L199:
.LVL300:
.LBE347:
.LBE346:
	.loc 1 955 0
	movs	r6, #0
	.loc 1 958 0
	movs	r2, #1
	.loc 1 951 0
	ldr	r3, .L209
	add	r5, r5, fp
	str	r3, [r4, #12]
.LVL301:
	.loc 1 955 0
	str	r6, [r3]
	.loc 1 958 0
	str	r2, [r3, #16]
	.loc 1 961 0
	str	r6, [r3, #76]
	.loc 1 964 0
	str	r6, [r3, #44]
	.loc 1 967 0
	ldr	r2, [r3, #240]
	add	r5, r4, r5, lsl #2
	bfi	r2, r6, #16, #8
	str	r2, [r3, #240]
.LVL302:
.LBB349:
.LBB350:
	.loc 2 296 0
	ldrb	r0, [r5, #17]	@ zero_extendqisi2
	ldr	r1, [r3, #284]
.LBE350:
.LBE349:
.LBB352:
.LBB353:
	.loc 1 258 0
	ldr	r2, [r8, #36]
.LBE353:
.LBE352:
.LBB355:
.LBB351:
	.loc 2 296 0
	bfi	r1, r0, #0, #12
	str	r1, [r3, #284]
.LVL303:
.LBE351:
.LBE355:
.LBB356:
.LBB357:
	.loc 2 264 0
	ldrb	r0, [r5, #16]	@ zero_extendqisi2
	ldrh	r1, [r3, #20]
	bfi	r1, r0, #0, #12
	strh	r1, [r3, #20]	@ movhi
.LVL304:
.LBE357:
.LBE356:
.LBB358:
.LBB354:
	.loc 1 258 0
	ldrb	r0, [r5, #18]	@ zero_extendqisi2
	blx	r2
.LVL305:
.LBE354:
.LBE358:
.LBB359:
.LBB360:
	.loc 1 217 0
	ldr	r3, [r8, #24]
	mov	r0, r4
	blx	r3
.LVL306:
.LBE360:
.LBE359:
	.loc 1 976 0
	mov	r0, r4
	bl	hal_flash_release_from_power_down
.LVL307:
	.loc 1 977 0
	mov	r0, r4
	bl	hal_flash_support_new_type
.LVL308:
	.loc 1 978 0
	mov	r0, r4
	bl	hal_flash_return_spi
.LVL309:
.LBB361:
.LBB362:
	.loc 1 385 0
	mov	r1, r6
	ldrb	r0, [r4, #140]	@ zero_extendqisi2
	.loc 1 348 0
	ldrb	r5, [r4, #147]	@ zero_extendqisi2
.LVL310:
	.loc 1 385 0
	bl	hal_pinmux_unregister
.LVL311:
	.loc 1 386 0
	mov	r1, r6
	ldrb	r0, [r4, #141]	@ zero_extendqisi2
	bl	hal_pinmux_unregister
.LVL312:
	.loc 1 387 0
	mov	r1, r6
	ldrb	r0, [r4, #142]	@ zero_extendqisi2
	bl	hal_pinmux_unregister
.LVL313:
	.loc 1 388 0
	mov	r1, r6
	ldrb	r0, [r4, #143]	@ zero_extendqisi2
	bl	hal_pinmux_unregister
.LVL314:
	.loc 1 390 0
	cbz	r5, .L200
	.loc 1 391 0
	mov	r1, r6
	ldrb	r0, [r4, #144]	@ zero_extendqisi2
	bl	hal_pinmux_unregister
.LVL315:
	.loc 1 392 0
	mov	r1, r6
	ldrb	r0, [r4, #145]	@ zero_extendqisi2
	bl	hal_pinmux_unregister
.LVL316:
	.loc 1 393 0
	strb	r6, [r4, #147]
.L200:
.LVL317:
.LBE362:
.LBE361:
	.loc 1 980 0
	mov	r2, r9
	mov	r1, r7
	mov	r0, r4
	.loc 1 981 0
	pop	{r3, r4, r5, r6, r7, r8, r9, r10, fp, lr}
	.cfi_remember_state
	.cfi_restore 14
	.cfi_restore 11
	.cfi_restore 10
	.cfi_restore 9
	.cfi_restore 8
	.cfi_restore 7
	.cfi_restore 6
	.cfi_restore 5
	.cfi_restore 4
	.cfi_restore 3
	.cfi_def_cfa_offset 0
.LVL318:
	.loc 1 980 0
	b	spic_init
.LVL319:
.L208:
	.cfi_restore_state
.LBB363:
.LBB348:
	.loc 1 381 0
	movs	r1, #0
	ldrb	r0, [r4, #144]	@ zero_extendqisi2
	bl	hal_pinmux_register
.LVL320:
	.loc 1 382 0
	movs	r1, #0
	ldrb	r0, [r4, #145]	@ zero_extendqisi2
	bl	hal_pinmux_register
.LVL321:
	b	.L199
.L210:
	.align	2
.L209:
	.word	1073872896
	.word	hal_spic_stubs
	.word	utility_stubs
.LBE348:
.LBE363:
	.cfi_endproc
.LFE309:
	.size	spic_recover_setting, .-spic_recover_setting
	.global	spic_flash_pins
	.comm	pglob_spic_adaptor,4,4
	.global	hal_spic_adaptor
	.section	.ram.bss.noinit,"aw",%progbits
	.align	2
	.type	hal_spic_adaptor, %object
	.size	hal_spic_adaptor, 160
hal_spic_adaptor:
	.space	160
	.section	.rodata.spic_calibration.str1.4,"aMS",%progbits,1
	.align	2
.LC6:
	.ascii	"\015[SPIF Inf]Start Flash Calibration\015\012\000"
	.space	3
.LC7:
	.ascii	"\015[SPIF Wrn]tmp_max_str = %x, tmp_max_end = %x\015"
	.ascii	"\012\000"
.LC8:
	.ascii	"\015[SPIF Inf]Find the avaiable window\015\012\000"
	.space	2
.LC9:
	.ascii	"\015[SPIF Wrn]Baud:%x; dc start:%x; dc end:%x\012\000"
	.section	.rodata.spic_config_auto_mode.str1.4,"aMS",%progbits,1
	.align	2
.LC0:
	.ascii	"\015[SPIF Err]spic_config_auto_mode_rtl8710c : Inva"
	.ascii	"lid Bit Mode\015\012\000"
	.section	.rodata.spic_flash_pins,"a",%progbits
	.align	2
	.type	spic_flash_pins, %object
	.size	spic_flash_pins, 18
spic_flash_pins:
	.byte	7
	.byte	8
	.byte	11
	.byte	10
	.byte	9
	.byte	12
	.byte	40
	.byte	43
	.byte	44
	.byte	39
	.byte	38
	.byte	42
	.byte	15
	.byte	16
	.byte	19
	.byte	20
	.byte	17
	.byte	18
	.section	.rodata.spic_init.str1.4,"aMS",%progbits,1
	.align	2
.LC10:
	.ascii	"\015[SPIF Err]spic_init : Calibration Fail, switch "
	.ascii	"back to one bit mode!\015\012\000"
	.section	.rodata.spic_load_calibration_setting.str1.4,"aMS",%progbits,1
	.align	2
.LC1:
	.ascii	"\015[SPIF Wrn]Bit mode %d, Calibration setting load"
	.ascii	"ed from flash. 0x%x\015\012\000"
	.space	2
.LC2:
	.ascii	"\015[SPIF Err]Bit mode %d setting cannot work, swit"
	.ascii	"ch back to one IO mode. 0x%x\012\000"
	.space	2
.LC3:
	.ascii	"\015[SPIF Wrn]spic_load_calibration_setting: Data i"
	.ascii	"n Flash(@ 0x%x = 0x%x 0x%x) is Invalid\015\012\000"
	.section	.rodata.spic_store_calibration_setting.str1.4,"aMS",%progbits,1
	.align	2
.LC4:
	.ascii	"\015[SPIF Wrn]spic_store_calibration_setting: Wr=%x"
	.ascii	"\015\012\000"
	.space	1
.LC5:
	.ascii	"\015[SPIF Err]spic_store_calibration_setting: The f"
	.ascii	"lash memory(@0x%x = 0x%x) cannot be programmed, Era"
	.ascii	"se it first!!\015\012\000"
	.text
.Letext0:
	.file 4 "/cygdrive/d/PUYA/HE3/sdk-ameba-v7.1d/tools/arm-none-eabi-gcc/asdk/cygwin/newlib/arm-none-eabi/include/machine/_default_types.h"
	.file 5 "/cygdrive/d/PUYA/HE3/sdk-ameba-v7.1d/tools/arm-none-eabi-gcc/asdk/cygwin/newlib/lib/gcc/arm-none-eabi/6.5.0/include/stddef.h"
	.file 6 "/cygdrive/d/PUYA/HE3/sdk-ameba-v7.1d/tools/arm-none-eabi-gcc/asdk/cygwin/newlib/arm-none-eabi/include/sys/lock.h"
	.file 7 "/cygdrive/d/PUYA/HE3/sdk-ameba-v7.1d/tools/arm-none-eabi-gcc/asdk/cygwin/newlib/arm-none-eabi/include/sys/_types.h"
	.file 8 "/cygdrive/d/PUYA/HE3/sdk-ameba-v7.1d/tools/arm-none-eabi-gcc/asdk/cygwin/newlib/arm-none-eabi/include/sys/reent.h"
	.file 9 "<built-in>"
	.file 10 "/cygdrive/d/PUYA/HE3/sdk-ameba-v7.1d/tools/arm-none-eabi-gcc/asdk/cygwin/newlib/arm-none-eabi/include/sys/_stdint.h"
	.file 11 "/cygdrive/d/PUYA/HE3/sdk-ameba-v7.1d/tools/arm-none-eabi-gcc/asdk/cygwin/newlib/arm-none-eabi/include/time.h"
	.file 12 "../../../component/soc/realtek/8710c/cmsis/rtl8710c/include/basic_types.h"
	.file 13 "../../../component/soc/realtek/8710c/cmsis/cmsis-core/include/core_armv8mml.h"
	.file 14 "../../../component/soc/realtek/8710c/cmsis/rtl8710c/include/system_rtl8710c.h"
	.file 15 "../../../component/soc/realtek/8710c/cmsis/rtl8710c/include/rtl8710c.h"
	.file 16 "../../../component/soc/realtek/8710c/fwlib/include/hal_api.h"
	.file 17 "/cygdrive/d/PUYA/HE3/sdk-ameba-v7.1d/tools/arm-none-eabi-gcc/asdk/cygwin/newlib/lib/gcc/arm-none-eabi/6.5.0/include/stdarg.h"
	.file 18 "../../../component/soc/realtek/8710c/app/rtl_printf/include/log_buf.h"
	.file 19 "../../../component/soc/realtek/8710c/app/stdio_port/stdio_port.h"
	.file 20 "../../../component/soc/realtek/8710c/app/rtl_printf/include/printf_entry.h"
	.file 21 "../../../component/soc/realtek/8710c/app/rtl_printf/include/rt_printf.h"
	.file 22 "../../../component/soc/realtek/8710c/misc/utilities/include/utility.h"
	.file 23 "../../../component/soc/realtek/8710c/cmsis/rtl8710c/include/rtl8710c_irq.h"
	.file 24 "../../../component/soc/realtek/8710c/fwlib/include/rtl8710c_peri_id.h"
	.file 25 "../../../component/soc/realtek/8710c/fwlib/include/rtl8710c_pin_name.h"
	.file 26 "../../../component/soc/realtek/8710c/fwlib/include/rtl8710c_uart.h"
	.file 27 "../../../component/soc/realtek/8710c/fwlib/include/rtl8710c_timer.h"
	.file 28 "../../../component/soc/realtek/8710c/fwlib/include/rtl8710c_pwm.h"
	.file 29 "../../../component/soc/realtek/8710c/fwlib/include/rtl8710c_flash.h"
	.file 30 "../../../component/soc/realtek/8710c/fwlib/include/hal_spic.h"
	.file 31 "../../../component/soc/realtek/8710c/fwlib/include/rtl8710c_spic_type.h"
	.file 32 "../../../component/soc/realtek/8710c/fwlib/include/hal_pinmux.h"
	.file 33 "../../../component/soc/realtek/8710c/fwlib/include/hal_flash.h"