	.arch armv8-m.main
	.arch_extension dsp
	.eabi_attribute 20, 1
	.eabi_attribute 21, 1
	.eabi_attribute 23, 3
	.eabi_attribute 24, 1
	.eabi_attribute 25, 1
	.eabi_attribute 26, 1
	.eabi_attribute 30, 2
	.eabi_attribute 34, 1
	.eabi_attribute 18, 4
	.file	"ip4_frag.c"
	.text
.Ltext0:
	.cfi_sections	.debug_frame
	.section	.text.ipfrag_free_pbuf_custom,"ax",%progbits
	.align	1
	.p2align 2,,3
	.syntax unified
	.thumb
	.thumb_func
	.fpu softvfp
	.type	ipfrag_free_pbuf_custom, %function
ipfrag_free_pbuf_custom:
.LFB10:
	.file 1 "../../../component/common/network/lwip/lwip_v2.0.2/src/core/ipv4/ip4_frag.c"
	.loc 1 694 0
	.cfi_startproc
	@ args = 0, pretend = 0, frame = 0
	@ frame_needed = 0, uses_anonymous_args = 0
.LVL0:
	push	{r4, lr}
	.cfi_def_cfa_offset 8
	.cfi_offset 4, -8
	.cfi_offset 14, -4
	.loc 1 694 0
	mov	r4, r0
.LVL1:
	.loc 1 698 0
	ldr	r0, [r0, #20]
.LVL2:
	cbz	r0, .L2
	.loc 1 699 0
	bl	pbuf_free
.LVL3:
.L2:
.LBB17:
.LBB18:
	.loc 1 687 0
	mov	r1, r4
.LBE18:
.LBE17:
	.loc 1 702 0
	pop	{r4, lr}
	.cfi_restore 14
	.cfi_restore 4
	.cfi_def_cfa_offset 0
.LVL4:
.LBB20:
.LBB19:
	.loc 1 687 0
	movs	r0, #6
	b	memp_free
.LVL5:
.LBE19:
.LBE20:
	.cfi_endproc
.LFE10:
	.size	ipfrag_free_pbuf_custom, .-ipfrag_free_pbuf_custom
	.section	.text.ip_reass_remove_oldest_datagram,"ax",%progbits
	.align	1
	.p2align 2,,3
	.syntax unified
	.thumb
	.thumb_func
	.fpu softvfp
	.type	ip_reass_remove_oldest_datagram, %function
ip_reass_remove_oldest_datagram:
.LFB3:
	.loc 1 228 0
	.cfi_startproc
	@ args = 0, pretend = 0, frame = 8
	@ frame_needed = 0, uses_anonymous_args = 0
.LVL6:
	.loc 1 233 0
	movs	r3, #0
	.loc 1 228 0
	push	{r4, r5, r6, r7, r8, r9, r10, fp, lr}
	.cfi_def_cfa_offset 36
	.cfi_offset 4, -36
	.cfi_offset 5, -32
	.cfi_offset 6, -28
	.cfi_offset 7, -24
	.cfi_offset 8, -20
	.cfi_offset 9, -16
	.cfi_offset 10, -12
	.cfi_offset 11, -8
	.cfi_offset 14, -4
	mov	r9, r0
	sub	sp, sp, #12
	.cfi_def_cfa_offset 48
	ldr	fp, .L40+4
	.loc 1 228 0
	str	r1, [sp, #4]
	.loc 1 233 0
	str	r3, [sp]
.LVL7:
.L21:
	.loc 1 243 0
	ldr	r3, [fp]
.LVL8:
	.loc 1 244 0
	cmp	r3, #0
	beq	.L8
	movs	r7, #0
	ldr	r0, [r9, #12]	@ unaligned
	mov	r8, r7
	mov	r1, r7
	mov	r5, r7
	b	.L14
.LVL9:
.L12:
	.loc 1 247 0
	adds	r7, r7, #1
.LVL10:
	.loc 1 248 0
	cbz	r5, .L23
.L38:
	.loc 1 251 0
	ldrb	r2, [r5, #31]	@ zero_extendqisi2
	ldrb	r4, [r3, #31]	@ zero_extendqisi2
	cmp	r4, r2
	itt	ls
	movls	r8, r1
.LVL11:
	movls	r5, r3
.LVL12:
.L13:
	.loc 1 257 0
	ldr	r4, [r3]
	mov	r1, r3
.LVL13:
	cbz	r4, .L37
.LVL14:
.L25:
	mov	r3, r4
.LVL15:
.L14:
	.loc 1 245 0
	ldr	r2, [r3, #20]
	cmp	r2, r0
	bne	.L12
	.loc 1 245 0 is_stmt 0 discriminator 1
	ldr	r2, [r9, #16]	@ unaligned
	ldr	r4, [r3, #24]
	cmp	r4, r2
	bne	.L12
	.loc 1 245 0 discriminator 2
	ldrh	r4, [r3, #12]
	ldrh	r2, [r9, #4]	@ unaligned
	cmp	r4, r2
	beq	.L13
	.loc 1 247 0 is_stmt 1
	adds	r7, r7, #1
.LVL16:
	.loc 1 248 0
	cmp	r5, #0
	bne	.L38
.L23:
	.loc 1 257 0
	ldr	r4, [r3]
	mov	r8, r1
.LVL17:
	mov	r5, r3
.LVL18:
	mov	r1, r3
.LVL19:
	cmp	r4, #0
	bne	.L25
.LVL20:
.L37:
	.loc 1 262 0
	cbz	r5, .L15
.LVL21:
.LBB26:
.LBB27:
	.loc 1 178 0
	ldr	r6, [r5, #4]
	ldr	r3, [r6, #4]
.LVL22:
	.loc 1 179 0
	ldrh	r2, [r3, #4]	@ unaligned
	cbz	r2, .L39
.LVL23:
.L18:
.LBB28:
	.loc 1 199 0
	ldr	r3, [r6, #4]
.LVL24:
	.loc 1 203 0
	mov	r0, r6
	.loc 1 202 0
	ldr	r10, [r3]	@ unaligned
.LVL25:
	.loc 1 203 0
	bl	pbuf_clen
.LVL26:
	.loc 1 205 0
	add	r4, r4, r0
.LVL27:
	.loc 1 206 0
	mov	r0, r6
.LVL28:
.LBE28:
	.loc 1 197 0
	mov	r6, r10
.LVL29:
.LBB29:
	.loc 1 205 0
	uxth	r4, r4
.LVL30:
	.loc 1 206 0
	bl	pbuf_free
.LVL31:
.LBE29:
	.loc 1 197 0
	cmp	r6, #0
	bne	.L18
.LVL32:
.L17:
.LBB30:
.LBB31:
	.loc 1 320 0
	ldr	r3, [fp]
	.loc 1 330 0
	mov	r1, r5
	.loc 1 320 0
	cmp	r5, r3
	.loc 1 322 0
	ldr	r3, [r5]
	.loc 1 330 0
	mov	r0, #5
	.loc 1 326 0
	ite	ne
	strne	r3, [r8]
	.loc 1 322 0
	streq	r3, [fp]
	.loc 1 330 0
	bl	memp_free
.LVL33:
.LBE31:
.LBE30:
	.loc 1 211 0
	ldr	r3, .L40
.LBE27:
.LBE26:
	.loc 1 264 0
	ldr	r2, [sp]
.LBB36:
.LBB32:
	.loc 1 211 0
	ldrh	r3, [r3]
.LBE32:
.LBE36:
	.loc 1 264 0
	add	r2, r2, r4
.LBB37:
.LBB33:
	.loc 1 211 0
	subs	r4, r3, r4
.LVL34:
	ldr	r3, .L40
.LBE33:
.LBE37:
	.loc 1 264 0
	str	r2, [sp]
.LVL35:
.LBB38:
.LBB34:
	.loc 1 211 0
	strh	r4, [r3]	@ movhi
.LVL36:
.L15:
.LBE34:
.LBE38:
	.loc 1 266 0
	ldr	r3, [sp]
	ldr	r2, [sp, #4]
	cmp	r3, r2
	bge	.L8
	.loc 1 266 0 is_stmt 0 discriminator 1
	cmp	r7, #1
	bgt	.L21
.LVL37:
.L8:
	.loc 1 268 0 is_stmt 1
	ldr	r0, [sp]
	add	sp, sp, #12
	.cfi_remember_state
	.cfi_def_cfa_offset 36
.LVL38:
	@ sp needed
	pop	{r4, r5, r6, r7, r8, r9, r10, fp, pc}
.LVL39:
.L39:
	.cfi_restore_state
.LBB39:
.LBB35:
	.loc 1 185 0
	mov	r2, r5
	.loc 1 183 0
	ldr	r0, [r3]	@ unaligned
	.loc 1 186 0
	movs	r1, #1
.LVL40:
	.loc 1 183 0
	str	r0, [r5, #4]
	.loc 1 185 0
	ldr	r4, [r2, #8]!	@ unaligned
	ldr	r0, [r2, #12]	@ unaligned
	ldr	lr, [r2, #4]	@ unaligned
	ldr	ip, [r2, #8]	@ unaligned
	str	r0, [r3, #12]	@ unaligned
	str	r4, [r3]	@ unaligned
	str	lr, [r3, #4]	@ unaligned
	str	ip, [r3, #8]	@ unaligned
	ldr	r4, [r2, #16]	@ unaligned
	.loc 1 186 0
	mov	r0, r6
	.loc 1 185 0
	str	r4, [r3, #16]	@ unaligned
	.loc 1 186 0
	bl	icmp_time_exceeded
.LVL41:
	.loc 1 187 0
	mov	r0, r6
	bl	pbuf_clen
.LVL42:
	mov	r4, r0
.LVL43:
	.loc 1 190 0
	mov	r0, r6
	bl	pbuf_free
.LVL44:
	ldr	r6, [r5, #4]
.LVL45:
	.loc 1 197 0
	cmp	r6, #0
	bne	.L18
	b	.L17
.L41:
	.align	2
.L40:
	.word	.LANCHOR1
	.word	.LANCHOR0
.LBE35:
.LBE39:
	.cfi_endproc
.LFE3:
	.size	ip_reass_remove_oldest_datagram, .-ip_reass_remove_oldest_datagram
	.section	.text.ip_reass_tmr,"ax",%progbits
	.align	1
	.p2align 2,,3
	.global	ip_reass_tmr
	.syntax unified
	.thumb
	.thumb_func
	.fpu softvfp
	.type	ip_reass_tmr, %function
ip_reass_tmr:
.LFB1:
	.loc 1 129 0
	.cfi_startproc
	@ args = 0, pretend = 0, frame = 0
	@ frame_needed = 0, uses_anonymous_args = 0
.LVL46:
	push	{r3, r4, r5, r6, r7, r8, r9, r10, fp, lr}
	.cfi_def_cfa_offset 40
	.cfi_offset 3, -40
	.cfi_offset 4, -36
	.cfi_offset 5, -32
	.cfi_offset 6, -28
	.cfi_offset 7, -24
	.cfi_offset 8, -20
	.cfi_offset 9, -16
	.cfi_offset 10, -12
	.cfi_offset 11, -8
	.cfi_offset 14, -4
	.loc 1 132 0
	ldr	fp, .L61
	ldr	r6, [fp]
.LVL47:
	.loc 1 133 0
	cbz	r6, .L42
	mov	r8, #0
.LBB46:
.LBB47:
.LBB48:
	.loc 1 211 0
	ldr	r9, .L61+4
.LVL48:
.L51:
.LBE48:
.LBE47:
.LBE46:
	.loc 1 136 0
	ldrb	r4, [r6, #31]	@ zero_extendqisi2
	cbz	r4, .L44
	.loc 1 137 0
	subs	r4, r4, #1
	strb	r4, [r6, #31]
.LVL49:
	mov	r8, r6
	.loc 1 140 0
	ldr	r6, [r6]
.LVL50:
	.loc 1 133 0
	cmp	r6, #0
	bne	.L51
.LVL51:
.L42:
	pop	{r3, r4, r5, r6, r7, r8, r9, r10, fp, pc}
.LVL52:
.L44:
.LBB63:
.LBB59:
.LBB55:
	.loc 1 178 0
	ldr	r5, [r6, #4]
.LBE55:
.LBE59:
	.loc 1 147 0
	ldr	r10, [r6]
.LVL53:
.LBB60:
.LBB56:
	.loc 1 178 0
	ldr	r3, [r5, #4]
.LVL54:
	.loc 1 179 0
	ldrh	r2, [r3, #4]	@ unaligned
	cbz	r2, .L60
.LVL55:
.L48:
.LBB49:
	.loc 1 199 0
	ldr	r3, [r5, #4]
.LVL56:
	.loc 1 203 0
	mov	r0, r5
	.loc 1 202 0
	ldr	r7, [r3]	@ unaligned
.LVL57:
	.loc 1 203 0
	bl	pbuf_clen
.LVL58:
	.loc 1 205 0
	add	r4, r4, r0
.LVL59:
	.loc 1 206 0
	mov	r0, r5
.LVL60:
	.loc 1 205 0
	uxth	r4, r4
.LVL61:
.LBE49:
	.loc 1 197 0
	mov	r5, r7
.LVL62:
.LBB50:
	.loc 1 206 0
	bl	pbuf_free
.LVL63:
.LBE50:
	.loc 1 197 0
	cmp	r7, #0
	bne	.L48
.LVL64:
.L47:
.LBB51:
.LBB52:
	.loc 1 320 0
	ldr	r3, [fp]
	.loc 1 330 0
	mov	r1, r6
	.loc 1 320 0
	cmp	r3, r6
	.loc 1 322 0
	ldr	r3, [r6]
.LBE52:
.LBE51:
.LBE56:
.LBE60:
	.loc 1 147 0
	mov	r6, r10
.LVL65:
.LBB61:
.LBB57:
.LBB54:
.LBB53:
	.loc 1 326 0
	it	ne
	strne	r3, [r8]
	.loc 1 330 0
	mov	r0, #5
	.loc 1 322 0
	it	eq
	streq	r3, [fp]
	.loc 1 330 0
	bl	memp_free
.LVL66:
.LBE53:
.LBE54:
	.loc 1 211 0
	ldrh	r3, [r9]
	subs	r4, r3, r4
.LVL67:
	strh	r4, [r9]	@ movhi
.LVL68:
.LBE57:
.LBE61:
.LBE63:
	.loc 1 133 0
	cmp	r6, #0
	bne	.L51
	b	.L42
.LVL69:
.L60:
.LBB64:
.LBB62:
.LBB58:
	.loc 1 185 0
	mov	r2, r6
	.loc 1 183 0
	ldr	r0, [r3]	@ unaligned
	.loc 1 186 0
	movs	r1, #1
	.loc 1 183 0
	str	r0, [r6, #4]
	.loc 1 185 0
	ldr	r4, [r2, #8]!	@ unaligned
	ldr	r0, [r2, #12]	@ unaligned
	ldr	ip, [r2, #4]	@ unaligned
	ldr	r7, [r2, #8]	@ unaligned
	str	r0, [r3, #12]	@ unaligned
	str	r4, [r3]	@ unaligned
	str	ip, [r3, #4]	@ unaligned
	str	r7, [r3, #8]	@ unaligned
	ldr	r4, [r2, #16]	@ unaligned
	.loc 1 186 0
	mov	r0, r5
	.loc 1 185 0
	str	r4, [r3, #16]	@ unaligned
	.loc 1 186 0
	bl	icmp_time_exceeded
.LVL70:
	.loc 1 187 0
	mov	r0, r5
	bl	pbuf_clen
.LVL71:
	mov	r4, r0
.LVL72:
	.loc 1 190 0
	mov	r0, r5
	bl	pbuf_free
.LVL73:
	ldr	r5, [r6, #4]
.LVL74:
	.loc 1 197 0
	cmp	r5, #0
	bne	.L48
	b	.L47
.L62:
	.align	2
.L61:
	.word	.LANCHOR0
	.word	.LANCHOR1
.LBE58:
.LBE62:
.LBE64:
	.cfi_endproc
.LFE1:
	.size	ip_reass_tmr, .-ip_reass_tmr
	.section	.text.ip4_reass,"ax",%progbits
	.align	1
	.p2align 2,,3
	.global	ip4_reass
	.syntax unified
	.thumb
	.thumb_func
	.fpu softvfp
	.type	ip4_reass, %function
ip4_reass:
.LFB7:
	.loc 1 499 0
	.cfi_startproc
	@ args = 0, pretend = 0, frame = 16
	@ frame_needed = 0, uses_anonymous_args = 0
.LVL75:
	push	{r4, r5, r6, r7, r8, r9, r10, fp, lr}
	.cfi_def_cfa_offset 36
	.cfi_offset 4, -36
	.cfi_offset 5, -32
	.cfi_offset 6, -28
	.cfi_offset 7, -24
	.cfi_offset 8, -20
	.cfi_offset 9, -16
	.cfi_offset 10, -12
	.cfi_offset 11, -8
	.cfi_offset 14, -4
	.loc 1 511 0
	ldr	r10, [r0, #4]
.LVL76:
	.loc 1 499 0
	sub	sp, sp, #20
	.cfi_def_cfa_offset 56
	.loc 1 513 0
	ldrb	r3, [r10]	@ zero_extendqisi2
	.loc 1 499 0
	mov	r5, r0
	.loc 1 513 0
	and	r3, r3, #15
	cmp	r3, #5
	bne	.L94
	.loc 1 519 0
	ldrh	r0, [r10, #6]	@ unaligned
.LVL77:
	bl	lwip_htons
.LVL78:
	ubfx	r6, r0, #0, #13
	.loc 1 520 0
	ldrh	r0, [r10, #2]	@ unaligned
	bl	lwip_htons
.LVL79:
	ldrb	r3, [r10]	@ zero_extendqisi2
	.loc 1 524 0
	ldr	r7, .L175
	.loc 1 520 0
	and	r3, r3, #15
	sub	r3, r0, r3, lsl #2
	uxth	r3, r3
	.loc 1 523 0
	mov	r0, r5
	.loc 1 520 0
	str	r3, [sp, #4]
	.loc 1 523 0
	bl	pbuf_clen
.LVL80:
	.loc 1 524 0
	ldrh	r3, [r7]
	.loc 1 519 0
	lsls	r6, r6, #3
.LVL81:
	.loc 1 524 0
	add	r3, r3, r0
	cmp	r3, #10
	.loc 1 523 0
	mov	r8, r0
.LVL82:
	.loc 1 524 0
	bgt	.L65
.LVL83:
.L68:
	.loc 1 542 0
	ldr	r9, .L175+4
	ldr	r4, [r9]
.LVL84:
	cmp	r4, #0
	beq	.L67
	ldr	r2, [r10, #12]	@ unaligned
	b	.L71
.L69:
	.loc 1 542 0 discriminator 2
	ldr	r4, [r4]
.LVL85:
	.loc 1 542 0 discriminator 2
	cmp	r4, #0
	beq	.L67
.L71:
	.loc 1 546 0
	ldr	r3, [r4, #20]
	cmp	r3, r2
	bne	.L69
	.loc 1 546 0 is_stmt 0 discriminator 1
	ldr	r3, [r10, #16]	@ unaligned
	ldr	r1, [r4, #24]
	cmp	r1, r3
	bne	.L69
	.loc 1 546 0 discriminator 2
	ldrh	r1, [r4, #12]
	ldrh	r3, [r10, #4]	@ unaligned
	cmp	r1, r3
	bne	.L69
	.loc 1 562 0 is_stmt 1
	ldrh	r0, [r10, #6]	@ unaligned
	bl	lwip_htons
.LVL86:
	ubfx	r0, r0, #0, #13
	cmp	r0, #0
	beq	.L168
.LVL87:
.L72:
	.loc 1 576 0
	ldrh	r3, [r10, #6]	@ unaligned
.LVL88:
	.loc 1 577 0
	ands	r3, r3, #32
.LVL89:
	str	r3, [sp, #8]
.LVL90:
	bne	.L73
.LBB74:
	.loc 1 578 0
	ldr	r3, [sp, #4]
	adds	r3, r6, r3
	uxth	r3, r3
.LVL91:
	.loc 1 579 0
	cmp	r6, r3
	bhi	.L94
	.loc 1 579 0 is_stmt 0 discriminator 1
	movw	r2, #65515
	cmp	r3, r2
	bhi	.L94
.LVL92:
.L73:
.LBE74:
.LBB75:
.LBB76:
	.loc 1 353 0 is_stmt 1
	ldr	r10, [r5, #4]
.LVL93:
	.loc 1 354 0
	ldrh	r0, [r10, #2]	@ unaligned
	bl	lwip_htons
.LVL94:
	ldrb	fp, [r10]	@ zero_extendqisi2
	and	fp, fp, #15
	sub	fp, r0, fp, lsl #2
	.loc 1 355 0
	ldrh	r0, [r10, #6]	@ unaligned
	bl	lwip_htons
.LVL95:
	.loc 1 363 0
	movs	r3, #0
	.loc 1 362 0
	ldr	r10, [r5, #4]
.LVL96:
	.loc 1 355 0
	ubfx	r0, r0, #0, #13
	lsls	r0, r0, #3
	.loc 1 354 0
	uxth	fp, fp
.LVL97:
	.loc 1 363 0
	strb	r3, [r10]
	strb	r3, [r10, #1]
	strb	r3, [r10, #2]
	strb	r3, [r10, #3]
	.loc 1 369 0
	ldr	r3, [r4, #4]
	.loc 1 365 0
	add	fp, fp, r0
.LVL98:
	uxth	r2, fp
	str	r2, [sp, #12]
	strh	r2, [r10, #6]	@ unaligned
.LVL99:
	.loc 1 364 0
	strh	r0, [r10, #4]	@ unaligned
	.loc 1 369 0
	cmp	r3, #0
	beq	.L74
	.loc 1 370 0
	ldr	ip, [r3, #4]
.LVL100:
	.loc 1 371 0
	ldrh	r2, [ip, #4]	@ unaligned
	cmp	r0, r2
	bcc	.L75
	.loc 1 399 0
	beq	.L76
	.loc 1 403 0
	ldrh	lr, [ip, #6]	@ unaligned
	cmp	r0, lr
	bcc	.L76
	mov	fp, #1
	b	.L77
.LVL101:
.L82:
	.loc 1 370 0
	ldr	r3, [r2, #4]
.LVL102:
	.loc 1 371 0
	ldrh	r1, [r3, #4]	@ unaligned
	cmp	r0, r1
	bcc	.L169
	.loc 1 399 0
	beq	.L76
	.loc 1 403 0
	ldrh	r2, [r3, #6]	@ unaligned
.LVL103:
	cmp	r0, r2
	bcc	.L76
.LVL104:
	.loc 1 413 0
	cmp	r1, lr
	it	ne
	movne	fp, #0
.LVL105:
	mov	ip, r3
	mov	lr, r2
.LVL106:
.L77:
	.loc 1 417 0
	ldr	r2, [ip]	@ unaligned
.LVL107:
	.loc 1 369 0
	cmp	r2, #0
	bne	.L82
.L159:
	.loc 1 430 0
	cmp	r0, lr
	.loc 1 429 0
	str	r5, [ip]	@ unaligned
	.loc 1 430 0
	beq	.L80
.LVL108:
	.loc 1 445 0
	ldr	r3, [sp, #8]
	cmp	r3, #0
	bne	.L170
.LVL109:
.L89:
.LBE76:
.LBE75:
	.loc 1 595 0
	ldrh	r3, [r7]
	add	r8, r8, r3
	.loc 1 596 0
	ldr	r3, [sp, #8]
	.loc 1 595 0
	strh	r8, [r7]	@ movhi
	.loc 1 596 0
	cmp	r3, #0
	beq	.L171
.LVL110:
.L162:
	.loc 1 669 0
	movs	r6, #0
.L63:
	.loc 1 670 0
	mov	r0, r6
	add	sp, sp, #20
	.cfi_remember_state
	.cfi_def_cfa_offset 36
	@ sp needed
	pop	{r4, r5, r6, r7, r8, r9, r10, fp, pc}
.LVL111:
.L67:
	.cfi_restore_state
.LBB81:
.LBB82:
	.loc 1 286 0
	movs	r0, #5
	bl	memp_malloc
.LVL112:
	.loc 1 287 0
	mov	r4, r0
.LVL113:
	cmp	r0, #0
	beq	.L172
.L107:
	.loc 1 300 0
	movs	r2, #32
	movs	r1, #0
	mov	r0, r4
	bl	memset
.LVL114:
	.loc 1 301 0
	movs	r2, #3
	.loc 1 304 0
	ldr	r3, [r9]
	.loc 1 301 0
	strb	r2, [r4, #31]
	.loc 1 304 0
	str	r3, [r4]
	.loc 1 308 0
	ldr	r2, [r10]	@ unaligned
	ldr	ip, [r10, #4]	@ unaligned
	ldr	r0, [r10, #8]	@ unaligned
	ldr	r1, [r10, #12]	@ unaligned
	str	r2, [r4, #8]	@ unaligned
	str	ip, [r4, #12]	@ unaligned
	str	r0, [r4, #16]	@ unaligned
	str	r1, [r4, #20]	@ unaligned
	ldr	r2, [r10, #16]	@ unaligned
	.loc 1 305 0
	str	r4, [r9]
	.loc 1 308 0
	str	r2, [r4, #24]	@ unaligned
.LVL115:
	b	.L72
.LVL116:
.L169:
.LBE82:
.LBE81:
.LBB84:
.LBB77:
	.loc 1 377 0
	cmp	r0, lr
	.loc 1 373 0
	str	r2, [r10]	@ unaligned
	.loc 1 377 0
	bcc	.L76
	ldr	r3, [sp, #12]
.LVL117:
	cmp	r3, r1
	bls	.L159
.LVL118:
.L76:
.LDL1:
	.loc 1 485 0
	mov	r0, r5
.LVL119:
	bl	pbuf_clen
.LVL120:
	ldrh	r3, [r7]
	subs	r3, r3, r0
	.loc 1 486 0
	mov	r0, r5
	.loc 1 485 0
	strh	r3, [r7]	@ movhi
	.loc 1 486 0
	bl	pbuf_free
.LVL121:
.L94:
.LBE77:
.LBE84:
	.loc 1 668 0
	mov	r0, r5
	bl	pbuf_free
.LVL122:
	b	.L162
.LVL123:
.L65:
	.loc 1 526 0
	mov	r1, r0
	mov	r0, r10
.LVL124:
	bl	ip_reass_remove_oldest_datagram
.LVL125:
	cmp	r0, #0
	beq	.L94
	.loc 1 527 0 discriminator 1
	ldrh	r3, [r7]
	add	r3, r3, r8
	.loc 1 526 0 discriminator 1
	cmp	r3, #10
	ble	.L68
	b	.L94
.LVL126:
.L168:
	.loc 1 563 0 discriminator 1
	ldrh	r0, [r4, #14]
	bl	lwip_htons
.LVL127:
	.loc 1 562 0 discriminator 1
	ubfx	r0, r0, #0, #13
	cmp	r0, #0
	beq	.L72
	.loc 1 568 0
	ldr	r2, [r10]	@ unaligned
	ldr	ip, [r10, #4]	@ unaligned
	ldr	r0, [r10, #8]	@ unaligned
	ldr	r1, [r10, #12]	@ unaligned
	str	r2, [r4, #8]	@ unaligned
	str	ip, [r4, #12]	@ unaligned
	str	r0, [r4, #16]	@ unaligned
	str	r1, [r4, #20]	@ unaligned
	ldr	r2, [r10, #16]	@ unaligned
	str	r2, [r4, #24]	@ unaligned
	b	.L72
.LVL128:
.L170:
.LBB85:
.LBB78:
	.loc 1 445 0
	ldrb	r3, [r4, #30]	@ zero_extendqisi2
	lsls	r3, r3, #31
	bmi	.L89
.LVL129:
.L85:
.LBE78:
.LBE85:
	.loc 1 595 0
	ldrh	r3, [r7]
	.loc 1 663 0
	movs	r6, #0
.LVL130:
	.loc 1 595 0
	add	r8, r8, r3
	strh	r8, [r7]	@ movhi
	b	.L63
.LVL131:
.L75:
.LBB86:
.LBB79:
	.loc 1 373 0
	str	r3, [r10]	@ unaligned
.LVL132:
	.loc 1 390 0
	ldr	r3, [sp, #12]
	cmp	r3, r2
	bhi	.L76
	.loc 1 396 0
	mov	fp, #1
	str	r5, [r4, #4]
.LVL133:
.L80:
	.loc 1 445 0
	ldr	r3, [sp, #8]
	cbz	r3, .L84
	ldrb	r3, [r4, #30]	@ zero_extendqisi2
	lsls	r2, r3, #31
	bpl	.L85
.L84:
	.loc 1 447 0
	cmp	fp, #0
	beq	.L89
	.loc 1 450 0
	ldr	r3, [r4, #4]
	cmp	r3, #0
	beq	.L89
	.loc 1 450 0
	ldr	r3, [r3, #4]
	ldrh	r3, [r3, #4]	@ unaligned
	cmp	r3, #0
	bne	.L89
.LVL134:
	.loc 1 455 0
	ldr	r3, [r10]	@ unaligned
.LVL135:
	.loc 1 456 0
	cbz	r3, .L90
	.loc 1 457 0
	ldr	r3, [r3, #4]
.LVL136:
	.loc 1 458 0
	ldr	r1, [sp, #12]
	ldrh	r2, [r3, #4]	@ unaligned
	cmp	r2, r1
	beq	.L92
	b	.L89
.L176:
	.align	2
.L175:
	.word	.LANCHOR1
	.word	.LANCHOR0
.LVL137:
.L93:
	.loc 1 457 0
	ldr	r2, [r2, #4]
.LVL138:
	.loc 1 458 0
	ldrh	r1, [r3, #6]	@ unaligned
	ldrh	r3, [r2, #4]	@ unaligned
.LVL139:
	cmp	r1, r3
	bne	.L89
	mov	r3, r2
.LVL140:
.L92:
	.loc 1 463 0
	ldr	r2, [r3]	@ unaligned
.LVL141:
	.loc 1 456 0
	cmp	r2, #0
	bne	.L93
.LVL142:
.L90:
.LBE79:
.LBE86:
	.loc 1 595 0
	ldrh	r3, [r7]
	add	r8, r8, r3
	.loc 1 596 0
	ldr	r3, [sp, #8]
	.loc 1 595 0
	strh	r8, [r7]	@ movhi
	.loc 1 596 0
	cmp	r3, #0
	beq	.L87
.LVL143:
.L111:
.LBB87:
	.loc 1 616 0
	mov	r3, r4
	.loc 1 609 0
	ldrh	r2, [r4, #28]
	.loc 1 612 0
	ldr	r1, [r4, #4]
	.loc 1 609 0
	adds	r2, r2, #20
	strh	r2, [r4, #28]	@ movhi
	.loc 1 616 0
	ldr	r2, [r3, #8]!	@ unaligned
	.loc 1 612 0
	ldr	r8, [r1, #4]
	.loc 1 616 0
	ldr	r5, [r3, #4]	@ unaligned
.LVL144:
	ldr	r0, [r3, #8]	@ unaligned
	ldr	r1, [r3, #12]	@ unaligned
	str	r5, [r8, #4]	@ unaligned
	str	r1, [r8, #12]	@ unaligned
	str	r0, [r8, #8]	@ unaligned
	.loc 1 612 0
	ldr	r5, [r8]	@ unaligned
.LVL145:
	.loc 1 616 0
	str	r2, [r8]	@ unaligned
	ldr	r2, [r3, #16]	@ unaligned
	str	r2, [r8, #16]	@ unaligned
	.loc 1 617 0
	ldrh	r0, [r4, #28]
	bl	lwip_htons
.LVL146:
	.loc 1 618 0
	movs	r3, #0
	.loc 1 617 0
	strh	r0, [r8, #2]	@ unaligned
	.loc 1 618 0
	strb	r3, [r8, #6]
	strb	r3, [r8, #7]
	.loc 1 619 0
	strb	r3, [r8, #10]
	strb	r3, [r8, #11]
	.loc 1 623 0
	mov	r0, r8
	movs	r1, #20
	bl	inet_chksum
.LVL147:
	.loc 1 627 0
	ldr	r6, [r4, #4]
.LVL148:
	.loc 1 623 0
	strh	r0, [r8, #10]	@ unaligned
	mov	r8, r4
.LVL149:
	.loc 1 630 0
	cbz	r5, .L99
.LVL150:
.L98:
	.loc 1 631 0
	ldr	r4, [r5, #4]
.LVL151:
	.loc 1 634 0
	mvn	r1, #19
	mov	r0, r5
	bl	pbuf_header
.LVL152:
	.loc 1 635 0
	mov	r1, r5
	mov	r0, r6
	bl	pbuf_cat
.LVL153:
	.loc 1 636 0
	ldr	r5, [r4]	@ unaligned
.LVL154:
	.loc 1 630 0
	cmp	r5, #0
	bne	.L98
	mov	r4, r8
.LVL155:
.L99:
	.loc 1 640 0
	ldr	r2, [r9]
	cmp	r4, r2
	beq	.L173
.LVL156:
	.loc 1 643 0 discriminator 1
	cbz	r2, .L103
	.loc 1 644 0
	ldr	r3, [r2]
	cmp	r4, r3
	beq	.L174
.LVL157:
	.loc 1 643 0
	cbz	r3, .L103
.L102:
	.loc 1 644 0
	ldr	r2, [r3]
	cmp	r4, r2
	beq	.L100
	mov	r3, r2
.LVL158:
	.loc 1 643 0
	cmp	r3, #0
	bne	.L102
.LVL159:
.L103:
.LBB88:
.LBB89:
	.loc 1 326 0
	movs	r3, #0
	ldr	r2, [r4]
	str	r2, [r3]
	.inst	0xdeff
.LVL160:
.L174:
.LBE89:
.LBE88:
	.loc 1 644 0
	mov	r3, r2
.LVL161:
.L100:
.LBB92:
.LBB90:
	.loc 1 326 0
	ldr	r2, [r4]
	str	r2, [r3]
.LVL162:
.L108:
	.loc 1 330 0
	mov	r1, r4
	movs	r0, #5
	bl	memp_free
.LVL163:
.LBE90:
.LBE92:
	.loc 1 654 0
	mov	r0, r6
	bl	pbuf_clen
.LVL164:
	ldrh	r3, [r7]
	subs	r0, r3, r0
	strh	r0, [r7]	@ movhi
.LBE87:
	.loc 1 670 0
	mov	r0, r6
	add	sp, sp, #20
	.cfi_remember_state
	.cfi_def_cfa_offset 36
	@ sp needed
	pop	{r4, r5, r6, r7, r8, r9, r10, fp, pc}
.LVL165:
.L171:
	.cfi_restore_state
	mov	fp, r3
.L87:
.LVL166:
.LBB94:
	.loc 1 599 0
	ldrb	r3, [r4, #30]	@ zero_extendqisi2
	.loc 1 597 0
	ldr	r2, [sp, #4]
	.loc 1 599 0
	orr	r3, r3, #1
	.loc 1 597 0
	add	r6, r6, r2
.LVL167:
.LBE94:
	.loc 1 605 0
	cmp	fp, #1
.LBB95:
	.loc 1 598 0
	strh	r6, [r4, #28]	@ movhi
	.loc 1 599 0
	strb	r3, [r4, #30]
.LBE95:
	.loc 1 605 0
	beq	.L111
	b	.L162
.LVL168:
.L173:
.LBB96:
.LBB93:
.LBB91:
	.loc 1 322 0
	ldr	r3, [r4]
	str	r3, [r9]
	b	.L108
.LVL169:
.L172:
.LBE91:
.LBE93:
.LBE96:
.LBB97:
.LBB83:
	.loc 1 289 0
	mov	r1, r8
	mov	r0, r10
.LVL170:
	bl	ip_reass_remove_oldest_datagram
.LVL171:
	cmp	r8, r0
	bgt	.L94
	.loc 1 290 0
	movs	r0, #5
	bl	memp_malloc
.LVL172:
	.loc 1 292 0
	mov	r4, r0
	cmp	r0, #0
	bne	.L107
	b	.L94
.LVL173:
.L74:
.LBE83:
.LBE97:
.LBB98:
.LBB80:
	.loc 1 439 0
	mov	fp, #1
	str	r5, [r4, #4]
.LVL174:
	b	.L80
.LBE80:
.LBE98:
	.cfi_endproc
.LFE7:
	.size	ip4_reass, .-ip4_reass
	.section	.text.ip4_frag,"ax",%progbits
	.align	1
	.p2align 2,,3
	.global	ip4_frag
	.syntax unified
	.thumb
	.thumb_func
	.fpu softvfp
	.type	ip4_frag, %function
ip4_frag:
.LFB11:
	.loc 1 719 0
	.cfi_startproc
	@ args = 0, pretend = 0, frame = 32
	@ frame_needed = 0, uses_anonymous_args = 0
.LVL175:
	push	{r4, r5, r6, r7, r8, r9, r10, fp, lr}
	.cfi_def_cfa_offset 36
	.cfi_offset 4, -36
	.cfi_offset 5, -32
	.cfi_offset 6, -28
	.cfi_offset 7, -24
	.cfi_offset 8, -20
	.cfi_offset 9, -16
	.cfi_offset 10, -12
	.cfi_offset 11, -8
	.cfi_offset 14, -4
	.loc 1 735 0
	ldr	r10, [r0, #4]
	.loc 1 719 0
	sub	sp, sp, #44
	.cfi_def_cfa_offset 80
	.loc 1 737 0
	ldrb	r3, [r10]	@ zero_extendqisi2
	.loc 1 719 0
	str	r1, [sp, #20]
.LVL176:
	.loc 1 737 0
	and	r3, r3, #15
	cmp	r3, #5
	.loc 1 719 0
	str	r2, [sp, #32]
	.loc 1 737 0
	bne	.L180
	mov	r5, r0
	.loc 1 740 0
	ldrh	r0, [r10, #6]	@ unaligned
.LVL177:
	.loc 1 728 0
	ldrh	r4, [r1, #46]
	.loc 1 740 0
	bl	lwip_htons
.LVL178:
	.loc 1 741 0
	ubfx	r3, r0, #0, #13
	str	r3, [sp, #16]
.LVL179:
	.loc 1 742 0
	lsls	r3, r0, #18
	bmi	.L180
	.loc 1 744 0
	ldrh	fp, [r5, #8]
	sub	fp, fp, #20
	uxth	r3, fp
	str	r3, [sp, #8]
.LVL180:
	.loc 1 746 0
	cmp	r3, #0
	beq	.L193
	.loc 1 728 0
	subs	r3, r4, #20
.LVL181:
	it	mi
	submi	r3, r4, #13
	movs	r6, #20
	movs	r4, #0
.LVL182:
	asrs	r3, r3, #3
	str	r3, [sp, #36]
	uxth	r3, r3
	lsls	r3, r3, #3
	str	r3, [sp, #28]
.LVL183:
.L192:
	.loc 1 772 0
	movs	r2, #0
	movs	r1, #20
	movs	r0, #2
	bl	pbuf_alloc
.LVL184:
	.loc 1 748 0
	ldr	r3, [sp, #8]
	ldr	r2, [sp, #28]
	.loc 1 773 0
	mov	r9, r0
	.loc 1 748 0
	cmp	r3, r2
	it	ge
	movge	r3, r2
	mov	r1, r3
	uxth	r3, r3
	str	r3, [sp, #12]
.LVL185:
	.loc 1 773 0
	cmp	r0, #0
	beq	.L194
	.loc 1 778 0
	ldr	r3, [r0, #4]
	ldr	r2, [r10]	@ unaligned
	ldr	ip, [r10, #4]	@ unaligned
	ldr	r7, [r10, #8]	@ unaligned
	ldr	r0, [r10, #12]	@ unaligned
.LVL186:
	str	r2, [r3]	@ unaligned
	str	ip, [r3, #4]	@ unaligned
	str	r7, [r3, #8]	@ unaligned
	str	r0, [r3, #12]	@ unaligned
	ldr	r2, [r10, #16]	@ unaligned
	str	r2, [r3, #16]	@ unaligned
	.loc 1 779 0
	ldr	r2, [r9, #4]
	str	r2, [sp, #24]
.LVL187:
	.loc 1 782 0
	cbz	r1, .L183
	ldr	r7, [sp, #12]
	b	.L184
.LVL188:
.L189:
	movs	r6, #0
.LBB99:
	.loc 1 816 0
	ldr	r5, [r5]
.LVL189:
.L184:
	.loc 1 784 0
	ldrh	r4, [r5, #10]
	subs	r4, r4, r6
	.loc 1 785 0
	uxth	r4, r4
.LVL190:
	cmp	r4, r7
	it	cs
	movcs	r4, r7
.LVL191:
	.loc 1 787 0
	cmp	r4, #0
	beq	.L189
.LBB100:
.LBB101:
	.loc 1 679 0
	movs	r0, #6
	bl	memp_malloc
.LVL192:
.LBE101:
.LBE100:
	.loc 1 793 0
	mov	r8, r0
	cmp	r0, #0
	beq	.L197
	.loc 1 798 0
	str	r4, [sp, #4]
	ldr	r2, [r5, #4]
	mov	r3, r0
	add	r2, r2, r6
	str	r2, [sp]
	mov	r1, r4
	movs	r2, #2
	movs	r0, #4
	bl	pbuf_alloced_custom
.LVL193:
	.loc 1 800 0
	mov	fp, r0
	cmp	r0, #0
	beq	.L198
	.loc 1 805 0
	mov	r0, r5
.LVL194:
	bl	pbuf_ref
.LVL195:
	.loc 1 807 0
	ldr	r3, .L199
	.loc 1 813 0
	subs	r7, r7, r4
.LVL196:
	.loc 1 806 0
	str	r5, [r8, #20]
	.loc 1 807 0
	str	r3, [r8, #16]
	.loc 1 812 0
	mov	r1, fp
	mov	r0, r9
	.loc 1 813 0
	uxth	r7, r7
	.loc 1 812 0
	bl	pbuf_cat
.LVL197:
	.loc 1 814 0
	cmp	r7, #0
	bne	.L189
.LVL198:
.L183:
.LBE99:
	.loc 1 823 0
	ldr	r3, [sp, #20]
	.loc 1 826 0
	ldr	r2, [sp, #16]
	.loc 1 823 0
	ldrh	r3, [r3, #46]
	.loc 1 826 0
	ubfx	r0, r2, #0, #13
.LVL199:
	.loc 1 827 0
	ldr	r2, [sp, #8]
	.loc 1 823 0
	subs	r3, r3, #19
	.loc 1 827 0
	cmp	r2, r3
	.loc 1 828 0
	it	ge
	orrge	r0, r0, #8192
.LVL200:
	.loc 1 830 0
	bl	lwip_htons
.LVL201:
	.loc 1 831 0
	ldr	r3, [sp, #12]
	.loc 1 830 0
	ldr	r7, [sp, #24]
	.loc 1 831 0
	adds	r3, r3, #20
	.loc 1 830 0
	strh	r0, [r7, #6]	@ unaligned
	.loc 1 831 0
	uxth	r0, r3
	bl	lwip_htons
.LVL202:
	.loc 1 832 0
	mov	r1, #0
	strb	r1, [r7, #10]
	mov	r1, #0
	.loc 1 831 0
	strh	r0, [r7, #2]	@ unaligned
	.loc 1 832 0
	strb	r1, [r7, #11]
	.loc 1 835 0
	mov	r0, r7
	movs	r1, #20
	bl	inet_chksum
.LVL203:
	mov	r8, r7
	.loc 1 842 0
	ldr	r7, [sp, #20]
	ldr	r2, [sp, #32]
	ldr	r3, [r7, #20]
	mov	r1, r9
	.loc 1 835 0
	strh	r0, [r8, #10]	@ unaligned
	.loc 1 842 0
	mov	r0, r7
	blx	r3
.LVL204:
	.loc 1 852 0
	mov	r0, r9
	bl	pbuf_free
.LVL205:
	.loc 1 853 0
	ldr	r2, [sp, #8]
	ldr	r3, [sp, #12]
	ldr	r1, [sp, #36]
	subs	r3, r2, r3
	uxth	r3, r3
	mov	r2, r3
	str	r3, [sp, #8]
.LVL206:
	ldr	r3, [sp, #16]
	add	r6, r6, r4
	add	r3, r3, r1
	uxth	r3, r3
	uxth	r6, r6
	str	r3, [sp, #16]
.LVL207:
	.loc 1 746 0
	cmp	r2, #0
	bne	.L192
.LVL208:
.L193:
	.loc 1 857 0
	movs	r0, #0
	b	.L179
.LVL209:
.L198:
.LBB104:
.LBB102:
.LBB103:
	.loc 1 687 0
	mov	r1, r8
	movs	r0, #6
.LVL210:
	bl	memp_free
.LVL211:
.L197:
.LBE103:
.LBE102:
	.loc 1 802 0
	mov	r0, r9
	bl	pbuf_free
.LVL212:
.LBE104:
	.loc 1 860 0
	mov	r0, #-1
.LVL213:
.L179:
	.loc 1 861 0
	add	sp, sp, #44
	.cfi_remember_state
	.cfi_def_cfa_offset 36
	@ sp needed
	pop	{r4, r5, r6, r7, r8, r9, r10, fp, pc}
.LVL214:
.L180:
	.cfi_restore_state
	.loc 1 737 0
	mvn	r0, #5
	.loc 1 861 0
	add	sp, sp, #44
	.cfi_remember_state
	.cfi_def_cfa_offset 36
	@ sp needed
	pop	{r4, r5, r6, r7, r8, r9, r10, fp, pc}
.LVL215:
.L194:
	.cfi_restore_state
	.loc 1 860 0
	mov	r0, #-1
.LVL216:
	b	.L179
.L200:
	.align	2
.L199:
	.word	ipfrag_free_pbuf_custom
	.cfi_endproc
.LFE11:
	.size	ip4_frag, .-ip4_frag
	.section	.bss.ip_reass_pbufcount,"aw",%nobits
	.align	1
	.set	.LANCHOR1,. + 0
	.type	ip_reass_pbufcount, %object
	.size	ip_reass_pbufcount, 2
ip_reass_pbufcount:
	.space	2
	.section	.bss.reassdatagrams,"aw",%nobits
	.align	2
	.set	.LANCHOR0,. + 0
	.type	reassdatagrams, %object
	.size	reassdatagrams, 4
reassdatagrams:
	.space	4
	.text
.Letext0:
	.file 2 "/cygdrive/d/PUYA/HE3/sdk-ameba-v7.1d/tools/arm-none-eabi-gcc/asdk/cygwin/newlib/arm-none-eabi/include/sys/lock.h"
	.file 3 "/cygdrive/d/PUYA/HE3/sdk-ameba-v7.1d/tools/arm-none-eabi-gcc/asdk/cygwin/newlib/arm-none-eabi/include/sys/_types.h"
	.file 4 "/cygdrive/d/PUYA/HE3/sdk-ameba-v7.1d/tools/arm-none-eabi-gcc/asdk/cygwin/newlib/lib/gcc/arm-none-eabi/6.5.0/include/stddef.h"
	.file 5 "/cygdrive/d/PUYA/HE3/sdk-ameba-v7.1d/tools/arm-none-eabi-gcc/asdk/cygwin/newlib/arm-none-eabi/include/sys/reent.h"
	.file 6 "/cygdrive/d/PUYA/HE3/sdk-ameba-v7.1d/tools/arm-none-eabi-gcc/asdk/cygwin/newlib/arm-none-eabi/include/time.h"
	.file 7 "/cygdrive/d/PUYA/HE3/sdk-ameba-v7.1d/tools/arm-none-eabi-gcc/asdk/cygwin/newlib/arm-none-eabi/include/stdlib.h"
	.file 8 "../../../component/common/network/lwip/lwip_v2.0.2/port/realtek/arch/cc.h"
	.file 9 "../../../component/common/network/lwip/lwip_v2.0.2/src/include/lwip/err.h"
	.file 10 "../../../component/common/network/lwip/lwip_v2.0.2/src/include/lwip/pbuf.h"
	.file 11 "../../../component/common/network/lwip/lwip_v2.0.2/src/include/lwip/ip4_addr.h"
	.file 12 "../../../component/common/network/lwip/lwip_v2.0.2/src/include/lwip/ip_addr.h"
	.file 13 "../../../component/common/network/lwip/lwip_v2.0.2/src/include/lwip/memp.h"
	.file 14 "../../../component/common/network/lwip/lwip_v2.0.2/src/include/lwip/priv/memp_priv.h"
	.file 15 "../../../component/common/network/lwip/lwip_v2.0.2/src/include/lwip/netif.h"
	.file 16 "../../../component/common/network/lwip/lwip_v2.0.2/src/include/lwip/prot/ip4.h"
	.file 17 "../../../component/common/network/lwip/lwip_v2.0.2/src/include/lwip/ip.h"
	.file 18 "../../../component/common/network/lwip/lwip_v2.0.2/src/include/lwip/ip4_frag.h"
	.file 19 "../../../component/common/network/lwip/lwip_v2.0.2/src/include/lwip/icmp.h"
	.file 20 "../../../component/common/network/lwip/lwip_v2.0.2/src/include/lwip/def.h"
	.file 21 "../../../component/common/network/lwip/lwip_v2.0.2/src/include/lwip/inet_chksum.h"