	.arch armv8-m.main
	.arch_extension dsp
	.eabi_attribute 20, 1
	.eabi_attribute 21, 1
	.eabi_attribute 23, 3
	.eabi_attribute 24, 1
	.eabi_attribute 25, 1
	.eabi_attribute 26, 1
	.eabi_attribute 30, 2
	.eabi_attribute 34, 1
	.eabi_attribute 18, 4
	.file	"MQTTClient.c"
	.text
.Ltext0:
	.cfi_sections	.debug_frame
	.section	.text.MQTTClientInit,"ax",%progbits
	.align	1
	.p2align 2,,3
	.global	MQTTClientInit
	.syntax unified
	.thumb
	.thumb_func
	.fpu softvfp
	.type	MQTTClientInit, %function
MQTTClientInit:
.LFB178:
	.file 1 "../../../component/common/application/mqtt/MQTTClient/MQTTClient.c"
	.loc 1 87 0
	.cfi_startproc
	@ args = 12, pretend = 0, frame = 0
	@ frame_needed = 0, uses_anonymous_args = 0
.LVL0:
	push	{r3, r4, r5, r6, r7, lr}
	.cfi_def_cfa_offset 24
	.cfi_offset 3, -24
	.cfi_offset 4, -20
	.cfi_offset 5, -16
	.cfi_offset 6, -12
	.cfi_offset 7, -8
	.cfi_offset 14, -4
	.loc 1 87 0
	mov	r4, r0
	.loc 1 92 0
	movs	r5, #0
	.loc 1 101 0
	movs	r0, #1
.LVL1:
	.loc 1 93 0
	str	r2, [r4, #4]
	.loc 1 87 0
	ldr	r7, [sp, #24]
	ldr	r6, [sp, #28]
	ldr	r2, [sp, #32]
.LVL2:
	.loc 1 101 0
	str	r0, [r4]
	.loc 1 94 0
	str	r3, [r4, #16]
	.loc 1 89 0
	str	r1, [r4, #80]
.LVL3:
	.loc 1 95 0
	str	r7, [r4, #8]
	.loc 1 96 0
	str	r6, [r4, #20]
	.loc 1 97 0
	str	r2, [r4, #12]
	.loc 1 92 0
	str	r5, [r4, #36]
.LVL4:
	str	r5, [r4, #44]
.LVL5:
	str	r5, [r4, #52]
.LVL6:
	str	r5, [r4, #60]
.LVL7:
	str	r5, [r4, #68]
.LVL8:
	.loc 1 98 0
	str	r5, [r4, #32]
	.loc 1 99 0
	strb	r5, [r4, #28]
	.loc 1 100 0
	str	r5, [r4, #76]
	.loc 1 104 0
	add	r0, r4, #96
	.loc 1 102 0
	str	r5, [r1, #16]
	.loc 1 103 0
	str	r5, [r4, #108]
	.loc 1 104 0
	bl	TimerInit
.LVL9:
	.loc 1 105 0
	add	r0, r4, #84
	.loc 1 106 0
	pop	{r3, r4, r5, r6, r7, lr}
	.cfi_restore 14
	.cfi_restore 7
	.cfi_restore 6
	.cfi_restore 5
	.cfi_restore 4
	.cfi_restore 3
	.cfi_def_cfa_offset 0
.LVL10:
	.loc 1 105 0
	b	TimerInit
.LVL11:
	.cfi_endproc
.LFE178:
	.size	MQTTClientInit, .-MQTTClientInit
	.section	.text.deliverMessage,"ax",%progbits
	.align	1
	.p2align 2,,3
	.global	deliverMessage
	.syntax unified
	.thumb
	.thumb_func
	.fpu softvfp
	.type	deliverMessage, %function
deliverMessage:
.LFB182:
	.loc 1 206 0
	.cfi_startproc
	@ args = 0, pretend = 0, frame = 8
	@ frame_needed = 0, uses_anonymous_args = 0
.LVL12:
	push	{r4, r5, r6, r7, r8, r9, r10, fp, lr}
	.cfi_def_cfa_offset 36
	.cfi_offset 4, -36
	.cfi_offset 5, -32
	.cfi_offset 6, -28
	.cfi_offset 7, -24
	.cfi_offset 8, -20
	.cfi_offset 9, -16
	.cfi_offset 10, -12
	.cfi_offset 11, -8
	.cfi_offset 14, -4
	mov	r8, r0
	mov	r4, r1
	mov	r7, r2
	mov	r9, r0
	.loc 1 208 0
	mov	r6, #-1
	.loc 1 206 0
	sub	sp, sp, #12
	.cfi_def_cfa_offset 48
	add	r5, r0, #40
.LVL13:
.L18:
	.loc 1 213 0
	ldr	r1, [r9, #36]
	cbz	r1, .L4
	.loc 1 213 0 is_stmt 0 discriminator 1
	mov	r0, r4
	bl	MQTTPacket_equals
.LVL14:
	cbz	r0, .L39
.L5:
	.loc 1 216 0 is_stmt 1
	ldr	r3, [r9, #40]
	cbz	r3, .L4
.LVL15:
.LBB31:
.LBB32:
.LBB33:
	.loc 1 45 0
	str	r4, [sp, #4]
	.loc 1 46 0
	str	r7, [sp]
.LVL16:
.LBE33:
.LBE32:
	.loc 1 220 0
	mov	r0, sp
	blx	r3
.LVL17:
	.loc 1 221 0
	movs	r6, #0
.LVL18:
.L4:
	add	r9, r9, #8
.LBE31:
	.loc 1 211 0 discriminator 2
	cmp	r9, r5
	bne	.L18
	.loc 1 226 0
	cmp	r6, #0
	bne	.L40
	movs	r6, #0
.LVL19:
.L3:
	.loc 1 235 0
	mov	r0, r6
	add	sp, sp, #12
	.cfi_remember_state
	.cfi_def_cfa_offset 36
	@ sp needed
	pop	{r4, r5, r6, r7, r8, r9, r10, fp, pc}
.LVL20:
.L39:
	.cfi_restore_state
	.loc 1 214 0 discriminator 2
	ldr	r2, [r9, #36]
	ldr	fp, [r4, #8]
.LVL21:
.LBB34:
.LBB35:
	.loc 1 181 0 discriminator 2
	ldr	r3, [r4, #4]
	.loc 1 183 0 discriminator 2
	ldrb	r1, [r2]	@ zero_extendqisi2
	.loc 1 181 0 discriminator 2
	add	lr, fp, r3
.LVL22:
	.loc 1 183 0 discriminator 2
	cmp	r1, #0
	beq	.L6
	.loc 1 183 0 is_stmt 0
	cmp	fp, lr
	bcs	.L4
	add	ip, r2, #1
	ldrb	r3, [fp]	@ zero_extendqisi2
	add	r0, lr, #-1
	mov	r10, lr
	b	.L7
.LVL23:
.L8:
	.loc 1 187 0 is_stmt 1
	cmp	r1, #43
	beq	.L10
	cmp	r1, #35
	beq	.L11
	cmp	r3, r1
	bne	.L4
.L37:
	mov	r3, fp
.LVL24:
	add	fp, fp, #1
.LVL25:
.L9:
	.loc 1 183 0
	ldrb	r1, [ip]	@ zero_extendqisi2
	cbz	r1, .L16
.LVL26:
.L42:
	cmp	lr, fp
	bls	.L4
	ldrb	r3, [r3, #1]	@ zero_extendqisi2
.LVL27:
.L17:
	add	ip, ip, #1
.LVL28:
.L7:
	.loc 1 185 0
	cmp	r3, #47
	bne	.L8
	cmp	r1, #47
	beq	.L37
	b	.L4
.L10:
.LBB36:
	.loc 1 191 0
	add	r2, fp, #1
.LVL29:
	.loc 1 192 0
	cmp	lr, r2
	bls	.L12
	ldrb	r3, [fp, #1]	@ zero_extendqisi2
	cmp	r3, #47
	bne	.L15
	b	.L13
.LVL30:
.L14:
	ldrb	r1, [r3, #1]	@ zero_extendqisi2
	cmp	r1, #47
	beq	.L41
.LVL31:
.L15:
	cmp	r2, r0
	.loc 1 193 0
	mov	r3, r2
.LVL32:
	add	r2, r2, #1
.LVL33:
	.loc 1 192 0
	bne	.L14
.LBE36:
	.loc 1 183 0
	ldrb	r1, [ip]	@ zero_extendqisi2
	mov	fp, r10
.LVL34:
	cmp	r1, #0
	bne	.L42
.LVL35:
.L16:
	.loc 1 201 0
	cmp	lr, fp
	bne	.L4
	b	.L5
.LVL36:
.L11:
	.loc 1 196 0
	mov	r3, r0
.LVL37:
	mov	fp, lr
	b	.L9
.LVL38:
.L41:
	mov	fp, r2
	b	.L9
.LVL39:
.L40:
.LBE35:
.LBE34:
	.loc 1 226 0 discriminator 1
	ldr	r3, [r8, #76]
	cmp	r3, #0
	beq	.L3
.LVL40:
.LBB39:
	.loc 1 231 0
	movs	r6, #0
.LBB40:
.LBB41:
	.loc 1 46 0
	add	r0, sp, #8
	str	r7, [r0, #-8]!
.LVL41:
	.loc 1 45 0
	str	r4, [sp, #4]
.LBE41:
.LBE40:
	.loc 1 230 0
	blx	r3
.LVL42:
.LBE39:
	.loc 1 235 0
	mov	r0, r6
	add	sp, sp, #12
	.cfi_remember_state
	.cfi_def_cfa_offset 36
	@ sp needed
	pop	{r4, r5, r6, r7, r8, r9, r10, fp, pc}
.LVL43:
.L12:
	.cfi_restore_state
.LBB42:
.LBB38:
	.loc 1 183 0
	ldrb	r3, [ip]	@ zero_extendqisi2
.LBB37:
	.loc 1 191 0
	mov	fp, r2
.LBE37:
	.loc 1 183 0
	cmp	r3, #0
	bne	.L4
	b	.L16
.LVL44:
.L13:
	ldrb	r1, [ip]	@ zero_extendqisi2
	cmp	r1, #0
	beq	.L4
.LVL45:
	mov	fp, r2
	b	.L17
.LVL46:
.L6:
	.loc 1 201 0
	cmp	fp, lr
	bne	.L4
	b	.L5
.LBE38:
.LBE42:
	.cfi_endproc
.LFE182:
	.size	deliverMessage, .-deliverMessage
	.section	.text.keepalive,"ax",%progbits
	.align	1
	.p2align 2,,3
	.global	keepalive
	.syntax unified
	.thumb
	.thumb_func
	.fpu softvfp
	.type	keepalive, %function
keepalive:
.LFB183:
	.loc 1 239 0
	.cfi_startproc
	@ args = 0, pretend = 0, frame = 16
	@ frame_needed = 0, uses_anonymous_args = 0
.LVL47:
	.loc 1 242 0
	ldr	r3, [r0, #24]
	cbnz	r3, .L65
	.loc 1 244 0
	mov	r0, r3
.LVL48:
	bx	lr
.LVL49:
.L65:
	.loc 1 239 0
	push	{r4, r5, r6, r7, r8, r9, r10, lr}
	.cfi_def_cfa_offset 32
	.cfi_offset 4, -32
	.cfi_offset 5, -28
	.cfi_offset 6, -24
	.cfi_offset 7, -20
	.cfi_offset 8, -16
	.cfi_offset 9, -12
	.cfi_offset 10, -8
	.cfi_offset 14, -4
	.loc 1 248 0
	add	r10, r0, #84
	.loc 1 239 0
	sub	sp, sp, #16
	.cfi_def_cfa_offset 48
	mov	r5, r0
	.loc 1 248 0
	mov	r0, r10
.LVL50:
	bl	TimerIsExpired
.LVL51:
	cmp	r0, #0
	beq	.L57
	.loc 1 250 0
	ldrb	r4, [r5, #28]	@ zero_extendqisi2
	cmp	r4, #0
	bne	.L57
.LVL52:
.LBB48:
.LBB49:
.LBB50:
	.loc 1 253 0
	add	r0, sp, #4
	bl	TimerInit
.LVL53:
	.loc 1 254 0
	add	r0, sp, #4
	mov	r1, #1000
	bl	TimerCountdownMS
.LVL54:
	.loc 1 255 0
	ldr	r1, [r5, #8]
	ldr	r0, [r5, #16]
	bl	MQTTSerialize_pingreq
.LVL55:
	.loc 1 256 0
	subs	r8, r0, #0
	ble	.L57
.LVL56:
.L48:
.LBB51:
.LBB52:
	.loc 1 60 0
	add	r0, sp, #4
	bl	TimerIsExpired
.LVL57:
	cbnz	r0, .L47
	.loc 1 62 0
	ldr	r1, [r5, #16]
	ldr	r7, [r5, #80]
	add	r0, sp, #4
	adds	r6, r1, r4
	ldr	r9, [r7, #8]
	bl	TimerLeftMS
.LVL58:
	mov	r2, r8
	mov	r3, r0
	mov	r1, r6
	mov	r0, r7
	blx	r9
.LVL59:
	.loc 1 63 0
	cmp	r0, #0
	blt	.L47
	.loc 1 65 0
	add	r4, r4, r0
.LVL60:
	.loc 1 60 0
	cmp	r8, r4
	bgt	.L48
.LVL61:
.L47:
	.loc 1 67 0
	cmp	r8, r4
	bne	.L50
	.loc 1 69 0
	mov	r0, r10
	ldr	r1, [r5, #24]
	bl	TimerCountdown
.LVL62:
	.loc 1 77 0
	ldr	r3, [r5, #80]
	ldr	r3, [r3]
	cmp	r3, #0
	bge	.L52
	.loc 1 78 0
	movs	r3, #0
	str	r3, [r5, #32]
.LVL63:
.L52:
.LBE52:
.LBE51:
	.loc 1 257 0
	movs	r3, #1
	movs	r0, #0
.LDL1:
.LVL64:
	strb	r3, [r5, #28]
	b	.L43
.L57:
.L44:
.LBE50:
.LBE49:
.LBE48:
	.loc 1 240 0
	mov	r0, #-1
.L43:
	.loc 1 263 0
	add	sp, sp, #16
	.cfi_remember_state
	.cfi_def_cfa_offset 32
	@ sp needed
	pop	{r4, r5, r6, r7, r8, r9, r10, pc}
.LVL65:
.L50:
	.cfi_restore_state
.LBB57:
.LBB56:
.LBB55:
.LBB54:
.LBB53:
	.loc 1 74 0
	bl	rtw_get_current_time
.LVL66:
	mov	r1, r0
	ldr	r0, .L66
	bl	__wrap_printf
.LVL67:
	ldr	r0, .L66+4
	bl	__wrap_printf
.LVL68:
	ldr	r0, .L66+8
	bl	__wrap_printf
.LVL69:
	.loc 1 77 0
	ldr	r3, [r5, #80]
	ldr	r3, [r3]
	cmp	r3, #0
	bge	.L57
	.loc 1 78 0
	movs	r3, #0
	mov	r0, #-1
	str	r3, [r5, #32]
.LVL70:
	b	.L43
.L67:
	.align	2
.L66:
	.word	.LC1
	.word	.LC2
	.word	.LC3
.LBE53:
.LBE54:
.LBE55:
.LBE56:
.LBE57:
	.cfi_endproc
.LFE183:
	.size	keepalive, .-keepalive
	.section	.text.cycle,"ax",%progbits
	.align	1
	.p2align 2,,3
	.global	cycle
	.syntax unified
	.thumb
	.thumb_func
	.fpu softvfp
	.type	cycle, %function
cycle:
.LFB184:
	.loc 1 267 0
	.cfi_startproc
	@ args = 0, pretend = 0, frame = 40
	@ frame_needed = 0, uses_anonymous_args = 0
.LVL71:
	push	{r4, r5, r6, r7, r8, r9, r10, fp, lr}
	.cfi_def_cfa_offset 36
	.cfi_offset 4, -36
	.cfi_offset 5, -32
	.cfi_offset 6, -28
	.cfi_offset 7, -24
	.cfi_offset 8, -20
	.cfi_offset 9, -16
	.cfi_offset 10, -12
	.cfi_offset 11, -8
	.cfi_offset 14, -4
.LBB79:
.LBB80:
	.loc 1 145 0
	ldr	r5, [r0, #80]
	ldr	r8, [r0, #20]
.LBE80:
.LBE79:
	.loc 1 267 0
	sub	sp, sp, #68
	.cfi_def_cfa_offset 104
	.loc 1 267 0
	mov	r4, r0
.LVL72:
.LBB92:
.LBB86:
	.loc 1 145 0
	mov	r0, r1
.LVL73:
.LBE86:
.LBE92:
	.loc 1 267 0
	mov	r6, r1
.LVL74:
.LBB93:
.LBB87:
	.loc 1 145 0
	ldr	r7, [r5, #4]
	bl	TimerLeftMS
.LVL75:
	mov	r1, r8
	mov	r3, r0
	movs	r2, #1
	mov	r0, r5
	blx	r7
.LVL76:
	cmp	r0, #1
	bne	.L185
	mov	r7, r0
.LVL77:
	.loc 1 151 0
	mov	r0, r6
	bl	TimerLeftMS
.LVL78:
	mov	r9, #4
	mov	fp, r0
.LVL79:
.LBB81:
.LBB82:
	.loc 1 116 0
	mov	r8, #0
	add	r5, sp, #48
.LVL80:
.L71:
.LBB83:
	.loc 1 126 0
	ldr	r0, [r4, #80]
	mov	r3, fp
	ldr	r10, [r0, #4]
	movs	r2, #1
	mov	r1, r5
	blx	r10
.LVL81:
	.loc 1 127 0
	cmp	r0, #1
	bne	.L72
	.loc 1 129 0
	ldrb	r3, [sp, #48]	@ zero_extendqisi2
	and	r2, r3, #127
.LBE83:
	.loc 1 131 0
	lsls	r3, r3, #24
.LBB84:
	.loc 1 129 0
	mla	r8, r7, r2, r8
.LVL82:
	.loc 1 130 0
	lsl	r7, r7, #7
.LVL83:
.LBE84:
	.loc 1 131 0
	bpl	.L72
.LBB85:
	.loc 1 121 0
	subs	r9, r9, #1
	bne	.L71
.LVL84:
.L72:
.LBE85:
.LBE82:
.LBE81:
	.loc 1 152 0
	ldr	r0, [r4, #20]
	mov	r1, r8
	adds	r0, r0, #1
	bl	MQTTPacket_encode
.LVL85:
	.loc 1 154 0
	ldr	r3, [r4, #12]
	.loc 1 152 0
	adds	r0, r0, #1
.LVL86:
	.loc 1 154 0
	add	r2, r0, r8
	cmp	r2, r3
	bhi	.L186
	.loc 1 160 0
	cmp	r8, #0
	ble	.L75
	ldr	r1, [r4, #20]
	ldr	r7, [r4, #80]
	adds	r5, r1, r0
	mov	r0, r6
.LVL87:
	ldr	r9, [r7, #4]
	bl	TimerLeftMS
.LVL88:
	mov	r2, r8
	mov	r3, r0
	mov	r1, r5
	mov	r0, r7
	blx	r9
.LVL89:
	cmp	r0, r8
	bne	.L187
.L75:
	.loc 1 167 0
	ldr	r3, [r4, #80]
	.loc 1 164 0
	ldr	r2, [r4, #20]
	.loc 1 167 0
	ldr	r3, [r3]
	.loc 1 164 0
	ldrb	r10, [r2]	@ zero_extendqisi2
	.loc 1 167 0
	cmp	r3, #0
	.loc 1 165 0
	lsr	r10, r10, #4
.LDL2:
.LVL90:
	.loc 1 167 0
	blt	.L188
.LVL91:
.L77:
.LBE87:
.LBE93:
	.loc 1 277 0 discriminator 1
	bl	rtw_get_current_time
.LVL92:
	uxth	r7, r10
	mov	r1, r0
	ldr	r0, .L193
	bl	__wrap_printf
.LVL93:
	mov	r1, r7
	ldr	r0, .L193+4
	bl	__wrap_printf
.LVL94:
	ldr	r0, .L193+8
	bl	__wrap_printf
.LVL95:
	.loc 1 278 0 discriminator 1
	subs	r3, r7, #3
	mov	r8, r7
	cmp	r3, #10
	bhi	.L79
	tbh	[pc, r3, lsl #1]
.L81:
	.2byte	(.L80-.L81)/2
	.2byte	(.L79-.L81)/2
	.2byte	(.L82-.L81)/2
	.2byte	(.L83-.L81)/2
	.2byte	(.L79-.L81)/2
	.2byte	(.L79-.L81)/2
	.2byte	(.L79-.L81)/2
	.2byte	(.L79-.L81)/2
	.2byte	(.L79-.L81)/2
	.2byte	(.L79-.L81)/2
	.2byte	(.L84-.L81)/2
	.p2align 1
.L83:
.LBB94:
	.loc 1 333 0
	ldr	r2, [r4, #12]
	ldr	r3, [r4, #20]
	add	r1, sp, #32
	str	r2, [sp]
	add	r0, sp, #36
	add	r2, sp, #48
	bl	MQTTDeserialize_ack
.LVL96:
	cmp	r0, #1
	bne	.L78
	.loc 1 335 0
	ldrh	r3, [sp, #48]
	ldr	r1, [r4, #8]
	ldr	r0, [r4, #16]
	movs	r2, #7
	str	r3, [sp]
	movs	r3, #0
	bl	MQTTSerialize_ack
.LVL97:
	subs	fp, r0, #0
	ble	.L78
	movs	r3, #0
	str	r3, [sp, #24]
	b	.L110
.LVL98:
.L111:
.LBB95:
.LBB96:
	.loc 1 62 0
	ldr	r9, [r4, #80]
	ldr	r2, [sp, #24]
	ldr	r1, [r4, #16]
	ldr	r3, [r9, #8]
	add	r1, r1, r2
	mov	r0, r6
	mov	r5, r3
	str	r1, [sp, #28]
	bl	TimerLeftMS
.LVL99:
	mov	r2, fp
	mov	r3, r0
	ldr	r1, [sp, #28]
	mov	r0, r9
	blx	r5
.LVL100:
	.loc 1 63 0
	cmp	r0, #0
	blt	.L109
	.loc 1 65 0
	ldr	r3, [sp, #24]
	add	r3, r3, r0
	.loc 1 60 0
	cmp	fp, r3
	.loc 1 65 0
	str	r3, [sp, #24]
.LVL101:
	.loc 1 60 0
	ble	.L109
.LVL102:
.L110:
	mov	r0, r6
	bl	TimerIsExpired
.LVL103:
	cmp	r0, #0
	beq	.L111
.LVL104:
.L109:
	.loc 1 67 0
	ldr	r3, [sp, #24]
	cmp	fp, r3
	bne	.L112
.L176:
	.loc 1 69 0
	ldr	r1, [r4, #24]
	add	r0, r4, #84
	bl	TimerCountdown
.LVL105:
.L175:
	.loc 1 77 0
	ldr	r3, [r4, #80]
	ldr	r3, [r3]
	cmp	r3, #0
	bge	.L79
	.loc 1 78 0
	movs	r3, #0
	str	r3, [r4, #32]
.LVL106:
.L79:
.LBE96:
.LBE95:
.LBE94:
.LBB99:
.LBB100:
	.loc 1 242 0
	ldr	r3, [r4, #24]
	cmp	r3, #0
	bne	.L189
.L68:
.LBE100:
.LBE99:
	.loc 1 354 0
	mov	r0, r8
	add	sp, sp, #68
	.cfi_remember_state
	.cfi_def_cfa_offset 36
	@ sp needed
	pop	{r4, r5, r6, r7, r8, r9, r10, fp, pc}
.LVL107:
.L188:
	.cfi_restore_state
	add	r3, r10, #2
.LVL108:
.L133:
.LBB121:
.LBB88:
	.loc 1 168 0
	movs	r2, #0
.LBE88:
.LBE121:
	.loc 1 272 0
	cmp	r3, #1
.LBB122:
.LBB89:
	.loc 1 168 0
	str	r2, [r4, #32]
.LVL109:
.LBE89:
.LBE122:
	.loc 1 272 0
	bhi	.L77
.LVL110:
.L78:
.LBB123:
.LBB114:
	.loc 1 242 0
	ldr	r3, [r4, #24]
	cmp	r3, #0
	beq	.L129
	.loc 1 248 0
	add	r3, r4, #84
	mov	r0, r3
	str	r3, [sp, #28]
	bl	TimerIsExpired
.LVL111:
	cmp	r0, #0
	beq	.L129
	.loc 1 250 0
	ldrb	r3, [r4, #28]	@ zero_extendqisi2
	cmp	r3, #0
	bne	.L129
	mov	r3, #-1
	add	r5, sp, #48
	str	r3, [sp, #24]
.LVL112:
.L142:
.LBB101:
.LBB102:
.LBB103:
	.loc 1 253 0
	mov	r0, r5
	bl	TimerInit
.LVL113:
	.loc 1 254 0
	mov	r1, #1000
	mov	r0, r5
	bl	TimerCountdownMS
.LVL114:
	.loc 1 255 0
	ldr	r1, [r4, #8]
	ldr	r0, [r4, #16]
	bl	MQTTSerialize_pingreq
.LVL115:
	.loc 1 256 0
	subs	r8, r0, #0
	ble	.L116
	movs	r6, #0
.LVL116:
.L120:
.LBB104:
.LBB105:
	.loc 1 60 0
	mov	r0, r5
	bl	TimerIsExpired
.LVL117:
	cbnz	r0, .L119
	.loc 1 62 0
	ldr	r1, [r4, #16]
	ldr	r7, [r4, #80]
	mov	r0, r5
	add	fp, r1, r6
	ldr	r9, [r7, #8]
	bl	TimerLeftMS
.LVL118:
	mov	r2, r8
	mov	r3, r0
	mov	r1, fp
	mov	r0, r7
	blx	r9
.LVL119:
	.loc 1 63 0
	cmp	r0, #0
	blt	.L119
	.loc 1 65 0
	add	r6, r6, r0
.LVL120:
	.loc 1 60 0
	cmp	r8, r6
	bgt	.L120
.LVL121:
.L119:
	.loc 1 67 0
	cmp	r6, r8
	bne	.L122
	.loc 1 69 0
	ldr	r0, [sp, #28]
	ldr	r1, [r4, #24]
	bl	TimerCountdown
.LVL122:
	.loc 1 77 0
	ldr	r3, [r4, #80]
	ldr	r3, [r3]
	cmp	r3, #0
	bge	.L124
	.loc 1 78 0
	movs	r3, #0
	str	r3, [r4, #32]
.LVL123:
.L124:
.LBE105:
.LBE104:
	.loc 1 257 0
	movs	r3, #1
	strb	r3, [r4, #28]
.LDL3:
.LVL124:
.L116:
.LBE103:
.LBE102:
.LBE101:
.LBE114:
.LBE123:
	.loc 1 351 0
	ldr	r3, [sp, #24]
	cbnz	r3, .L129
	uxth	r7, r10
.L127:
	mov	r8, r7
	.loc 1 354 0
	mov	r0, r8
	add	sp, sp, #68
	.cfi_remember_state
	.cfi_def_cfa_offset 36
	@ sp needed
	pop	{r4, r5, r6, r7, r8, r9, r10, fp, pc}
.LVL125:
.L129:
	.cfi_restore_state
.LBB124:
.LBB115:
.LBB112:
.LBB110:
.LBB108:
	.loc 1 256 0
	mov	r8, #-1
.LBE108:
.LBE110:
.LBE112:
.LBE115:
.LBE124:
	.loc 1 354 0
	mov	r0, r8
	add	sp, sp, #68
	.cfi_remember_state
	.cfi_def_cfa_offset 36
	@ sp needed
	pop	{r4, r5, r6, r7, r8, r9, r10, fp, pc}
.LVL126:
.L84:
	.cfi_restore_state
	.loc 1 346 0
	movs	r3, #0
	strb	r3, [r4, #28]
	.loc 1 347 0
	b	.L79
.L80:
.LBB125:
	.loc 1 289 0
	ldr	r0, [r4, #12]
	ldr	r1, [r4, #20]
	add	r2, sp, #60
	add	r3, sp, #56
	add	r9, sp, #36
	str	r0, [sp, #16]
	str	r1, [sp, #12]
	str	r2, [sp, #8]
	str	r3, [sp, #4]
	str	r9, [sp]
	add	r3, sp, #52
	add	r2, sp, #49
	add	r1, sp, #32
	add	r0, sp, #50
	bl	MQTTDeserialize_publish
.LVL127:
	cmp	r0, #1
	add	r5, sp, #48
	beq	.L190
.LVL128:
.LBE125:
.LBB128:
.LBB116:
	.loc 1 242 0
	ldr	r3, [r4, #24]
	cmp	r3, #0
	beq	.L68
	.loc 1 248 0
	add	r3, r4, #84
	mov	r0, r3
	str	r3, [sp, #28]
	bl	TimerIsExpired
.LVL129:
	cmp	r0, #0
	beq	.L127
.LBE116:
.LBE128:
	.loc 1 270 0
	movs	r3, #0
	str	r3, [sp, #24]
.LVL130:
.L141:
.LBB129:
.LBB117:
	.loc 1 250 0
	ldrb	r3, [r4, #28]	@ zero_extendqisi2
	cmp	r3, #0
	beq	.L142
	b	.L116
.LVL131:
.L82:
.LBE117:
.LBE129:
.LBB130:
	.loc 1 319 0
	ldr	r2, [r4, #12]
	ldr	r3, [r4, #20]
	add	r1, sp, #32
	str	r2, [sp]
	add	r0, sp, #36
	add	r2, sp, #48
	bl	MQTTDeserialize_ack
.LVL132:
	cmp	r0, #1
	bne	.L78
	.loc 1 321 0
	ldrh	r3, [sp, #48]
	ldr	r1, [r4, #8]
	ldr	r0, [r4, #16]
	movs	r2, #6
	str	r3, [sp]
	movs	r3, #0
	bl	MQTTSerialize_ack
.LVL133:
	subs	fp, r0, #0
	ble	.L78
	movs	r3, #0
	str	r3, [sp, #24]
	b	.L101
.LVL134:
.L102:
.LBB131:
.LBB132:
	.loc 1 62 0
	ldr	r9, [r4, #80]
	ldr	r2, [sp, #24]
	ldr	r1, [r4, #16]
	ldr	r3, [r9, #8]
	add	r1, r1, r2
	mov	r0, r6
	mov	r5, r3
	str	r1, [sp, #28]
	bl	TimerLeftMS
.LVL135:
	mov	r2, fp
	mov	r3, r0
	ldr	r1, [sp, #28]
	mov	r0, r9
	blx	r5
.LVL136:
	.loc 1 63 0
	cmp	r0, #0
	blt	.L109
	.loc 1 65 0
	ldr	r3, [sp, #24]
	add	r3, r3, r0
	.loc 1 60 0
	cmp	fp, r3
	.loc 1 65 0
	str	r3, [sp, #24]
.LVL137:
	.loc 1 60 0
	ble	.L109
.LVL138:
.L101:
	mov	r0, r6
	bl	TimerIsExpired
.LVL139:
	cmp	r0, #0
	beq	.L102
	b	.L109
.LVL140:
.L185:
.LBE132:
.LBE131:
.LBE130:
.LBB133:
.LBB90:
	.loc 1 146 0
	bl	rtw_get_current_time
.LVL141:
	mov	r1, r0
	ldr	r0, .L193
	bl	__wrap_printf
.LVL142:
	ldr	r0, .L193+12
.LVL143:
.L173:
	.loc 1 161 0
	bl	__wrap_printf
.LVL144:
	ldr	r0, .L193+8
	bl	__wrap_printf
.LVL145:
	.loc 1 139 0
	mov	r10, #-1
	.loc 1 161 0
	movs	r3, #1
.LVL146:
.L70:
	.loc 1 167 0
	ldr	r2, [r4, #80]
	ldr	r2, [r2]
	cmp	r2, #0
	bge	.L78
	b	.L133
.LVL147:
.L187:
	.loc 1 161 0
	bl	rtw_get_current_time
.LVL148:
	mov	r1, r0
	ldr	r0, .L193
	bl	__wrap_printf
.LVL149:
	ldr	r0, .L193+16
	b	.L173
.LVL150:
.L122:
.LBE90:
.LBE133:
.LBB134:
.LBB118:
.LBB113:
.LBB111:
.LBB109:
.LBB107:
.LBB106:
	.loc 1 74 0
	bl	rtw_get_current_time
.LVL151:
	mov	r1, r0
	ldr	r0, .L193
	bl	__wrap_printf
.LVL152:
	ldr	r0, .L193+20
	bl	__wrap_printf
.LVL153:
	ldr	r0, .L193+8
	bl	__wrap_printf
.LVL154:
	.loc 1 77 0
	ldr	r3, [r4, #80]
	ldr	r3, [r3]
	cmp	r3, #0
	bge	.L116
	.loc 1 78 0
	movs	r3, #0
	str	r3, [r4, #32]
.LVL155:
	b	.L116
.L194:
	.align	2
.L193:
	.word	.LC1
	.word	.LC7
	.word	.LC3
	.word	.LC4
	.word	.LC6
	.word	.LC2
.LVL156:
.L186:
.LBE106:
.LBE107:
.LBE109:
.LBE111:
.LBE113:
.LBE118:
.LBE134:
.LBB135:
.LBB91:
	.loc 1 155 0
	bl	rtw_get_current_time
.LVL157:
	mov	r1, r0
	ldr	r0, .L195
	bl	__wrap_printf
.LVL158:
	mov	r1, r8
	ldr	r0, .L195+4
	bl	__wrap_printf
.LVL159:
	ldr	r0, .L195+8
	bl	__wrap_printf
.LVL160:
	.loc 1 156 0
	mvn	r10, #1
	.loc 1 155 0
	movs	r3, #0
	b	.L70
.LVL161:
.L190:
.LBE91:
.LBE135:
.LBB136:
	.loc 1 292 0
	ldr	r3, [sp, #32]
	.loc 1 293 0
	mov	r1, r9
	mov	r2, r5
	mov	r0, r4
	.loc 1 292 0
	strb	r3, [sp, #48]
	.loc 1 293 0
	bl	deliverMessage
.LVL162:
	.loc 1 294 0
	ldrb	r3, [sp, #48]	@ zero_extendqisi2
	cmp	r3, #0
	beq	.L79
	.loc 1 296 0
	cmp	r3, #1
	beq	.L191
	.loc 1 298 0
	cmp	r3, #2
	beq	.L192
.LVL163:
.L90:
.LBE136:
.LBB137:
.LBB119:
	.loc 1 242 0
	ldr	r3, [r4, #24]
	cmp	r3, #0
	beq	.L129
	.loc 1 248 0
	add	r3, r4, #84
	mov	r0, r3
	str	r3, [sp, #28]
	bl	TimerIsExpired
.LVL164:
	cmp	r0, #0
	beq	.L129
	mov	r3, #-1
	str	r3, [sp, #24]
	b	.L141
.LVL165:
.L112:
.LBE119:
.LBE137:
.LBB138:
.LBB98:
.LBB97:
	.loc 1 74 0
	bl	rtw_get_current_time
.LVL166:
	mov	r1, r0
	ldr	r0, .L195
	bl	__wrap_printf
.LVL167:
	ldr	r0, .L195+12
	bl	__wrap_printf
.LVL168:
	ldr	r0, .L195+8
	bl	__wrap_printf
.LVL169:
	.loc 1 77 0
	ldr	r3, [r4, #80]
	ldr	r3, [r3]
	cmp	r3, #0
	bge	.L78
	.loc 1 78 0
	movs	r3, #0
	str	r3, [r4, #32]
.LVL170:
	b	.L78
.LVL171:
.L191:
.LBE97:
.LBE98:
.LBE138:
.LBB139:
	.loc 1 297 0
	ldrh	r3, [sp, #52]
	ldr	r1, [r4, #8]
	ldr	r0, [r4, #16]
	movs	r2, #4
	str	r3, [sp]
	movs	r3, #0
	bl	MQTTSerialize_ack
.LVL172:
	mov	fp, r0
.LVL173:
.L89:
	.loc 1 300 0
	cmp	fp, #0
	ble	.L90
	movs	r3, #0
	str	r3, [sp, #24]
.LVL174:
.L93:
.LBB126:
.LBB127:
	.loc 1 60 0
	mov	r0, r6
	bl	TimerIsExpired
.LVL175:
	cbnz	r0, .L92
	.loc 1 62 0
	ldr	r3, [r4, #16]
	ldr	r9, [r4, #80]
	ldr	r2, [sp, #24]
	mov	r0, r6
	adds	r1, r3, r2
	ldr	r3, [r9, #8]
	str	r1, [sp, #28]
	mov	r5, r3
	bl	TimerLeftMS
.LVL176:
	mov	r2, fp
	mov	r3, r0
	ldr	r1, [sp, #28]
	mov	r0, r9
	blx	r5
.LVL177:
	.loc 1 63 0
	cmp	r0, #0
	blt	.L92
	.loc 1 65 0
	ldr	r3, [sp, #24]
	add	r3, r3, r0
	.loc 1 60 0
	cmp	fp, r3
	.loc 1 65 0
	str	r3, [sp, #24]
.LVL178:
	.loc 1 60 0
	bgt	.L93
.LVL179:
.L92:
	.loc 1 67 0
	ldr	r3, [sp, #24]
	cmp	fp, r3
	beq	.L176
.LVL180:
	.loc 1 74 0
	bl	rtw_get_current_time
.LVL181:
	mov	r1, r0
	ldr	r0, .L195
	bl	__wrap_printf
.LVL182:
	ldr	r0, .L195+12
	bl	__wrap_printf
.LVL183:
	ldr	r0, .L195+8
	bl	__wrap_printf
.LVL184:
	b	.L175
.LVL185:
.L192:
.LBE127:
.LBE126:
	.loc 1 299 0
	ldrh	r3, [sp, #52]
	ldr	r1, [r4, #8]
	ldr	r0, [r4, #16]
	movs	r2, #5
	str	r3, [sp]
	movs	r3, #0
	bl	MQTTSerialize_ack
.LVL186:
	mov	fp, r0
.LVL187:
	b	.L89
.LVL188:
.L189:
.LBE139:
.LBB140:
.LBB120:
	.loc 1 248 0
	add	r3, r4, #84
	mov	r0, r3
	str	r3, [sp, #28]
	bl	TimerIsExpired
.LVL189:
	cmp	r0, #0
	beq	.L68
	.loc 1 250 0
	ldrb	r3, [r4, #28]	@ zero_extendqisi2
	cmp	r3, #0
	bne	.L127
	str	r3, [sp, #24]
	add	r5, sp, #48
	b	.L142
.L196:
	.align	2
.L195:
	.word	.LC1
	.word	.LC5
	.word	.LC3
	.word	.LC2
.LBE120:
.LBE140:
	.cfi_endproc
.LFE184:
	.size	cycle, .-cycle
	.section	.text.MQTTYield,"ax",%progbits
	.align	1
	.p2align 2,,3
	.global	MQTTYield
	.syntax unified
	.thumb
	.thumb_func
	.fpu softvfp
	.type	MQTTYield, %function
MQTTYield:
.LFB185:
	.loc 1 358 0
	.cfi_startproc
	@ args = 0, pretend = 0, frame = 16
	@ frame_needed = 0, uses_anonymous_args = 0
.LVL190:
	push	{r4, r5, lr}
	.cfi_def_cfa_offset 12
	.cfi_offset 4, -12
	.cfi_offset 5, -8
	.cfi_offset 14, -4
	mov	r5, r1
	sub	sp, sp, #20
	.cfi_def_cfa_offset 32
	.loc 1 358 0
	mov	r4, r0
	.loc 1 362 0
	add	r0, sp, #4
.LVL191:
	bl	TimerInit
.LVL192:
	.loc 1 363 0
	mov	r1, r5
	add	r0, sp, #4
	bl	TimerCountdownMS
.LVL193:
	b	.L199
.L207:
	.loc 1 372 0
	add	r0, sp, #4
	bl	TimerIsExpired
.LVL194:
	cbnz	r0, .L206
.L199:
	.loc 1 367 0
	add	r1, sp, #4
	mov	r0, r4
	bl	cycle
.LVL195:
	adds	r3, r0, #1
	bne	.L207
	.loc 1 375 0
	add	sp, sp, #20
	.cfi_remember_state
	.cfi_def_cfa_offset 12
	@ sp needed
	pop	{r4, r5, pc}
.LVL196:
.L206:
	.cfi_restore_state
	.loc 1 359 0
	movs	r0, #0
	.loc 1 375 0
	add	sp, sp, #20
	.cfi_def_cfa_offset 12
	@ sp needed
	pop	{r4, r5, pc}
	.cfi_endproc
.LFE185:
	.size	MQTTYield, .-MQTTYield
	.section	.text.waitfor,"ax",%progbits
	.align	1
	.p2align 2,,3
	.global	waitfor
	.syntax unified
	.thumb
	.thumb_func
	.fpu softvfp
	.type	waitfor, %function
waitfor:
.LFB186:
	.loc 1 378 0
	.cfi_startproc
	@ args = 0, pretend = 0, frame = 0
	@ frame_needed = 0, uses_anonymous_args = 0
.LVL197:
	push	{r3, r4, r5, r6, r7, lr}
	.cfi_def_cfa_offset 24
	.cfi_offset 3, -24
	.cfi_offset 4, -20
	.cfi_offset 5, -16
	.cfi_offset 6, -12
	.cfi_offset 7, -8
	.cfi_offset 14, -4
	.loc 1 378 0
	mov	r7, r0
	mov	r6, r1
	mov	r5, r2
	.loc 1 379 0
	mov	r4, #-1
	b	.L210
.LVL198:
.L213:
	.loc 1 386 0
	mov	r1, r5
	mov	r0, r7
	bl	cycle
.LVL199:
	cmp	r0, r6
	mov	r4, r0
.LVL200:
	beq	.L208
.LVL201:
.L210:
	.loc 1 383 0
	mov	r0, r5
	bl	TimerIsExpired
.LVL202:
	cmp	r0, #0
	beq	.L213
.L208:
	.loc 1 389 0
	mov	r0, r4
	pop	{r3, r4, r5, r6, r7, pc}
	.cfi_endproc
.LFE186:
	.size	waitfor, .-waitfor
	.section	.text.MQTTConnect,"ax",%progbits
	.align	1
	.p2align 2,,3
	.global	MQTTConnect
	.syntax unified
	.thumb
	.thumb_func
	.fpu softvfp
	.type	MQTTConnect, %function
MQTTConnect:
.LFB187:
	.loc 1 393 0
	.cfi_startproc
	@ args = 0, pretend = 0, frame = 104
	@ frame_needed = 0, uses_anonymous_args = 0
.LVL203:
	push	{r4, r5, r6, r7, r8, r9, r10, lr}
	.cfi_def_cfa_offset 32
	.cfi_offset 4, -32
	.cfi_offset 5, -28
	.cfi_offset 6, -24
	.cfi_offset 7, -20
	.cfi_offset 8, -16
	.cfi_offset 9, -12
	.cfi_offset 10, -8
	.cfi_offset 14, -4
	mov	r6, r0
	sub	sp, sp, #104
	.cfi_def_cfa_offset 136
	.loc 1 396 0
	add	r3, sp, #16
	.loc 1 393 0
	mov	r5, r1
	.loc 1 396 0
	mov	r0, r3
.LVL204:
	movs	r2, #88
	ldr	r1, .L244
.LVL205:
	bl	memcpy
.LVL206:
	.loc 1 399 0
	ldr	r4, [r6, #32]
	cmp	r4, #0
	bne	.L235
	.loc 1 406 0
	cmp	r5, #0
	it	eq
	moveq	r5, r0
.LVL207:
	.loc 1 402 0
	add	r0, sp, #4
	bl	TimerInit
.LVL208:
	.loc 1 403 0
	add	r0, sp, #4
	ldr	r1, [r6, #4]
	bl	TimerCountdownMS
.LVL209:
	.loc 1 408 0
	ldrh	r1, [r5, #24]
	.loc 1 409 0
	add	r10, r6, #84
	.loc 1 408 0
	str	r1, [r6, #24]
	.loc 1 409 0
	mov	r0, r10
	bl	TimerCountdown
.LVL210:
	.loc 1 410 0
	mov	r2, r5
	ldr	r1, [r6, #8]
	ldr	r0, [r6, #16]
	bl	MQTTSerialize_connect
.LVL211:
	subs	r8, r0, #0
	ble	.L235
.LVL212:
.L221:
.LBB146:
.LBB147:
	.loc 1 60 0
	add	r0, sp, #4
	bl	TimerIsExpired
.LVL213:
	cbnz	r0, .L220
	.loc 1 62 0
	ldr	r1, [r6, #16]
	ldr	r7, [r6, #80]
	add	r0, sp, #4
	adds	r5, r1, r4
	ldr	r9, [r7, #8]
	bl	TimerLeftMS
.LVL214:
	mov	r2, r8
	mov	r3, r0
	mov	r1, r5
	mov	r0, r7
	blx	r9
.LVL215:
	.loc 1 63 0
	cmp	r0, #0
	blt	.L220
	.loc 1 65 0
	add	r4, r4, r0
.LVL216:
	.loc 1 60 0
	cmp	r8, r4
	bgt	.L221
.LVL217:
.L220:
	.loc 1 67 0
	cmp	r8, r4
	bne	.L223
	.loc 1 69 0
	mov	r0, r10
	ldr	r1, [r6, #24]
	bl	TimerCountdown
.LVL218:
	.loc 1 77 0
	ldr	r3, [r6, #80]
	ldr	r3, [r3]
	cmp	r3, #0
	bge	.L228
	.loc 1 78 0
	movs	r3, #0
	str	r3, [r6, #32]
.LVL219:
	b	.L228
.L242:
.LBE147:
.LBE146:
.LBB151:
.LBB152:
	.loc 1 386 0
	add	r1, sp, #4
	mov	r0, r6
	bl	cycle
.LVL220:
	cmp	r0, #2
	beq	.L241
.LVL221:
.L228:
	.loc 1 383 0
	add	r0, sp, #4
	bl	TimerIsExpired
.LVL222:
	mov	r4, r0
	cmp	r0, #0
	beq	.L242
.LBE152:
.LBE151:
	.loc 1 427 0
	bl	rtw_get_current_time
.LVL223:
	mov	r1, r0
	ldr	r0, .L244+4
	bl	__wrap_printf
.LVL224:
	ldr	r0, .L244+8
	bl	__wrap_printf
.LVL225:
	ldr	r0, .L244+12
	bl	__wrap_printf
.LVL226:
	mov	r0, #-1
	.loc 1 436 0
	add	sp, sp, #104
	.cfi_remember_state
	.cfi_def_cfa_offset 32
	@ sp needed
	pop	{r4, r5, r6, r7, r8, r9, r10, pc}
.LVL227:
.L223:
	.cfi_restore_state
.LBB153:
.LBB148:
	.loc 1 74 0
	bl	rtw_get_current_time
.LVL228:
	mov	r1, r0
	ldr	r0, .L244+4
	bl	__wrap_printf
.LVL229:
	ldr	r0, .L244+16
	bl	__wrap_printf
.LVL230:
	ldr	r0, .L244+12
	bl	__wrap_printf
.LVL231:
	.loc 1 77 0
	ldr	r3, [r6, #80]
	ldr	r3, [r3]
	cmp	r3, #0
	blt	.L243
.LVL232:
.L235:
.LBE148:
.LBE153:
.LBB154:
	.loc 1 424 0
	mov	r0, #-1
.LVL233:
.L214:
.LBE154:
	.loc 1 436 0
	add	sp, sp, #104
	.cfi_remember_state
	.cfi_def_cfa_offset 32
	@ sp needed
	pop	{r4, r5, r6, r7, r8, r9, r10, pc}
.LVL234:
.L241:
	.cfi_restore_state
.LBB155:
	.loc 1 419 0
	movs	r5, #255
	.loc 1 421 0
	ldr	r3, [r6, #12]
	ldr	r2, [r6, #20]
	add	r1, sp, #2
	add	r0, sp, #3
	.loc 1 420 0
	strb	r4, [sp, #3]
	.loc 1 419 0
	strb	r5, [sp, #2]
	.loc 1 421 0
	bl	MQTTDeserialize_connack
.LVL235:
	cmp	r0, #1
	mov	r3, r0
	bne	.L235
	.loc 1 422 0
	ldrb	r0, [sp, #2]	@ zero_extendqisi2
.LDL4:
.LVL236:
.LBE155:
	.loc 1 432 0
	cmp	r0, #0
	bne	.L214
.LVL237:
.L237:
.LBB156:
.LBB149:
	.loc 1 78 0
	str	r3, [r6, #32]
.LBE149:
.LBE156:
	.loc 1 436 0
	add	sp, sp, #104
	.cfi_remember_state
	.cfi_def_cfa_offset 32
	@ sp needed
	pop	{r4, r5, r6, r7, r8, r9, r10, pc}
.LVL238:
.L243:
	.cfi_restore_state
.LBB157:
.LBB150:
	.loc 1 78 0
	movs	r3, #0
	mov	r0, #-1
	b	.L237
.L245:
	.align	2
.L244:
	.word	.LANCHOR0
	.word	.LC1
	.word	.LC8
	.word	.LC3
	.word	.LC2
.LBE150:
.LBE157:
	.cfi_endproc
.LFE187:
	.size	MQTTConnect, .-MQTTConnect
	.section	.text.MQTTSubscribe,"ax",%progbits
	.align	1
	.p2align 2,,3
	.global	MQTTSubscribe
	.syntax unified
	.thumb
	.thumb_func
	.fpu softvfp
	.type	MQTTSubscribe, %function
MQTTSubscribe:
.LFB188:
	.loc 1 440 0
	.cfi_startproc
	@ args = 0, pretend = 0, frame = 48
	@ frame_needed = 0, uses_anonymous_args = 0
.LVL239:
	push	{r4, r5, r6, r7, r8, r9, r10, fp, lr}
	.cfi_def_cfa_offset 36
	.cfi_offset 4, -36
	.cfi_offset 5, -32
	.cfi_offset 6, -28
	.cfi_offset 7, -24
	.cfi_offset 8, -20
	.cfi_offset 9, -16
	.cfi_offset 10, -12
	.cfi_offset 11, -8
	.cfi_offset 14, -4
	.loc 1 444 0
	movs	r4, #0
	.loc 1 447 0
	ldr	r5, [r0, #32]
	.loc 1 440 0
	sub	sp, sp, #68
	.cfi_def_cfa_offset 104
	.loc 1 445 0
	str	r1, [sp, #52]
	.loc 1 440 0
	strb	r2, [sp, #23]
	.loc 1 444 0
	str	r4, [sp, #56]
	str	r4, [sp, #60]
	.loc 1 447 0
	cmp	r5, #0
	beq	.L250
	mov	r6, r0
	.loc 1 450 0
	add	r0, sp, #40
.LVL240:
	mov	r10, r3
	mov	r9, r1
	bl	TimerInit
.LVL241:
	.loc 1 451 0
	add	r0, sp, #40
	ldr	r1, [r6, #4]
	bl	TimerCountdownMS
.LVL242:
.LBB166:
.LBB167:
	.loc 1 51 0
	movw	r3, #65535
	ldr	r2, [r6]
.LBE167:
.LBE166:
	.loc 1 453 0
	movs	r5, #1
.LBB169:
.LBB168:
	.loc 1 51 0
	cmp	r2, r3
	itte	eq
	moveq	r3, #1
	moveq	r2, r3
	addne	r2, r2, #1
	str	r2, [r6]
	it	ne
	uxthne	r3, r2
.LBE168:
.LBE169:
	.loc 1 453 0
	add	r4, sp, #23
	add	r2, sp, #52
	ldr	r0, [r6, #16]
	ldr	r1, [r6, #8]
.LVL243:
	str	r2, [sp, #4]
	str	r5, [sp]
	str	r4, [sp, #8]
	movs	r2, #0
	bl	MQTTSerialize_subscribe
.LVL244:
	.loc 1 454 0
	subs	r8, r0, #0
	ble	.L250
	movs	r4, #0
.LVL245:
.L253:
.LBB170:
.LBB171:
	.loc 1 60 0
	add	r0, sp, #40
	bl	TimerIsExpired
.LVL246:
	cbnz	r0, .L252
	.loc 1 62 0
	ldr	r1, [r6, #16]
	ldr	r7, [r6, #80]
	add	r0, sp, #40
	adds	r5, r1, r4
	ldr	fp, [r7, #8]
	bl	TimerLeftMS
.LVL247:
	mov	r2, r8
	mov	r3, r0
	mov	r1, r5
	mov	r0, r7
	blx	fp
.LVL248:
	.loc 1 63 0
	cmp	r0, #0
	blt	.L252
	.loc 1 65 0
	add	r4, r4, r0
.LVL249:
	.loc 1 60 0
	cmp	r8, r4
	bgt	.L253
.LVL250:
.L252:
	.loc 1 67 0
	cmp	r8, r4
	bne	.L255
	.loc 1 69 0
	ldr	r1, [r6, #24]
	add	r0, r6, #84
	bl	TimerCountdown
.LVL251:
	.loc 1 77 0
	ldr	r3, [r6, #80]
	ldr	r3, [r3]
	cmp	r3, #0
	bge	.L259
	.loc 1 78 0
	movs	r3, #0
.LBE171:
.LBE170:
.LBB174:
.LBB175:
	.loc 1 383 0
	add	r0, sp, #40
.LBE175:
.LBE174:
.LBB177:
.LBB172:
	.loc 1 78 0
	str	r3, [r6, #32]
.LVL252:
.LBE172:
.LBE177:
.LBB178:
.LBB176:
	.loc 1 383 0
	bl	TimerIsExpired
.LVL253:
	mov	r4, r0
	cbnz	r0, .L250
.L283:
	.loc 1 386 0
	add	r1, sp, #40
	mov	r0, r6
	bl	cycle
.LVL254:
	cmp	r0, #9
	beq	.L282
.LVL255:
.L259:
	.loc 1 383 0
	add	r0, sp, #40
	bl	TimerIsExpired
.LVL256:
	mov	r4, r0
	cmp	r0, #0
	beq	.L283
.LVL257:
.L250:
.LBE176:
.LBE178:
	.loc 1 441 0
	mov	r0, #-1
.L246:
	.loc 1 494 0
	add	sp, sp, #68
	.cfi_remember_state
	.cfi_def_cfa_offset 36
	@ sp needed
	pop	{r4, r5, r6, r7, r8, r9, r10, fp, pc}
.LVL258:
.L282:
	.cfi_restore_state
.LBB179:
	.loc 1 462 0
	mov	r0, #-1
	.loc 1 464 0
	ldr	r1, [r6, #12]
	ldr	r2, [r6, #20]
	.loc 1 462 0
	add	r3, sp, #64
	str	r0, [r3, #-28]!
	.loc 1 464 0
	str	r1, [sp, #4]
	str	r2, [sp]
	movs	r1, #1
	add	r2, sp, #32
	add	r0, sp, #30
	.loc 1 462 0
	str	r4, [sp, #32]
	.loc 1 464 0
	bl	MQTTDeserialize_suback
.LVL259:
	cmp	r0, #1
	beq	.L265
	mov	r0, r4
.L266:
.LVL260:
.LBB180:
	.loc 1 471 0 discriminator 1
	ldr	r3, [r6, #36]
	cmp	r9, r3
	beq	.L279
.LVL261:
	.loc 1 471 0 is_stmt 0
	ldr	r2, [r6, #44]
	cmp	r9, r2
	beq	.L279
.LVL262:
	ldr	r1, [r6, #52]
	cmp	r9, r1
	beq	.L279
.LVL263:
	ldr	r4, [r6, #60]
	cmp	r9, r4
	beq	.L279
.LVL264:
	ldr	r5, [r6, #68]
	cmp	r9, r5
	beq	.L279
.LVL265:
	.loc 1 479 0 is_stmt 1 discriminator 2
	cbz	r3, .L264
.LVL266:
	.loc 1 479 0 is_stmt 0
	cbz	r2, .L269
.LVL267:
	cbz	r1, .L270
.LVL268:
	cbz	r4, .L271
.LVL269:
	.loc 1 477 0 is_stmt 1
	movs	r3, #4
	.loc 1 479 0
	cmp	r5, #0
	bne	.L246
.LVL270:
.L264:
.L248:
	add	r3, r6, r3, lsl #3
	.loc 1 481 0
	str	r9, [r3, #36]
	.loc 1 482 0
	str	r10, [r3, #40]
.L279:
.LVL271:
	.loc 1 483 0
	movs	r0, #0
.LBE180:
.LBE179:
	.loc 1 493 0
	b	.L246
.LVL272:
.L265:
.LBB182:
	.loc 1 465 0
	ldr	r0, [sp, #36]
.LVL273:
	.loc 1 466 0
	cmp	r0, #128
	beq	.L246
	b	.L266
.LVL274:
.L255:
.LBE182:
.LBB183:
.LBB173:
	.loc 1 74 0
	bl	rtw_get_current_time
.LVL275:
	mov	r1, r0
	ldr	r0, .L284
	bl	__wrap_printf
.LVL276:
	ldr	r0, .L284+4
	bl	__wrap_printf
.LVL277:
	ldr	r0, .L284+8
	bl	__wrap_printf
.LVL278:
	.loc 1 77 0
	ldr	r3, [r6, #80]
	ldr	r3, [r3]
	cmp	r3, #0
	bge	.L250
	.loc 1 78 0
	movs	r3, #0
	mov	r0, #-1
	str	r3, [r6, #32]
.LVL279:
	b	.L246
.LVL280:
.L270:
.LBE173:
.LBE183:
.LBB184:
.LBB181:
	.loc 1 477 0
	movs	r3, #2
	b	.L264
.LVL281:
.L269:
	movs	r3, #1
	b	.L264
.LVL282:
.L271:
	movs	r3, #3
	b	.L264
.L285:
	.align	2
.L284:
	.word	.LC1
	.word	.LC2
	.word	.LC3
.LBE181:
.LBE184:
	.cfi_endproc
.LFE188:
	.size	MQTTSubscribe, .-MQTTSubscribe
	.section	.text.MQTTUnsubscribe,"ax",%progbits
	.align	1
	.p2align 2,,3
	.global	MQTTUnsubscribe
	.syntax unified
	.thumb
	.thumb_func
	.fpu softvfp
	.type	MQTTUnsubscribe, %function
MQTTUnsubscribe:
.LFB189:
	.loc 1 498 0
	.cfi_startproc
	@ args = 0, pretend = 0, frame = 32
	@ frame_needed = 0, uses_anonymous_args = 0
.LVL283:
	.loc 1 501 0
	movs	r3, #0
	.loc 1 498 0
	push	{r4, r5, r6, r7, r8, r9, r10, lr}
	.cfi_def_cfa_offset 32
	.cfi_offset 4, -32
	.cfi_offset 5, -28
	.cfi_offset 6, -24
	.cfi_offset 7, -20
	.cfi_offset 8, -16
	.cfi_offset 9, -12
	.cfi_offset 10, -8
	.cfi_offset 14, -4
	.loc 1 505 0
	ldr	r2, [r0, #32]
	.loc 1 498 0
	sub	sp, sp, #40
	.cfi_def_cfa_offset 72
	.loc 1 502 0
	str	r1, [sp, #28]
.LVL284:
	.loc 1 501 0
	str	r3, [sp, #32]
	str	r3, [sp, #36]
	.loc 1 505 0
	cmp	r2, #0
	beq	.L290
	mov	r6, r0
	.loc 1 508 0
	add	r0, sp, #16
.LVL285:
	mov	r10, r1
	bl	TimerInit
.LVL286:
	.loc 1 509 0
	add	r0, sp, #16
	ldr	r1, [r6, #4]
	bl	TimerCountdownMS
.LVL287:
.LBB192:
.LBB193:
	.loc 1 51 0
	movw	r3, #65535
	ldr	r2, [r6]
.LBE193:
.LBE192:
	.loc 1 511 0
	movs	r4, #1
.LBB195:
.LBB194:
	.loc 1 51 0
	cmp	r2, r3
	itte	eq
	moveq	r3, #1
	moveq	r2, r3
	addne	r2, r2, #1
	str	r2, [r6]
	it	ne
	uxthne	r3, r2
.LBE194:
.LBE195:
	.loc 1 511 0
	add	r2, sp, #28
	ldr	r0, [r6, #16]
	ldr	r1, [r6, #8]
.LVL288:
	str	r2, [sp, #4]
	str	r4, [sp]
	movs	r2, #0
	bl	MQTTSerialize_unsubscribe
.LVL289:
	subs	r8, r0, #0
	ble	.L290
	movs	r4, #0
.LVL290:
.L293:
.LBB196:
.LBB197:
	.loc 1 60 0
	add	r0, sp, #16
	bl	TimerIsExpired
.LVL291:
	cbnz	r0, .L292
	.loc 1 62 0
	ldr	r1, [r6, #16]
	ldr	r7, [r6, #80]
	add	r0, sp, #16
	adds	r5, r1, r4
	ldr	r9, [r7, #8]
	bl	TimerLeftMS
.LVL292:
	mov	r2, r8
	mov	r3, r0
	mov	r1, r5
	mov	r0, r7
	blx	r9
.LVL293:
	.loc 1 63 0
	cmp	r0, #0
	blt	.L292
	.loc 1 65 0
	add	r4, r4, r0
.LVL294:
	.loc 1 60 0
	cmp	r8, r4
	bgt	.L293
.LVL295:
.L292:
	.loc 1 67 0
	cmp	r8, r4
	bne	.L295
	.loc 1 69 0
	ldr	r1, [r6, #24]
	add	r0, r6, #84
	bl	TimerCountdown
.LVL296:
	.loc 1 77 0
	ldr	r3, [r6, #80]
	ldr	r3, [r3]
	cmp	r3, #0
	bge	.L299
	.loc 1 78 0
	movs	r3, #0
.LBE197:
.LBE196:
.LBB200:
.LBB201:
	.loc 1 383 0
	add	r0, sp, #16
.LBE201:
.LBE200:
.LBB203:
.LBB198:
	.loc 1 78 0
	str	r3, [r6, #32]
.LVL297:
.LBE198:
.LBE203:
.LBB204:
.LBB202:
	.loc 1 383 0
	bl	TimerIsExpired
.LVL298:
	mov	r4, r0
	cbnz	r0, .L290
.L316:
	.loc 1 386 0
	add	r1, sp, #16
	mov	r0, r6
	bl	cycle
.LVL299:
	cmp	r0, #11
	beq	.L315
.LVL300:
.L299:
	.loc 1 383 0
	add	r0, sp, #16
	bl	TimerIsExpired
.LVL301:
	mov	r4, r0
	cmp	r0, #0
	beq	.L316
.LVL302:
.L290:
.LBE202:
.LBE204:
	.loc 1 499 0
	mov	r0, #-1
.L286:
	.loc 1 537 0
	add	sp, sp, #40
	.cfi_remember_state
	.cfi_def_cfa_offset 32
	@ sp needed
	pop	{r4, r5, r6, r7, r8, r9, r10, pc}
.LVL303:
.L315:
	.cfi_restore_state
.LBB205:
	.loc 1 520 0
	ldr	r2, [r6, #12]
	ldr	r1, [r6, #20]
	add	r0, sp, #14
	bl	MQTTDeserialize_unsuback
.LVL304:
	.loc 1 525 0
	ldr	r3, [r6, #36]
	cmp	r10, r3
	ldr	r3, [r6, #44]
	.loc 1 527 0
	itt	eq
	streq	r4, [r6, #36]
	.loc 1 528 0
	streq	r4, [r6, #40]
.LVL305:
	.loc 1 525 0
	cmp	r10, r3
	beq	.L317
.L302:
.LVL306:
	ldr	r3, [r6, #52]
	cmp	r10, r3
	beq	.L318
.L303:
.LVL307:
	ldr	r3, [r6, #60]
	cmp	r10, r3
	beq	.L319
.L304:
.LVL308:
	ldr	r3, [r6, #68]
	cmp	r10, r3
	beq	.L320
.L306:
.L288:
.LVL309:
.LBE205:
	movs	r0, #0
	.loc 1 537 0 discriminator 2
	add	sp, sp, #40
	.cfi_remember_state
	.cfi_def_cfa_offset 32
	@ sp needed
	pop	{r4, r5, r6, r7, r8, r9, r10, pc}
.LVL310:
.L295:
	.cfi_restore_state
.LBB206:
.LBB199:
	.loc 1 74 0
	bl	rtw_get_current_time
.LVL311:
	mov	r1, r0
	ldr	r0, .L321
	bl	__wrap_printf
.LVL312:
	ldr	r0, .L321+4
	bl	__wrap_printf
.LVL313:
	ldr	r0, .L321+8
	bl	__wrap_printf
.LVL314:
	.loc 1 77 0
	ldr	r3, [r6, #80]
	ldr	r3, [r3]
	cmp	r3, #0
	bge	.L290
	.loc 1 78 0
	movs	r3, #0
	mov	r0, #-1
	str	r3, [r6, #32]
.LVL315:
	b	.L286
.LVL316:
.L320:
.LBE199:
.LBE206:
.LBB207:
	.loc 1 527 0
	movs	r3, #0
	str	r3, [r6, #68]
	.loc 1 528 0
	str	r3, [r6, #72]
	b	.L306
.LVL317:
.L317:
	.loc 1 527 0
	movs	r3, #0
	str	r3, [r6, #44]
	.loc 1 528 0
	str	r3, [r6, #48]
	b	.L302
.LVL318:
.L318:
	.loc 1 527 0
	movs	r3, #0
	str	r3, [r6, #52]
	.loc 1 528 0
	str	r3, [r6, #56]
	b	.L303
.LVL319:
.L319:
	.loc 1 527 0
	movs	r3, #0
	str	r3, [r6, #60]
	.loc 1 528 0
	str	r3, [r6, #64]
	b	.L304
.L322:
	.align	2
.L321:
	.word	.LC1
	.word	.LC2
	.word	.LC3
.LBE207:
	.cfi_endproc
.LFE189:
	.size	MQTTUnsubscribe, .-MQTTUnsubscribe
	.section	.text.MQTTPublish,"ax",%progbits
	.align	1
	.p2align 2,,3
	.global	MQTTPublish
	.syntax unified
	.thumb
	.thumb_func
	.fpu softvfp
	.type	MQTTPublish, %function
MQTTPublish:
.LFB190:
	.loc 1 541 0
	.cfi_startproc
	@ args = 0, pretend = 0, frame = 32
	@ frame_needed = 0, uses_anonymous_args = 0
.LVL320:
	.loc 1 544 0
	movs	r3, #0
	.loc 1 541 0
	push	{r4, r5, r6, r7, r8, r9, r10, lr}
	.cfi_def_cfa_offset 32
	.cfi_offset 4, -32
	.cfi_offset 5, -28
	.cfi_offset 6, -24
	.cfi_offset 7, -20
	.cfi_offset 8, -16
	.cfi_offset 9, -12
	.cfi_offset 10, -8
	.cfi_offset 14, -4
	.loc 1 548 0
	ldr	r4, [r0, #32]
	.loc 1 541 0
	sub	sp, sp, #64
	.cfi_def_cfa_offset 96
	.loc 1 545 0
	str	r1, [sp, #52]
.LVL321:
	.loc 1 544 0
	str	r3, [sp, #56]
	str	r3, [sp, #60]
	.loc 1 548 0
	cmp	r4, #0
	beq	.L355
	mov	r6, r0
	mov	r10, r2
	.loc 1 551 0
	add	r0, sp, #40
.LVL322:
	bl	TimerInit
.LVL323:
	.loc 1 552 0
	add	r0, sp, #40
	ldr	r1, [r6, #4]
	bl	TimerCountdownMS
.LVL324:
	.loc 1 554 0
	ldrb	r3, [r10]	@ zero_extendqisi2
	subs	r2, r3, #1
	cmp	r2, #1
	bls	.L325
	ldrh	r5, [r10, #4]
.L326:
	.loc 1 557 0
	ldr	r2, [r10, #12]
	ldr	r1, [r10, #8]
	ldr	ip, [r6, #8]
	ldr	r7, [r6, #16]
	add	r4, sp, #8
	str	r2, [sp, #24]
	str	r1, [sp, #20]
	add	r2, sp, #64
	ldmdb	r2, {r0, r1, r2}
	stm	r4, {r0, r1, r2}
	ldrb	r2, [r10, #1]	@ zero_extendqisi2
	mov	r1, ip
	str	r2, [sp]
	str	r5, [sp, #4]
	mov	r0, r7
	movs	r2, #0
	bl	MQTTSerialize_publish
.LVL325:
	.loc 1 559 0
	subs	r8, r0, #0
	ble	.L355
	movs	r4, #0
.LVL326:
.L330:
.LBB218:
.LBB219:
	.loc 1 60 0
	add	r0, sp, #40
	bl	TimerIsExpired
.LVL327:
	cbnz	r0, .L329
	.loc 1 62 0
	ldr	r1, [r6, #16]
	ldr	r7, [r6, #80]
	add	r0, sp, #40
	adds	r5, r1, r4
	ldr	r9, [r7, #8]
	bl	TimerLeftMS
.LVL328:
	mov	r2, r8
	mov	r3, r0
	mov	r1, r5
	mov	r0, r7
	blx	r9
.LVL329:
	.loc 1 63 0
	cmp	r0, #0
	blt	.L329
	.loc 1 65 0
	add	r4, r4, r0
.LVL330:
	.loc 1 60 0
	cmp	r8, r4
	bgt	.L330
.LVL331:
.L329:
	.loc 1 67 0
	cmp	r8, r4
	bne	.L332
	.loc 1 69 0
	ldr	r1, [r6, #24]
	add	r0, r6, #84
	bl	TimerCountdown
.LVL332:
	.loc 1 77 0
	ldr	r3, [r6, #80]
	ldr	r3, [r3]
	cmp	r3, #0
	blt	.L357
.LVL333:
.L334:
.LBE219:
.LBE218:
	.loc 1 565 0
	ldrb	r3, [r10]	@ zero_extendqisi2
	cmp	r3, #1
	beq	.L338
	.loc 1 579 0
	cmp	r3, #2
	beq	.L342
.L340:
.LVL334:
	movs	r0, #0
.LVL335:
.L323:
	.loc 1 596 0
	add	sp, sp, #64
	.cfi_remember_state
	.cfi_def_cfa_offset 32
	@ sp needed
	pop	{r4, r5, r6, r7, r8, r9, r10, pc}
.LVL336:
.L358:
	.cfi_restore_state
.LBB222:
.LBB223:
	.loc 1 386 0
	add	r1, sp, #40
	mov	r0, r6
	bl	cycle
.LVL337:
	cmp	r0, #4
	beq	.L353
.LVL338:
.L338:
	.loc 1 383 0
	add	r0, sp, #40
	bl	TimerIsExpired
.LVL339:
	cmp	r0, #0
	beq	.L358
.LVL340:
.LBE223:
.LBE222:
	.loc 1 576 0
	bl	rtw_get_current_time
.LVL341:
	mov	r1, r0
	ldr	r0, .L360
	bl	__wrap_printf
.LVL342:
	ldr	r0, .L360+4
	bl	__wrap_printf
.LVL343:
	ldr	r0, .L360+8
	bl	__wrap_printf
.LVL344:
.L355:
	.loc 1 575 0
	mov	r0, #-1
	.loc 1 596 0
	add	sp, sp, #64
	.cfi_remember_state
	.cfi_def_cfa_offset 32
	@ sp needed
	pop	{r4, r5, r6, r7, r8, r9, r10, pc}
.LVL345:
.L359:
	.cfi_restore_state
.LBB224:
.LBB225:
	.loc 1 386 0
	add	r1, sp, #40
	mov	r0, r6
	bl	cycle
.LVL346:
	cmp	r0, #7
	beq	.L353
.LVL347:
.L342:
	.loc 1 383 0
	add	r0, sp, #40
	bl	TimerIsExpired
.LVL348:
	cmp	r0, #0
	beq	.L359
.LVL349:
.LBE225:
.LBE224:
	.loc 1 590 0
	bl	rtw_get_current_time
.LVL350:
	mov	r1, r0
	ldr	r0, .L360
	bl	__wrap_printf
.LVL351:
	ldr	r0, .L360+12
	bl	__wrap_printf
.LVL352:
	ldr	r0, .L360+8
	bl	__wrap_printf
.LVL353:
	.loc 1 589 0
	mov	r0, #-1
	b	.L323
.LVL354:
.L357:
.LBB226:
.LBB220:
	.loc 1 78 0
	movs	r3, #0
	str	r3, [r6, #32]
.LVL355:
	b	.L334
.LVL356:
.L325:
.LBE220:
.LBE226:
.LBB227:
.LBB228:
	.loc 1 51 0
	movw	r1, #65535
	ldr	r2, [r6]
	cmp	r2, r1
	ittee	eq
	moveq	r5, #1
	moveq	r2, r5
	addne	r2, r2, #1
	uxthne	r5, r2
	str	r2, [r6]
.LBE228:
.LBE227:
	.loc 1 555 0
	strh	r5, [r10, #4]	@ movhi
	b	.L326
.LVL357:
.L353:
.LBB229:
	.loc 1 585 0
	ldr	r2, [r6, #12]
	ldr	r3, [r6, #20]
	add	r1, sp, #36
	str	r2, [sp]
	add	r0, sp, #37
	add	r2, sp, #38
	bl	MQTTDeserialize_ack
.LVL358:
	adds	r0, r0, #-1
	it	ne
	movne	r0, #-1
.LVL359:
.LBE229:
	.loc 1 596 0
	add	sp, sp, #64
	.cfi_remember_state
	.cfi_def_cfa_offset 32
	@ sp needed
	pop	{r4, r5, r6, r7, r8, r9, r10, pc}
.LVL360:
.L332:
	.cfi_restore_state
.LBB230:
.LBB221:
	.loc 1 74 0
	bl	rtw_get_current_time
.LVL361:
	mov	r1, r0
	ldr	r0, .L360
	bl	__wrap_printf
.LVL362:
	ldr	r0, .L360+16
	bl	__wrap_printf
.LVL363:
	ldr	r0, .L360+8
	bl	__wrap_printf
.LVL364:
	.loc 1 77 0
	ldr	r3, [r6, #80]
	ldr	r3, [r3]
	cmp	r3, #0
	bge	.L355
	.loc 1 78 0
	movs	r3, #0
	mov	r0, #-1
	str	r3, [r6, #32]
.LVL365:
	b	.L323
.L361:
	.align	2
.L360:
	.word	.LC1
	.word	.LC9
	.word	.LC3
	.word	.LC10
	.word	.LC2
.LBE221:
.LBE230:
	.cfi_endproc
.LFE190:
	.size	MQTTPublish, .-MQTTPublish
	.section	.text.MQTTDisconnect,"ax",%progbits
	.align	1
	.p2align 2,,3
	.global	MQTTDisconnect
	.syntax unified
	.thumb
	.thumb_func
	.fpu softvfp
	.type	MQTTDisconnect, %function
MQTTDisconnect:
.LFB191:
	.loc 1 600 0
	.cfi_startproc
	@ args = 0, pretend = 0, frame = 16
	@ frame_needed = 0, uses_anonymous_args = 0
.LVL366:
	push	{r4, r5, r6, r7, r8, r9, lr}
	.cfi_def_cfa_offset 28
	.cfi_offset 4, -28
	.cfi_offset 5, -24
	.cfi_offset 6, -20
	.cfi_offset 7, -16
	.cfi_offset 8, -12
	.cfi_offset 9, -8
	.cfi_offset 14, -4
	mov	r7, r0
	sub	sp, sp, #20
	.cfi_def_cfa_offset 48
	.loc 1 605 0
	add	r0, sp, #4
.LVL367:
	bl	TimerInit
.LVL368:
	.loc 1 606 0
	ldr	r1, [r7, #4]
	add	r0, sp, #4
	bl	TimerCountdownMS
.LVL369:
	.loc 1 608 0
	ldr	r1, [r7, #8]
	ldr	r0, [r7, #16]
	bl	MQTTSerialize_disconnect
.LVL370:
	.loc 1 609 0
	subs	r8, r0, #0
	it	gt
	movgt	r4, #0
	ble	.L372
.LVL371:
.L366:
.LBB233:
.LBB234:
	.loc 1 60 0
	add	r0, sp, #4
	bl	TimerIsExpired
.LVL372:
	cbnz	r0, .L365
	.loc 1 62 0
	ldr	r1, [r7, #16]
	ldr	r6, [r7, #80]
	add	r0, sp, #4
	adds	r5, r1, r4
	ldr	r9, [r6, #8]
	bl	TimerLeftMS
.LVL373:
	mov	r2, r8
	mov	r3, r0
	mov	r1, r5
	mov	r0, r6
	blx	r9
.LVL374:
	.loc 1 63 0
	cmp	r0, #0
	blt	.L365
	.loc 1 65 0
	add	r4, r4, r0
.LVL375:
	.loc 1 60 0
	cmp	r8, r4
	bgt	.L366
.LVL376:
.L365:
	.loc 1 67 0
	cmp	r8, r4
	bne	.L368
	.loc 1 69 0
	add	r0, r7, #84
	ldr	r1, [r7, #24]
	bl	TimerCountdown
.LVL377:
	.loc 1 70 0
	movs	r0, #0
.LVL378:
.LBE234:
.LBE233:
	.loc 1 612 0
	movs	r3, #0
	str	r3, [r7, #32]
	.loc 1 615 0
	add	sp, sp, #20
	.cfi_remember_state
	.cfi_def_cfa_offset 28
	@ sp needed
	pop	{r4, r5, r6, r7, r8, r9, pc}
.LVL379:
.L368:
	.cfi_restore_state
.LBB236:
.LBB235:
	.loc 1 74 0
	bl	rtw_get_current_time
.LVL380:
	mov	r1, r0
	ldr	r0, .L373
	bl	__wrap_printf
.LVL381:
	ldr	r0, .L373+4
	bl	__wrap_printf
.LVL382:
	ldr	r0, .L373+8
	bl	__wrap_printf
.LVL383:
.L372:
	.loc 1 73 0
	mov	r0, #-1
.LVL384:
.LBE235:
.LBE236:
	.loc 1 612 0
	movs	r3, #0
	str	r3, [r7, #32]
	.loc 1 615 0
	add	sp, sp, #20
	.cfi_def_cfa_offset 28
	@ sp needed
	pop	{r4, r5, r6, r7, r8, r9, pc}
.LVL385:
.L374:
	.align	2
.L373:
	.word	.LC1
	.word	.LC2
	.word	.LC3
	.cfi_endproc
.LFE191:
	.size	MQTTDisconnect, .-MQTTDisconnect
	.global	mqtt_status_str
	.global	msg_types_str
	.section	.rodata
	.align	2
	.set	.LANCHOR0,. + 0
.LC0:
	.byte	77
	.byte	81
	.byte	84
	.byte	67
	.word	0
	.byte	4
	.space	3
	.word	0
	.word	0
	.word	0
	.short	60
	.byte	1
	.byte	0
	.byte	77
	.byte	81
	.byte	84
	.byte	87
	.word	0
	.word	0
	.word	0
	.word	0
	.word	0
	.word	0
	.word	0
	.byte	0
	.byte	0
	.space	2
	.word	0
	.word	0
	.word	0
	.word	0
	.word	0
	.word	0
	.section	.rodata.MQTTConnect.str1.4,"aMS",%progbits,1
	.align	2
.LC8:
	.ascii	"Not received CONNACK\000"
	.section	.rodata.MQTTPublish.str1.4,"aMS",%progbits,1
	.align	2
.LC9:
	.ascii	"Not received PUBACK\000"
.LC10:
	.ascii	"Not received PUBCOMP\000"
	.section	.rodata.cycle.str1.4,"aMS",%progbits,1
	.align	2
.LC4:
	.ascii	"read packet header failed\000"
	.space	2
.LC5:
	.ascii	"rem_len = %d, read buffer will overflow\000"
.LC6:
	.ascii	"read the rest of the data failed\000"
	.space	3
.LC7:
	.ascii	"Read packet type: %d\000"
	.section	.rodata.keepalive.str1.4,"aMS",%progbits,1
	.align	2
.LC1:
	.ascii	"\015\012[%d]mqtt:\000"
.LC2:
	.ascii	"Send packet failed\000"
	.space	1
.LC3:
	.ascii	"\012\015\000"
	.section	.rodata.mqtt_status_str,"a",%progbits
	.align	2
	.type	mqtt_status_str, %object
	.size	mqtt_status_str, 16
mqtt_status_str:
	.word	.LC11
	.word	.LC12
	.word	.LC13
	.word	.LC14
	.section	.rodata.msg_types_str,"a",%progbits
	.align	2
	.type	msg_types_str, %object
	.size	msg_types_str, 64
msg_types_str:
	.word	.LC15
	.word	.LC16
	.word	.LC17
	.word	.LC18
	.word	.LC19
	.word	.LC20
	.word	.LC21
	.word	.LC22
	.word	.LC23
	.word	.LC24
	.word	.LC25
	.word	.LC26
	.word	.LC27
	.word	.LC28
	.word	.LC29
	.word	.LC15
	.section	.rodata.str1.4,"aMS",%progbits,1
	.align	2
.LC11:
	.ascii	"MQTT_START\000"
	.space	1
.LC12:
	.ascii	"MQTT_CONNECT\000"
	.space	3
.LC13:
	.ascii	"MQTT_SUBTOPIC\000"
	.space	2
.LC14:
	.ascii	"MQTT_RUNNING\000"
	.space	3
.LC15:
	.ascii	"Reserved\000"
	.space	3
.LC16:
	.ascii	"CONNECT\000"
.LC17:
	.ascii	"CONNACK\000"
.LC18:
	.ascii	"PUBLISH\000"
.LC19:
	.ascii	"PUBACK\000"
	.space	1
.LC20:
	.ascii	"PUBREC\000"
	.space	1
.LC21:
	.ascii	"PUBREL\000"
	.space	1
.LC22:
	.ascii	"PUBCOMP\000"
.LC23:
	.ascii	"SUBSCRIBE\000"
	.space	2
.LC24:
	.ascii	"SUBACK\000"
	.space	1
.LC25:
	.ascii	"UNSUBSCRIBE\000"
.LC26:
	.ascii	"UNSUBACK\000"
	.space	3
.LC27:
	.ascii	"PINGREQ\000"
.LC28:
	.ascii	"PINGRESP\000"
	.space	3
.LC29:
	.ascii	"DISCONNECT\000"
	.text
.Letext0:
	.file 2 "/cygdrive/d/PUYA/HE3/sdk-ameba-v7.1d/tools/arm-none-eabi-gcc/asdk/cygwin/newlib/arm-none-eabi/include/machine/_default_types.h"
	.file 3 "/cygdrive/d/PUYA/HE3/sdk-ameba-v7.1d/tools/arm-none-eabi-gcc/asdk/cygwin/newlib/lib/gcc/arm-none-eabi/6.5.0/include/stddef.h"
	.file 4 "/cygdrive/d/PUYA/HE3/sdk-ameba-v7.1d/tools/arm-none-eabi-gcc/asdk/cygwin/newlib/arm-none-eabi/include/sys/lock.h"
	.file 5 "/cygdrive/d/PUYA/HE3/sdk-ameba-v7.1d/tools/arm-none-eabi-gcc/asdk/cygwin/newlib/arm-none-eabi/include/sys/_types.h"
	.file 6 "/cygdrive/d/PUYA/HE3/sdk-ameba-v7.1d/tools/arm-none-eabi-gcc/asdk/cygwin/newlib/arm-none-eabi/include/sys/reent.h"
	.file 7 "<built-in>"
	.file 8 "/cygdrive/d/PUYA/HE3/sdk-ameba-v7.1d/tools/arm-none-eabi-gcc/asdk/cygwin/newlib/arm-none-eabi/include/sys/_stdint.h"
	.file 9 "/cygdrive/d/PUYA/HE3/sdk-ameba-v7.1d/tools/arm-none-eabi-gcc/asdk/cygwin/newlib/arm-none-eabi/include/time.h"
	.file 10 "../../../component/common/application/mqtt/MQTTClient/../MQTTPacket/MQTTPacket.h"
	.file 11 "../../../component/common/application/mqtt/MQTTClient/../MQTTPacket/MQTTConnect.h"
	.file 12 "/cygdrive/d/PUYA/HE3/sdk-ameba-v7.1d/tools/arm-none-eabi-gcc/asdk/cygwin/newlib/lib/gcc/arm-none-eabi/6.5.0/include/stdarg.h"
	.file 13 "/cygdrive/d/PUYA/HE3/sdk-ameba-v7.1d/tools/arm-none-eabi-gcc/asdk/cygwin/newlib/arm-none-eabi/include/stdio.h"
	.file 14 "../inc/FreeRTOSConfig.h"
	.file 15 "../../../component/soc/realtek/8710c/cmsis/rtl8710c/include/basic_types.h"
	.file 16 "../../../component/soc/realtek/8710c/app/rtl_printf/include/log_buf.h"
	.file 17 "../../../component/soc/realtek/8710c/app/stdio_port/stdio_port.h"
	.file 18 "../../../component/soc/realtek/8710c/app/rtl_printf/include/printf_entry.h"
	.file 19 "../../../component/soc/realtek/8710c/app/rtl_printf/include/rt_printf.h"
	.file 20 "../../../component/soc/realtek/8710c/misc/utilities/include/utility.h"
	.file 21 "../../../component/os/freertos/freertos_v10.0.1/Source/portable/GCC/ARM_RTL8710C/portmacro.h"
	.file 22 "../../../component/os/freertos/freertos_v10.0.1/Source/include/task.h"
	.file 23 "/cygdrive/d/PUYA/HE3/sdk-ameba-v7.1d/tools/arm-none-eabi-gcc/asdk/cygwin/newlib/arm-none-eabi/include/stdlib.h"
	.file 24 "../../../component/common/network/lwip/lwip_v2.0.2/port/realtek/arch/cc.h"
	.file 25 "../../../component/common/network/lwip/lwip_v2.0.2/src/include/lwip/ip4_addr.h"
	.file 26 "../../../component/common/network/lwip/lwip_v2.0.2/src/include/lwip/ip_addr.h"
	.file 27 "../../../component/common/network/lwip/lwip_v2.0.2/src/include/lwip/inet.h"
	.file 28 "../../../component/common/network/lwip/lwip_v2.0.2/src/include/lwip/errno.h"
	.file 29 "../../../component/common/network/ssl/ssl_ram_map/rom/rom_ssl_ram_map.h"
	.file 30 "../../../component/common/network/ssl/mbedtls-2.4.0/include/mbedtls/platform.h"
	.file 31 "../../../component/common/network/ssl/mbedtls-2.4.0/include/mbedtls/md.h"
	.file 32 "../../../component/common/network/ssl/mbedtls-2.4.0/include/mbedtls/pk.h"
	.file 33 "../../../component/common/network/ssl/mbedtls-2.4.0/include/mbedtls/asn1.h"
	.file 34 "../../../component/common/network/ssl/mbedtls-2.4.0/include/mbedtls/x509.h"
	.file 35 "../../../component/common/network/ssl/mbedtls-2.4.0/include/mbedtls/x509_crl.h"
	.file 36 "../../../component/common/network/ssl/mbedtls-2.4.0/include/mbedtls/x509_crt.h"
	.file 37 "../../../component/common/network/ssl/mbedtls-2.4.0/include/mbedtls/ssl.h"
	.file 38 "../src/hoags/hoags_config.h"
	.file 39 "../../../component/common/application/mqtt/MQTTClient/MQTTFreertos.h"
	.file 40 "../../../component/common/application/mqtt/MQTTClient/MQTTClient.h"
	.file 41 "../../../component/os/os_dep/include/osdep_service.h"
	.file 42 "../../../component/common/api/platform/platform_stdlib_rtl8710c.h"
	.file 43 "../../../component/common/application/mqtt/MQTTClient/../MQTTPacket/MQTTPublish.h"
	.file 44 "../../../component/common/application/mqtt/MQTTClient/../MQTTPacket/MQTTUnsubscribe.h"
	.file 45 "../../../component/common/application/mqtt/MQTTClient/../MQTTPacket/MQTTSubscribe.h"