	.arch armv8-m.main
	.arch_extension dsp
	.eabi_attribute 20, 1
	.eabi_attribute 21, 1
	.eabi_attribute 23, 3
	.eabi_attribute 24, 1
	.eabi_attribute 25, 1
	.eabi_attribute 26, 1
	.eabi_attribute 30, 2
	.eabi_attribute 34, 1
	.eabi_attribute 18, 4
	.file	"osdep_service.c"
	.text
.Ltext0:
	.cfi_sections	.debug_frame
	.section	.text.worker_thread_main,"ax",%progbits
	.align	1
	.p2align 2,,3
	.syntax unified
	.thumb
	.thumb_func
	.fpu softvfp
	.type	worker_thread_main, %function
worker_thread_main:
.LFB401:
	.file 1 "../../../component/os/os_dep/osdep_service.c"
	.loc 1 1189 0
	.cfi_startproc
	@ args = 0, pretend = 0, frame = 24
	@ frame_needed = 0, uses_anonymous_args = 0
.LVL0:
	push	{r4, r5, r6, lr}
	.cfi_def_cfa_offset 16
	.cfi_offset 4, -16
	.cfi_offset 5, -12
	.cfi_offset 6, -8
	.cfi_offset 14, -4
	mov	r5, r0
	ldr	r4, .L14
	sub	sp, sp, #24
	.cfi_def_cfa_offset 40
.LVL1:
.L5:
.LBB105:
.LBB106:
.LBB107:
	.loc 1 780 0
	ldr	r3, [r4, #148]
	cmp	r3, #0
	beq	.L5
	.loc 1 781 0
	mov	r2, #-1
	add	r1, sp, #4
.LVL2:
	mov	r0, r5
	blx	r3
.LVL3:
.LBE107:
.LBE106:
	.loc 1 1196 0
	cmp	r0, #0
	bne	.L5
	.loc 1 1198 0
	add	r0, sp, #8
	ldr	r6, [sp, #4]
	ldm	r0, {r0, r1, r2, r3}
	blx	r6
.LVL4:
	.loc 1 1199 0
	ldr	r0, [sp, #8]
.LVL5:
	cmp	r0, #0
	beq	.L5
.LBB108:
.LBB109:
	.loc 1 150 0
	ldr	r3, [r4, #20]
	cmp	r3, #0
	beq	.L5
	.loc 1 151 0
	ldr	r1, [sp, #12]
	blx	r3
.LVL6:
.LBE109:
.LBE108:
.LBE105:
	.loc 1 1193 0
	b	.L5
.L15:
	.align	2
.L14:
	.word	osdep_service
	.cfi_endproc
.LFE401:
	.size	worker_thread_main, .-worker_thread_main
	.section	.text._htons,"ax",%progbits
	.align	1
	.p2align 2,,3
	.global	_htons
	.syntax unified
	.thumb
	.thumb_func
	.fpu softvfp
	.type	_htons, %function
_htons:
.LFB428:
	.cfi_startproc
	@ args = 0, pretend = 0, frame = 0
	@ frame_needed = 0, uses_anonymous_args = 0
	@ link register save eliminated.
	rev16	r0, r0
	uxth	r0, r0
	bx	lr
	.cfi_endproc
.LFE428:
	.size	_htons, .-_htons
	.section	.text._ntohs,"ax",%progbits
	.align	1
	.p2align 2,,3
	.global	_ntohs
	.syntax unified
	.thumb
	.thumb_func
	.fpu softvfp
	.type	_ntohs, %function
_ntohs:
.LFB167:
	.loc 1 24 0
	.cfi_startproc
	@ args = 0, pretend = 0, frame = 0
	@ frame_needed = 0, uses_anonymous_args = 0
	@ link register save eliminated.
.LVL7:
	.loc 1 25 0
	rev16	r0, r0
.LVL8:
	.loc 1 26 0
	uxth	r0, r0
	bx	lr
	.cfi_endproc
.LFE167:
	.size	_ntohs, .-_ntohs
	.section	.text._htonl,"ax",%progbits
	.align	1
	.p2align 2,,3
	.global	_htonl
	.syntax unified
	.thumb
	.thumb_func
	.fpu softvfp
	.type	_htonl, %function
_htonl:
.LFB422:
	.cfi_startproc
	@ args = 0, pretend = 0, frame = 0
	@ frame_needed = 0, uses_anonymous_args = 0
	@ link register save eliminated.
	rev	r0, r0
	bx	lr
	.cfi_endproc
.LFE422:
	.size	_htonl, .-_htonl
	.section	.text._ntohl,"ax",%progbits
	.align	1
	.p2align 2,,3
	.global	_ntohl
	.syntax unified
	.thumb
	.thumb_func
	.fpu softvfp
	.type	_ntohl, %function
_ntohl:
.LFB169:
	.loc 1 39 0
	.cfi_startproc
	@ args = 0, pretend = 0, frame = 0
	@ frame_needed = 0, uses_anonymous_args = 0
	@ link register save eliminated.
.LVL9:
	.loc 1 41 0
	rev	r0, r0
.LVL10:
	bx	lr
	.cfi_endproc
.LFE169:
	.size	_ntohl, .-_ntohl
	.section	.text.RTW_STATUS_CODE,"ax",%progbits
	.align	1
	.p2align 2,,3
	.global	RTW_STATUS_CODE
	.syntax unified
	.thumb
	.thumb_func
	.fpu softvfp
	.type	RTW_STATUS_CODE, %function
RTW_STATUS_CODE:
.LFB170:
	.loc 1 49 0
	.cfi_startproc
	@ args = 0, pretend = 0, frame = 0
	@ frame_needed = 0, uses_anonymous_args = 0
	@ link register save eliminated.
.LVL11:
	.loc 1 54 0
	mvns	r0, r0
.LVL12:
	lsrs	r0, r0, #31
.LVL13:
	bx	lr
	.cfi_endproc
.LFE170:
	.size	RTW_STATUS_CODE, .-RTW_STATUS_CODE
	.section	.text.rtw_atoi,"ax",%progbits
	.align	1
	.p2align 2,,3
	.global	rtw_atoi
	.syntax unified
	.thumb
	.thumb_func
	.fpu softvfp
	.type	rtw_atoi, %function
rtw_atoi:
.LFB171:
	.loc 1 57 0
	.cfi_startproc
	@ args = 0, pretend = 0, frame = 0
	@ frame_needed = 0, uses_anonymous_args = 0
.LVL14:
	push	{r4, r5, r6, r7, r8, lr}
	.cfi_def_cfa_offset 24
	.cfi_offset 4, -24
	.cfi_offset 5, -20
	.cfi_offset 6, -16
	.cfi_offset 7, -12
	.cfi_offset 8, -8
	.cfi_offset 14, -4
	.loc 1 61 0
	movs	r4, #0
	.loc 1 57 0
	mov	r8, r0
	.loc 1 58 0
	mov	r7, r4
	mov	r5, r4
	subs	r6, r0, #1
.LVL15:
.L25:
	.loc 1 63 0
	ldrb	r3, [r6, #1]!	@ zero_extendqisi2
	.loc 1 64 0
	add	r2, r5, r5, lsl #2
	.loc 1 63 0
	sub	r1, r3, #48
	cmp	r1, #9
	.loc 1 64 0
	add	r3, r3, r2, lsl #1
	.loc 1 63 0
	bhi	.L22
	.loc 1 64 0
	sub	r5, r3, #48
.LVL16:
.L23:
	.loc 1 61 0 discriminator 2
	mov	r0, r8
	bl	strlen
.LVL17:
	adds	r4, r4, #1
.LVL18:
	cmp	r0, r4
	bcs	.L25
.L24:
	.loc 1 71 0
	cbz	r7, .L26
	.loc 1 72 0
	negs	r5, r5
.LVL19:
.L26:
	.loc 1 75 0
	mov	r0, r5
	pop	{r4, r5, r6, r7, r8, pc}
.LVL20:
.L22:
	.loc 1 65 0
	ldrb	r3, [r8]	@ zero_extendqisi2
	cmp	r3, #45
	bne	.L24
	.loc 1 65 0 is_stmt 0 discriminator 1
	cmp	r4, #0
	bne	.L24
	.loc 1 66 0 is_stmt 1
	movs	r7, #1
	b	.L23
	.cfi_endproc
.LFE171:
	.size	rtw_atoi, .-rtw_atoi
	.section	.text._rtw_vmalloc,"ax",%progbits
	.align	1
	.p2align 2,,3
	.global	_rtw_vmalloc
	.syntax unified
	.thumb
	.thumb_func
	.fpu softvfp
	.type	_rtw_vmalloc, %function
_rtw_vmalloc:
.LFB172:
	.loc 1 81 0
	.cfi_startproc
	@ args = 0, pretend = 0, frame = 0
	@ frame_needed = 0, uses_anonymous_args = 0
	@ link register save eliminated.
.LVL21:
	.loc 1 87 0
	ldr	r3, .L31
	ldr	r3, [r3]
	cbz	r3, .L30
	.loc 1 88 0
	bx	r3
.LVL22:
.L30:
	.loc 1 93 0
	mov	r0, r3
.LVL23:
	bx	lr
.L32:
	.align	2
.L31:
	.word	osdep_service
	.cfi_endproc
.LFE172:
	.size	_rtw_vmalloc, .-_rtw_vmalloc
	.section	.text._rtw_zvmalloc,"ax",%progbits
	.align	1
	.p2align 2,,3
	.global	_rtw_zvmalloc
	.syntax unified
	.thumb
	.thumb_func
	.fpu softvfp
	.type	_rtw_zvmalloc, %function
_rtw_zvmalloc:
.LFB173:
	.loc 1 96 0
	.cfi_startproc
	@ args = 0, pretend = 0, frame = 0
	@ frame_needed = 0, uses_anonymous_args = 0
	@ link register save eliminated.
.LVL24:
	.loc 1 102 0
	ldr	r3, .L35
	ldr	r3, [r3, #4]
	cbz	r3, .L34
	.loc 1 103 0
	bx	r3
.LVL25:
.L34:
	.loc 1 108 0
	mov	r0, r3
.LVL26:
	bx	lr
.L36:
	.align	2
.L35:
	.word	osdep_service
	.cfi_endproc
.LFE173:
	.size	_rtw_zvmalloc, .-_rtw_zvmalloc
	.section	.text._rtw_vmfree,"ax",%progbits
	.align	1
	.p2align 2,,3
	.global	_rtw_vmfree
	.syntax unified
	.thumb
	.thumb_func
	.fpu softvfp
	.type	_rtw_vmfree, %function
_rtw_vmfree:
.LFB174:
	.loc 1 111 0
	.cfi_startproc
	@ args = 0, pretend = 0, frame = 0
	@ frame_needed = 0, uses_anonymous_args = 0
	@ link register save eliminated.
.LVL27:
	.loc 1 119 0
	ldr	r3, .L39
	ldr	r3, [r3, #8]
	cbz	r3, .L37
	.loc 1 120 0
	bx	r3	@ indirect register sibling call
.LVL28:
.L37:
	bx	lr
.L40:
	.align	2
.L39:
	.word	osdep_service
	.cfi_endproc
.LFE174:
	.size	_rtw_vmfree, .-_rtw_vmfree
	.section	.text._rtw_malloc,"ax",%progbits
	.align	1
	.p2align 2,,3
	.global	_rtw_malloc
	.syntax unified
	.thumb
	.thumb_func
	.fpu softvfp
	.type	_rtw_malloc, %function
_rtw_malloc:
.LFB175:
	.loc 1 127 0
	.cfi_startproc
	@ args = 0, pretend = 0, frame = 0
	@ frame_needed = 0, uses_anonymous_args = 0
	@ link register save eliminated.
.LVL29:
	.loc 1 128 0
	ldr	r3, .L43
	ldr	r3, [r3, #12]
	cbz	r3, .L42
.LBB110:
	.loc 1 129 0
	bx	r3
.LVL30:
.L42:
.LBE110:
	.loc 1 135 0
	mov	r0, r3
.LVL31:
	bx	lr
.L44:
	.align	2
.L43:
	.word	osdep_service
	.cfi_endproc
.LFE175:
	.size	_rtw_malloc, .-_rtw_malloc
	.section	.text._rtw_zmalloc,"ax",%progbits
	.align	1
	.p2align 2,,3
	.global	_rtw_zmalloc
	.syntax unified
	.thumb
	.thumb_func
	.fpu softvfp
	.type	_rtw_zmalloc, %function
_rtw_zmalloc:
.LFB176:
	.loc 1 138 0
	.cfi_startproc
	@ args = 0, pretend = 0, frame = 0
	@ frame_needed = 0, uses_anonymous_args = 0
	@ link register save eliminated.
.LVL32:
	.loc 1 139 0
	ldr	r3, .L47
	ldr	r3, [r3, #16]
	cbz	r3, .L46
.LBB111:
	.loc 1 140 0
	bx	r3
.LVL33:
.L46:
.LBE111:
	.loc 1 146 0
	mov	r0, r3
.LVL34:
	bx	lr
.L48:
	.align	2
.L47:
	.word	osdep_service
	.cfi_endproc
.LFE176:
	.size	_rtw_zmalloc, .-_rtw_zmalloc
	.section	.text._rtw_mfree,"ax",%progbits
	.align	1
	.p2align 2,,3
	.global	_rtw_mfree
	.syntax unified
	.thumb
	.thumb_func
	.fpu softvfp
	.type	_rtw_mfree, %function
_rtw_mfree:
.LFB177:
	.loc 1 149 0
	.cfi_startproc
	@ args = 0, pretend = 0, frame = 0
	@ frame_needed = 0, uses_anonymous_args = 0
	@ link register save eliminated.
.LVL35:
	.loc 1 150 0
	ldr	r3, .L51
	ldr	r3, [r3, #20]
	cbz	r3, .L49
	.loc 1 151 0
	bx	r3	@ indirect register sibling call
.LVL36:
.L49:
	bx	lr
.L52:
	.align	2
.L51:
	.word	osdep_service
	.cfi_endproc
.LFE177:
	.size	_rtw_mfree, .-_rtw_mfree
	.section	.text.init_mem_monitor,"ax",%progbits
	.align	1
	.p2align 2,,3
	.global	init_mem_monitor
	.syntax unified
	.thumb
	.thumb_func
	.fpu softvfp
	.type	init_mem_monitor, %function
init_mem_monitor:
.LFB178:
	.loc 1 164 0
	.cfi_startproc
	@ args = 0, pretend = 0, frame = 0
	@ frame_needed = 0, uses_anonymous_args = 0
.LVL37:
	push	{r3, lr}
	.cfi_def_cfa_offset 8
	.cfi_offset 3, -8
	.cfi_offset 14, -4
.LBB112:
.LBB113:
	.loc 1 1057 0
	ldr	r3, .L57
	ldr	r0, [r3, #248]
.LVL38:
	cbz	r0, .L54
	.loc 1 1058 0
	blx	r0
.LVL39:
.L54:
.LBE113:
.LBE112:
	.loc 1 172 0
	ldr	r3, .L57+4
	str	r0, [r3]
	pop	{r3, pc}
.L58:
	.align	2
.L57:
	.word	osdep_service
	.word	min_free_heap_size
	.cfi_endproc
.LFE178:
	.size	init_mem_monitor, .-init_mem_monitor
	.section	.text.deinit_mem_monitor,"ax",%progbits
	.align	1
	.p2align 2,,3
	.global	deinit_mem_monitor
	.syntax unified
	.thumb
	.thumb_func
	.fpu softvfp
	.type	deinit_mem_monitor, %function
deinit_mem_monitor:
.LFB179:
	.loc 1 176 0
	.cfi_startproc
	@ args = 0, pretend = 0, frame = 0
	@ frame_needed = 0, uses_anonymous_args = 0
	@ link register save eliminated.
.LVL40:
	bx	lr
	.cfi_endproc
.LFE179:
	.size	deinit_mem_monitor, .-deinit_mem_monitor
	.section	.text.add_mem_usage,"ax",%progbits
	.align	1
	.p2align 2,,3
	.global	add_mem_usage
	.syntax unified
	.thumb
	.thumb_func
	.fpu softvfp
	.type	add_mem_usage, %function
add_mem_usage:
.LFB180:
	.loc 1 206 0
	.cfi_startproc
	@ args = 4, pretend = 0, frame = 0
	@ frame_needed = 0, uses_anonymous_args = 0
.LVL41:
.LBB114:
.LBB115:
	.loc 1 1057 0
	ldr	r3, .L67
.LVL42:
.LBE115:
.LBE114:
	.loc 1 206 0
	push	{r4, r5, r6, lr}
	.cfi_def_cfa_offset 16
	.cfi_offset 4, -16
	.cfi_offset 5, -12
	.cfi_offset 6, -8
	.cfi_offset 14, -4
.LBB118:
.LBB116:
	.loc 1 1057 0
	ldr	r0, [r3, #248]
.LVL43:
.LBE116:
.LBE118:
	.loc 1 206 0
	mov	r4, r1
	mov	r5, r2
.LBB119:
.LBB117:
	.loc 1 1057 0
	cbz	r0, .L61
	.loc 1 1058 0
	blx	r0
.LVL44:
.L61:
.LBE117:
.LBE119:
	.loc 1 215 0
	cbz	r4, .L66
	.loc 1 244 0
	ldr	r3, .L67+4
	ldr	r2, [r3]
	cmp	r2, r0
	.loc 1 245 0
	it	gt
	strgt	r0, [r3]
	pop	{r4, r5, r6, pc}
.LVL45:
.L66:
	.loc 1 216 0
	mov	r3, r0
	mov	r2, r5
	.loc 1 246 0
	pop	{r4, r5, r6, lr}
	.cfi_restore 14
	.cfi_restore 6
	.cfi_restore 5
	.cfi_restore 4
	.cfi_def_cfa_offset 0
.LVL46:
	.loc 1 216 0
	ldr	r1, .L67+8
	ldr	r0, .L67+12
	b	__wrap_printf
.LVL47:
.L68:
	.align	2
.L67:
	.word	osdep_service
	.word	min_free_heap_size
	.word	.LANCHOR0
	.word	.LC0
	.cfi_endproc
.LFE180:
	.size	add_mem_usage, .-add_mem_usage
	.section	.text.del_mem_usage,"ax",%progbits
	.align	1
	.p2align 2,,3
	.global	del_mem_usage
	.syntax unified
	.thumb
	.thumb_func
	.fpu softvfp
	.type	del_mem_usage, %function
del_mem_usage:
.LFB181:
	.loc 1 249 0
	.cfi_startproc
	@ args = 0, pretend = 0, frame = 0
	@ frame_needed = 0, uses_anonymous_args = 0
	@ link register save eliminated.
.LVL48:
	bx	lr
	.cfi_endproc
.LFE181:
	.size	del_mem_usage, .-del_mem_usage
	.section	.text.rtw_vmalloc,"ax",%progbits
	.align	1
	.p2align 2,,3
	.global	rtw_vmalloc
	.syntax unified
	.thumb
	.thumb_func
	.fpu softvfp
	.type	rtw_vmalloc, %function
rtw_vmalloc:
.LFB182:
	.loc 1 326 0
	.cfi_startproc
	@ args = 0, pretend = 0, frame = 0
	@ frame_needed = 0, uses_anonymous_args = 0
.LVL49:
	.loc 1 326 0
	push	{r4, r5, r6, lr}
	.cfi_def_cfa_offset 16
	.cfi_offset 4, -16
	.cfi_offset 5, -12
	.cfi_offset 6, -8
	.cfi_offset 14, -4
.LBB126:
.LBB127:
	.loc 1 87 0
	ldr	r5, .L80
.LBE127:
.LBE126:
	.loc 1 326 0
	mov	r6, r0
.LBB129:
.LBB128:
	.loc 1 87 0
	ldr	r4, [r5]
	cbz	r4, .L71
	.loc 1 88 0
	blx	r4
.LVL50:
	mov	r4, r0
.LVL51:
.LBE128:
.LBE129:
.LBB130:
.LBB131:
.LBB132:
.LBB133:
	.loc 1 1057 0
	ldr	r0, [r5, #248]
.LVL52:
	cbz	r0, .L72
.LVL53:
.L75:
	.loc 1 1058 0
	blx	r0
.LVL54:
.L72:
.LBE133:
.LBE132:
	.loc 1 215 0
	cbz	r4, .L76
	.loc 1 244 0
	ldr	r3, .L80+4
	ldr	r2, [r3]
	cmp	r2, r0
	ble	.L70
	.loc 1 245 0
	str	r0, [r3]
.LVL55:
.L70:
.LBE131:
.LBE130:
	.loc 1 334 0
	mov	r0, r4
	pop	{r4, r5, r6, pc}
.LVL56:
.L71:
.LBB137:
.LBB136:
.LBB135:
.LBB134:
	.loc 1 1057 0
	ldr	r0, [r5, #248]
.LVL57:
	cmp	r0, #0
	bne	.L75
.LVL58:
.L76:
.LBE134:
.LBE135:
	.loc 1 216 0
	mov	r3, r0
	mov	r2, r6
	ldr	r1, .L80+8
	ldr	r0, .L80+12
.LVL59:
	bl	__wrap_printf
.LVL60:
	movs	r4, #0
	b	.L70
.L81:
	.align	2
.L80:
	.word	osdep_service
	.word	min_free_heap_size
	.word	.LANCHOR0
	.word	.LC0
.LBE136:
.LBE137:
	.cfi_endproc
.LFE182:
	.size	rtw_vmalloc, .-rtw_vmalloc
	.section	.text.rtw_zvmalloc,"ax",%progbits
	.align	1
	.p2align 2,,3
	.global	rtw_zvmalloc
	.syntax unified
	.thumb
	.thumb_func
	.fpu softvfp
	.type	rtw_zvmalloc, %function
rtw_zvmalloc:
.LFB183:
	.loc 1 337 0
	.cfi_startproc
	@ args = 0, pretend = 0, frame = 0
	@ frame_needed = 0, uses_anonymous_args = 0
.LVL61:
	push	{r4, r5, r6, lr}
	.cfi_def_cfa_offset 16
	.cfi_offset 4, -16
	.cfi_offset 5, -12
	.cfi_offset 6, -8
	.cfi_offset 14, -4
.LBB144:
.LBB145:
	.loc 1 102 0
	ldr	r5, .L92
.LBE145:
.LBE144:
	.loc 1 337 0
	mov	r6, r0
.LBB147:
.LBB146:
	.loc 1 102 0
	ldr	r4, [r5, #4]
	cbz	r4, .L83
	.loc 1 103 0
	blx	r4
.LVL62:
	mov	r4, r0
.LVL63:
.LBE146:
.LBE147:
.LBB148:
.LBB149:
.LBB150:
.LBB151:
	.loc 1 1057 0
	ldr	r0, [r5, #248]
.LVL64:
	cbz	r0, .L84
.LVL65:
.L87:
	.loc 1 1058 0
	blx	r0
.LVL66:
.L84:
.LBE151:
.LBE150:
	.loc 1 215 0
	cbz	r4, .L88
	.loc 1 244 0
	ldr	r3, .L92+4
	ldr	r2, [r3]
	cmp	r2, r0
	ble	.L82
	.loc 1 245 0
	str	r0, [r3]
.LVL67:
.L82:
.LBE149:
.LBE148:
	.loc 1 345 0
	mov	r0, r4
	pop	{r4, r5, r6, pc}
.LVL68:
.L83:
.LBB155:
.LBB154:
.LBB153:
.LBB152:
	.loc 1 1057 0
	ldr	r0, [r5, #248]
.LVL69:
	cmp	r0, #0
	bne	.L87
.LVL70:
.L88:
.LBE152:
.LBE153:
	.loc 1 216 0
	mov	r3, r0
	mov	r2, r6
	ldr	r1, .L92+8
	ldr	r0, .L92+12
.LVL71:
	bl	__wrap_printf
.LVL72:
	movs	r4, #0
	b	.L82
.L93:
	.align	2
.L92:
	.word	osdep_service
	.word	min_free_heap_size
	.word	.LANCHOR0
	.word	.LC0
.LBE154:
.LBE155:
	.cfi_endproc
.LFE183:
	.size	rtw_zvmalloc, .-rtw_zvmalloc
	.section	.text.rtw_vmfree,"ax",%progbits
	.align	1
	.p2align 2,,3
	.global	rtw_vmfree
	.syntax unified
	.thumb
	.thumb_func
	.fpu softvfp
	.type	rtw_vmfree, %function
rtw_vmfree:
.LFB184:
	.loc 1 348 0
	.cfi_startproc
	@ args = 0, pretend = 0, frame = 0
	@ frame_needed = 0, uses_anonymous_args = 0
	@ link register save eliminated.
.LVL73:
.LBB156:
.LBB157:
	.loc 1 119 0
	ldr	r3, .L96
	ldr	r3, [r3, #8]
	cbz	r3, .L94
	.loc 1 120 0
	bx	r3	@ indirect register sibling call
.LVL74:
.L94:
	bx	lr
.L97:
	.align	2
.L96:
	.word	osdep_service
.LBE157:
.LBE156:
	.cfi_endproc
.LFE184:
	.size	rtw_vmfree, .-rtw_vmfree
	.section	.text.rtw_malloc,"ax",%progbits
	.align	1
	.p2align 2,,3
	.global	rtw_malloc
	.syntax unified
	.thumb
	.thumb_func
	.fpu softvfp
	.type	rtw_malloc, %function
rtw_malloc:
.LFB185:
	.loc 1 358 0
	.cfi_startproc
	@ args = 0, pretend = 0, frame = 0
	@ frame_needed = 0, uses_anonymous_args = 0
.LVL75:
	push	{r4, r5, r6, lr}
	.cfi_def_cfa_offset 16
	.cfi_offset 4, -16
	.cfi_offset 5, -12
	.cfi_offset 6, -8
	.cfi_offset 14, -4
.LBB165:
.LBB166:
	.loc 1 128 0
	ldr	r5, .L108
.LBE166:
.LBE165:
	.loc 1 358 0
	mov	r6, r0
.LBB169:
.LBB168:
	.loc 1 128 0
	ldr	r4, [r5, #12]
	cbz	r4, .L99
.LBB167:
	.loc 1 129 0
	blx	r4
.LVL76:
	mov	r4, r0
.LVL77:
.LBE167:
.LBE168:
.LBE169:
.LBB170:
.LBB171:
.LBB172:
.LBB173:
	.loc 1 1057 0
	ldr	r0, [r5, #248]
.LVL78:
	cbz	r0, .L100
.LVL79:
.L103:
	.loc 1 1058 0
	blx	r0
.LVL80:
.L100:
.LBE173:
.LBE172:
	.loc 1 215 0
	cbz	r4, .L104
	.loc 1 244 0
	ldr	r3, .L108+4
	ldr	r2, [r3]
	cmp	r2, r0
	ble	.L98
	.loc 1 245 0
	str	r0, [r3]
.LVL81:
.L98:
.LBE171:
.LBE170:
	.loc 1 366 0
	mov	r0, r4
	pop	{r4, r5, r6, pc}
.LVL82:
.L99:
.LBB177:
.LBB176:
.LBB175:
.LBB174:
	.loc 1 1057 0
	ldr	r0, [r5, #248]
.LVL83:
	cmp	r0, #0
	bne	.L103
.LVL84:
.L104:
.LBE174:
.LBE175:
	.loc 1 216 0
	mov	r3, r0
	mov	r2, r6
	ldr	r1, .L108+8
	ldr	r0, .L108+12
.LVL85:
	bl	__wrap_printf
.LVL86:
	movs	r4, #0
	b	.L98
.L109:
	.align	2
.L108:
	.word	osdep_service
	.word	min_free_heap_size
	.word	.LANCHOR0
	.word	.LC0
.LBE176:
.LBE177:
	.cfi_endproc
.LFE185:
	.size	rtw_malloc, .-rtw_malloc
	.section	.text.rtw_zmalloc,"ax",%progbits
	.align	1
	.p2align 2,,3
	.global	rtw_zmalloc
	.syntax unified
	.thumb
	.thumb_func
	.fpu softvfp
	.type	rtw_zmalloc, %function
rtw_zmalloc:
.LFB186:
	.loc 1 369 0
	.cfi_startproc
	@ args = 0, pretend = 0, frame = 0
	@ frame_needed = 0, uses_anonymous_args = 0
.LVL87:
	push	{r4, r5, r6, lr}
	.cfi_def_cfa_offset 16
	.cfi_offset 4, -16
	.cfi_offset 5, -12
	.cfi_offset 6, -8
	.cfi_offset 14, -4
.LBB188:
.LBB189:
	.loc 1 139 0
	ldr	r5, .L120
.LBE189:
.LBE188:
	.loc 1 369 0
	mov	r6, r0
.LBB192:
.LBB191:
	.loc 1 139 0
	ldr	r4, [r5, #16]
	cbz	r4, .L111
.LBB190:
	.loc 1 140 0
	blx	r4
.LVL88:
	mov	r4, r0
.LVL89:
.LBE190:
.LBE191:
.LBE192:
.LBB193:
.LBB194:
.LBB195:
.LBB196:
	.loc 1 1057 0
	ldr	r0, [r5, #248]
.LVL90:
	cbz	r0, .L112
.LVL91:
.L115:
	.loc 1 1058 0
	blx	r0
.LVL92:
.L112:
.LBE196:
.LBE195:
	.loc 1 215 0
	cbz	r4, .L116
	.loc 1 244 0
	ldr	r3, .L120+4
	ldr	r2, [r3]
	cmp	r2, r0
	ble	.L110
	.loc 1 245 0
	str	r0, [r3]
.LVL93:
.L110:
.LBE194:
.LBE193:
	.loc 1 377 0
	mov	r0, r4
	pop	{r4, r5, r6, pc}
.LVL94:
.L111:
.LBB200:
.LBB199:
.LBB198:
.LBB197:
	.loc 1 1057 0
	ldr	r0, [r5, #248]
.LVL95:
	cmp	r0, #0
	bne	.L115
.LVL96:
.L116:
.LBE197:
.LBE198:
	.loc 1 216 0
	mov	r3, r0
	mov	r2, r6
	ldr	r1, .L120+8
	ldr	r0, .L120+12
.LVL97:
	bl	__wrap_printf
.LVL98:
	movs	r4, #0
	b	.L110
.L121:
	.align	2
.L120:
	.word	osdep_service
	.word	min_free_heap_size
	.word	.LANCHOR0
	.word	.LC0
.LBE199:
.LBE200:
	.cfi_endproc
.LFE186:
	.size	rtw_zmalloc, .-rtw_zmalloc
	.section	.text.rtw_mfree,"ax",%progbits
	.align	1
	.p2align 2,,3
	.global	rtw_mfree
	.syntax unified
	.thumb
	.thumb_func
	.fpu softvfp
	.type	rtw_mfree, %function
rtw_mfree:
.LFB187:
	.loc 1 380 0
	.cfi_startproc
	@ args = 0, pretend = 0, frame = 0
	@ frame_needed = 0, uses_anonymous_args = 0
	@ link register save eliminated.
.LVL99:
.LBB201:
.LBB202:
	.loc 1 150 0
	ldr	r3, .L124
	ldr	r3, [r3, #20]
	cbz	r3, .L122
	.loc 1 151 0
	bx	r3	@ indirect register sibling call
.LVL100:
.L122:
	bx	lr
.L125:
	.align	2
.L124:
	.word	osdep_service
.LBE202:
.LBE201:
	.cfi_endproc
.LFE187:
	.size	rtw_mfree, .-rtw_mfree
	.section	.text.rtw_malloc2d,"ax",%progbits
	.align	1
	.p2align 2,,3
	.global	rtw_malloc2d
	.syntax unified
	.thumb
	.thumb_func
	.fpu softvfp
	.type	rtw_malloc2d, %function
rtw_malloc2d:
.LFB188:
	.loc 1 391 0
	.cfi_startproc
	@ args = 0, pretend = 0, frame = 0
	@ frame_needed = 0, uses_anonymous_args = 0
.LVL101:
	push	{r4, r5, r6, r7, r8, r9, r10, lr}
	.cfi_def_cfa_offset 32
	.cfi_offset 4, -32
	.cfi_offset 5, -28
	.cfi_offset 6, -24
	.cfi_offset 7, -20
	.cfi_offset 8, -16
	.cfi_offset 9, -12
	.cfi_offset 10, -8
	.cfi_offset 14, -4
	.loc 1 394 0
	mul	r4, r1, r0
.LBB212:
.LBB213:
.LBB214:
.LBB215:
	.loc 1 139 0
	ldr	r10, .L140+12
.LBE215:
.LBE214:
.LBE213:
.LBE212:
	.loc 1 394 0
	lsls	r5, r0, #2
.LBB232:
.LBB229:
.LBB219:
.LBB217:
	.loc 1 139 0
	ldr	r7, [r10, #16]
.LBE217:
.LBE219:
.LBE229:
.LBE232:
	.loc 1 391 0
	mov	r9, r0
	mov	r6, r1
	mov	r8, r2
	.loc 1 394 0
	mla	r4, r2, r4, r5
.LVL102:
.LBB233:
.LBB230:
.LBB220:
.LBB218:
	.loc 1 139 0
	cbz	r7, .L127
.LBB216:
	.loc 1 140 0
	mov	r0, r4
.LVL103:
	blx	r7
.LVL104:
	mov	r7, r0
.LVL105:
.LBE216:
.LBE218:
.LBE220:
.LBB221:
.LBB222:
.LBB223:
.LBB224:
	.loc 1 1057 0
	ldr	r0, [r10, #248]
.LVL106:
	cbz	r0, .L128
.LVL107:
.L133:
	.loc 1 1058 0
	blx	r0
.LVL108:
.L128:
.LBE224:
.LBE223:
	.loc 1 215 0
	cbz	r7, .L134
	.loc 1 244 0
	ldr	r3, .L140
	ldr	r2, [r3]
	cmp	r2, r0
	.loc 1 245 0
	it	gt
	strgt	r0, [r3]
.LVL109:
.LBE222:
.LBE221:
.LBE230:
.LBE233:
	.loc 1 401 0
	cmp	r9, #0
	ble	.L136
	add	r5, r5, r7
.LVL110:
	.loc 1 401 0 is_stmt 0 discriminator 3
	mov	r4, r5
	mov	r3, r7
	mul	r2, r8, r6
.LVL111:
.L132:
	.loc 1 402 0 is_stmt 1 discriminator 3
	str	r4, [r3], #4
	.loc 1 401 0 discriminator 3
	cmp	r3, r5
	add	r4, r4, r2
	bne	.L132
.L136:
	.loc 1 401 0 is_stmt 0
	mov	r0, r7
	pop	{r4, r5, r6, r7, r8, r9, r10, pc}
.LVL112:
.L127:
.LBB234:
.LBB231:
.LBB228:
.LBB227:
.LBB226:
.LBB225:
	.loc 1 1057 0 is_stmt 1
	ldr	r0, [r10, #248]
.LVL113:
	cmp	r0, #0
	bne	.L133
.LVL114:
.L134:
.LBE225:
.LBE226:
	.loc 1 216 0
	mov	r3, r0
	mov	r2, r4
	ldr	r1, .L140+4
	ldr	r0, .L140+8
.LVL115:
	bl	__wrap_printf
.LVL116:
.LBE227:
.LBE228:
.LBE231:
.LBE234:
	.loc 1 398 0
	movs	r0, #0
	pop	{r4, r5, r6, r7, r8, r9, r10, pc}
.LVL117:
.L141:
	.align	2
.L140:
	.word	min_free_heap_size
	.word	.LANCHOR0
	.word	.LC0
	.word	osdep_service
	.cfi_endproc
.LFE188:
	.size	rtw_malloc2d, .-rtw_malloc2d
	.section	.text.rtw_mfree2d,"ax",%progbits
	.align	1
	.p2align 2,,3
	.global	rtw_mfree2d
	.syntax unified
	.thumb
	.thumb_func
	.fpu softvfp
	.type	rtw_mfree2d, %function
rtw_mfree2d:
.LFB189:
	.loc 1 408 0
	.cfi_startproc
	@ args = 0, pretend = 0, frame = 0
	@ frame_needed = 0, uses_anonymous_args = 0
	@ link register save eliminated.
.LVL118:
	.loc 1 409 0
	mul	r2, r2, r1
.LVL119:
	.loc 1 408 0
	push	{r4}
	.cfi_def_cfa_offset 4
	.cfi_offset 4, -4
.LBB235:
.LBB236:
.LBB237:
	.loc 1 150 0
	ldr	r4, .L145
.LBE237:
.LBE236:
.LBE235:
	.loc 1 409 0
	lsls	r1, r1, #2
.LVL120:
.LBB244:
.LBB241:
.LBB238:
	.loc 1 150 0
	ldr	r4, [r4, #20]
.LBE238:
.LBE241:
.LBE244:
	.loc 1 409 0
	mla	r1, r3, r2, r1
.LVL121:
.LBB245:
.LBB242:
.LBB239:
	.loc 1 150 0
	cbz	r4, .L142
	.loc 1 151 0
	mov	r3, r4
.LVL122:
.LBE239:
.LBE242:
.LBE245:
	.loc 1 410 0
	pop	{r4}
	.cfi_remember_state
	.cfi_restore 4
	.cfi_def_cfa_offset 0
.LBB246:
.LBB243:
.LBB240:
	.loc 1 151 0
	bx	r3	@ indirect register sibling call
.LVL123:
.L142:
	.cfi_restore_state
.LBE240:
.LBE243:
.LBE246:
	.loc 1 410 0
	pop	{r4}
	.cfi_restore 4
	.cfi_def_cfa_offset 0
	bx	lr
.L146:
	.align	2
.L145:
	.word	osdep_service
	.cfi_endproc
.LFE189:
	.size	rtw_mfree2d, .-rtw_mfree2d
	.section	.text.rtw_memcpy,"ax",%progbits
	.align	1
	.p2align 2,,3
	.global	rtw_memcpy
	.syntax unified
	.thumb
	.thumb_func
	.fpu softvfp
	.type	rtw_memcpy, %function
rtw_memcpy:
.LFB190:
	.loc 1 413 0
	.cfi_startproc
	@ args = 0, pretend = 0, frame = 0
	@ frame_needed = 0, uses_anonymous_args = 0
	@ link register save eliminated.
.LVL124:
	.loc 1 414 0
	ldr	r3, .L149
	ldr	r3, [r3, #24]
	cbz	r3, .L147
	.loc 1 415 0
	bx	r3	@ indirect register sibling call
.LVL125:
.L147:
	bx	lr
.L150:
	.align	2
.L149:
	.word	osdep_service
	.cfi_endproc
.LFE190:
	.size	rtw_memcpy, .-rtw_memcpy
	.section	.text.rtw_memcmp,"ax",%progbits
	.align	1
	.p2align 2,,3
	.global	rtw_memcmp
	.syntax unified
	.thumb
	.thumb_func
	.fpu softvfp
	.type	rtw_memcmp, %function
rtw_memcmp:
.LFB191:
	.loc 1 421 0
	.cfi_startproc
	@ args = 0, pretend = 0, frame = 0
	@ frame_needed = 0, uses_anonymous_args = 0
	@ link register save eliminated.
.LVL126:
	.loc 1 422 0
	ldr	r3, .L153
	ldr	r3, [r3, #28]
	cbz	r3, .L152
	.loc 1 423 0
	bx	r3
.LVL127:
.L152:
	.loc 1 428 0
	mov	r0, r3
.LVL128:
	bx	lr
.L154:
	.align	2
.L153:
	.word	osdep_service
	.cfi_endproc
.LFE191:
	.size	rtw_memcmp, .-rtw_memcmp
	.section	.text.rtw_memset,"ax",%progbits
	.align	1
	.p2align 2,,3
	.global	rtw_memset
	.syntax unified
	.thumb
	.thumb_func
	.fpu softvfp
	.type	rtw_memset, %function
rtw_memset:
.LFB192:
	.loc 1 431 0
	.cfi_startproc
	@ args = 0, pretend = 0, frame = 0
	@ frame_needed = 0, uses_anonymous_args = 0
	@ link register save eliminated.
.LVL129:
	.loc 1 432 0
	ldr	r3, .L157
	ldr	r3, [r3, #32]
	cbz	r3, .L155
	.loc 1 433 0
	bx	r3	@ indirect register sibling call
.LVL130:
.L155:
	bx	lr
.L158:
	.align	2
.L157:
	.word	osdep_service
	.cfi_endproc
.LFE192:
	.size	rtw_memset, .-rtw_memset
	.section	.text.rtw_init_listhead,"ax",%progbits
	.align	1
	.p2align 2,,3
	.global	rtw_init_listhead
	.syntax unified
	.thumb
	.thumb_func
	.fpu softvfp
	.type	rtw_init_listhead, %function
rtw_init_listhead:
.LFB193:
	.loc 1 439 0
	.cfi_startproc
	@ args = 0, pretend = 0, frame = 0
	@ frame_needed = 0, uses_anonymous_args = 0
	@ link register save eliminated.
.LVL131:
	.loc 1 440 0
	str	r0, [r0]
	str	r0, [r0, #4]
	bx	lr
	.cfi_endproc
.LFE193:
	.size	rtw_init_listhead, .-rtw_init_listhead
	.section	.text.rtw_is_list_empty,"ax",%progbits
	.align	1
	.p2align 2,,3
	.global	rtw_is_list_empty
	.syntax unified
	.thumb
	.thumb_func
	.fpu softvfp
	.type	rtw_is_list_empty, %function
rtw_is_list_empty:
.LFB194:
	.loc 1 449 0
	.cfi_startproc
	@ args = 0, pretend = 0, frame = 0
	@ frame_needed = 0, uses_anonymous_args = 0
	@ link register save eliminated.
.LVL132:
	.loc 1 450 0
	ldr	r3, [r0]
	.loc 1 454 0
	subs	r0, r3, r0
.LVL133:
	clz	r0, r0
	lsrs	r0, r0, #5
	bx	lr
	.cfi_endproc
.LFE194:
	.size	rtw_is_list_empty, .-rtw_is_list_empty
	.section	.text.rtw_list_insert_head,"ax",%progbits
	.align	1
	.p2align 2,,3
	.global	rtw_list_insert_head
	.syntax unified
	.thumb
	.thumb_func
	.fpu softvfp
	.type	rtw_list_insert_head, %function
rtw_list_insert_head:
.LFB195:
	.loc 1 457 0
	.cfi_startproc
	@ args = 0, pretend = 0, frame = 0
	@ frame_needed = 0, uses_anonymous_args = 0
	@ link register save eliminated.
.LVL134:
.LBB247:
.LBB248:
	.file 2 "../../../component/common/api/platform/dlist.h"
	.loc 2 82 0
	ldr	r3, [r1]
.LVL135:
.LBB249:
.LBB250:
	.loc 2 66 0
	str	r0, [r3, #4]
	.loc 2 67 0
	str	r3, [r0]
	.loc 2 68 0
	str	r1, [r0, #4]
	.loc 2 69 0
	str	r0, [r1]
.LVL136:
	bx	lr
.LBE250:
.LBE249:
.LBE248:
.LBE247:
	.cfi_endproc
.LFE195:
	.size	rtw_list_insert_head, .-rtw_list_insert_head
	.section	.text.rtw_list_insert_tail,"ax",%progbits
	.align	1
	.p2align 2,,3
	.global	rtw_list_insert_tail
	.syntax unified
	.thumb
	.thumb_func
	.fpu softvfp
	.type	rtw_list_insert_tail, %function
rtw_list_insert_tail:
.LFB196:
	.loc 1 462 0
	.cfi_startproc
	@ args = 0, pretend = 0, frame = 0
	@ frame_needed = 0, uses_anonymous_args = 0
	@ link register save eliminated.
.LVL137:
.LBB251:
.LBB252:
	.loc 2 95 0
	ldr	r3, [r1, #4]
.LVL138:
.LBB253:
.LBB254:
	.loc 2 66 0
	str	r0, [r1, #4]
	.loc 2 67 0
	stm	r0, {r1, r3}
	.loc 2 69 0
	str	r0, [r3]
.LVL139:
	bx	lr
.LBE254:
.LBE253:
.LBE252:
.LBE251:
	.cfi_endproc
.LFE196:
	.size	rtw_list_insert_tail, .-rtw_list_insert_tail
	.section	.text.rtw_list_delete,"ax",%progbits
	.align	1
	.p2align 2,,3
	.global	rtw_list_delete
	.syntax unified
	.thumb
	.thumb_func
	.fpu softvfp
	.type	rtw_list_delete, %function
rtw_list_delete:
.LFB197:
	.loc 1 472 0
	.cfi_startproc
	@ args = 0, pretend = 0, frame = 0
	@ frame_needed = 0, uses_anonymous_args = 0
	@ link register save eliminated.
.LVL140:
.LBB255:
.LBB256:
	.loc 2 129 0
	ldm	r0, {r2, r3}
.LVL141:
.LBB257:
.LBB258:
	.loc 2 107 0
	str	r3, [r2, #4]
	.loc 2 108 0
	str	r2, [r3]
.LVL142:
.LBE258:
.LBE257:
	.loc 2 130 0
	str	r0, [r0]
	str	r0, [r0, #4]
.LVL143:
	bx	lr
.LBE256:
.LBE255:
	.cfi_endproc
.LFE197:
	.size	rtw_list_delete, .-rtw_list_delete
	.section	.text.rtw_init_sema,"ax",%progbits
	.align	1
	.p2align 2,,3
	.global	rtw_init_sema
	.syntax unified
	.thumb
	.thumb_func
	.fpu softvfp
	.type	rtw_init_sema, %function
rtw_init_sema:
.LFB198:
	.loc 1 479 0
	.cfi_startproc
	@ args = 0, pretend = 0, frame = 0
	@ frame_needed = 0, uses_anonymous_args = 0
	@ link register save eliminated.
.LVL144:
	.loc 1 480 0
	ldr	r3, .L166
	ldr	r3, [r3, #36]
	cbz	r3, .L164
	.loc 1 481 0
	bx	r3	@ indirect register sibling call
.LVL145:
.L164:
	bx	lr
.L167:
	.align	2
.L166:
	.word	osdep_service
	.cfi_endproc
.LFE198:
	.size	rtw_init_sema, .-rtw_init_sema
	.section	.text.rtw_free_sema,"ax",%progbits
	.align	1
	.p2align 2,,3
	.global	rtw_free_sema
	.syntax unified
	.thumb
	.thumb_func
	.fpu softvfp
	.type	rtw_free_sema, %function
rtw_free_sema:
.LFB199:
	.loc 1 487 0
	.cfi_startproc
	@ args = 0, pretend = 0, frame = 0
	@ frame_needed = 0, uses_anonymous_args = 0
	@ link register save eliminated.
.LVL146:
	.loc 1 488 0
	ldr	r3, .L170
	ldr	r3, [r3, #40]
	cbz	r3, .L168
	.loc 1 489 0
	bx	r3	@ indirect register sibling call
.LVL147:
.L168:
	bx	lr
.L171:
	.align	2
.L170:
	.word	osdep_service
	.cfi_endproc
.LFE199:
	.size	rtw_free_sema, .-rtw_free_sema
	.section	.text.rtw_in_interrupt,"ax",%progbits
	.align	1
	.p2align 2,,3
	.global	rtw_in_interrupt
	.syntax unified
	.thumb
	.thumb_func
	.fpu softvfp
	.type	rtw_in_interrupt, %function
rtw_in_interrupt:
.LFB326:
	.loc 1 500 0
	.cfi_startproc
	@ args = 0, pretend = 0, frame = 0
	@ frame_needed = 0, uses_anonymous_args = 0
	@ link register save eliminated.
.LBB259:
.LBB260:
	.file 3 "../../../component/soc/realtek/8710c/cmsis/cmsis-core/include/cmsis_gcc.h"
	.loc 3 237 0
	.syntax unified
@ 237 "../../../component/soc/realtek/8710c/cmsis/cmsis-core/include/cmsis_gcc.h" 1
	MRS r0, xpsr
@ 0 "" 2
	.thumb
	.syntax unified
.LBE260:
.LBE259:
	.loc 1 504 0
	ubfx	r0, r0, #0, #9
	.loc 1 506 0
	adds	r0, r0, #0
	it	ne
	movne	r0, #1
	bx	lr
	.cfi_endproc
.LFE326:
	.size	rtw_in_interrupt, .-rtw_in_interrupt
	.section	.text.rtw_up_sema,"ax",%progbits
	.align	1
	.p2align 2,,3
	.global	rtw_up_sema
	.syntax unified
	.thumb
	.thumb_func
	.fpu softvfp
	.type	rtw_up_sema, %function
rtw_up_sema:
.LFB327:
	.loc 1 510 0
	.cfi_startproc
	@ args = 0, pretend = 0, frame = 0
	@ frame_needed = 0, uses_anonymous_args = 0
	@ link register save eliminated.
.LVL148:
.LBB261:
.LBB262:
.LBB263:
.LBB264:
	.loc 3 237 0
	.syntax unified
@ 237 "../../../component/soc/realtek/8710c/cmsis/cmsis-core/include/cmsis_gcc.h" 1
	MRS r3, xpsr
@ 0 "" 2
	.thumb
	.syntax unified
.LBE264:
.LBE263:
	.loc 1 504 0
	ubfx	r3, r3, #0, #9
.LBE262:
.LBE261:
	.loc 1 511 0
	cbz	r3, .L174
	.loc 1 512 0
	ldr	r3, .L183
	ldr	r3, [r3, #48]
	cbz	r3, .L173
.L182:
	.loc 1 518 0
	bx	r3	@ indirect register sibling call
.LVL149:
.L174:
	.loc 1 517 0
	ldr	r3, .L183
	ldr	r3, [r3, #44]
	cmp	r3, #0
	bne	.L182
.L173:
	bx	lr
.L184:
	.align	2
.L183:
	.word	osdep_service
	.cfi_endproc
.LFE327:
	.size	rtw_up_sema, .-rtw_up_sema
	.section	.text.rtw_up_sema_from_isr,"ax",%progbits
	.align	1
	.p2align 2,,3
	.global	rtw_up_sema_from_isr
	.syntax unified
	.thumb
	.thumb_func
	.fpu softvfp
	.type	rtw_up_sema_from_isr, %function
rtw_up_sema_from_isr:
.LFB328:
	.loc 1 525 0
	.cfi_startproc
	@ args = 0, pretend = 0, frame = 0
	@ frame_needed = 0, uses_anonymous_args = 0
	@ link register save eliminated.
.LVL150:
	.loc 1 526 0
	ldr	r3, .L187
	ldr	r3, [r3, #48]
	cbz	r3, .L185
	.loc 1 527 0
	bx	r3	@ indirect register sibling call
.LVL151:
.L185:
	bx	lr
.L188:
	.align	2
.L187:
	.word	osdep_service
	.cfi_endproc
.LFE328:
	.size	rtw_up_sema_from_isr, .-rtw_up_sema_from_isr
	.section	.text.rtw_down_timeout_sema,"ax",%progbits
	.align	1
	.p2align 2,,3
	.global	rtw_down_timeout_sema
	.syntax unified
	.thumb
	.thumb_func
	.fpu softvfp
	.type	rtw_down_timeout_sema, %function
rtw_down_timeout_sema:
.LFB329:
	.loc 1 533 0
	.cfi_startproc
	@ args = 0, pretend = 0, frame = 0
	@ frame_needed = 0, uses_anonymous_args = 0
	@ link register save eliminated.
.LVL152:
	.loc 1 534 0
	ldr	r3, .L191
	ldr	r3, [r3, #52]
	cbz	r3, .L190
	.loc 1 535 0
	bx	r3
.LVL153:
.L190:
	.loc 1 540 0
	mov	r0, r3
.LVL154:
	bx	lr
.L192:
	.align	2
.L191:
	.word	osdep_service
	.cfi_endproc
.LFE329:
	.size	rtw_down_timeout_sema, .-rtw_down_timeout_sema
	.section	.text.rtw_down_sema,"ax",%progbits
	.align	1
	.p2align 2,,3
	.global	rtw_down_sema
	.syntax unified
	.thumb
	.thumb_func
	.fpu softvfp
	.type	rtw_down_sema, %function
rtw_down_sema:
.LFB330:
	.loc 1 543 0
	.cfi_startproc
	@ args = 0, pretend = 0, frame = 0
	@ frame_needed = 0, uses_anonymous_args = 0
.LVL155:
	push	{r3, r4, r5, lr}
	.cfi_def_cfa_offset 16
	.cfi_offset 3, -16
	.cfi_offset 4, -12
	.cfi_offset 5, -8
	.cfi_offset 14, -4
	.loc 1 543 0
	mov	r5, r0
	ldr	r4, .L200
	.loc 1 544 0
	b	.L196
.LVL156:
.L194:
.LBB265:
.LBB266:
	.loc 1 535 0
	mov	r1, #-1
	mov	r0, r5
	blx	r3
.LVL157:
.LBE266:
.LBE265:
	.loc 1 544 0
	cmp	r0, #1
	beq	.L199
.L196:
.LVL158:
	ldr	r3, [r4, #52]
	cmp	r3, #0
	bne	.L194
.L195:
	b	.L195
.LVL159:
.L199:
	.loc 1 549 0
	pop	{r3, r4, r5, pc}
.LVL160:
.L201:
	.align	2
.L200:
	.word	osdep_service
	.cfi_endproc
.LFE330:
	.size	rtw_down_sema, .-rtw_down_sema
	.section	.text.rtw_mutex_init,"ax",%progbits
	.align	1
	.p2align 2,,3
	.global	rtw_mutex_init
	.syntax unified
	.thumb
	.thumb_func
	.fpu softvfp
	.type	rtw_mutex_init, %function
rtw_mutex_init:
.LFB331:
	.loc 1 552 0
	.cfi_startproc
	@ args = 0, pretend = 0, frame = 0
	@ frame_needed = 0, uses_anonymous_args = 0
	@ link register save eliminated.
.LVL161:
	.loc 1 553 0
	ldr	r3, .L204
	ldr	r3, [r3, #56]
	cbz	r3, .L202
	.loc 1 554 0
	bx	r3	@ indirect register sibling call
.LVL162:
.L202:
	bx	lr
.L205:
	.align	2
.L204:
	.word	osdep_service
	.cfi_endproc
.LFE331:
	.size	rtw_mutex_init, .-rtw_mutex_init
	.section	.text.rtw_mutex_free,"ax",%progbits
	.align	1
	.p2align 2,,3
	.global	rtw_mutex_free
	.syntax unified
	.thumb
	.thumb_func
	.fpu softvfp
	.type	rtw_mutex_free, %function
rtw_mutex_free:
.LFB332:
	.loc 1 560 0
	.cfi_startproc
	@ args = 0, pretend = 0, frame = 0
	@ frame_needed = 0, uses_anonymous_args = 0
	@ link register save eliminated.
.LVL163:
	.loc 1 561 0
	ldr	r3, .L208
	ldr	r3, [r3, #60]
	cbz	r3, .L206
	.loc 1 562 0
	bx	r3	@ indirect register sibling call
.LVL164:
.L206:
	bx	lr
.L209:
	.align	2
.L208:
	.word	osdep_service
	.cfi_endproc
.LFE332:
	.size	rtw_mutex_free, .-rtw_mutex_free
	.section	.text.rtw_mutex_put,"ax",%progbits
	.align	1
	.p2align 2,,3
	.global	rtw_mutex_put
	.syntax unified
	.thumb
	.thumb_func
	.fpu softvfp
	.type	rtw_mutex_put, %function
rtw_mutex_put:
.LFB333:
	.loc 1 568 0
	.cfi_startproc
	@ args = 0, pretend = 0, frame = 0
	@ frame_needed = 0, uses_anonymous_args = 0
	@ link register save eliminated.
.LVL165:
	.loc 1 569 0
	ldr	r3, .L212
	ldr	r3, [r3, #72]
	cbz	r3, .L210
	.loc 1 570 0
	bx	r3	@ indirect register sibling call
.LVL166:
.L210:
	bx	lr
.L213:
	.align	2
.L212:
	.word	osdep_service
	.cfi_endproc
.LFE333:
	.size	rtw_mutex_put, .-rtw_mutex_put
	.section	.text.rtw_mutex_get,"ax",%progbits
	.align	1
	.p2align 2,,3
	.global	rtw_mutex_get
	.syntax unified
	.thumb
	.thumb_func
	.fpu softvfp
	.type	rtw_mutex_get, %function
rtw_mutex_get:
.LFB334:
	.loc 1 576 0
	.cfi_startproc
	@ args = 0, pretend = 0, frame = 0
	@ frame_needed = 0, uses_anonymous_args = 0
	@ link register save eliminated.
.LVL167:
	.loc 1 577 0
	ldr	r3, .L216
	ldr	r3, [r3, #64]
	cbz	r3, .L214
	.loc 1 578 0
	bx	r3	@ indirect register sibling call
.LVL168:
.L214:
	bx	lr
.L217:
	.align	2
.L216:
	.word	osdep_service
	.cfi_endproc
.LFE334:
	.size	rtw_mutex_get, .-rtw_mutex_get
	.section	.text.rtw_mutex_get_timeout,"ax",%progbits
	.align	1
	.p2align 2,,3
	.global	rtw_mutex_get_timeout
	.syntax unified
	.thumb
	.thumb_func
	.fpu softvfp
	.type	rtw_mutex_get_timeout, %function
rtw_mutex_get_timeout:
.LFB335:
	.loc 1 584 0
	.cfi_startproc
	@ args = 0, pretend = 0, frame = 0
	@ frame_needed = 0, uses_anonymous_args = 0
	@ link register save eliminated.
.LVL169:
	.loc 1 585 0
	ldr	r3, .L220
	ldr	r3, [r3, #68]
	cbz	r3, .L219
	.loc 1 586 0
	bx	r3
.LVL170:
.L219:
	.loc 1 591 0
	mov	r0, #-1
.LVL171:
	bx	lr
.L221:
	.align	2
.L220:
	.word	osdep_service
	.cfi_endproc
.LFE335:
	.size	rtw_mutex_get_timeout, .-rtw_mutex_get_timeout
	.section	.text.rtw_enter_critical,"ax",%progbits
	.align	1
	.p2align 2,,3
	.global	rtw_enter_critical
	.syntax unified
	.thumb
	.thumb_func
	.fpu softvfp
	.type	rtw_enter_critical, %function
rtw_enter_critical:
.LFB336:
	.loc 1 594 0
	.cfi_startproc
	@ args = 0, pretend = 0, frame = 0
	@ frame_needed = 0, uses_anonymous_args = 0
	@ link register save eliminated.
.LVL172:
.LBB267:
.LBB268:
.LBB269:
.LBB270:
	.loc 3 237 0
	.syntax unified
@ 237 "../../../component/soc/realtek/8710c/cmsis/cmsis-core/include/cmsis_gcc.h" 1
	MRS r3, xpsr
@ 0 "" 2
	.thumb
	.syntax unified
.LBE270:
.LBE269:
	.loc 1 504 0
	ubfx	r3, r3, #0, #9
.LBE268:
.LBE267:
	.loc 1 595 0
	cbz	r3, .L223
	.loc 1 596 0
	ldr	r3, .L232
	ldr	r3, [r3, #84]
	cbz	r3, .L222
.L231:
	.loc 1 602 0
	bx	r3	@ indirect register sibling call
.LVL173:
.L223:
	.loc 1 601 0
	ldr	r3, .L232
	ldr	r3, [r3, #76]
	cmp	r3, #0
	bne	.L231
.L222:
	bx	lr
.L233:
	.align	2
.L232:
	.word	osdep_service
	.cfi_endproc
.LFE336:
	.size	rtw_enter_critical, .-rtw_enter_critical
	.section	.text.rtw_exit_critical,"ax",%progbits
	.align	1
	.p2align 2,,3
	.global	rtw_exit_critical
	.syntax unified
	.thumb
	.thumb_func
	.fpu softvfp
	.type	rtw_exit_critical, %function
rtw_exit_critical:
.LFB337:
	.loc 1 609 0
	.cfi_startproc
	@ args = 0, pretend = 0, frame = 0
	@ frame_needed = 0, uses_anonymous_args = 0
	@ link register save eliminated.
.LVL174:
.LBB271:
.LBB272:
.LBB273:
.LBB274:
	.loc 3 237 0
	.syntax unified
@ 237 "../../../component/soc/realtek/8710c/cmsis/cmsis-core/include/cmsis_gcc.h" 1
	MRS r3, xpsr
@ 0 "" 2
	.thumb
	.syntax unified
.LBE274:
.LBE273:
	.loc 1 504 0
	ubfx	r3, r3, #0, #9
.LBE272:
.LBE271:
	.loc 1 610 0
	cbz	r3, .L235
	.loc 1 611 0
	ldr	r3, .L244
	ldr	r3, [r3, #88]
	cbz	r3, .L234
.L243:
	.loc 1 617 0
	bx	r3	@ indirect register sibling call
.LVL175:
.L235:
	.loc 1 616 0
	ldr	r3, .L244
	ldr	r3, [r3, #80]
	cmp	r3, #0
	bne	.L243
.L234:
	bx	lr
.L245:
	.align	2
.L244:
	.word	osdep_service
	.cfi_endproc
.LFE337:
	.size	rtw_exit_critical, .-rtw_exit_critical
	.section	.text.rtw_enter_critical_from_isr,"ax",%progbits
	.align	1
	.p2align 2,,3
	.global	rtw_enter_critical_from_isr
	.syntax unified
	.thumb
	.thumb_func
	.fpu softvfp
	.type	rtw_enter_critical_from_isr, %function
rtw_enter_critical_from_isr:
.LFB338:
	.loc 1 624 0
	.cfi_startproc
	@ args = 0, pretend = 0, frame = 0
	@ frame_needed = 0, uses_anonymous_args = 0
	@ link register save eliminated.
.LVL176:
	.loc 1 625 0
	ldr	r3, .L248
	ldr	r3, [r3, #76]
	cbz	r3, .L246
	.loc 1 626 0
	bx	r3	@ indirect register sibling call
.LVL177:
.L246:
	bx	lr
.L249:
	.align	2
.L248:
	.word	osdep_service
	.cfi_endproc
.LFE338:
	.size	rtw_enter_critical_from_isr, .-rtw_enter_critical_from_isr
	.section	.text.rtw_exit_critical_from_isr,"ax",%progbits
	.align	1
	.p2align 2,,3
	.global	rtw_exit_critical_from_isr
	.syntax unified
	.thumb
	.thumb_func
	.fpu softvfp
	.type	rtw_exit_critical_from_isr, %function
rtw_exit_critical_from_isr:
.LFB339:
	.loc 1 632 0
	.cfi_startproc
	@ args = 0, pretend = 0, frame = 0
	@ frame_needed = 0, uses_anonymous_args = 0
	@ link register save eliminated.
.LVL178:
	.loc 1 633 0
	ldr	r3, .L252
	ldr	r3, [r3, #80]
	cbz	r3, .L250
	.loc 1 634 0
	bx	r3	@ indirect register sibling call
.LVL179:
.L250:
	bx	lr
.L253:
	.align	2
.L252:
	.word	osdep_service
	.cfi_endproc
.LFE339:
	.size	rtw_exit_critical_from_isr, .-rtw_exit_critical_from_isr
	.section	.text.rtw_enter_critical_bh,"ax",%progbits
	.align	1
	.p2align 2,,3
	.global	rtw_enter_critical_bh
	.syntax unified
	.thumb
	.thumb_func
	.fpu softvfp
	.type	rtw_enter_critical_bh, %function
rtw_enter_critical_bh:
.LFB340:
	.loc 1 640 0
	.cfi_startproc
	@ args = 0, pretend = 0, frame = 0
	@ frame_needed = 0, uses_anonymous_args = 0
	@ link register save eliminated.
.LVL180:
.LBB275:
.LBB276:
	.loc 1 727 0
	ldr	r3, .L256
	ldr	r3, [r3, #124]
	cbz	r3, .L254
	.loc 1 728 0
	bx	r3	@ indirect register sibling call
.LVL181:
.L254:
	bx	lr
.L257:
	.align	2
.L256:
	.word	osdep_service
.LBE276:
.LBE275:
	.cfi_endproc
.LFE340:
	.size	rtw_enter_critical_bh, .-rtw_enter_critical_bh
	.section	.text.rtw_exit_critical_bh,"ax",%progbits
	.align	1
	.p2align 2,,3
	.global	rtw_exit_critical_bh
	.syntax unified
	.thumb
	.thumb_func
	.fpu softvfp
	.type	rtw_exit_critical_bh, %function
rtw_exit_critical_bh:
.LFB341:
	.loc 1 647 0
	.cfi_startproc
	@ args = 0, pretend = 0, frame = 0
	@ frame_needed = 0, uses_anonymous_args = 0
	@ link register save eliminated.
.LVL182:
.LBB277:
.LBB278:
	.loc 1 735 0
	ldr	r3, .L260
	ldr	r3, [r3, #128]
	cbz	r3, .L258
	.loc 1 736 0
	bx	r3	@ indirect register sibling call
.LVL183:
.L258:
	bx	lr
.L261:
	.align	2
.L260:
	.word	osdep_service
.LBE278:
.LBE277:
	.cfi_endproc
.LFE341:
	.size	rtw_exit_critical_bh, .-rtw_exit_critical_bh
	.section	.text.rtw_enter_critical_mutex,"ax",%progbits
	.align	1
	.p2align 2,,3
	.global	rtw_enter_critical_mutex
	.syntax unified
	.thumb
	.thumb_func
	.fpu softvfp
	.type	rtw_enter_critical_mutex, %function
rtw_enter_critical_mutex:
.LFB342:
	.loc 1 655 0
	.cfi_startproc
	@ args = 0, pretend = 0, frame = 0
	@ frame_needed = 0, uses_anonymous_args = 0
	@ link register save eliminated.
.LVL184:
	.loc 1 656 0
	ldr	r3, .L264
	ldr	r3, [r3, #100]
	cbz	r3, .L263
	.loc 1 657 0
	bx	r3
.LVL185:
.L263:
	.loc 1 662 0
	mov	r0, r3
.LVL186:
	bx	lr
.L265:
	.align	2
.L264:
	.word	osdep_service
	.cfi_endproc
.LFE342:
	.size	rtw_enter_critical_mutex, .-rtw_enter_critical_mutex
	.section	.text.rtw_exit_critical_mutex,"ax",%progbits
	.align	1
	.p2align 2,,3
	.global	rtw_exit_critical_mutex
	.syntax unified
	.thumb
	.thumb_func
	.fpu softvfp
	.type	rtw_exit_critical_mutex, %function
rtw_exit_critical_mutex:
.LFB343:
	.loc 1 665 0
	.cfi_startproc
	@ args = 0, pretend = 0, frame = 0
	@ frame_needed = 0, uses_anonymous_args = 0
	@ link register save eliminated.
.LVL187:
	.loc 1 666 0
	ldr	r3, .L268
	ldr	r3, [r3, #104]
	cbz	r3, .L266
	.loc 1 667 0
	bx	r3	@ indirect register sibling call
.LVL188:
.L266:
	bx	lr
.L269:
	.align	2
.L268:
	.word	osdep_service
	.cfi_endproc
.LFE343:
	.size	rtw_exit_critical_mutex, .-rtw_exit_critical_mutex
	.section	.text.rtw_cpu_lock,"ax",%progbits
	.align	1
	.p2align 2,,3
	.global	rtw_cpu_lock
	.syntax unified
	.thumb
	.thumb_func
	.fpu softvfp
	.type	rtw_cpu_lock, %function
rtw_cpu_lock:
.LFB344:
	.loc 1 673 0
	.cfi_startproc
	@ args = 0, pretend = 0, frame = 0
	@ frame_needed = 0, uses_anonymous_args = 0
	@ link register save eliminated.
	.loc 1 674 0
	ldr	r3, .L272
	ldr	r3, [r3, #108]
	cbz	r3, .L270
	.loc 1 675 0
	bx	r3	@ indirect register sibling call
.LVL189:
.L270:
	bx	lr
.L273:
	.align	2
.L272:
	.word	osdep_service
	.cfi_endproc
.LFE344:
	.size	rtw_cpu_lock, .-rtw_cpu_lock
	.section	.text.rtw_cpu_unlock,"ax",%progbits
	.align	1
	.p2align 2,,3
	.global	rtw_cpu_unlock
	.syntax unified
	.thumb
	.thumb_func
	.fpu softvfp
	.type	rtw_cpu_unlock, %function
rtw_cpu_unlock:
.LFB345:
	.loc 1 681 0
	.cfi_startproc
	@ args = 0, pretend = 0, frame = 0
	@ frame_needed = 0, uses_anonymous_args = 0
	@ link register save eliminated.
	.loc 1 682 0
	ldr	r3, .L276
	ldr	r3, [r3, #112]
	cbz	r3, .L274
	.loc 1 683 0
	bx	r3	@ indirect register sibling call
.LVL190:
.L274:
	bx	lr
.L277:
	.align	2
.L276:
	.word	osdep_service
	.cfi_endproc
.LFE345:
	.size	rtw_cpu_unlock, .-rtw_cpu_unlock
	.section	.text.rtw_init_queue,"ax",%progbits
	.align	1
	.p2align 2,,3
	.global	rtw_init_queue
	.syntax unified
	.thumb
	.thumb_func
	.fpu softvfp
	.type	rtw_init_queue, %function
rtw_init_queue:
.LFB346:
	.loc 1 689 0
	.cfi_startproc
	@ args = 0, pretend = 0, frame = 0
	@ frame_needed = 0, uses_anonymous_args = 0
	@ link register save eliminated.
.LVL191:
.LBB279:
.LBB280:
	.loc 1 711 0
	ldr	r3, .L280
.LBE280:
.LBE279:
.LBB283:
.LBB284:
	.loc 1 440 0
	str	r0, [r0]
.LBE284:
.LBE283:
.LBB286:
.LBB281:
	.loc 1 711 0
	ldr	r3, [r3, #116]
.LBE281:
.LBE286:
.LBB287:
.LBB285:
	.loc 1 440 0
	str	r0, [r0, #4]
.LVL192:
.LBE285:
.LBE287:
	.loc 1 691 0
	adds	r0, r0, #8
.LVL193:
.LBB288:
.LBB282:
	.loc 1 711 0
	cbz	r3, .L278
	.loc 1 712 0
	bx	r3	@ indirect register sibling call
.LVL194:
.L278:
	bx	lr
.L281:
	.align	2
.L280:
	.word	osdep_service
.LBE282:
.LBE288:
	.cfi_endproc
.LFE346:
	.size	rtw_init_queue, .-rtw_init_queue
	.section	.text.rtw_queue_empty,"ax",%progbits
	.align	1
	.p2align 2,,3
	.global	rtw_queue_empty
	.syntax unified
	.thumb
	.thumb_func
	.fpu softvfp
	.type	rtw_queue_empty, %function
rtw_queue_empty:
.LFB347:
	.loc 1 695 0
	.cfi_startproc
	@ args = 0, pretend = 0, frame = 0
	@ frame_needed = 0, uses_anonymous_args = 0
	@ link register save eliminated.
.LVL195:
.LBB289:
.LBB290:
	.loc 1 450 0
	ldr	r3, [r0]
.LBE290:
.LBE289:
	.loc 1 697 0
	subs	r0, r3, r0
.LVL196:
	clz	r0, r0
	lsrs	r0, r0, #5
	bx	lr
	.cfi_endproc
.LFE347:
	.size	rtw_queue_empty, .-rtw_queue_empty
	.section	.text.rtw_end_of_queue_search,"ax",%progbits
	.align	1
	.p2align 2,,3
	.global	rtw_end_of_queue_search
	.syntax unified
	.thumb
	.thumb_func
	.fpu softvfp
	.type	rtw_end_of_queue_search, %function
rtw_end_of_queue_search:
.LFB348:
	.loc 1 701 0
	.cfi_startproc
	@ args = 0, pretend = 0, frame = 0
	@ frame_needed = 0, uses_anonymous_args = 0
	@ link register save eliminated.
.LVL197:
	.loc 1 706 0
	subs	r0, r1, r0
.LVL198:
	clz	r0, r0
	lsrs	r0, r0, #5
	bx	lr
	.cfi_endproc
.LFE348:
	.size	rtw_end_of_queue_search, .-rtw_end_of_queue_search
	.section	.text.rtw_spinlock_init,"ax",%progbits
	.align	1
	.p2align 2,,3
	.global	rtw_spinlock_init
	.syntax unified
	.thumb
	.thumb_func
	.fpu softvfp
	.type	rtw_spinlock_init, %function
rtw_spinlock_init:
.LFB349:
	.loc 1 710 0
	.cfi_startproc
	@ args = 0, pretend = 0, frame = 0
	@ frame_needed = 0, uses_anonymous_args = 0
	@ link register save eliminated.
.LVL199:
	.loc 1 711 0
	ldr	r3, .L286
	ldr	r3, [r3, #116]
	cbz	r3, .L284
	.loc 1 712 0
	bx	r3	@ indirect register sibling call
.LVL200:
.L284:
	bx	lr
.L287:
	.align	2
.L286:
	.word	osdep_service
	.cfi_endproc
.LFE349:
	.size	rtw_spinlock_init, .-rtw_spinlock_init
	.section	.text.rtw_spinlock_free,"ax",%progbits
	.align	1
	.p2align 2,,3
	.global	rtw_spinlock_free
	.syntax unified
	.thumb
	.thumb_func
	.fpu softvfp
	.type	rtw_spinlock_free, %function
rtw_spinlock_free:
.LFB350:
	.loc 1 718 0
	.cfi_startproc
	@ args = 0, pretend = 0, frame = 0
	@ frame_needed = 0, uses_anonymous_args = 0
	@ link register save eliminated.
.LVL201:
	.loc 1 719 0
	ldr	r3, .L290
	ldr	r3, [r3, #120]
	cbz	r3, .L288
	.loc 1 720 0
	bx	r3	@ indirect register sibling call
.LVL202:
.L288:
	bx	lr
.L291:
	.align	2
.L290:
	.word	osdep_service
	.cfi_endproc
.LFE350:
	.size	rtw_spinlock_free, .-rtw_spinlock_free
	.section	.text.rtw_spin_lock,"ax",%progbits
	.align	1
	.p2align 2,,3
	.global	rtw_spin_lock
	.syntax unified
	.thumb
	.thumb_func
	.fpu softvfp
	.type	rtw_spin_lock, %function
rtw_spin_lock:
.LFB351:
	.loc 1 726 0
	.cfi_startproc
	@ args = 0, pretend = 0, frame = 0
	@ frame_needed = 0, uses_anonymous_args = 0
	@ link register save eliminated.
.LVL203:
	.loc 1 727 0
	ldr	r3, .L294
	ldr	r3, [r3, #124]
	cbz	r3, .L292
	.loc 1 728 0
	bx	r3	@ indirect register sibling call
.LVL204:
.L292:
	bx	lr
.L295:
	.align	2
.L294:
	.word	osdep_service
	.cfi_endproc
.LFE351:
	.size	rtw_spin_lock, .-rtw_spin_lock
	.section	.text.rtw_spin_unlock,"ax",%progbits
	.align	1
	.p2align 2,,3
	.global	rtw_spin_unlock
	.syntax unified
	.thumb
	.thumb_func
	.fpu softvfp
	.type	rtw_spin_unlock, %function
rtw_spin_unlock:
.LFB352:
	.loc 1 734 0
	.cfi_startproc
	@ args = 0, pretend = 0, frame = 0
	@ frame_needed = 0, uses_anonymous_args = 0
	@ link register save eliminated.
.LVL205:
	.loc 1 735 0
	ldr	r3, .L298
	ldr	r3, [r3, #128]
	cbz	r3, .L296
	.loc 1 736 0
	bx	r3	@ indirect register sibling call
.LVL206:
.L296:
	bx	lr
.L299:
	.align	2
.L298:
	.word	osdep_service
	.cfi_endproc
.LFE352:
	.size	rtw_spin_unlock, .-rtw_spin_unlock
	.section	.text.rtw_spinlock_irqsave,"ax",%progbits
	.align	1
	.p2align 2,,3
	.global	rtw_spinlock_irqsave
	.syntax unified
	.thumb
	.thumb_func
	.fpu softvfp
	.type	rtw_spinlock_irqsave, %function
rtw_spinlock_irqsave:
.LFB353:
	.loc 1 742 0
	.cfi_startproc
	@ args = 0, pretend = 0, frame = 0
	@ frame_needed = 0, uses_anonymous_args = 0
	@ link register save eliminated.
.LVL207:
	.loc 1 743 0
	ldr	r3, .L302
	ldr	r3, [r3, #132]
	cbz	r3, .L300
	.loc 1 744 0
	bx	r3	@ indirect register sibling call
.LVL208:
.L300:
	bx	lr
.L303:
	.align	2
.L302:
	.word	osdep_service
	.cfi_endproc
.LFE353:
	.size	rtw_spinlock_irqsave, .-rtw_spinlock_irqsave
	.section	.text.rtw_spinunlock_irqsave,"ax",%progbits
	.align	1
	.p2align 2,,3
	.global	rtw_spinunlock_irqsave
	.syntax unified
	.thumb
	.thumb_func
	.fpu softvfp
	.type	rtw_spinunlock_irqsave, %function
rtw_spinunlock_irqsave:
.LFB354:
	.loc 1 750 0
	.cfi_startproc
	@ args = 0, pretend = 0, frame = 0
	@ frame_needed = 0, uses_anonymous_args = 0
	@ link register save eliminated.
.LVL209:
	.loc 1 751 0
	ldr	r3, .L306
	ldr	r3, [r3, #136]
	cbz	r3, .L304
	.loc 1 752 0
	bx	r3	@ indirect register sibling call
.LVL210:
.L304:
	bx	lr
.L307:
	.align	2
.L306:
	.word	osdep_service
	.cfi_endproc
.LFE354:
	.size	rtw_spinunlock_irqsave, .-rtw_spinunlock_irqsave
	.section	.text.rtw_init_xqueue,"ax",%progbits
	.align	1
	.p2align 2,,3
	.global	rtw_init_xqueue
	.syntax unified
	.thumb
	.thumb_func
	.fpu softvfp
	.type	rtw_init_xqueue, %function
rtw_init_xqueue:
.LFB355:
	.loc 1 759 0
	.cfi_startproc
	@ args = 0, pretend = 0, frame = 0
	@ frame_needed = 0, uses_anonymous_args = 0
	@ link register save eliminated.
.LVL211:
	push	{r4}
	.cfi_def_cfa_offset 4
	.cfi_offset 4, -4
	.loc 1 760 0
	ldr	r4, .L311
	ldr	r4, [r4, #140]
	cbz	r4, .L309
	.loc 1 761 0
	mov	ip, r4
	.loc 1 766 0
	pop	{r4}
	.cfi_remember_state
	.cfi_restore 4
	.cfi_def_cfa_offset 0
	.loc 1 761 0
	bx	ip
.LVL212:
.L309:
	.cfi_restore_state
	.loc 1 766 0
	mov	r0, #-1
.LVL213:
	pop	{r4}
	.cfi_restore 4
	.cfi_def_cfa_offset 0
	bx	lr
.L312:
	.align	2
.L311:
	.word	osdep_service
	.cfi_endproc
.LFE355:
	.size	rtw_init_xqueue, .-rtw_init_xqueue
	.section	.text.rtw_push_to_xqueue,"ax",%progbits
	.align	1
	.p2align 2,,3
	.global	rtw_push_to_xqueue
	.syntax unified
	.thumb
	.thumb_func
	.fpu softvfp
	.type	rtw_push_to_xqueue, %function
rtw_push_to_xqueue:
.LFB356:
	.loc 1 769 0
	.cfi_startproc
	@ args = 0, pretend = 0, frame = 0
	@ frame_needed = 0, uses_anonymous_args = 0
	@ link register save eliminated.
.LVL214:
	.loc 1 770 0
	ldr	r3, .L315
	ldr	r3, [r3, #144]
	cbz	r3, .L314
	.loc 1 771 0
	bx	r3
.LVL215:
.L314:
	.loc 1 776 0
	mov	r0, #-1
.LVL216:
	bx	lr
.L316:
	.align	2
.L315:
	.word	osdep_service
	.cfi_endproc
.LFE356:
	.size	rtw_push_to_xqueue, .-rtw_push_to_xqueue
	.section	.text.rtw_pop_from_xqueue,"ax",%progbits
	.align	1
	.p2align 2,,3
	.global	rtw_pop_from_xqueue
	.syntax unified
	.thumb
	.thumb_func
	.fpu softvfp
	.type	rtw_pop_from_xqueue, %function
rtw_pop_from_xqueue:
.LFB357:
	.loc 1 779 0
	.cfi_startproc
	@ args = 0, pretend = 0, frame = 0
	@ frame_needed = 0, uses_anonymous_args = 0
	@ link register save eliminated.
.LVL217:
	.loc 1 780 0
	ldr	r3, .L319
	ldr	r3, [r3, #148]
	cbz	r3, .L318
	.loc 1 781 0
	bx	r3
.LVL218:
.L318:
	.loc 1 786 0
	mov	r0, #-1
.LVL219:
	bx	lr
.L320:
	.align	2
.L319:
	.word	osdep_service
	.cfi_endproc
.LFE357:
	.size	rtw_pop_from_xqueue, .-rtw_pop_from_xqueue
	.section	.text.rtw_peek_from_xqueue,"ax",%progbits
	.align	1
	.p2align 2,,3
	.global	rtw_peek_from_xqueue
	.syntax unified
	.thumb
	.thumb_func
	.fpu softvfp
	.type	rtw_peek_from_xqueue, %function
rtw_peek_from_xqueue:
.LFB358:
	.loc 1 789 0
	.cfi_startproc
	@ args = 0, pretend = 0, frame = 0
	@ frame_needed = 0, uses_anonymous_args = 0
	@ link register save eliminated.
.LVL220:
	.loc 1 790 0
	ldr	r3, .L323
	ldr	r3, [r3, #152]
	cbz	r3, .L322
	.loc 1 791 0
	bx	r3
.LVL221:
.L322:
	.loc 1 796 0
	mov	r0, #-1
.LVL222:
	bx	lr
.L324:
	.align	2
.L323:
	.word	osdep_service
	.cfi_endproc
.LFE358:
	.size	rtw_peek_from_xqueue, .-rtw_peek_from_xqueue
	.section	.text.rtw_deinit_xqueue,"ax",%progbits
	.align	1
	.p2align 2,,3
	.global	rtw_deinit_xqueue
	.syntax unified
	.thumb
	.thumb_func
	.fpu softvfp
	.type	rtw_deinit_xqueue, %function
rtw_deinit_xqueue:
.LFB359:
	.loc 1 799 0
	.cfi_startproc
	@ args = 0, pretend = 0, frame = 0
	@ frame_needed = 0, uses_anonymous_args = 0
	@ link register save eliminated.
.LVL223:
	.loc 1 800 0
	ldr	r3, .L327
	ldr	r3, [r3, #156]
	cbz	r3, .L326
	.loc 1 801 0
	bx	r3
.LVL224:
.L326:
	.loc 1 806 0
	mov	r0, #-1
.LVL225:
	bx	lr
.L328:
	.align	2
.L327:
	.word	osdep_service
	.cfi_endproc
.LFE359:
	.size	rtw_deinit_xqueue, .-rtw_deinit_xqueue
	.section	.text.rtw_get_current_time,"ax",%progbits
	.align	1
	.p2align 2,,3
	.global	rtw_get_current_time
	.syntax unified
	.thumb
	.thumb_func
	.fpu softvfp
	.type	rtw_get_current_time, %function
rtw_get_current_time:
.LFB360:
	.loc 1 840 0
	.cfi_startproc
	@ args = 0, pretend = 0, frame = 0
	@ frame_needed = 0, uses_anonymous_args = 0
	@ link register save eliminated.
	.loc 1 841 0
	ldr	r3, .L331
	ldr	r0, [r3, #160]
	cbz	r0, .L330
	.loc 1 842 0
	bx	r0
.LVL226:
.L330:
	.loc 1 847 0
	bx	lr
.L332:
	.align	2
.L331:
	.word	osdep_service
	.cfi_endproc
.LFE360:
	.size	rtw_get_current_time, .-rtw_get_current_time
	.section	.text.rtw_systime_to_ms,"ax",%progbits
	.align	1
	.p2align 2,,3
	.global	rtw_systime_to_ms
	.syntax unified
	.thumb
	.thumb_func
	.fpu softvfp
	.type	rtw_systime_to_ms, %function
rtw_systime_to_ms:
.LFB361:
	.loc 1 850 0
	.cfi_startproc
	@ args = 0, pretend = 0, frame = 0
	@ frame_needed = 0, uses_anonymous_args = 0
	@ link register save eliminated.
.LVL227:
	.loc 1 851 0
	ldr	r3, .L335
	ldr	r3, [r3, #164]
	cbz	r3, .L334
	.loc 1 852 0
	bx	r3
.LVL228:
.L334:
	.loc 1 857 0
	mov	r0, r3
.LVL229:
	bx	lr
.L336:
	.align	2
.L335:
	.word	osdep_service
	.cfi_endproc
.LFE361:
	.size	rtw_systime_to_ms, .-rtw_systime_to_ms
	.section	.text.rtw_systime_to_sec,"ax",%progbits
	.align	1
	.p2align 2,,3
	.global	rtw_systime_to_sec
	.syntax unified
	.thumb
	.thumb_func
	.fpu softvfp
	.type	rtw_systime_to_sec, %function
rtw_systime_to_sec:
.LFB362:
	.loc 1 860 0
	.cfi_startproc
	@ args = 0, pretend = 0, frame = 0
	@ frame_needed = 0, uses_anonymous_args = 0
	@ link register save eliminated.
.LVL230:
	.loc 1 861 0
	ldr	r3, .L339
	ldr	r3, [r3, #168]
	cbz	r3, .L338
	.loc 1 862 0
	bx	r3
.LVL231:
.L338:
	.loc 1 867 0
	mov	r0, r3
.LVL232:
	bx	lr
.L340:
	.align	2
.L339:
	.word	osdep_service
	.cfi_endproc
.LFE362:
	.size	rtw_systime_to_sec, .-rtw_systime_to_sec
	.section	.text.rtw_ms_to_systime,"ax",%progbits
	.align	1
	.p2align 2,,3
	.global	rtw_ms_to_systime
	.syntax unified
	.thumb
	.thumb_func
	.fpu softvfp
	.type	rtw_ms_to_systime, %function
rtw_ms_to_systime:
.LFB363:
	.loc 1 870 0
	.cfi_startproc
	@ args = 0, pretend = 0, frame = 0
	@ frame_needed = 0, uses_anonymous_args = 0
	@ link register save eliminated.
.LVL233:
	.loc 1 871 0
	ldr	r3, .L343
	ldr	r3, [r3, #172]
	cbz	r3, .L342
	.loc 1 872 0
	bx	r3
.LVL234:
.L342:
	.loc 1 877 0
	mov	r0, r3
.LVL235:
	bx	lr
.L344:
	.align	2
.L343:
	.word	osdep_service
	.cfi_endproc
.LFE363:
	.size	rtw_ms_to_systime, .-rtw_ms_to_systime
	.section	.text.rtw_sec_to_systime,"ax",%progbits
	.align	1
	.p2align 2,,3
	.global	rtw_sec_to_systime
	.syntax unified
	.thumb
	.thumb_func
	.fpu softvfp
	.type	rtw_sec_to_systime, %function
rtw_sec_to_systime:
.LFB364:
	.loc 1 880 0
	.cfi_startproc
	@ args = 0, pretend = 0, frame = 0
	@ frame_needed = 0, uses_anonymous_args = 0
	@ link register save eliminated.
.LVL236:
	.loc 1 881 0
	ldr	r3, .L347
	ldr	r3, [r3, #176]
	cbz	r3, .L346
	.loc 1 882 0
	bx	r3
.LVL237:
.L346:
	.loc 1 887 0
	mov	r0, r3
.LVL238:
	bx	lr
.L348:
	.align	2
.L347:
	.word	osdep_service
	.cfi_endproc
.LFE364:
	.size	rtw_sec_to_systime, .-rtw_sec_to_systime
	.section	.text.rtw_get_passing_time_ms,"ax",%progbits
	.align	1
	.p2align 2,,3
	.global	rtw_get_passing_time_ms
	.syntax unified
	.thumb
	.thumb_func
	.fpu softvfp
	.type	rtw_get_passing_time_ms, %function
rtw_get_passing_time_ms:
.LFB365:
	.loc 1 891 0
	.cfi_startproc
	@ args = 0, pretend = 0, frame = 0
	@ frame_needed = 0, uses_anonymous_args = 0
.LVL239:
	push	{r4, r5, r6, lr}
	.cfi_def_cfa_offset 16
	.cfi_offset 4, -16
	.cfi_offset 5, -12
	.cfi_offset 6, -8
	.cfi_offset 14, -4
.LBB291:
.LBB292:
	.loc 1 841 0
	ldr	r4, .L354
.LBE292:
.LBE291:
	.loc 1 891 0
	mov	r5, r0
.LBB294:
.LBB293:
	.loc 1 841 0
	ldr	r0, [r4, #160]
.LVL240:
	cbz	r0, .L350
	.loc 1 842 0
	blx	r0
.LVL241:
.L350:
.LBE293:
.LBE294:
.LBB295:
.LBB296:
	.loc 1 851 0
	ldr	r3, [r4, #164]
.LBE296:
.LBE295:
	.loc 1 892 0
	subs	r0, r0, r5
.LVL242:
.LBB299:
.LBB297:
	.loc 1 851 0
	cbz	r3, .L351
.LBE297:
.LBE299:
	.loc 1 893 0
	pop	{r4, r5, r6, lr}
	.cfi_remember_state
	.cfi_restore 14
	.cfi_restore 6
	.cfi_restore 5
	.cfi_restore 4
	.cfi_def_cfa_offset 0
.LVL243:
.LBB300:
.LBB298:
	.loc 1 852 0
	bx	r3
.LVL244:
.L351:
	.cfi_restore_state
.LBE298:
.LBE300:
	.loc 1 893 0
	mov	r0, r3
	pop	{r4, r5, r6, pc}
.LVL245:
.L355:
	.align	2
.L354:
	.word	osdep_service
	.cfi_endproc
.LFE365:
	.size	rtw_get_passing_time_ms, .-rtw_get_passing_time_ms
	.section	.text.rtw_get_time_interval_ms,"ax",%progbits
	.align	1
	.p2align 2,,3
	.global	rtw_get_time_interval_ms
	.syntax unified
	.thumb
	.thumb_func
	.fpu softvfp
	.type	rtw_get_time_interval_ms, %function
rtw_get_time_interval_ms:
.LFB366:
	.loc 1 896 0
	.cfi_startproc
	@ args = 0, pretend = 0, frame = 0
	@ frame_needed = 0, uses_anonymous_args = 0
	@ link register save eliminated.
.LVL246:
.LBB301:
.LBB302:
	.loc 1 851 0
	ldr	r3, .L358
.LBE302:
.LBE301:
	.loc 1 897 0
	subs	r0, r1, r0
.LVL247:
.LBB304:
.LBB303:
	.loc 1 851 0
	ldr	r3, [r3, #164]
	cbz	r3, .L357
	.loc 1 852 0
	bx	r3
.LVL248:
.L357:
.LBE303:
.LBE304:
	.loc 1 898 0
	mov	r0, r3
	bx	lr
.L359:
	.align	2
.L358:
	.word	osdep_service
	.cfi_endproc
.LFE366:
	.size	rtw_get_time_interval_ms, .-rtw_get_time_interval_ms
	.section	.text.rtw_msleep_os,"ax",%progbits
	.align	1
	.p2align 2,,3
	.global	rtw_msleep_os
	.syntax unified
	.thumb
	.thumb_func
	.fpu softvfp
	.type	rtw_msleep_os, %function
rtw_msleep_os:
.LFB367:
	.loc 1 901 0
	.cfi_startproc
	@ args = 0, pretend = 0, frame = 0
	@ frame_needed = 0, uses_anonymous_args = 0
	@ link register save eliminated.
.LVL249:
	.loc 1 902 0
	ldr	r3, .L362
	ldr	r3, [r3, #180]
	cbz	r3, .L360
	.loc 1 903 0
	bx	r3	@ indirect register sibling call
.LVL250:
.L360:
	bx	lr
.L363:
	.align	2
.L362:
	.word	osdep_service
	.cfi_endproc
.LFE367:
	.size	rtw_msleep_os, .-rtw_msleep_os
	.section	.text.rtw_usleep_os,"ax",%progbits
	.align	1
	.p2align 2,,3
	.global	rtw_usleep_os
	.syntax unified
	.thumb
	.thumb_func
	.fpu softvfp
	.type	rtw_usleep_os, %function
rtw_usleep_os:
.LFB368:
	.loc 1 909 0
	.cfi_startproc
	@ args = 0, pretend = 0, frame = 0
	@ frame_needed = 0, uses_anonymous_args = 0
	@ link register save eliminated.
.LVL251:
	.loc 1 910 0
	ldr	r3, .L366
	ldr	r3, [r3, #184]
	cbz	r3, .L364
	.loc 1 911 0
	bx	r3	@ indirect register sibling call
.LVL252:
.L364:
	bx	lr
.L367:
	.align	2
.L366:
	.word	osdep_service
	.cfi_endproc
.LFE368:
	.size	rtw_usleep_os, .-rtw_usleep_os
	.section	.text.rtw_mdelay_os,"ax",%progbits
	.align	1
	.p2align 2,,3
	.global	rtw_mdelay_os
	.syntax unified
	.thumb
	.thumb_func
	.fpu softvfp
	.type	rtw_mdelay_os, %function
rtw_mdelay_os:
.LFB369:
	.loc 1 917 0
	.cfi_startproc
	@ args = 0, pretend = 0, frame = 0
	@ frame_needed = 0, uses_anonymous_args = 0
	@ link register save eliminated.
.LVL253:
	.loc 1 918 0
	ldr	r3, .L370
	ldr	r3, [r3, #188]
	cbz	r3, .L368
	.loc 1 919 0
	bx	r3	@ indirect register sibling call
.LVL254:
.L368:
	bx	lr
.L371:
	.align	2
.L370:
	.word	osdep_service
	.cfi_endproc
.LFE369:
	.size	rtw_mdelay_os, .-rtw_mdelay_os
	.section	.text.rtw_udelay_os,"ax",%progbits
	.align	1
	.p2align 2,,3
	.global	rtw_udelay_os
	.syntax unified
	.thumb
	.thumb_func
	.fpu softvfp
	.type	rtw_udelay_os, %function
rtw_udelay_os:
.LFB370:
	.loc 1 925 0
	.cfi_startproc
	@ args = 0, pretend = 0, frame = 0
	@ frame_needed = 0, uses_anonymous_args = 0
	@ link register save eliminated.
.LVL255:
	.loc 1 926 0
	ldr	r3, .L374
	ldr	r3, [r3, #192]
	cbz	r3, .L372
	.loc 1 927 0
	bx	r3	@ indirect register sibling call
.LVL256:
.L372:
	bx	lr
.L375:
	.align	2
.L374:
	.word	osdep_service
	.cfi_endproc
.LFE370:
	.size	rtw_udelay_os, .-rtw_udelay_os
	.section	.text.rtw_yield_os,"ax",%progbits
	.align	1
	.p2align 2,,3
	.global	rtw_yield_os
	.syntax unified
	.thumb
	.thumb_func
	.fpu softvfp
	.type	rtw_yield_os, %function
rtw_yield_os:
.LFB371:
	.loc 1 933 0
	.cfi_startproc
	@ args = 0, pretend = 0, frame = 0
	@ frame_needed = 0, uses_anonymous_args = 0
	@ link register save eliminated.
	.loc 1 934 0
	ldr	r3, .L378
	ldr	r3, [r3, #196]
	cbz	r3, .L376
	.loc 1 935 0
	bx	r3	@ indirect register sibling call
.LVL257:
.L376:
	bx	lr
.L379:
	.align	2
.L378:
	.word	osdep_service
	.cfi_endproc
.LFE371:
	.size	rtw_yield_os, .-rtw_yield_os
	.section	.text.ATOMIC_SET,"ax",%progbits
	.align	1
	.p2align 2,,3
	.global	ATOMIC_SET
	.syntax unified
	.thumb
	.thumb_func
	.fpu softvfp
	.type	ATOMIC_SET, %function
ATOMIC_SET:
.LFB372:
	.loc 1 941 0
	.cfi_startproc
	@ args = 0, pretend = 0, frame = 0
	@ frame_needed = 0, uses_anonymous_args = 0
	@ link register save eliminated.
.LVL258:
	.loc 1 942 0
	ldr	r3, .L382
	ldr	r3, [r3, #200]
	cbz	r3, .L380
	.loc 1 943 0
	bx	r3	@ indirect register sibling call
.LVL259:
.L380:
	bx	lr
.L383:
	.align	2
.L382:
	.word	osdep_service
	.cfi_endproc
.LFE372:
	.size	ATOMIC_SET, .-ATOMIC_SET
	.section	.text.ATOMIC_READ,"ax",%progbits
	.align	1
	.p2align 2,,3
	.global	ATOMIC_READ
	.syntax unified
	.thumb
	.thumb_func
	.fpu softvfp
	.type	ATOMIC_READ, %function
ATOMIC_READ:
.LFB373:
	.loc 1 949 0
	.cfi_startproc
	@ args = 0, pretend = 0, frame = 0
	@ frame_needed = 0, uses_anonymous_args = 0
	@ link register save eliminated.
.LVL260:
	.loc 1 950 0
	ldr	r3, .L386
	ldr	r3, [r3, #204]
	cbz	r3, .L385
	.loc 1 951 0
	bx	r3
.LVL261:
.L385:
	.loc 1 956 0
	mov	r0, r3
.LVL262:
	bx	lr
.L387:
	.align	2
.L386:
	.word	osdep_service
	.cfi_endproc
.LFE373:
	.size	ATOMIC_READ, .-ATOMIC_READ
	.section	.text.ATOMIC_ADD,"ax",%progbits
	.align	1
	.p2align 2,,3
	.global	ATOMIC_ADD
	.syntax unified
	.thumb
	.thumb_func
	.fpu softvfp
	.type	ATOMIC_ADD, %function
ATOMIC_ADD:
.LFB374:
	.loc 1 959 0
	.cfi_startproc
	@ args = 0, pretend = 0, frame = 0
	@ frame_needed = 0, uses_anonymous_args = 0
	@ link register save eliminated.
.LVL263:
	.loc 1 960 0
	ldr	r3, .L390
	ldr	r3, [r3, #208]
	cbz	r3, .L388
	.loc 1 961 0
	bx	r3	@ indirect register sibling call
.LVL264:
.L388:
	bx	lr
.L391:
	.align	2
.L390:
	.word	osdep_service
	.cfi_endproc
.LFE374:
	.size	ATOMIC_ADD, .-ATOMIC_ADD
	.section	.text.ATOMIC_SUB,"ax",%progbits
	.align	1
	.p2align 2,,3
	.global	ATOMIC_SUB
	.syntax unified
	.thumb
	.thumb_func
	.fpu softvfp
	.type	ATOMIC_SUB, %function
ATOMIC_SUB:
.LFB375:
	.loc 1 967 0
	.cfi_startproc
	@ args = 0, pretend = 0, frame = 0
	@ frame_needed = 0, uses_anonymous_args = 0
	@ link register save eliminated.
.LVL265:
	.loc 1 968 0
	ldr	r3, .L394
	ldr	r3, [r3, #212]
	cbz	r3, .L392
	.loc 1 969 0
	bx	r3	@ indirect register sibling call
.LVL266:
.L392:
	bx	lr
.L395:
	.align	2
.L394:
	.word	osdep_service
	.cfi_endproc
.LFE375:
	.size	ATOMIC_SUB, .-ATOMIC_SUB
	.section	.text.ATOMIC_INC,"ax",%progbits
	.align	1
	.p2align 2,,3
	.global	ATOMIC_INC
	.syntax unified
	.thumb
	.thumb_func
	.fpu softvfp
	.type	ATOMIC_INC, %function
ATOMIC_INC:
.LFB376:
	.loc 1 975 0
	.cfi_startproc
	@ args = 0, pretend = 0, frame = 0
	@ frame_needed = 0, uses_anonymous_args = 0
	@ link register save eliminated.
.LVL267:
	.loc 1 976 0
	ldr	r3, .L398
	ldr	r3, [r3, #216]
	cbz	r3, .L396
	.loc 1 977 0
	bx	r3	@ indirect register sibling call
.LVL268:
.L396:
	bx	lr
.L399:
	.align	2
.L398:
	.word	osdep_service
	.cfi_endproc
.LFE376:
	.size	ATOMIC_INC, .-ATOMIC_INC
	.section	.text.ATOMIC_DEC,"ax",%progbits
	.align	1
	.p2align 2,,3
	.global	ATOMIC_DEC
	.syntax unified
	.thumb
	.thumb_func
	.fpu softvfp
	.type	ATOMIC_DEC, %function
ATOMIC_DEC:
.LFB377:
	.loc 1 983 0
	.cfi_startproc
	@ args = 0, pretend = 0, frame = 0
	@ frame_needed = 0, uses_anonymous_args = 0
	@ link register save eliminated.
.LVL269:
	.loc 1 984 0
	ldr	r3, .L402
	ldr	r3, [r3, #220]
	cbz	r3, .L400
	.loc 1 985 0
	bx	r3	@ indirect register sibling call
.LVL270:
.L400:
	bx	lr
.L403:
	.align	2
.L402:
	.word	osdep_service
	.cfi_endproc
.LFE377:
	.size	ATOMIC_DEC, .-ATOMIC_DEC
	.section	.text.ATOMIC_ADD_RETURN,"ax",%progbits
	.align	1
	.p2align 2,,3
	.global	ATOMIC_ADD_RETURN
	.syntax unified
	.thumb
	.thumb_func
	.fpu softvfp
	.type	ATOMIC_ADD_RETURN, %function
ATOMIC_ADD_RETURN:
.LFB378:
	.loc 1 991 0
	.cfi_startproc
	@ args = 0, pretend = 0, frame = 0
	@ frame_needed = 0, uses_anonymous_args = 0
	@ link register save eliminated.
.LVL271:
	.loc 1 992 0
	ldr	r3, .L406
	ldr	r3, [r3, #224]
	cbz	r3, .L405
	.loc 1 993 0
	bx	r3
.LVL272:
.L405:
	.loc 1 998 0
	mov	r0, r3
.LVL273:
	bx	lr
.L407:
	.align	2
.L406:
	.word	osdep_service
	.cfi_endproc
.LFE378:
	.size	ATOMIC_ADD_RETURN, .-ATOMIC_ADD_RETURN
	.section	.text.ATOMIC_SUB_RETURN,"ax",%progbits
	.align	1
	.p2align 2,,3
	.global	ATOMIC_SUB_RETURN
	.syntax unified
	.thumb
	.thumb_func
	.fpu softvfp
	.type	ATOMIC_SUB_RETURN, %function
ATOMIC_SUB_RETURN:
.LFB379:
	.loc 1 1001 0
	.cfi_startproc
	@ args = 0, pretend = 0, frame = 0
	@ frame_needed = 0, uses_anonymous_args = 0
	@ link register save eliminated.
.LVL274:
	.loc 1 1002 0
	ldr	r3, .L410
	ldr	r3, [r3, #228]
	cbz	r3, .L409
	.loc 1 1003 0
	bx	r3
.LVL275:
.L409:
	.loc 1 1008 0
	mov	r0, r3
.LVL276:
	bx	lr
.L411:
	.align	2
.L410:
	.word	osdep_service
	.cfi_endproc
.LFE379:
	.size	ATOMIC_SUB_RETURN, .-ATOMIC_SUB_RETURN
	.section	.text.ATOMIC_INC_RETURN,"ax",%progbits
	.align	1
	.p2align 2,,3
	.global	ATOMIC_INC_RETURN
	.syntax unified
	.thumb
	.thumb_func
	.fpu softvfp
	.type	ATOMIC_INC_RETURN, %function
ATOMIC_INC_RETURN:
.LFB380:
	.loc 1 1011 0
	.cfi_startproc
	@ args = 0, pretend = 0, frame = 0
	@ frame_needed = 0, uses_anonymous_args = 0
	@ link register save eliminated.
.LVL277:
	.loc 1 1012 0
	ldr	r3, .L414
	ldr	r3, [r3, #232]
	cbz	r3, .L413
	.loc 1 1013 0
	bx	r3
.LVL278:
.L413:
	.loc 1 1018 0
	mov	r0, r3
.LVL279:
	bx	lr
.L415:
	.align	2
.L414:
	.word	osdep_service
	.cfi_endproc
.LFE380:
	.size	ATOMIC_INC_RETURN, .-ATOMIC_INC_RETURN
	.section	.text.ATOMIC_DEC_RETURN,"ax",%progbits
	.align	1
	.p2align 2,,3
	.global	ATOMIC_DEC_RETURN
	.syntax unified
	.thumb
	.thumb_func
	.fpu softvfp
	.type	ATOMIC_DEC_RETURN, %function
ATOMIC_DEC_RETURN:
.LFB381:
	.loc 1 1021 0
	.cfi_startproc
	@ args = 0, pretend = 0, frame = 0
	@ frame_needed = 0, uses_anonymous_args = 0
	@ link register save eliminated.
.LVL280:
	.loc 1 1022 0
	ldr	r3, .L418
	ldr	r3, [r3, #236]
	cbz	r3, .L417
	.loc 1 1023 0
	bx	r3
.LVL281:
.L417:
	.loc 1 1028 0
	mov	r0, r3
.LVL282:
	bx	lr
.L419:
	.align	2
.L418:
	.word	osdep_service
	.cfi_endproc
.LFE381:
	.size	ATOMIC_DEC_RETURN, .-ATOMIC_DEC_RETURN
	.section	.text.ATOMIC_DEC_AND_TEST,"ax",%progbits
	.align	1
	.p2align 2,,3
	.global	ATOMIC_DEC_AND_TEST
	.syntax unified
	.thumb
	.thumb_func
	.fpu softvfp
	.type	ATOMIC_DEC_AND_TEST, %function
ATOMIC_DEC_AND_TEST:
.LFB382:
	.loc 1 1031 0
	.cfi_startproc
	@ args = 0, pretend = 0, frame = 0
	@ frame_needed = 0, uses_anonymous_args = 0
.LVL283:
	push	{r3, lr}
	.cfi_def_cfa_offset 8
	.cfi_offset 3, -8
	.cfi_offset 14, -4
.LBB305:
.LBB306:
	.loc 1 1022 0
	ldr	r3, .L424
	ldr	r3, [r3, #236]
	cbz	r3, .L422
	.loc 1 1023 0
	blx	r3
.LVL284:
	clz	r0, r0
	lsrs	r0, r0, #5
	pop	{r3, pc}
.LVL285:
.L422:
	.loc 1 1022 0
	movs	r0, #1
.LVL286:
.LBE306:
.LBE305:
	.loc 1 1033 0
	pop	{r3, pc}
.L425:
	.align	2
.L424:
	.word	osdep_service
	.cfi_endproc
.LFE382:
	.size	ATOMIC_DEC_AND_TEST, .-ATOMIC_DEC_AND_TEST
	.section	.text.rtw_modular64,"ax",%progbits
	.align	1
	.p2align 2,,3
	.global	rtw_modular64
	.syntax unified
	.thumb
	.thumb_func
	.fpu softvfp
	.type	rtw_modular64, %function
rtw_modular64:
.LFB383:
	.loc 1 1036 0
	.cfi_startproc
	@ args = 0, pretend = 0, frame = 0
	@ frame_needed = 0, uses_anonymous_args = 0
	@ link register save eliminated.
.LVL287:
	push	{r4}
	.cfi_def_cfa_offset 4
	.cfi_offset 4, -4
	.loc 1 1037 0
	ldr	r4, .L429
	ldr	r4, [r4, #240]
	cbz	r4, .L427
	.loc 1 1038 0
	mov	ip, r4
	.loc 1 1043 0
	pop	{r4}
	.cfi_remember_state
	.cfi_restore 4
	.cfi_def_cfa_offset 0
	.loc 1 1038 0
	bx	ip
.LVL288:
.L427:
	.cfi_restore_state
	.loc 1 1043 0
	movs	r0, #0
.LVL289:
	movs	r1, #0
	pop	{r4}
	.cfi_restore 4
	.cfi_def_cfa_offset 0
	bx	lr
.L430:
	.align	2
.L429:
	.word	osdep_service
	.cfi_endproc
.LFE383:
	.size	rtw_modular64, .-rtw_modular64
	.section	.text.rtw_get_random_bytes,"ax",%progbits
	.align	1
	.p2align 2,,3
	.global	rtw_get_random_bytes
	.syntax unified
	.thumb
	.thumb_func
	.fpu softvfp
	.type	rtw_get_random_bytes, %function
rtw_get_random_bytes:
.LFB384:
	.loc 1 1046 0
	.cfi_startproc
	@ args = 0, pretend = 0, frame = 0
	@ frame_needed = 0, uses_anonymous_args = 0
	@ link register save eliminated.
.LVL290:
	.loc 1 1047 0
	ldr	r3, .L433
	ldr	r3, [r3, #244]
	cbz	r3, .L432
	.loc 1 1048 0
	bx	r3
.LVL291:
.L432:
	.loc 1 1053 0
	mov	r0, r3
.LVL292:
	bx	lr
.L434:
	.align	2
.L433:
	.word	osdep_service
	.cfi_endproc
.LFE384:
	.size	rtw_get_random_bytes, .-rtw_get_random_bytes
	.section	.text.rtw_getFreeHeapSize,"ax",%progbits
	.align	1
	.p2align 2,,3
	.global	rtw_getFreeHeapSize
	.syntax unified
	.thumb
	.thumb_func
	.fpu softvfp
	.type	rtw_getFreeHeapSize, %function
rtw_getFreeHeapSize:
.LFB385:
	.loc 1 1056 0
	.cfi_startproc
	@ args = 0, pretend = 0, frame = 0
	@ frame_needed = 0, uses_anonymous_args = 0
	@ link register save eliminated.
	.loc 1 1057 0
	ldr	r3, .L437
	ldr	r0, [r3, #248]
	cbz	r0, .L436
	.loc 1 1058 0
	bx	r0
.LVL293:
.L436:
	.loc 1 1063 0
	bx	lr
.L438:
	.align	2
.L437:
	.word	osdep_service
	.cfi_endproc
.LFE385:
	.size	rtw_getFreeHeapSize, .-rtw_getFreeHeapSize
	.section	.text.rtw_netif_queue_stopped,"ax",%progbits
	.align	1
	.p2align 2,,3
	.global	rtw_netif_queue_stopped
	.syntax unified
	.thumb
	.thumb_func
	.fpu softvfp
	.type	rtw_netif_queue_stopped, %function
rtw_netif_queue_stopped:
.LFB386:
	.loc 1 1066 0
	.cfi_startproc
	@ args = 0, pretend = 0, frame = 0
	@ frame_needed = 0, uses_anonymous_args = 0
	@ link register save eliminated.
.LVL294:
	.loc 1 1071 0
	movs	r0, #0
.LVL295:
	bx	lr
	.cfi_endproc
.LFE386:
	.size	rtw_netif_queue_stopped, .-rtw_netif_queue_stopped
	.section	.text.rtw_netif_wake_queue,"ax",%progbits
	.align	1
	.p2align 2,,3
	.global	rtw_netif_wake_queue
	.syntax unified
	.thumb
	.thumb_func
	.fpu softvfp
	.type	rtw_netif_wake_queue, %function
rtw_netif_wake_queue:
.LFB426:
	.cfi_startproc
	@ args = 0, pretend = 0, frame = 0
	@ frame_needed = 0, uses_anonymous_args = 0
	@ link register save eliminated.
	bx	lr
	.cfi_endproc
.LFE426:
	.size	rtw_netif_wake_queue, .-rtw_netif_wake_queue
	.section	.text.rtw_netif_start_queue,"ax",%progbits
	.align	1
	.p2align 2,,3
	.global	rtw_netif_start_queue
	.syntax unified
	.thumb
	.thumb_func
	.fpu softvfp
	.type	rtw_netif_start_queue, %function
rtw_netif_start_queue:
.LFB424:
	.cfi_startproc
	@ args = 0, pretend = 0, frame = 0
	@ frame_needed = 0, uses_anonymous_args = 0
	@ link register save eliminated.
	bx	lr
	.cfi_endproc
.LFE424:
	.size	rtw_netif_start_queue, .-rtw_netif_start_queue
	.section	.text.rtw_netif_stop_queue,"ax",%progbits
	.align	1
	.p2align 2,,3
	.global	rtw_netif_stop_queue
	.syntax unified
	.thumb
	.thumb_func
	.fpu softvfp
	.type	rtw_netif_stop_queue, %function
rtw_netif_stop_queue:
.LFB389:
	.loc 1 1086 0
	.cfi_startproc
	@ args = 0, pretend = 0, frame = 0
	@ frame_needed = 0, uses_anonymous_args = 0
	@ link register save eliminated.
.LVL296:
	bx	lr
	.cfi_endproc
.LFE389:
	.size	rtw_netif_stop_queue, .-rtw_netif_stop_queue
	.section	.text.flush_signals_thread,"ax",%progbits
	.align	1
	.p2align 2,,3
	.global	flush_signals_thread
	.syntax unified
	.thumb
	.thumb_func
	.fpu softvfp
	.type	flush_signals_thread, %function
flush_signals_thread:
.LFB390:
	.loc 1 1092 0
	.cfi_startproc
	@ args = 0, pretend = 0, frame = 0
	@ frame_needed = 0, uses_anonymous_args = 0
	@ link register save eliminated.
	bx	lr
	.cfi_endproc
.LFE390:
	.size	flush_signals_thread, .-flush_signals_thread
	.section	.text.rtw_acquire_wakelock,"ax",%progbits
	.align	1
	.p2align 2,,3
	.global	rtw_acquire_wakelock
	.syntax unified
	.thumb
	.thumb_func
	.fpu softvfp
	.type	rtw_acquire_wakelock, %function
rtw_acquire_wakelock:
.LFB391:
	.loc 1 1096 0
	.cfi_startproc
	@ args = 0, pretend = 0, frame = 0
	@ frame_needed = 0, uses_anonymous_args = 0
	@ link register save eliminated.
	.loc 1 1097 0
	ldr	r3, .L446
	ldr	r3, [r3, #336]
	cbz	r3, .L444
	.loc 1 1098 0
	bx	r3	@ indirect register sibling call
.LVL297:
.L444:
	bx	lr
.L447:
	.align	2
.L446:
	.word	osdep_service
	.cfi_endproc
.LFE391:
	.size	rtw_acquire_wakelock, .-rtw_acquire_wakelock
	.section	.text.rtw_release_wakelock,"ax",%progbits
	.align	1
	.p2align 2,,3
	.global	rtw_release_wakelock
	.syntax unified
	.thumb
	.thumb_func
	.fpu softvfp
	.type	rtw_release_wakelock, %function
rtw_release_wakelock:
.LFB392:
	.loc 1 1104 0
	.cfi_startproc
	@ args = 0, pretend = 0, frame = 0
	@ frame_needed = 0, uses_anonymous_args = 0
	@ link register save eliminated.
	.loc 1 1105 0
	ldr	r3, .L450
	ldr	r3, [r3, #340]
	cbz	r3, .L448
	.loc 1 1106 0
	bx	r3	@ indirect register sibling call
.LVL298:
.L448:
	bx	lr
.L451:
	.align	2
.L450:
	.word	osdep_service
	.cfi_endproc
.LFE392:
	.size	rtw_release_wakelock, .-rtw_release_wakelock
	.section	.text.rtw_wakelock_timeout,"ax",%progbits
	.align	1
	.p2align 2,,3
	.global	rtw_wakelock_timeout
	.syntax unified
	.thumb
	.thumb_func
	.fpu softvfp
	.type	rtw_wakelock_timeout, %function
rtw_wakelock_timeout:
.LFB393:
	.loc 1 1112 0
	.cfi_startproc
	@ args = 0, pretend = 0, frame = 0
	@ frame_needed = 0, uses_anonymous_args = 0
	@ link register save eliminated.
.LVL299:
	.loc 1 1113 0
	ldr	r3, .L454
	ldr	r3, [r3, #344]
	cbz	r3, .L452
	.loc 1 1114 0
	bx	r3	@ indirect register sibling call
.LVL300:
.L452:
	bx	lr
.L455:
	.align	2
.L454:
	.word	osdep_service
	.cfi_endproc
.LFE393:
	.size	rtw_wakelock_timeout, .-rtw_wakelock_timeout
	.section	.text.rtw_create_task,"ax",%progbits
	.align	1
	.p2align 2,,3
	.global	rtw_create_task
	.syntax unified
	.thumb
	.thumb_func
	.fpu softvfp
	.type	rtw_create_task, %function
rtw_create_task:
.LFB394:
	.loc 1 1121 0
	.cfi_startproc
	@ args = 8, pretend = 0, frame = 0
	@ frame_needed = 0, uses_anonymous_args = 0
	@ link register save eliminated.
.LVL301:
	push	{r4, r5, r6}
	.cfi_def_cfa_offset 12
	.cfi_offset 4, -12
	.cfi_offset 5, -8
	.cfi_offset 6, -4
	.loc 1 1122 0
	ldr	r4, .L459
	ldr	r4, [r4, #252]
	cbz	r4, .L457
	.loc 1 1123 0
	mov	ip, r4
	.loc 1 1127 0
	pop	{r4, r5, r6}
	.cfi_remember_state
	.cfi_restore 6
	.cfi_restore 5
	.cfi_restore 4
	.cfi_def_cfa_offset 0
.LVL302:
	.loc 1 1123 0
	bx	ip
.LVL303:
.L457:
	.cfi_restore_state
	.loc 1 1127 0
	movs	r0, #1
.LVL304:
	pop	{r4, r5, r6}
	.cfi_restore 6
	.cfi_restore 5
	.cfi_restore 4
	.cfi_def_cfa_offset 0
.LVL305:
	bx	lr
.L460:
	.align	2
.L459:
	.word	osdep_service
	.cfi_endproc
.LFE394:
	.size	rtw_create_task, .-rtw_create_task
	.section	.text.rtw_delete_task,"ax",%progbits
	.align	1
	.p2align 2,,3
	.global	rtw_delete_task
	.syntax unified
	.thumb
	.thumb_func
	.fpu softvfp
	.type	rtw_delete_task, %function
rtw_delete_task:
.LFB395:
	.loc 1 1129 0
	.cfi_startproc
	@ args = 0, pretend = 0, frame = 0
	@ frame_needed = 0, uses_anonymous_args = 0
	@ link register save eliminated.
.LVL306:
	.loc 1 1130 0
	ldr	r3, .L463
	ldr	r3, [r3, #256]
	cbz	r3, .L461
	.loc 1 1131 0
	bx	r3	@ indirect register sibling call
.LVL307:
.L461:
	bx	lr
.L464:
	.align	2
.L463:
	.word	osdep_service
	.cfi_endproc
.LFE395:
	.size	rtw_delete_task, .-rtw_delete_task
	.section	.text.rtw_wakeup_task,"ax",%progbits
	.align	1
	.p2align 2,,3
	.global	rtw_wakeup_task
	.syntax unified
	.thumb
	.thumb_func
	.fpu softvfp
	.type	rtw_wakeup_task, %function
rtw_wakeup_task:
.LFB396:
	.loc 1 1138 0
	.cfi_startproc
	@ args = 0, pretend = 0, frame = 0
	@ frame_needed = 0, uses_anonymous_args = 0
	@ link register save eliminated.
.LVL308:
	.loc 1 1139 0
	ldr	r3, .L467
	ldr	r3, [r3, #260]
	cbz	r3, .L465
	.loc 1 1140 0
	bx	r3	@ indirect register sibling call
.LVL309:
.L465:
	bx	lr
.L468:
	.align	2
.L467:
	.word	osdep_service
	.cfi_endproc
.LFE396:
	.size	rtw_wakeup_task, .-rtw_wakeup_task
	.section	.text.rtw_set_priority_task,"ax",%progbits
	.align	1
	.p2align 2,,3
	.global	rtw_set_priority_task
	.syntax unified
	.thumb
	.thumb_func
	.fpu softvfp
	.type	rtw_set_priority_task, %function
rtw_set_priority_task:
.LFB397:
	.loc 1 1148 0
	.cfi_startproc
	@ args = 0, pretend = 0, frame = 0
	@ frame_needed = 0, uses_anonymous_args = 0
	@ link register save eliminated.
.LVL310:
	.loc 1 1149 0
	ldr	r3, .L471
	ldr	r3, [r3, #264]
	cbz	r3, .L469
	.loc 1 1150 0
	bx	r3	@ indirect register sibling call
.LVL311:
.L469:
	bx	lr
.L472:
	.align	2
.L471:
	.word	osdep_service
	.cfi_endproc
.LFE397:
	.size	rtw_set_priority_task, .-rtw_set_priority_task
	.section	.text.rtw_get_priority_task,"ax",%progbits
	.align	1
	.p2align 2,,3
	.global	rtw_get_priority_task
	.syntax unified
	.thumb
	.thumb_func
	.fpu softvfp
	.type	rtw_get_priority_task, %function
rtw_get_priority_task:
.LFB398:
	.loc 1 1158 0
	.cfi_startproc
	@ args = 0, pretend = 0, frame = 0
	@ frame_needed = 0, uses_anonymous_args = 0
	@ link register save eliminated.
.LVL312:
	.loc 1 1159 0
	ldr	r3, .L475
	ldr	r3, [r3, #268]
	cbz	r3, .L474
	.loc 1 1160 0
	bx	r3
.LVL313:
.L474:
	.loc 1 1165 0
	mov	r0, #-1
.LVL314:
	bx	lr
.L476:
	.align	2
.L475:
	.word	osdep_service
	.cfi_endproc
.LFE398:
	.size	rtw_get_priority_task, .-rtw_get_priority_task
	.section	.text.rtw_suspend_task,"ax",%progbits
	.align	1
	.p2align 2,,3
	.global	rtw_suspend_task
	.syntax unified
	.thumb
	.thumb_func
	.fpu softvfp
	.type	rtw_suspend_task, %function
rtw_suspend_task:
.LFB399:
	.loc 1 1168 0
	.cfi_startproc
	@ args = 0, pretend = 0, frame = 0
	@ frame_needed = 0, uses_anonymous_args = 0
	@ link register save eliminated.
.LVL315:
	.loc 1 1169 0
	ldr	r3, .L479
	ldr	r3, [r3, #272]
	cbz	r3, .L477
	.loc 1 1170 0
	bx	r3	@ indirect register sibling call
.LVL316:
.L477:
	bx	lr
.L480:
	.align	2
.L479:
	.word	osdep_service
	.cfi_endproc
.LFE399:
	.size	rtw_suspend_task, .-rtw_suspend_task
	.section	.text.rtw_resume_task,"ax",%progbits
	.align	1
	.p2align 2,,3
	.global	rtw_resume_task
	.syntax unified
	.thumb
	.thumb_func
	.fpu softvfp
	.type	rtw_resume_task, %function
rtw_resume_task:
.LFB400:
	.loc 1 1178 0
	.cfi_startproc
	@ args = 0, pretend = 0, frame = 0
	@ frame_needed = 0, uses_anonymous_args = 0
	@ link register save eliminated.
.LVL317:
	.loc 1 1179 0
	ldr	r3, .L483
	ldr	r3, [r3, #276]
	cbz	r3, .L481
	.loc 1 1180 0
	bx	r3	@ indirect register sibling call
.LVL318:
.L481:
	bx	lr
.L484:
	.align	2
.L483:
	.word	osdep_service
	.cfi_endproc
.LFE400:
	.size	rtw_resume_task, .-rtw_resume_task
	.section	.text.rtw_create_worker_thread,"ax",%progbits
	.align	1
	.p2align 2,,3
	.global	rtw_create_worker_thread
	.syntax unified
	.thumb
	.thumb_func
	.fpu softvfp
	.type	rtw_create_worker_thread, %function
rtw_create_worker_thread:
.LFB402:
	.loc 1 1208 0
	.cfi_startproc
	@ args = 0, pretend = 0, frame = 0
	@ frame_needed = 0, uses_anonymous_args = 0
.LVL319:
	push	{r4, r5, r6, r7, r8, r9, lr}
	.cfi_def_cfa_offset 28
	.cfi_offset 4, -28
	.cfi_offset 5, -24
	.cfi_offset 6, -20
	.cfi_offset 7, -16
	.cfi_offset 8, -12
	.cfi_offset 9, -8
	.cfi_offset 14, -4
	sub	sp, sp, #12
	.cfi_def_cfa_offset 40
	.loc 1 1209 0
	cbz	r0, .L498
	.loc 1 1212 0
	movs	r5, #0
.LBB307:
.LBB308:
	.loc 1 760 0
	ldr	r6, .L499
.LBE308:
.LBE307:
	.loc 1 1212 0
	str	r5, [r0]	@ unaligned
	str	r5, [r0, #4]	@ unaligned
	str	r5, [r0, #8]	@ unaligned
	str	r5, [r0, #12]	@ unaligned
	str	r5, [r0, #16]	@ unaligned
	str	r5, [r0, #20]	@ unaligned
	str	r5, [r0, #24]	@ unaligned
.LVL320:
.LBB310:
.LBB309:
	.loc 1 760 0
	ldr	r5, [r6, #140]
	mov	r4, r0
	cbz	r5, .L498
	mov	r9, r2
	mov	r7, r1
	.loc 1 761 0
	movs	r2, #20
.LVL321:
	ldr	r1, .L499+4
.LVL322:
	blx	r5
.LVL323:
.LBE309:
.LBE310:
	.loc 1 1214 0
	mov	r5, r0
	cbnz	r0, .L498
.LVL324:
.LBB311:
.LBB312:
	.loc 1 1122 0
	ldr	r8, [r6, #252]
	cmp	r8, #0
	beq	.L485
	.loc 1 1123 0
	ldr	r1, .L499+8
	str	r4, [sp, #4]
	str	r1, [sp]
	mov	r3, r7
	mov	r2, r9
	ldr	r1, .L499+12
	adds	r0, r4, #4
.LVL325:
	blx	r8
.LVL326:
.LBE312:
.LBE311:
	.loc 1 1219 0
	cbnz	r0, .L485
.LVL327:
.LBB313:
.LBB314:
	.loc 1 800 0
	ldr	r3, [r6, #156]
	cbz	r3, .L498
	.loc 1 801 0
	mov	r0, r4
	blx	r3
.LVL328:
.L498:
.LBE314:
.LBE313:
	.loc 1 1222 0
	mov	r5, #-1
.L485:
	.loc 1 1226 0
	mov	r0, r5
	add	sp, sp, #12
	.cfi_def_cfa_offset 28
	@ sp needed
	pop	{r4, r5, r6, r7, r8, r9, pc}
.L500:
	.align	2
.L499:
	.word	osdep_service
	.word	.LC1
	.word	worker_thread_main
	.word	.LC2
	.cfi_endproc
.LFE402:
	.size	rtw_create_worker_thread, .-rtw_create_worker_thread
	.section	.text.rtw_delete_worker_thread,"ax",%progbits
	.align	1
	.p2align 2,,3
	.global	rtw_delete_worker_thread
	.syntax unified
	.thumb
	.thumb_func
	.fpu softvfp
	.type	rtw_delete_worker_thread, %function
rtw_delete_worker_thread:
.LFB403:
	.loc 1 1229 0
	.cfi_startproc
	@ args = 0, pretend = 0, frame = 0
	@ frame_needed = 0, uses_anonymous_args = 0
.LVL329:
	.loc 1 1230 0
	cbz	r0, .L504
.LVL330:
	.loc 1 1229 0
	push	{r3, r4, r5, lr}
	.cfi_def_cfa_offset 16
	.cfi_offset 3, -16
	.cfi_offset 4, -12
	.cfi_offset 5, -8
	.cfi_offset 14, -4
.LBB315:
.LBB316:
	.loc 1 800 0
	ldr	r5, .L514
	mov	r4, r0
	ldr	r3, [r5, #156]
	cbz	r3, .L503
	.loc 1 801 0
	blx	r3
.LVL331:
.L503:
.LBE316:
.LBE315:
.LBB317:
.LBB318:
	.loc 1 1130 0
	ldr	r3, [r5, #256]
.LBE318:
.LBE317:
	.loc 1 1235 0
	adds	r0, r4, #4
.LVL332:
.LBB320:
.LBB319:
	.loc 1 1130 0
	cbz	r3, .L513
	.loc 1 1131 0
	blx	r3
.LVL333:
.L513:
.LBE319:
.LBE320:
	.loc 1 1237 0
	movs	r0, #0
	pop	{r3, r4, r5, pc}
.LVL334:
.L504:
	.cfi_def_cfa_offset 0
	.cfi_restore 3
	.cfi_restore 4
	.cfi_restore 5
	.cfi_restore 14
	.loc 1 1231 0
	mov	r0, #-1
.LVL335:
	bx	lr
.L515:
	.align	2
.L514:
	.word	osdep_service
	.cfi_endproc
.LFE403:
	.size	rtw_delete_worker_thread, .-rtw_delete_worker_thread
	.section	.text.rtw_timerCreate,"ax",%progbits
	.align	1
	.p2align 2,,3
	.global	rtw_timerCreate
	.syntax unified
	.thumb
	.thumb_func
	.fpu softvfp
	.type	rtw_timerCreate, %function
rtw_timerCreate:
.LFB404:
	.loc 1 1245 0
	.cfi_startproc
	@ args = 4, pretend = 0, frame = 0
	@ frame_needed = 0, uses_anonymous_args = 0
	@ link register save eliminated.
.LVL336:
	push	{r4, r5}
	.cfi_def_cfa_offset 8
	.cfi_offset 4, -8
	.cfi_offset 5, -4
	.loc 1 1246 0
	ldr	r4, .L519
	ldr	r4, [r4, #288]
	cbz	r4, .L517
	.loc 1 1247 0
	mov	ip, r4
	.loc 1 1253 0
	pop	{r4, r5}
	.cfi_remember_state
	.cfi_restore 5
	.cfi_restore 4
	.cfi_def_cfa_offset 0
.LVL337:
	.loc 1 1247 0
	bx	ip
.LVL338:
.L517:
	.cfi_restore_state
	.loc 1 1253 0
	mov	r0, r4
.LVL339:
	pop	{r4, r5}
	.cfi_restore 5
	.cfi_restore 4
	.cfi_def_cfa_offset 0
.LVL340:
	bx	lr
.L520:
	.align	2
.L519:
	.word	osdep_service
	.cfi_endproc
.LFE404:
	.size	rtw_timerCreate, .-rtw_timerCreate
	.section	.text.rtw_timerDelete,"ax",%progbits
	.align	1
	.p2align 2,,3
	.global	rtw_timerDelete
	.syntax unified
	.thumb
	.thumb_func
	.fpu softvfp
	.type	rtw_timerDelete, %function
rtw_timerDelete:
.LFB405:
	.loc 1 1257 0
	.cfi_startproc
	@ args = 0, pretend = 0, frame = 0
	@ frame_needed = 0, uses_anonymous_args = 0
	@ link register save eliminated.
.LVL341:
	.loc 1 1258 0
	ldr	r3, .L523
	ldr	r3, [r3, #292]
	cbz	r3, .L522
	.loc 1 1259 0
	bx	r3
.LVL342:
.L522:
	.loc 1 1264 0
	mov	r0, r3
.LVL343:
	bx	lr
.L524:
	.align	2
.L523:
	.word	osdep_service
	.cfi_endproc
.LFE405:
	.size	rtw_timerDelete, .-rtw_timerDelete
	.section	.text.rtw_timerIsTimerActive,"ax",%progbits
	.align	1
	.p2align 2,,3
	.global	rtw_timerIsTimerActive
	.syntax unified
	.thumb
	.thumb_func
	.fpu softvfp
	.type	rtw_timerIsTimerActive, %function
rtw_timerIsTimerActive:
.LFB406:
	.loc 1 1267 0
	.cfi_startproc
	@ args = 0, pretend = 0, frame = 0
	@ frame_needed = 0, uses_anonymous_args = 0
	@ link register save eliminated.
.LVL344:
	.loc 1 1268 0
	ldr	r3, .L527
	ldr	r3, [r3, #296]
	cbz	r3, .L526
	.loc 1 1269 0
	bx	r3
.LVL345:
.L526:
	.loc 1 1274 0
	mov	r0, r3
.LVL346:
	bx	lr
.L528:
	.align	2
.L527:
	.word	osdep_service
	.cfi_endproc
.LFE406:
	.size	rtw_timerIsTimerActive, .-rtw_timerIsTimerActive
	.section	.text.rtw_timerStop,"ax",%progbits
	.align	1
	.p2align 2,,3
	.global	rtw_timerStop
	.syntax unified
	.thumb
	.thumb_func
	.fpu softvfp
	.type	rtw_timerStop, %function
rtw_timerStop:
.LFB407:
	.loc 1 1278 0
	.cfi_startproc
	@ args = 0, pretend = 0, frame = 0
	@ frame_needed = 0, uses_anonymous_args = 0
	@ link register save eliminated.
.LVL347:
	.loc 1 1279 0
	ldr	r3, .L531
	ldr	r3, [r3, #300]
	cbz	r3, .L530
	.loc 1 1280 0
	bx	r3
.LVL348:
.L530:
	.loc 1 1285 0
	mov	r0, r3
.LVL349:
	bx	lr
.L532:
	.align	2
.L531:
	.word	osdep_service
	.cfi_endproc
.LFE407:
	.size	rtw_timerStop, .-rtw_timerStop
	.section	.text.rtw_timerChangePeriod,"ax",%progbits
	.align	1
	.p2align 2,,3
	.global	rtw_timerChangePeriod
	.syntax unified
	.thumb
	.thumb_func
	.fpu softvfp
	.type	rtw_timerChangePeriod, %function
rtw_timerChangePeriod:
.LFB408:
	.loc 1 1290 0
	.cfi_startproc
	@ args = 0, pretend = 0, frame = 0
	@ frame_needed = 0, uses_anonymous_args = 0
	@ link register save eliminated.
.LVL350:
	.loc 1 1291 0
	ldr	r3, .L535
	ldr	r3, [r3, #304]
	cbz	r3, .L534
	.loc 1 1292 0
	bx	r3
.LVL351:
.L534:
	.loc 1 1297 0
	mov	r0, r3
.LVL352:
	bx	lr
.L536:
	.align	2
.L535:
	.word	osdep_service
	.cfi_endproc
.LFE408:
	.size	rtw_timerChangePeriod, .-rtw_timerChangePeriod
	.section	.text.rtw_timerGetID,"ax",%progbits
	.align	1
	.p2align 2,,3
	.global	rtw_timerGetID
	.syntax unified
	.thumb
	.thumb_func
	.fpu softvfp
	.type	rtw_timerGetID, %function
rtw_timerGetID:
.LFB409:
	.loc 1 1300 0
	.cfi_startproc
	@ args = 0, pretend = 0, frame = 0
	@ frame_needed = 0, uses_anonymous_args = 0
	@ link register save eliminated.
.LVL353:
	.loc 1 1301 0
	ldr	r3, .L539
	ldr	r3, [r3, #308]
	cbz	r3, .L538
	.loc 1 1302 0
	bx	r3
.LVL354:
.L538:
	.loc 1 1307 0
	mov	r0, r3
.LVL355:
	bx	lr
.L540:
	.align	2
.L539:
	.word	osdep_service
	.cfi_endproc
.LFE409:
	.size	rtw_timerGetID, .-rtw_timerGetID
	.section	.text.rtw_timerStart,"ax",%progbits
	.align	1
	.p2align 2,,3
	.global	rtw_timerStart
	.syntax unified
	.thumb
	.thumb_func
	.fpu softvfp
	.type	rtw_timerStart, %function
rtw_timerStart:
.LFB410:
	.loc 1 1310 0
	.cfi_startproc
	@ args = 0, pretend = 0, frame = 0
	@ frame_needed = 0, uses_anonymous_args = 0
	@ link register save eliminated.
.LVL356:
	.loc 1 1311 0
	ldr	r3, .L543
	ldr	r3, [r3, #312]
	cbz	r3, .L542
	.loc 1 1312 0
	bx	r3
.LVL357:
.L542:
	.loc 1 1317 0
	mov	r0, r3
.LVL358:
	bx	lr
.L544:
	.align	2
.L543:
	.word	osdep_service
	.cfi_endproc
.LFE410:
	.size	rtw_timerStart, .-rtw_timerStart
	.section	.text.rtw_timerStartFromISR,"ax",%progbits
	.align	1
	.p2align 2,,3
	.global	rtw_timerStartFromISR
	.syntax unified
	.thumb
	.thumb_func
	.fpu softvfp
	.type	rtw_timerStartFromISR, %function
rtw_timerStartFromISR:
.LFB411:
	.loc 1 1321 0
	.cfi_startproc
	@ args = 0, pretend = 0, frame = 0
	@ frame_needed = 0, uses_anonymous_args = 0
	@ link register save eliminated.
.LVL359:
	.loc 1 1322 0
	ldr	r3, .L547
	ldr	r3, [r3, #316]
	cbz	r3, .L546
	.loc 1 1323 0
	bx	r3
.LVL360:
.L546:
	.loc 1 1328 0
	mov	r0, r3
.LVL361:
	bx	lr
.L548:
	.align	2
.L547:
	.word	osdep_service
	.cfi_endproc
.LFE411:
	.size	rtw_timerStartFromISR, .-rtw_timerStartFromISR
	.section	.text.rtw_timerStopFromISR,"ax",%progbits
	.align	1
	.p2align 2,,3
	.global	rtw_timerStopFromISR
	.syntax unified
	.thumb
	.thumb_func
	.fpu softvfp
	.type	rtw_timerStopFromISR, %function
rtw_timerStopFromISR:
.LFB412:
	.loc 1 1332 0
	.cfi_startproc
	@ args = 0, pretend = 0, frame = 0
	@ frame_needed = 0, uses_anonymous_args = 0
	@ link register save eliminated.
.LVL362:
	.loc 1 1333 0
	ldr	r3, .L551
	ldr	r3, [r3, #320]
	cbz	r3, .L550
	.loc 1 1334 0
	bx	r3
.LVL363:
.L550:
	.loc 1 1339 0
	mov	r0, r3
.LVL364:
	bx	lr
.L552:
	.align	2
.L551:
	.word	osdep_service
	.cfi_endproc
.LFE412:
	.size	rtw_timerStopFromISR, .-rtw_timerStopFromISR
	.section	.text.rtw_timerResetFromISR,"ax",%progbits
	.align	1
	.p2align 2,,3
	.global	rtw_timerResetFromISR
	.syntax unified
	.thumb
	.thumb_func
	.fpu softvfp
	.type	rtw_timerResetFromISR, %function
rtw_timerResetFromISR:
.LFB413:
	.loc 1 1343 0
	.cfi_startproc
	@ args = 0, pretend = 0, frame = 0
	@ frame_needed = 0, uses_anonymous_args = 0
	@ link register save eliminated.
.LVL365:
	.loc 1 1344 0
	ldr	r3, .L555
	ldr	r3, [r3, #324]
	cbz	r3, .L554
	.loc 1 1345 0
	bx	r3
.LVL366:
.L554:
	.loc 1 1350 0
	mov	r0, r3
.LVL367:
	bx	lr
.L556:
	.align	2
.L555:
	.word	osdep_service
	.cfi_endproc
.LFE413:
	.size	rtw_timerResetFromISR, .-rtw_timerResetFromISR
	.section	.text.rtw_timerChangePeriodFromISR,"ax",%progbits
	.align	1
	.p2align 2,,3
	.global	rtw_timerChangePeriodFromISR
	.syntax unified
	.thumb
	.thumb_func
	.fpu softvfp
	.type	rtw_timerChangePeriodFromISR, %function
rtw_timerChangePeriodFromISR:
.LFB414:
	.loc 1 1355 0
	.cfi_startproc
	@ args = 0, pretend = 0, frame = 0
	@ frame_needed = 0, uses_anonymous_args = 0
	@ link register save eliminated.
.LVL368:
	.loc 1 1356 0
	ldr	r3, .L559
	ldr	r3, [r3, #328]
	cbz	r3, .L558
	.loc 1 1357 0
	bx	r3
.LVL369:
.L558:
	.loc 1 1362 0
	mov	r0, r3
.LVL370:
	bx	lr
.L560:
	.align	2
.L559:
	.word	osdep_service
	.cfi_endproc
.LFE414:
	.size	rtw_timerChangePeriodFromISR, .-rtw_timerChangePeriodFromISR
	.section	.text.rtw_timerReset,"ax",%progbits
	.align	1
	.p2align 2,,3
	.global	rtw_timerReset
	.syntax unified
	.thumb
	.thumb_func
	.fpu softvfp
	.type	rtw_timerReset, %function
rtw_timerReset:
.LFB415:
	.loc 1 1366 0
	.cfi_startproc
	@ args = 0, pretend = 0, frame = 0
	@ frame_needed = 0, uses_anonymous_args = 0
	@ link register save eliminated.
.LVL371:
	.loc 1 1367 0
	ldr	r3, .L563
	ldr	r3, [r3, #332]
	cbz	r3, .L562
	.loc 1 1368 0
	bx	r3
.LVL372:
.L562:
	.loc 1 1373 0
	mov	r0, r3
.LVL373:
	bx	lr
.L564:
	.align	2
.L563:
	.word	osdep_service
	.cfi_endproc
.LFE415:
	.size	rtw_timerReset, .-rtw_timerReset
	.section	.text.rtw_thread_enter,"ax",%progbits
	.align	1
	.p2align 2,,3
	.global	rtw_thread_enter
	.syntax unified
	.thumb
	.thumb_func
	.fpu softvfp
	.type	rtw_thread_enter, %function
rtw_thread_enter:
.LFB416:
	.loc 1 1419 0
	.cfi_startproc
	@ args = 0, pretend = 0, frame = 0
	@ frame_needed = 0, uses_anonymous_args = 0
	@ link register save eliminated.
.LVL374:
	.loc 1 1420 0
	ldr	r3, .L567
	ldr	r3, [r3, #280]
	cbz	r3, .L565
	.loc 1 1421 0
	bx	r3	@ indirect register sibling call
.LVL375:
.L565:
	bx	lr
.L568:
	.align	2
.L567:
	.word	osdep_service
	.cfi_endproc
.LFE416:
	.size	rtw_thread_enter, .-rtw_thread_enter
	.section	.text.rtw_thread_exit,"ax",%progbits
	.align	1
	.p2align 2,,3
	.global	rtw_thread_exit
	.syntax unified
	.thumb
	.thumb_func
	.fpu softvfp
	.type	rtw_thread_exit, %function
rtw_thread_exit:
.LFB417:
	.loc 1 1427 0
	.cfi_startproc
	@ args = 0, pretend = 0, frame = 0
	@ frame_needed = 0, uses_anonymous_args = 0
	@ link register save eliminated.
	.loc 1 1428 0
	ldr	r3, .L571
	ldr	r3, [r3, #284]
	cbz	r3, .L569
	.loc 1 1429 0
	bx	r3	@ indirect register sibling call
.LVL376:
.L569:
	bx	lr
.L572:
	.align	2
.L571:
	.word	osdep_service
	.cfi_endproc
.LFE417:
	.size	rtw_thread_exit, .-rtw_thread_exit
	.section	.text.rtw_get_scheduler_state,"ax",%progbits
	.align	1
	.p2align 2,,3
	.global	rtw_get_scheduler_state
	.syntax unified
	.thumb
	.thumb_func
	.fpu softvfp
	.type	rtw_get_scheduler_state, %function
rtw_get_scheduler_state:
.LFB418:
	.loc 1 1435 0
	.cfi_startproc
	@ args = 0, pretend = 0, frame = 0
	@ frame_needed = 0, uses_anonymous_args = 0
	@ link register save eliminated.
	.loc 1 1440 0
	ldr	r3, .L575
	ldr	r3, [r3, #348]
	cbz	r3, .L574
	.loc 1 1441 0
	bx	r3
.LVL377:
.L574:
	.loc 1 1446 0
	movs	r0, #3
	bx	lr
.L576:
	.align	2
.L575:
	.word	osdep_service
	.cfi_endproc
.LFE418:
	.size	rtw_get_scheduler_state, .-rtw_get_scheduler_state
	.section	.text.rtw_create_secure_context,"ax",%progbits
	.align	1
	.p2align 2,,3
	.global	rtw_create_secure_context
	.syntax unified
	.thumb
	.thumb_func
	.fpu softvfp
	.type	rtw_create_secure_context, %function
rtw_create_secure_context:
.LFB419:
	.loc 1 1449 0
	.cfi_startproc
	@ args = 0, pretend = 0, frame = 0
	@ frame_needed = 0, uses_anonymous_args = 0
	@ link register save eliminated.
.LVL378:
	.loc 1 1450 0
	ldr	r3, .L579
	ldr	r3, [r3, #352]
	cbz	r3, .L577
	.loc 1 1451 0
	bx	r3	@ indirect register sibling call
.LVL379:
.L577:
	bx	lr
.L580:
	.align	2
.L579:
	.word	osdep_service
	.cfi_endproc
.LFE419:
	.size	rtw_create_secure_context, .-rtw_create_secure_context
	.section	.text.rtw_get_current_TaskHandle,"ax",%progbits
	.align	1
	.p2align 2,,3
	.global	rtw_get_current_TaskHandle
	.syntax unified
	.thumb
	.thumb_func
	.fpu softvfp
	.type	rtw_get_current_TaskHandle, %function
rtw_get_current_TaskHandle:
.LFB420:
	.loc 1 1458 0
	.cfi_startproc
	@ args = 0, pretend = 0, frame = 0
	@ frame_needed = 0, uses_anonymous_args = 0
	@ link register save eliminated.
	.loc 1 1459 0
	ldr	r3, .L583
	ldr	r0, [r3, #356]
	cbz	r0, .L582
	.loc 1 1460 0
	bx	r0
.LVL380:
.L582:
	.loc 1 1465 0
	bx	lr
.L584:
	.align	2
.L583:
	.word	osdep_service
	.cfi_endproc
.LFE420:
	.size	rtw_get_current_TaskHandle, .-rtw_get_current_TaskHandle
	.comm	min_free_heap_size,4,4
	.section	.rodata.__FUNCTION__.7990,"a",%progbits
	.align	2
	.set	.LANCHOR0,. + 0
	.type	__FUNCTION__.7990, %object
	.size	__FUNCTION__.7990, 14
__FUNCTION__.7990:
	.ascii	"add_mem_usage\000"
	.section	.rodata.add_mem_usage.str1.4,"aMS",%progbits,1
	.align	2
.LC0:
	.ascii	"\012\015[%s] Catch a mem alloc fail with size of %d"
	.ascii	", current heap free size = %d\000"
	.section	.rodata.rtw_create_worker_thread.str1.4,"aMS",%progbits,1
	.align	2
.LC1:
	.ascii	"worker queue\000"
	.space	3
.LC2:
	.ascii	"worker thread\000"
	.text
.Letext0:
	.file 4 "/cygdrive/d/PUYA/HE3/sdk-ameba-v7.1d/tools/arm-none-eabi-gcc/asdk/cygwin/newlib/arm-none-eabi/include/machine/_default_types.h"
	.file 5 "/cygdrive/d/PUYA/HE3/sdk-ameba-v7.1d/tools/arm-none-eabi-gcc/asdk/cygwin/newlib/lib/gcc/arm-none-eabi/6.5.0/include/stddef.h"
	.file 6 "/cygdrive/d/PUYA/HE3/sdk-ameba-v7.1d/tools/arm-none-eabi-gcc/asdk/cygwin/newlib/arm-none-eabi/include/sys/lock.h"
	.file 7 "/cygdrive/d/PUYA/HE3/sdk-ameba-v7.1d/tools/arm-none-eabi-gcc/asdk/cygwin/newlib/arm-none-eabi/include/sys/_types.h"
	.file 8 "/cygdrive/d/PUYA/HE3/sdk-ameba-v7.1d/tools/arm-none-eabi-gcc/asdk/cygwin/newlib/arm-none-eabi/include/sys/reent.h"
	.file 9 "<built-in>"
	.file 10 "/cygdrive/d/PUYA/HE3/sdk-ameba-v7.1d/tools/arm-none-eabi-gcc/asdk/cygwin/newlib/arm-none-eabi/include/sys/_stdint.h"
	.file 11 "/cygdrive/d/PUYA/HE3/sdk-ameba-v7.1d/tools/arm-none-eabi-gcc/asdk/cygwin/newlib/arm-none-eabi/include/time.h"
	.file 12 "/cygdrive/d/PUYA/HE3/sdk-ameba-v7.1d/tools/arm-none-eabi-gcc/asdk/cygwin/newlib/lib/gcc/arm-none-eabi/6.5.0/include/stdarg.h"
	.file 13 "/cygdrive/d/PUYA/HE3/sdk-ameba-v7.1d/tools/arm-none-eabi-gcc/asdk/cygwin/newlib/arm-none-eabi/include/stdio.h"
	.file 14 "../../../component/soc/realtek/8710c/cmsis/rtl8710c/include/basic_types.h"
	.file 15 "../inc/FreeRTOSConfig.h"
	.file 16 "../../../component/soc/realtek/8710c/app/rtl_printf/include/log_buf.h"
	.file 17 "../../../component/soc/realtek/8710c/app/stdio_port/stdio_port.h"
	.file 18 "../../../component/soc/realtek/8710c/app/rtl_printf/include/printf_entry.h"
	.file 19 "../../../component/soc/realtek/8710c/app/rtl_printf/include/rt_printf.h"
	.file 20 "../../../component/soc/realtek/8710c/misc/utilities/include/utility.h"
	.file 21 "/cygdrive/d/PUYA/HE3/sdk-ameba-v7.1d/tools/arm-none-eabi-gcc/asdk/cygwin/newlib/arm-none-eabi/include/stdlib.h"
	.file 22 "../../../component/os/freertos/freertos_service.h"
	.file 23 "../../../component/os/os_dep/include/osdep_service.h"
	.file 24 "../../../component/soc/realtek/8710c/cmsis/cmsis-core/include/core_armv8mml.h"
	.file 25 "../../../component/common/api/platform/platform_stdlib_rtl8710c.h"
	.file 26 "/cygdrive/d/PUYA/HE3/sdk-ameba-v7.1d/tools/arm-none-eabi-gcc/asdk/cygwin/newlib/arm-none-eabi/include/string.h"