	.arch armv8-m.main
	.arch_extension dsp
	.eabi_attribute 20, 1
	.eabi_attribute 21, 1
	.eabi_attribute 23, 3
	.eabi_attribute 24, 1
	.eabi_attribute 25, 1
	.eabi_attribute 26, 1
	.eabi_attribute 30, 2
	.eabi_attribute 34, 1
	.eabi_attribute 18, 4
	.file	"simple_ble_service.c"
	.text
.Ltext0:
	.cfi_sections	.debug_frame
	.section	.text.simple_write_post_callback,"ax",%progbits
	.align	1
	.p2align 2,,3
	.global	simple_write_post_callback
	.syntax unified
	.thumb
	.thumb_func
	.fpu softvfp
	.type	simple_write_post_callback, %function
simple_write_post_callback:
.LFB160:
	.file 1 "../../../component/common/bluetooth/realtek/sdk/src/ble/profile/server/simple_ble_service.c"
	.loc 1 358 0
	.cfi_startproc
	@ args = 4, pretend = 0, frame = 0
	@ frame_needed = 0, uses_anonymous_args = 0
.LVL0:
	push	{lr}
	.cfi_def_cfa_offset 4
	.cfi_offset 14, -4
	sub	sp, sp, #20
	.cfi_def_cfa_offset 24
.LBB6:
	.loc 1 360 0
	stm	sp, {r1, r2, r3}
	mov	r3, r0
.LVL1:
	movs	r2, #4
.LVL2:
	ldr	r1, .L3
.LVL3:
	ldr	r0, .L3+4
.LVL4:
	bl	trace_log_buffer
.LVL5:
.LBE6:
	.loc 1 364 0
	add	sp, sp, #20
	.cfi_def_cfa_offset 4
	@ sp needed
	ldr	pc, [sp], #4
.LVL6:
.L4:
	.align	2
.L3:
	.word	.LANCHOR0
	.word	1058025474
	.cfi_endproc
.LFE160:
	.size	simple_write_post_callback, .-simple_write_post_callback
	.section	.text.simp_ble_service_cccd_update_cb,"ax",%progbits
	.align	1
	.p2align 2,,3
	.global	simp_ble_service_cccd_update_cb
	.syntax unified
	.thumb
	.thumb_func
	.fpu softvfp
	.type	simp_ble_service_cccd_update_cb, %function
simp_ble_service_cccd_update_cb:
.LFB166:
	.loc 1 640 0
	.cfi_startproc
	@ args = 0, pretend = 0, frame = 16
	@ frame_needed = 0, uses_anonymous_args = 0
.LVL7:
	push	{r4, r5, r6, r7, lr}
	.cfi_def_cfa_offset 20
	.cfi_offset 4, -20
	.cfi_offset 5, -16
	.cfi_offset 6, -12
	.cfi_offset 7, -8
	.cfi_offset 14, -4
	mov	r4, r2
	.loc 1 644 0
	movs	r6, #1
	.loc 1 640 0
	sub	sp, sp, #28
	.cfi_def_cfa_offset 48
.LBB7:
	.loc 1 645 0
	str	r3, [sp]
.LBE7:
	.loc 1 643 0
	strb	r0, [sp, #12]
	.loc 1 640 0
	mov	r5, r3
	mov	r7, r1
.LBB8:
	.loc 1 645 0
	mov	r3, r2
.LVL8:
	ldr	r1, .L15
.LVL9:
	movs	r2, #2
.LVL10:
	ldr	r0, .L15+4
.LVL11:
.LBE8:
	.loc 1 644 0
	strb	r6, [sp, #13]
.LBB9:
	.loc 1 645 0
	bl	trace_log_buffer
.LVL12:
.LBE9:
	.loc 1 646 0
	cmp	r4, #8
	beq	.L7
	cmp	r4, #11
	bne	.L5
	.loc 1 665 0
	lsls	r3, r5, #30
	.loc 1 668 0
	ite	mi
	movmi	r3, #3
	.loc 1 673 0
	movpl	r3, #4
	strb	r3, [sp, #16]
.L10:
.LVL13:
	.loc 1 683 0
	ldr	r3, .L15+8
	ldr	r3, [r3]
	cbz	r3, .L5
	.loc 1 685 0
	mov	r0, r7
	add	r1, sp, #12
	blx	r3
.LVL14:
.L5:
	.loc 1 687 0
	add	sp, sp, #28
	.cfi_remember_state
	.cfi_def_cfa_offset 20
	@ sp needed
	pop	{r4, r5, r6, r7, pc}
.LVL15:
.L7:
	.cfi_restore_state
	.loc 1 650 0
	lsls	r2, r5, #31
	.loc 1 658 0
	itet	pl
	movpl	r3, #2
	.loc 1 653 0
	strbmi	r6, [sp, #16]
	.loc 1 658 0
	strbpl	r3, [sp, #16]
	b	.L10
.L16:
	.align	2
.L15:
	.word	.LANCHOR0+88
	.word	1058025474
	.word	.LANCHOR1
	.cfi_endproc
.LFE166:
	.size	simp_ble_service_cccd_update_cb, .-simp_ble_service_cccd_update_cb
	.section	.text.simp_ble_service_attr_read_cb,"ax",%progbits
	.align	1
	.p2align 2,,3
	.global	simp_ble_service_attr_read_cb
	.syntax unified
	.thumb
	.thumb_func
	.fpu softvfp
	.type	simp_ble_service_attr_read_cb, %function
simp_ble_service_attr_read_cb:
.LFB159:
	.loc 1 283 0
	.cfi_startproc
	@ args = 8, pretend = 0, frame = 16
	@ frame_needed = 0, uses_anonymous_args = 0
.LVL16:
	push	{r4, r5, r6, r7, lr}
	.cfi_def_cfa_offset 20
	.cfi_offset 4, -20
	.cfi_offset 5, -16
	.cfi_offset 6, -12
	.cfi_offset 7, -8
	.cfi_offset 14, -4
	.loc 1 287 0
	cmp	r2, #2
	.loc 1 283 0
	sub	sp, sp, #20
	.cfi_def_cfa_offset 40
	.loc 1 283 0
	mov	r4, r2
	.loc 1 287 0
	beq	.L19
.LBB16:
	.loc 1 290 0
	mov	r3, r2
.LVL17:
	ldr	r1, .L26
.LVL18:
	movs	r2, #1
.LVL19:
	ldr	r0, .L26+4
.LVL20:
	bl	trace_log_buffer
.LVL21:
.LBE16:
	.loc 1 291 0
	movw	r0, #1034
.LVL22:
	.loc 1 354 0
	add	sp, sp, #20
	.cfi_remember_state
	.cfi_def_cfa_offset 20
	@ sp needed
	pop	{r4, r5, r6, r7, pc}
.LVL23:
.L19:
	.cfi_restore_state
	mov	r5, r0
.LVL24:
.LBB17:
.LBB18:
.LBB19:
	.loc 1 298 0
	ldr	r0, .L26+8
.LVL25:
	mov	r6, r1
.LVL26:
	bl	getDevState
.LVL27:
	.loc 1 299 0
	ldr	r0, .L26+8
	bl	printDevState
.LVL28:
	.loc 1 303 0
	movs	r2, #1
	.loc 1 305 0
	ldr	r3, .L26+12
	.loc 1 302 0
	strb	r4, [sp, #5]
	.loc 1 305 0
	ldr	r3, [r3]
	.loc 1 304 0
	strb	r5, [sp, #4]
	.loc 1 303 0
	strb	r2, [sp, #8]
	.loc 1 305 0
	cbz	r3, .L21
	.loc 1 307 0
	add	r1, sp, #4
	mov	r0, r6
	blx	r3
.LVL29:
.L21:
	.loc 1 311 0
	movs	r3, #145
	.loc 1 310 0
	ldr	r1, [sp, #44]
	ldr	r2, .L26+8
	.loc 1 313 0
	ldr	r7, .L26+16
	.loc 1 310 0
	str	r2, [r1]
	.loc 1 311 0
	ldr	r2, [sp, #40]
	.loc 1 314 0
	ldr	r4, .L26+20
	.loc 1 311 0
	strh	r3, [r2]	@ movhi
	.loc 1 315 0
	mov	r1, r3
	ldr	r0, .L26+24
	.loc 1 313 0
	strb	r5, [r7]
	.loc 1 314 0
	strb	r6, [r4]
	.loc 1 315 0
	bl	__wrap_printf
.LVL30:
	.loc 1 316 0
	ldrb	r1, [r7]	@ zero_extendqisi2
	ldr	r0, .L26+28
	bl	__wrap_printf
.LVL31:
	.loc 1 317 0
	ldrb	r1, [r4]	@ zero_extendqisi2
	ldr	r0, .L26+32
	bl	__wrap_printf
.LVL32:
	movs	r0, #0
.LVL33:
.LBE19:
.LBE18:
.LBE17:
	.loc 1 354 0
	add	sp, sp, #20
	.cfi_def_cfa_offset 20
	@ sp needed
	pop	{r4, r5, r6, r7, pc}
.LVL34:
.L27:
	.align	2
.L26:
	.word	.LANCHOR0+152
	.word	1058025472
	.word	hdcpr_obj
	.word	.LANCHOR1
	.word	conn_ID
	.word	service_ID
	.word	.LC0
	.word	.LC1
	.word	.LC2
	.cfi_endproc
.LFE159:
	.size	simp_ble_service_attr_read_cb, .-simp_ble_service_attr_read_cb
	.section	.text.simp_ble_service_attr_write_cb,"ax",%progbits
	.align	1
	.p2align 2,,3
	.global	simp_ble_service_attr_write_cb
	.syntax unified
	.thumb
	.thumb_func
	.fpu softvfp
	.type	simp_ble_service_attr_write_cb, %function
simp_ble_service_attr_write_cb:
.LFB161:
	.loc 1 378 0
	.cfi_startproc
	@ args = 12, pretend = 0, frame = 16
	@ frame_needed = 0, uses_anonymous_args = 0
.LVL35:
	push	{r4, r5, r6, r7, r8, r9, lr}
	.cfi_def_cfa_offset 28
	.cfi_offset 4, -28
	.cfi_offset 5, -24
	.cfi_offset 6, -20
	.cfi_offset 7, -16
	.cfi_offset 8, -12
	.cfi_offset 9, -8
	.cfi_offset 14, -4
	mov	r4, r2
	sub	sp, sp, #28
	.cfi_def_cfa_offset 56
.LVL36:
	.loc 1 378 0
	mov	r8, r0
	mov	r9, r1
.LBB26:
	.loc 1 382 0
	movs	r2, #1
.LVL37:
	ldr	r1, .L38
.LVL38:
	ldr	r0, .L38+4
.LVL39:
.LBE26:
	.loc 1 378 0
	mov	r7, r3
	ldr	r5, [sp, #64]
	ldrh	r6, [sp, #56]
.LBB27:
	.loc 1 382 0
	bl	trace_log_buffer
.LVL40:
.LBE27:
	.loc 1 385 0
	ldr	r3, .L38+8
	.loc 1 388 0
	cmp	r4, #5
	.loc 1 385 0
	str	r3, [r5]
	.loc 1 388 0
	beq	.L37
.LBB28:
	.loc 1 431 0
	str	r6, [sp]
	mov	r3, r4
	movs	r2, #2
	ldr	r1, .L38+12
	ldr	r0, .L38+16
	bl	trace_log_buffer
.LVL41:
.LBE28:
	.loc 1 434 0
	movw	r0, #1034
.LVL42:
	.loc 1 437 0
	add	sp, sp, #28
	.cfi_remember_state
	.cfi_def_cfa_offset 28
	@ sp needed
	pop	{r4, r5, r6, r7, r8, r9, pc}
.LVL43:
.L37:
	.cfi_restore_state
	.loc 1 394 0
	ldr	r3, [sp, #60]
	cbz	r3, .L32
.LVL44:
	mov	r1, r3
.LBB29:
.LBB30:
	.loc 1 401 0
	movs	r2, #3
	.loc 1 403 0
	movs	r3, #1
.LVL45:
	.loc 1 406 0
	str	r1, [sp, #20]
	.loc 1 403 0
	strb	r3, [sp, #16]
	.loc 1 401 0
	strb	r2, [sp, #13]
	.loc 1 402 0
	strb	r8, [sp, #12]
	.loc 1 404 0
	strb	r7, [sp, #17]
	.loc 1 405 0
	strh	r6, [sp, #18]	@ movhi
	.loc 1 410 0
	bl	initMetaData
.LVL46:
	.loc 1 411 0
	ldr	r0, [sp, #20]
	bl	deserialize
.LVL47:
	.loc 1 412 0
	bl	action
.LVL48:
	.loc 1 420 0
	ldr	r3, .L38+20
	ldr	r3, [r3]
	cbz	r3, .L31
	.loc 1 422 0
	mov	r0, r9
	add	r1, sp, #12
	blx	r3
.LVL49:
.L31:
	movs	r0, #0
.LVL50:
.LBE30:
.LBE29:
	.loc 1 437 0
	add	sp, sp, #28
	.cfi_remember_state
	.cfi_def_cfa_offset 28
	@ sp needed
	pop	{r4, r5, r6, r7, r8, r9, pc}
.LVL51:
.L32:
	.cfi_restore_state
	.loc 1 396 0
	movw	r0, #1037
.LVL52:
	.loc 1 437 0
	add	sp, sp, #28
	.cfi_def_cfa_offset 28
	@ sp needed
	pop	{r4, r5, r6, r7, r8, r9, pc}
.LVL53:
.L39:
	.align	2
.L38:
	.word	.LANCHOR0+212
	.word	1058025474
	.word	simple_write_post_callback
	.word	.LANCHOR0+264
	.word	1058025472
	.word	.LANCHOR1
	.cfi_endproc
.LFE161:
	.size	simp_ble_service_attr_write_cb, .-simp_ble_service_attr_write_cb
	.section	.text.simp_ble_service_set_parameter,"ax",%progbits
	.align	1
	.p2align 2,,3
	.global	simp_ble_service_set_parameter
	.syntax unified
	.thumb
	.thumb_func
	.fpu softvfp
	.type	simp_ble_service_set_parameter, %function
simp_ble_service_set_parameter:
.LFB158:
	.loc 1 241 0
	.cfi_startproc
	@ args = 0, pretend = 0, frame = 0
	@ frame_needed = 0, uses_anonymous_args = 0
.LVL54:
	.loc 1 244 0
	cmp	r0, #1
	.loc 1 241 0
	push	{r4, lr}
	.cfi_def_cfa_offset 8
	.cfi_offset 4, -8
	.cfi_offset 14, -4
	.loc 1 244 0
	bne	.L41
	.loc 1 250 0
	cmp	r1, #300
	bls	.L46
.L41:
.LVL55:
.LBB31:
	.loc 1 264 0
	movs	r2, #0
.LVL56:
	ldr	r1, .L47
.LVL57:
	ldr	r0, .L47+4
.LVL58:
	bl	trace_log_buffer
.LVL59:
	movs	r0, #0
.LBE31:
	.loc 1 268 0
	pop	{r4, pc}
.LVL60:
.L46:
	mov	r3, r2
	mov	r4, r0
	.loc 1 252 0
	mov	r2, r1
.LVL61:
	ldr	r0, .L47+8
.LVL62:
	mov	r1, r3
.LVL63:
	bl	memcpy
.LVL64:
	.loc 1 242 0
	mov	r0, r4
	pop	{r4, pc}
.L48:
	.align	2
.L47:
	.word	.LANCHOR0+336
	.word	1058025472
	.word	.LANCHOR2
	.cfi_endproc
.LFE158:
	.size	simp_ble_service_set_parameter, .-simp_ble_service_set_parameter
	.section	.text.simp_ble_service_send_v3_notify,"ax",%progbits
	.align	1
	.p2align 2,,3
	.global	simp_ble_service_send_v3_notify
	.syntax unified
	.thumb
	.thumb_func
	.fpu softvfp
	.type	simp_ble_service_send_v3_notify, %function
simp_ble_service_send_v3_notify:
.LFB162:
	.loc 1 453 0
	.cfi_startproc
	@ args = 0, pretend = 0, frame = 0
	@ frame_needed = 0, uses_anonymous_args = 0
.LVL65:
	push	{r4, r5, r6, r7, lr}
	.cfi_def_cfa_offset 20
	.cfi_offset 4, -20
	.cfi_offset 5, -16
	.cfi_offset 6, -12
	.cfi_offset 7, -8
	.cfi_offset 14, -4
	mov	r4, r0
	sub	sp, sp, #12
	.cfi_def_cfa_offset 32
	.loc 1 453 0
	mov	r5, r1
	mov	r6, r2
.LBB33:
	.loc 1 457 0
	ldr	r1, .L51
.LVL66:
	movs	r2, #0
.LVL67:
	ldr	r0, .L51+4
.LVL68:
.LBE33:
	.loc 1 453 0
	mov	r7, r3
.LBB34:
	.loc 1 457 0
	bl	trace_log_buffer
.LVL69:
.LBE34:
	.loc 1 459 0
	movs	r2, #0
	str	r7, [sp]
	str	r2, [sp, #4]
	mov	r3, r6
	mov	r1, r5
	mov	r0, r4
	movs	r2, #7
	bl	server_send_data
.LVL70:
	.loc 1 462 0
	add	sp, sp, #12
	.cfi_def_cfa_offset 20
	@ sp needed
	pop	{r4, r5, r6, r7, pc}
.LVL71:
.L52:
	.align	2
.L51:
	.word	.LANCHOR0+380
	.word	1058025474
	.cfi_endproc
.LFE162:
	.size	simp_ble_service_send_v3_notify, .-simp_ble_service_send_v3_notify
	.section	.text.getBleConnHandle,"ax",%progbits
	.align	1
	.p2align 2,,3
	.global	getBleConnHandle
	.syntax unified
	.thumb
	.thumb_func
	.fpu softvfp
	.type	getBleConnHandle, %function
getBleConnHandle:
.LFB163:
	.loc 1 464 0
	.cfi_startproc
	@ args = 0, pretend = 0, frame = 0
	@ frame_needed = 0, uses_anonymous_args = 0
	@ link register save eliminated.
	.loc 1 465 0
	ldr	r3, .L54
	.loc 1 466 0
	ldrh	r0, [r3]
	bx	lr
.L55:
	.align	2
.L54:
	.word	g_conn_handle
	.cfi_endproc
.LFE163:
	.size	getBleConnHandle, .-getBleConnHandle
	.section	.text.simple_ble_srv_cccd_notify,"ax",%progbits
	.align	1
	.p2align 2,,3
	.global	simple_ble_srv_cccd_notify
	.syntax unified
	.thumb
	.thumb_func
	.fpu softvfp
	.type	simple_ble_srv_cccd_notify, %function
simple_ble_srv_cccd_notify:
.LFB164:
	.loc 1 469 0
	.cfi_startproc
	@ args = 0, pretend = 0, frame = 1104
	@ frame_needed = 0, uses_anonymous_args = 0
.LVL72:
	push	{r4, r5, r6, r7, r8, r9, r10, fp, lr}
	.cfi_def_cfa_offset 36
	.cfi_offset 4, -36
	.cfi_offset 5, -32
	.cfi_offset 6, -28
	.cfi_offset 7, -24
	.cfi_offset 8, -20
	.cfi_offset 9, -16
	.cfi_offset 10, -12
	.cfi_offset 11, -8
	.cfi_offset 14, -4
	subw	sp, sp, #1116
	.cfi_def_cfa_offset 1152
	.loc 1 469 0
	mov	r5, r1
	mov	r4, r2
.LBB45:
	.loc 1 470 0
	bl	getMutexBleSend
.LVL73:
	mov	r1, #-1
	bl	xQueueSemaphoreTake
.LVL74:
	cmp	r0, #1
	beq	.L89
.LBE45:
	.loc 1 607 0
	addw	sp, sp, #1116
	.cfi_remember_state
	.cfi_def_cfa_offset 36
	@ sp needed
	pop	{r4, r5, r6, r7, r8, r9, r10, fp, pc}
.LVL75:
.L89:
	.cfi_restore_state
.LBB62:
.LBB46:
	.loc 1 472 0
	add	r0, sp, #508
	movw	r2, #601
	movs	r1, #0
	bl	memset
.LVL76:
	.loc 1 474 0
	cmp	r4, #8
	bhi	.L86
	tbh	[pc, r4, lsl #1]
.L60:
	.2byte	(.L59-.L60)/2
	.2byte	(.L61-.L60)/2
	.2byte	(.L62-.L60)/2
	.2byte	(.L63-.L60)/2
	.2byte	(.L64-.L60)/2
	.2byte	(.L86-.L60)/2
	.2byte	(.L65-.L60)/2
	.2byte	(.L86-.L60)/2
	.2byte	(.L66-.L60)/2
	.p2align 1
.L63:
.LBB47:
	.loc 1 545 0
	ldr	r6, .L90
	ldr	r2, .L90+4
	ldr	r3, [r6]
	movw	r1, #601
	add	r0, sp, #508
	bl	snprintf
.LVL77:
	.loc 1 546 0
	ldr	r8, .L90+76
	.loc 1 545 0
	mov	r7, r0
.LVL78:
	.loc 1 546 0
	ldrb	r1, [r8]	@ zero_extendqisi2
	ldr	r0, .L90+8
.LVL79:
	bl	__wrap_printf
.LVL80:
.LBB48:
	.loc 1 547 0
	ldrb	r2, [r8]	@ zero_extendqisi2
	cmp	r2, #0
	beq	.L70
	movs	r5, #0
.LVL81:
.LBB49:
	.loc 1 549 0
	ldr	r10, .L90+80
	.loc 1 551 0
	ldr	r9, .L90+84
	add	r4, r8, #1
.LVL82:
	b	.L74
.LVL83:
.L71:
.LBE49:
	.loc 1 547 0 discriminator 2
	adds	r5, r5, #1
.LVL84:
	cmp	r2, r5
	add	r4, r4, #20
	ble	.L70
.LVL85:
.L74:
	.loc 1 548 0
	ldrb	r3, [r4]	@ zero_extendqisi2
	cmp	r3, #0
	beq	.L71
.LBB50:
	.loc 1 549 0
	mov	r2, r4
	mov	r1, r5
	mov	r0, r10
	bl	__wrap_printf
.LVL86:
	.loc 1 550 0
	rsb	fp, r7, #600
.LVL87:
	.loc 1 551 0
	add	r0, sp, #508
	mov	r1, fp
	mov	r3, r4
	mov	r2, r9
	add	r0, r0, r7
	bl	snprintf
.LVL88:
	.loc 1 553 0
	cmp	r0, #0
	blt	.L72
	.loc 1 553 0 is_stmt 0 discriminator 1
	cmp	fp, r0
	ble	.L72
	ldrb	r2, [r8]	@ zero_extendqisi2
	.loc 1 558 0 is_stmt 1
	add	r7, r7, r0
.LVL89:
	b	.L71
.LVL90:
.L62:
.LBE50:
.LBE48:
.LBE47:
	.loc 1 534 0
	ldr	r6, .L90
	ldr	r2, .L90+12
	ldr	r3, [r6]
	movw	r1, #601
	add	r0, sp, #508
	bl	snprintf
.LVL91:
	subs	r7, r5, #1
.LBB53:
	.loc 1 535 0
	movs	r4, #0
.LVL92:
	.loc 1 536 0
	movw	r9, #601
	ldr	r8, .L90+88
	.loc 1 535 0
	b	.L67
.LVL93:
.L68:
	.loc 1 536 0 discriminator 3
	add	r0, sp, #508
	bl	strlen
.LVL94:
	add	r2, sp, #508
	sub	r1, r9, r0
	ldrb	r3, [r7, #1]!	@ zero_extendqisi2
	add	r0, r0, r2
	mov	r2, r8
	bl	snprintf
.LVL95:
	.loc 1 535 0 discriminator 3
	adds	r4, r4, #1
.LVL96:
.L67:
	.loc 1 535 0 is_stmt 0 discriminator 1
	mov	r0, r5
	bl	strlen
.LVL97:
	cmp	r0, r4
	bhi	.L68
.LBE53:
	.loc 1 538 0 is_stmt 1
	add	r1, sp, #508
	ldr	r0, .L90+16
	bl	__wrap_printf
.LVL98:
	.loc 1 541 0
	b	.L58
.LVL99:
.L66:
	.loc 1 580 0
	ldr	r6, .L90
	ldr	r2, .L90+20
	ldr	r3, [r6]
	str	r5, [sp]
.L87:
	movw	r1, #601
	add	r0, sp, #508
	bl	snprintf
.LVL100:
	.loc 1 581 0
	add	r1, sp, #508
	ldr	r0, .L90+24
	bl	__wrap_printf
.LVL101:
.L58:
	.loc 1 599 0
	movw	r2, #5000
	ldr	r3, [r6]
	.loc 1 602 0
	add	r0, sp, #508
	.loc 1 599 0
	adds	r3, r3, #1
	cmp	r3, r2
	.loc 1 600 0
	it	hi
	movhi	r3, #0
	str	r3, [r6]
	.loc 1 602 0
	bl	strlen
.LVL102:
	adds	r0, r0, #1
	cmp	r0, #239
.LBB54:
.LBB55:
	.loc 1 459 0
	mov	r5, #0
.LBE55:
.LBE54:
	.loc 1 602 0
	ite	hi
	movhi	r4, #240
.LVL103:
	uxthls	r4, r0
.LVL104:
.LBB58:
.LBB57:
.LBB56:
	.loc 1 457 0
	mov	r2, r5
	ldr	r1, .L90+28
	ldr	r0, .L90+32
	bl	trace_log_buffer
.LVL105:
.LBE56:
	.loc 1 459 0
	add	r3, sp, #508
.LVL106:
	movs	r2, #7
	movs	r1, #1
	str	r4, [sp]
	str	r5, [sp, #4]
	mov	r0, r5
	bl	server_send_data
.LVL107:
.LBE57:
.LBE58:
	.loc 1 603 0
	bl	getMutexBleSend
.LVL108:
	mov	r3, r5
	mov	r2, r5
	mov	r1, r5
	bl	xQueueGenericSend
.LVL109:
.LBE46:
.LBE62:
	.loc 1 607 0
	addw	sp, sp, #1116
	.cfi_remember_state
	.cfi_def_cfa_offset 36
	@ sp needed
	pop	{r4, r5, r6, r7, r8, r9, r10, fp, pc}
.LVL110:
.L61:
	.cfi_restore_state
.LBB63:
.LBB61:
	.loc 1 481 0
	ldr	r6, .L90
	str	r5, [sp]
	ldr	r3, [r6]
	ldr	r2, .L90+36
	movw	r1, #601
	add	r0, sp, #508
	bl	snprintf
.LVL111:
	.loc 1 482 0
	b	.L58
.L59:
	.loc 1 477 0
	ldr	r6, .L90
	str	r5, [sp]
	ldr	r3, [r6]
	ldr	r2, .L90+40
	movw	r1, #601
	add	r0, sp, #508
	bl	snprintf
.LVL112:
	.loc 1 478 0
	b	.L58
.L65:
.LBB59:
	.loc 1 586 0
	movw	r0, #3000
	bl	vTaskDelay
.LVL113:
	.loc 1 588 0
	add	r1, sp, #8
	ldr	r0, .L90+44
	bl	getEnvItem
.LVL114:
	.loc 1 589 0
	movw	r1, #601
	add	r3, sp, #8
	ldr	r2, .L90+48
	add	r0, sp, #508
	bl	snprintf
.LVL115:
	.loc 1 590 0
	add	r1, sp, #508
	ldr	r0, .L90+16
	bl	__wrap_printf
.LVL116:
.L86:
	ldr	r6, .L90
.LBE59:
	.loc 1 592 0
	b	.L58
.L64:
	.loc 1 576 0
	ldr	r6, .L90
	str	r5, [sp]
	ldr	r3, [r6]
	ldr	r2, .L90+52
	b	.L87
.LVL117:
.L72:
.LBB60:
.LBB52:
.LBB51:
	.loc 1 554 0
	mov	r3, r5
	movw	r2, #554
	ldr	r1, .L90+56
	ldr	r0, .L90+60
.LVL118:
	bl	__wrap_printf
.LVL119:
.L70:
.LBE51:
.LBE52:
	.loc 1 567 0
	movs	r4, #0
	.loc 1 568 0
	mov	r2, #600
	mov	r1, r4
	ldr	r0, .L90+64
	.loc 1 567 0
	strb	r4, [r8]
	.loc 1 568 0
	bl	memset
.LVL120:
	.loc 1 569 0
	add	r1, sp, #508
	ldr	r0, .L90+16
	bl	__wrap_printf
.LVL121:
	.loc 1 570 0
	add	r0, sp, #508
	bl	strlen
.LVL122:
	movw	r2, #570
	mov	r3, r0
	ldr	r1, .L90+56
	ldr	r0, .L90+68
	bl	__wrap_printf
.LVL123:
	.loc 1 571 0
	ldr	r3, .L90+72
	strb	r4, [r3]
.LBE60:
	.loc 1 573 0
	b	.L58
.L91:
	.align	2
.L90:
	.word	.LANCHOR3
	.word	.LC8
	.word	.LC9
	.word	.LC5
	.word	.LC7
	.word	.LC16
	.word	.LC15
	.word	.LANCHOR0+380
	.word	1058025474
	.word	.LC4
	.word	.LC3
	.word	.LC17
	.word	.LC18
	.word	.LC14
	.word	.LANCHOR4
	.word	.LC12
	.word	scannedSSIDs+1
	.word	.LC13
	.word	.LANCHOR5
	.word	scannedSSIDs
	.word	.LC10
	.word	.LC11
	.word	.LC6
.LBE61:
.LBE63:
	.cfi_endproc
.LFE164:
	.size	simple_ble_srv_cccd_notify, .-simple_ble_srv_cccd_notify
	.section	.text.simp_ble_service_send_v4_indicate,"ax",%progbits
	.align	1
	.p2align 2,,3
	.global	simp_ble_service_send_v4_indicate
	.syntax unified
	.thumb
	.thumb_func
	.fpu softvfp
	.type	simp_ble_service_send_v4_indicate, %function
simp_ble_service_send_v4_indicate:
.LFB165:
	.loc 1 622 0
	.cfi_startproc
	@ args = 0, pretend = 0, frame = 0
	@ frame_needed = 0, uses_anonymous_args = 0
.LVL124:
	push	{r4, r5, r6, r7, lr}
	.cfi_def_cfa_offset 20
	.cfi_offset 4, -20
	.cfi_offset 5, -16
	.cfi_offset 6, -12
	.cfi_offset 7, -8
	.cfi_offset 14, -4
	mov	r4, r0
	sub	sp, sp, #12
	.cfi_def_cfa_offset 32
	.loc 1 622 0
	mov	r5, r1
	mov	r6, r2
.LBB64:
	.loc 1 623 0
	ldr	r1, .L94
.LVL125:
	movs	r2, #0
.LVL126:
	ldr	r0, .L94+4
.LVL127:
.LBE64:
	.loc 1 622 0
	mov	r7, r3
.LBB65:
	.loc 1 623 0
	bl	trace_log_buffer
.LVL128:
.LBE65:
	.loc 1 625 0
	movs	r2, #0
	str	r7, [sp]
	str	r2, [sp, #4]
	mov	r3, r6
	mov	r1, r5
	mov	r0, r4
	movs	r2, #10
	bl	server_send_data
.LVL129:
	.loc 1 627 0
	add	sp, sp, #12
	.cfi_def_cfa_offset 20
	@ sp needed
	pop	{r4, r5, r6, r7, pc}
.LVL130:
.L95:
	.align	2
.L94:
	.word	.LANCHOR0+416
	.word	1058025474
	.cfi_endproc
.LFE165:
	.size	simp_ble_service_send_v4_indicate, .-simp_ble_service_send_v4_indicate
	.section	.text.simp_ble_service_add_service,"ax",%progbits
	.align	1
	.p2align 2,,3
	.global	simp_ble_service_add_service
	.syntax unified
	.thumb
	.thumb_func
	.fpu softvfp
	.type	simp_ble_service_add_service, %function
simp_ble_service_add_service:
.LFB167:
	.loc 1 709 0
	.cfi_startproc
	@ args = 0, pretend = 0, frame = 0
	@ frame_needed = 0, uses_anonymous_args = 0
.LVL131:
	push	{r4, r5, lr}
	.cfi_def_cfa_offset 12
	.cfi_offset 4, -12
	.cfi_offset 5, -8
	.cfi_offset 14, -4
	.loc 1 710 0
	ldr	r3, .L101
	ldr	r4, .L101+4
	adds	r2, r3, #4
	.loc 1 709 0
	sub	sp, sp, #12
	.cfi_def_cfa_offset 24
	.loc 1 709 0
	mov	r5, r0
	.loc 1 710 0
	ldm	r2, {r0, r1}
.LVL132:
	ldr	r3, [r3]
	stm	sp, {r0, r1}
	mov	r2, #336
	mov	r0, r4
	ldr	r1, .L101+8
	bl	server_add_service
.LVL133:
	.loc 1 710 0
	cbz	r0, .L100
	.loc 1 720 0
	ldr	r3, .L101+12
	.loc 1 721 0
	ldrb	r0, [r4]	@ zero_extendqisi2
	.loc 1 720 0
	str	r5, [r3]
	.loc 1 722 0
	add	sp, sp, #12
	.cfi_remember_state
	.cfi_def_cfa_offset 12
	@ sp needed
	pop	{r4, r5, pc}
.LVL134:
.L100:
	.cfi_restore_state
.LBB66:
	.loc 1 715 0
	mov	r2, r0
	ldr	r1, .L101+16
	ldr	r0, .L101+20
	bl	trace_log_buffer
.LVL135:
.LBE66:
	.loc 1 716 0
	movs	r0, #255
	strb	r0, [r4]
	.loc 1 722 0
	add	sp, sp, #12
	.cfi_def_cfa_offset 12
	@ sp needed
	pop	{r4, r5, pc}
.LVL136:
.L102:
	.align	2
.L101:
	.word	.LANCHOR6
	.word	simp_service_id
	.word	.LANCHOR7
	.word	.LANCHOR1
	.word	.LANCHOR0+456
	.word	1058025472
	.cfi_endproc
.LFE167:
	.size	simp_ble_service_add_service, .-simp_ble_service_add_service
	.global	simp_ble_service_cbs
	.global	simple_ble_service_tbl
	.global	v1_user_descr
	.comm	simp_service_id,1,1
	.global	notifyCounter
	.comm	g_conn_handle,2,2
	.global	SCAN_FROM_APP
	.comm	service_ID,1,1
	.comm	conn_ID,1,1
	.comm	hdcpr_obj,145,4
	.comm	fatfs_flash,4152,4
	.section	.BTTRACE,"a",%progbits
	.align	2
	.set	.LANCHOR0,. + 0
	.type	format.8577, %object
	.size	format.8577, 87
format.8577:
	.ascii	"!**simple_write_post_callback: conn_id %d, service_"
	.ascii	"id %d, attrib_index 0x%x, length %d\000"
	.space	1
	.type	format.8650, %object
	.size	format.8650, 61
format.8650:
	.ascii	"!**simp_ble_service_cccd_update_cb: index = %d, ccc"
	.ascii	"bits 0x%x\000"
	.space	3
	.type	format.8562, %object
	.size	format.8562, 59
format.8562:
	.ascii	"!!!simp_ble_service_attr_read_cb, Attr not found, i"
	.ascii	"ndex %d\000"
	.space	1
	.type	format.8589, %object
	.size	format.8589, 52
format.8589:
	.ascii	"!**simp_ble_service_attr_write_cb write_type = 0x%x"
	.ascii	"\000"
	.type	format.8591, %object
	.size	format.8591, 70
format.8591:
	.ascii	"!!!simp_ble_service_attr_write_cb Error: attrib_ind"
	.ascii	"ex 0x%x, length %d\000"
	.space	2
	.type	format.8551, %object
	.size	format.8551, 41
format.8551:
	.ascii	"!!!simp_ble_service_set_parameter failed\000"
	.space	3
	.type	format.8598, %object
	.size	format.8598, 35
format.8598:
	.ascii	"!**simp_ble_service_send_v3_notify\000"
	.space	1
	.type	format.8641, %object
	.size	format.8641, 37
format.8641:
	.ascii	"!**simp_ble_service_send_v4_indicate\000"
	.space	3
	.type	format.8659, %object
	.size	format.8659, 38
format.8659:
	.ascii	"!!!simp_ble_service_add_service: fail\000"
	.section	.bss.SCAN_FROM_APP,"aw",%nobits
	.set	.LANCHOR5,. + 0
	.type	SCAN_FROM_APP, %object
	.size	SCAN_FROM_APP, 1
SCAN_FROM_APP:
	.space	1
	.section	.bss.notifyCounter,"aw",%nobits
	.align	2
	.set	.LANCHOR3,. + 0
	.type	notifyCounter, %object
	.size	notifyCounter, 4
notifyCounter:
	.space	4
	.section	.bss.pfn_simp_ble_service_cb,"aw",%nobits
	.align	2
	.set	.LANCHOR1,. + 0
	.type	pfn_simp_ble_service_cb, %object
	.size	pfn_simp_ble_service_cb, 4
pfn_simp_ble_service_cb:
	.space	4
	.section	.bss.simple_char_read_value,"aw",%nobits
	.align	2
	.set	.LANCHOR2,. + 0
	.type	simple_char_read_value, %object
	.size	simple_char_read_value, 300
simple_char_read_value:
	.space	300
	.section	.data.v1_user_descr,"aw",%progbits
	.align	2
	.type	v1_user_descr, %object
	.size	v1_user_descr, 23
v1_user_descr:
	.ascii	"V1 read characteristic\000"
	.section	.rodata.__func__.8621,"a",%progbits
	.align	2
	.set	.LANCHOR4,. + 0
	.type	__func__.8621, %object
	.size	__func__.8621, 27
__func__.8621:
	.ascii	"simple_ble_srv_cccd_notify\000"
	.section	.rodata.simp_ble_service_attr_read_cb.str1.4,"aMS",%progbits,1
	.align	2
.LC0:
	.ascii	"length:%d\012\000"
	.space	1
.LC1:
	.ascii	"conn_id:%d\012\000"
.LC2:
	.ascii	"service_id:%d\012\000"
	.section	.rodata.simp_ble_service_cbs,"a",%progbits
	.align	2
	.set	.LANCHOR6,. + 0
	.type	simp_ble_service_cbs, %object
	.size	simp_ble_service_cbs, 12
simp_ble_service_cbs:
	.word	simp_ble_service_attr_read_cb
	.word	simp_ble_service_attr_write_cb
	.word	simp_ble_service_cccd_update_cb
	.section	.rodata.simple_ble_service_tbl,"a",%progbits
	.align	2
	.set	.LANCHOR7,. + 0
	.type	simple_ble_service_tbl, %object
	.size	simple_ble_service_tbl, 336
simple_ble_service_tbl:
	.short	2050
	.byte	0
	.byte	40
	.byte	10
	.byte	-96
	.space	12
	.short	2
	.word	0
	.word	1
	.short	2
	.byte	3
	.byte	40
	.byte	2
	.space	13
	.short	1
	.word	0
	.word	1
	.short	4
	.byte	1
	.byte	-80
	.space	14
	.short	0
	.word	0
	.word	1
	.short	8
	.byte	1
	.byte	41
	.space	14
	.short	22
	.word	v1_user_descr
	.word	1
	.short	2
	.byte	3
	.byte	40
	.byte	12
	.space	13
	.short	1
	.word	0
	.word	1
	.short	4
	.byte	2
	.byte	-80
	.space	14
	.short	0
	.word	0
	.word	16
	.short	2
	.byte	3
	.byte	40
	.byte	16
	.space	13
	.short	1
	.word	0
	.word	1
	.short	4
	.byte	3
	.byte	-80
	.space	14
	.short	0
	.word	0
	.word	0
	.short	18
	.byte	2
	.byte	41
	.byte	0
	.byte	0
	.space	12
	.short	2
	.word	0
	.word	17
	.short	2
	.byte	3
	.byte	40
	.byte	32
	.space	13
	.short	1
	.word	0
	.word	1
	.short	4
	.byte	4
	.byte	-80
	.space	14
	.short	0
	.word	0
	.word	0
	.short	18
	.byte	2
	.byte	41
	.byte	0
	.byte	0
	.space	12
	.short	2
	.word	0
	.word	17
	.section	.rodata.simple_ble_srv_cccd_notify.str1.4,"aMS",%progbits,1
	.align	2
.LC3:
	.ascii	"Status:%d:%s\000"
	.space	3
.LC4:
	.ascii	"Diag:%d:%s\000"
	.space	1
.LC5:
	.ascii	"Poll:%d:\000"
	.space	3
.LC6:
	.ascii	"%02x\000"
	.space	3
.LC7:
	.ascii	"%s\012\000"
.LC8:
	.ascii	"SSIDList:%d\000"
.LC9:
	.ascii	"scannedSSIDs.len:%d\012\000"
	.space	3
.LC10:
	.ascii	"scannedSSIDs.ssidList[%d]:%s\012\000"
	.space	2
.LC11:
	.ascii	":%s\000"
.LC12:
	.ascii	"%s:%d:Buffer full. Truncating at index %d\012\000"
	.space	1
.LC13:
	.ascii	"%s:%d:\012SSID_LIST list size %ld.\012\000"
	.space	3
.LC14:
	.ascii	"CONNECTIONStatus:%d:%s\000"
	.space	1
.LC15:
	.ascii	"%s\000"
	.space	1
.LC16:
	.ascii	"BLEPASSKEYStatus:%d:%s\000"
	.space	1
.LC17:
	.ascii	"scheduler\000"
	.space	2
.LC18:
	.ascii	"scheduler:0:%s\000"
	.text
.Letext0:
	.file 2 "/cygdrive/d/PUYA/HE3/sdk-ameba-v7.1d/tools/arm-none-eabi-gcc/asdk/cygwin/newlib/arm-none-eabi/include/machine/_default_types.h"
	.file 3 "/cygdrive/d/PUYA/HE3/sdk-ameba-v7.1d/tools/arm-none-eabi-gcc/asdk/cygwin/newlib/lib/gcc/arm-none-eabi/6.5.0/include/stddef.h"
	.file 4 "/cygdrive/d/PUYA/HE3/sdk-ameba-v7.1d/tools/arm-none-eabi-gcc/asdk/cygwin/newlib/arm-none-eabi/include/sys/lock.h"
	.file 5 "/cygdrive/d/PUYA/HE3/sdk-ameba-v7.1d/tools/arm-none-eabi-gcc/asdk/cygwin/newlib/arm-none-eabi/include/sys/_types.h"
	.file 6 "/cygdrive/d/PUYA/HE3/sdk-ameba-v7.1d/tools/arm-none-eabi-gcc/asdk/cygwin/newlib/arm-none-eabi/include/sys/reent.h"
	.file 7 "<built-in>"
	.file 8 "/cygdrive/d/PUYA/HE3/sdk-ameba-v7.1d/tools/arm-none-eabi-gcc/asdk/cygwin/newlib/arm-none-eabi/include/sys/_stdint.h"
	.file 9 "/cygdrive/d/PUYA/HE3/sdk-ameba-v7.1d/tools/arm-none-eabi-gcc/asdk/cygwin/newlib/arm-none-eabi/include/time.h"
	.file 10 "/cygdrive/d/PUYA/HE3/sdk-ameba-v7.1d/tools/arm-none-eabi-gcc/asdk/cygwin/newlib/lib/gcc/arm-none-eabi/6.5.0/include/stdarg.h"
	.file 11 "/cygdrive/d/PUYA/HE3/sdk-ameba-v7.1d/tools/arm-none-eabi-gcc/asdk/cygwin/newlib/arm-none-eabi/include/stdio.h"
	.file 12 "../../../component/common/bluetooth/realtek/sdk/inc/platform/trace.h"
	.file 13 "../../../component/common/bluetooth/realtek/sdk/inc/bluetooth/profile/gatt.h"
	.file 14 "../../../component/common/bluetooth/realtek/sdk/inc/bluetooth/gap/gap.h"
	.file 15 "../../../component/common/bluetooth/realtek/sdk/inc/bluetooth/gap/gap_storage_le.h"
	.file 16 "../../../component/common/bluetooth/realtek/sdk/inc/bluetooth/profile/profile_server.h"
	.file 17 "../../../component/common/bluetooth/realtek/sdk/inc/bluetooth/profile/server/simple_ble_service.h"
	.file 18 "../inc/FreeRTOSConfig.h"
	.file 19 "../../../component/soc/realtek/8710c/cmsis/rtl8710c/include/basic_types.h"
	.file 20 "../../../component/soc/realtek/8710c/app/rtl_printf/include/log_buf.h"
	.file 21 "../../../component/soc/realtek/8710c/app/stdio_port/stdio_port.h"
	.file 22 "../../../component/soc/realtek/8710c/app/rtl_printf/include/printf_entry.h"
	.file 23 "../../../component/soc/realtek/8710c/app/rtl_printf/include/rt_printf.h"
	.file 24 "../../../component/soc/realtek/8710c/misc/utilities/include/utility.h"
	.file 25 "../../../component/os/freertos/freertos_v10.0.1/Source/portable/GCC/ARM_RTL8710C/portmacro.h"
	.file 26 "../../../component/os/freertos/freertos_v10.0.1/Source/include/queue.h"
	.file 27 "/cygdrive/d/PUYA/HE3/sdk-ameba-v7.1d/tools/arm-none-eabi-gcc/asdk/cygwin/newlib/arm-none-eabi/include/stdlib.h"
	.file 28 "../../../component/common/network/lwip/lwip_v2.0.2/src/include/lwip/errno.h"
	.file 29 "../src/hoags/hoags_config.h"
	.file 30 "../src/hoags/ble/include/packets.h"
	.file 31 "../../../component/common/drivers/wlan/realtek/include/wifi_structures.h"
	.file 32 "../../../component/common/file_system/fatfs/r0.10c/include/integer.h"
	.file 33 "../../../component/common/file_system/fatfs/r0.10c/include/ff.h"
	.file 34 "../../../component/common/file_system/fatfs/fatfs_flash_api.h"
	.file 35 "../src/hoags/env/include/env.h"
	.file 36 "/cygdrive/d/PUYA/HE3/sdk-ameba-v7.1d/tools/arm-none-eabi-gcc/asdk/cygwin/newlib/arm-none-eabi/include/string.h"
	.file 37 "../../../component/common/api/platform/platform_stdlib_rtl8710c.h"