	.arch armv8-m.main
	.arch_extension dsp
	.eabi_attribute 20, 1
	.eabi_attribute 21, 1
	.eabi_attribute 23, 3
	.eabi_attribute 24, 1
	.eabi_attribute 25, 1
	.eabi_attribute 26, 1
	.eabi_attribute 30, 2
	.eabi_attribute 34, 1
	.eabi_attribute 18, 4
	.file	"sn_coap_protocol.c"
	.text
.Ltext0:
	.cfi_sections	.debug_frame
	.section	.text.sn_coap_protocol_linked_list_send_msg_remove,"ax",%progbits
	.align	1
	.p2align 2,,3
	.syntax unified
	.thumb
	.thumb_func
	.fpu softvfp
	.type	sn_coap_protocol_linked_list_send_msg_remove, %function
sn_coap_protocol_linked_list_send_msg_remove:
.LFB192:
	.file 1 "../../../component/common/network/coap/sn_coap_protocol.c"
	.loc 1 894 0
	.cfi_startproc
	@ args = 0, pretend = 0, frame = 0
	@ frame_needed = 0, uses_anonymous_args = 0
.LVL0:
	push	{r4, r5, r6, r7, r8, lr}
	.cfi_def_cfa_offset 24
	.cfi_offset 4, -24
	.cfi_offset 5, -20
	.cfi_offset 6, -16
	.cfi_offset 7, -12
	.cfi_offset 8, -8
	.cfi_offset 14, -4
.LBB94:
	.loc 1 896 0
	ldr	r4, [r0, #16]
.LVL1:
	cmp	r4, #0
	beq	.L1
	mov	r6, r0
	mov	r7, r1
	mov	r5, r2
	b	.L6
.LVL2:
.L3:
.LBB95:
.LBB96:
	.file 2 "../../../component/common/network/coap/include/ns_list.h"
	.loc 2 639 0
	ldr	r4, [r4, #20]
.LVL3:
.LBE96:
.LBE95:
	.loc 1 896 0
	cmp	r4, #0
	beq	.L1
.L6:
.LVL4:
.LBB97:
	.loc 1 898 0
	ldr	r1, [r4, #8]
	ldr	r2, [r1, #8]
	ldrb	r0, [r2, #2]	@ zero_extendqisi2
.LVL5:
	.loc 1 899 0
	ldrb	r3, [r2, #3]	@ zero_extendqisi2
	add	r3, r3, r0, lsl #8
	.loc 1 902 0
	uxth	r3, r3
	cmp	r3, r5
	bne	.L3
	.loc 1 904 0
	ldr	r8, [r1]
	ldrb	r2, [r7]	@ zero_extendqisi2
.LVL6:
	ldr	r1, [r8, #4]
.LVL7:
	ldr	r0, [r7, #4]
.LVL8:
	bl	memcmp
.LVL9:
	cmp	r0, #0
	bne	.L3
	.loc 1 906 0
	ldrh	r2, [r8, #2]
	ldrh	r3, [r7, #2]
	cmp	r2, r3
	bne	.L3
.LVL10:
.LBB98:
.LBB99:
	.loc 2 675 0
	ldr	r2, [r4, #20]
.LVL11:
	.loc 2 676 0
	ldr	r0, [r4, #24]
.LVL12:
	.loc 2 677 0
	cbz	r2, .L4
	.loc 2 678 0
	str	r0, [r2, #24]
.L5:
.LBE99:
.LBE98:
	.loc 1 911 0
	ldrh	r3, [r6, #24]
.LBB107:
.LBB104:
.LBB100:
.LBB101:
	.loc 2 580 0
	ldr	r1, .L13
.LBE101:
.LBE100:
	.loc 2 682 0
	str	r2, [r0]
.LVL13:
.LBE104:
.LBE107:
	.loc 1 911 0
	subs	r3, r3, #1
.LBB108:
.LBB105:
.LBB103:
.LBB102:
	.loc 2 580 0
	str	r1, [r4, #20]
	.loc 2 581 0
	str	r1, [r4, #24]
.LVL14:
.LBE102:
.LBE103:
.LBE105:
.LBE108:
.LBB109:
.LBB110:
	.loc 1 1392 0
	ldr	r2, [r6, #4]
.LBE110:
.LBE109:
	.loc 1 911 0
	strh	r3, [r6, #24]	@ movhi
.LVL15:
.LBB113:
.LBB111:
	.loc 1 1392 0
	ldr	r0, [r4, #8]
	blx	r2
.LVL16:
	.loc 1 1393 0
	movs	r2, #0
	.loc 1 1394 0
	ldr	r3, [r6, #4]
	mov	r0, r4
	.loc 1 1393 0
	str	r2, [r4, #8]
.LBE111:
.LBE113:
.LBE97:
.LBE94:
	.loc 1 921 0
	pop	{r4, r5, r6, r7, r8, lr}
	.cfi_remember_state
	.cfi_restore 14
	.cfi_restore 8
	.cfi_restore 7
	.cfi_restore 6
	.cfi_restore 5
	.cfi_restore 4
	.cfi_def_cfa_offset 0
.LVL17:
.LBB117:
.LBB116:
.LBB114:
.LBB112:
	.loc 1 1394 0
	bx	r3	@ indirect register sibling call
.LVL18:
.L1:
	.cfi_restore_state
	pop	{r4, r5, r6, r7, r8, pc}
.LVL19:
.L4:
.LBE112:
.LBE114:
.LBB115:
.LBB106:
	.loc 2 680 0
	str	r0, [r6, #20]
	b	.L5
.L14:
	.align	2
.L13:
	.word	-559038737
.LBE106:
.LBE115:
.LBE116:
.LBE117:
	.cfi_endproc
.LFE192:
	.size	sn_coap_protocol_linked_list_send_msg_remove, .-sn_coap_protocol_linked_list_send_msg_remove
	.section	.text.sn_coap_protocol_destroy,"ax",%progbits
	.align	1
	.p2align 2,,3
	.global	sn_coap_protocol_destroy
	.syntax unified
	.thumb
	.thumb_func
	.fpu softvfp
	.type	sn_coap_protocol_destroy, %function
sn_coap_protocol_destroy:
.LFB179:
	.loc 1 84 0
	.cfi_startproc
	@ args = 0, pretend = 0, frame = 0
	@ frame_needed = 0, uses_anonymous_args = 0
.LVL20:
	.loc 1 85 0
	cmp	r0, #0
	beq	.L20
.LVL21:
	.loc 1 84 0
	push	{r4, r5, r6, r7, r8, lr}
	.cfi_def_cfa_offset 24
	.cfi_offset 4, -24
	.cfi_offset 5, -20
	.cfi_offset 6, -16
	.cfi_offset 7, -12
	.cfi_offset 8, -8
	.cfi_offset 14, -4
.LBB129:
.LBB130:
	.loc 1 302 0
	ldr	r4, [r0, #16]
.LVL22:
	mov	r5, r0
	cmp	r4, #0
	beq	.L17
.LBB131:
.LBB132:
	.loc 1 1393 0
	mov	r8, #0
.LBE132:
.LBE131:
.LBB135:
.LBB136:
.LBB137:
.LBB138:
	.loc 2 580 0
	ldr	r7, .L29
	b	.L19
.LVL23:
.L28:
.LBE138:
.LBE137:
	.loc 2 678 0
	str	r3, [r6, #24]
	.loc 2 682 0
	str	r6, [r3]
.LVL24:
.LBB142:
.LBB139:
	.loc 2 580 0
	str	r7, [r4, #20]
	.loc 2 581 0
	str	r7, [r4, #24]
.LVL25:
.LBE139:
.LBE142:
.LBE136:
.LBE135:
.LBB146:
.LBB133:
	.loc 1 1392 0
	ldr	r0, [r4, #8]
	ldr	r3, [r5, #4]
	blx	r3
.LVL26:
	.loc 1 1393 0
	str	r8, [r4, #8]
	.loc 1 1394 0
	mov	r0, r4
	mov	r4, r6
.LVL27:
	ldr	r3, [r5, #4]
	blx	r3
.LVL28:
.LBE133:
.LBE146:
	.loc 1 305 0
	ldrh	r3, [r5, #24]
	subs	r3, r3, #1
	strh	r3, [r5, #24]	@ movhi
.LVL29:
.L19:
.LBB147:
.LBB148:
	.loc 2 639 0
	ldr	r6, [r4, #20]
.LVL30:
.LBE148:
.LBE147:
.LBB149:
.LBB145:
	.loc 2 676 0
	ldr	r3, [r4, #24]
.LVL31:
	.loc 2 677 0
	cmp	r6, #0
	bne	.L28
.LBB143:
.LBB140:
	.loc 2 580 0
	ldr	r2, .L29
.LBE140:
.LBE143:
	.loc 2 680 0
	str	r3, [r5, #20]
	.loc 2 682 0
	str	r6, [r3]
.LVL32:
.LBB144:
.LBB141:
	.loc 2 580 0
	str	r2, [r4, #20]
	.loc 2 581 0
	str	r2, [r4, #24]
.LVL33:
.LBE141:
.LBE144:
.LBE145:
.LBE149:
.LBB150:
.LBB134:
	.loc 1 1392 0
	ldr	r3, [r5, #4]
	ldr	r0, [r4, #8]
	blx	r3
.LVL34:
	.loc 1 1394 0
	ldr	r3, [r5, #4]
	.loc 1 1393 0
	str	r6, [r4, #8]
	.loc 1 1394 0
	mov	r0, r4
	blx	r3
.LVL35:
.LBE134:
.LBE150:
	.loc 1 305 0
	ldrh	r3, [r5, #24]
	subs	r3, r3, #1
	strh	r3, [r5, #24]	@ movhi
.LVL36:
.L17:
.LBE130:
.LBE129:
	.loc 1 141 0
	mov	r0, r5
	ldr	r3, [r5, #4]
	blx	r3
.LVL37:
	.loc 1 143 0
	movs	r0, #0
	pop	{r4, r5, r6, r7, r8, pc}
.LVL38:
.L20:
	.cfi_def_cfa_offset 0
	.cfi_restore 4
	.cfi_restore 5
	.cfi_restore 6
	.cfi_restore 7
	.cfi_restore 8
	.cfi_restore 14
	.loc 1 86 0
	mov	r0, #-1
.LVL39:
	bx	lr
.L30:
	.align	2
.L29:
	.word	-559038737
	.cfi_endproc
.LFE179:
	.size	sn_coap_protocol_destroy, .-sn_coap_protocol_destroy
	.section	.text.sn_coap_protocol_init,"ax",%progbits
	.align	1
	.p2align 2,,3
	.global	sn_coap_protocol_init
	.syntax unified
	.thumb
	.thumb_func
	.fpu softvfp
	.type	sn_coap_protocol_init, %function
sn_coap_protocol_init:
.LFB180:
	.loc 1 149 0
	.cfi_startproc
	@ args = 0, pretend = 0, frame = 0
	@ frame_needed = 0, uses_anonymous_args = 0
.LVL40:
	push	{r4, r5, r6, r7, r8, lr}
	.cfi_def_cfa_offset 24
	.cfi_offset 4, -24
	.cfi_offset 5, -20
	.cfi_offset 6, -16
	.cfi_offset 7, -12
	.cfi_offset 8, -8
	.cfi_offset 14, -4
	.loc 1 151 0
	cbz	r0, .L34
	.loc 1 151 0 discriminator 1
	cbz	r1, .L34
	.loc 1 151 0 discriminator 2
	cbz	r2, .L34
	mov	r6, r0
	.loc 1 156 0
	movs	r0, #40
.LVL41:
	mov	r8, r3
	mov	r7, r2
	mov	r5, r1
	blx	r6
.LVL42:
	.loc 1 157 0
	mov	r4, r0
	cbz	r0, .L34
	.loc 1 161 0
	movs	r2, #40
	movs	r1, #0
	bl	memset
.LVL43:
.LBB151:
.LBB152:
	.loc 2 573 0
	mov	r1, r4
	movs	r2, #0
.LBE152:
.LBE151:
	.loc 1 179 0
	ldr	r3, .L47
	.loc 1 164 0
	str	r7, [r4, #8]
	.loc 1 166 0
	str	r5, [r4, #4]
	.loc 1 167 0
	str	r6, [r4]
	.loc 1 171 0
	str	r8, [r4, #12]
.LVL44:
.LBB154:
.LBB153:
	.loc 2 573 0
	str	r2, [r1, #16]!
.LVL45:
	.loc 2 574 0
	str	r1, [r4, #20]
.LVL46:
.LBE153:
.LBE154:
	.loc 1 179 0
	str	r3, [r4, #34]	@ unaligned
	.loc 1 203 0
	bl	randLIB_get_16bit
.LVL47:
	.loc 1 204 0
	cbnz	r0, .L46
	.loc 1 205 0
	movs	r2, #1
	ldr	r3, .L47+4
	.loc 1 210 0
	mov	r0, r4
	.loc 1 205 0
	strh	r2, [r3]	@ movhi
	.loc 1 210 0
	pop	{r4, r5, r6, r7, r8, pc}
.LVL48:
.L46:
	.loc 1 203 0
	ldr	r3, .L47+4
	strh	r0, [r3]	@ movhi
	.loc 1 210 0
	mov	r0, r4
	pop	{r4, r5, r6, r7, r8, pc}
.LVL49:
.L34:
	.loc 1 152 0
	movs	r4, #0
	.loc 1 210 0
	mov	r0, r4
	pop	{r4, r5, r6, r7, r8, pc}
.L48:
	.align	2
.L47:
	.word	167968770
	.word	.LANCHOR0
	.cfi_endproc
.LFE180:
	.size	sn_coap_protocol_init, .-sn_coap_protocol_init
	.section	.text.sn_coap_protocol_set_block_size,"ax",%progbits
	.align	1
	.p2align 2,,3
	.global	sn_coap_protocol_set_block_size
	.syntax unified
	.thumb
	.thumb_func
	.fpu softvfp
	.type	sn_coap_protocol_set_block_size, %function
sn_coap_protocol_set_block_size:
.LFB181:
	.loc 1 213 0
	.cfi_startproc
	@ args = 0, pretend = 0, frame = 0
	@ frame_needed = 0, uses_anonymous_args = 0
	@ link register save eliminated.
.LVL50:
	.loc 1 237 0
	mov	r0, #-1
.LVL51:
	bx	lr
	.cfi_endproc
.LFE181:
	.size	sn_coap_protocol_set_block_size, .-sn_coap_protocol_set_block_size
	.section	.text.sn_coap_protocol_set_duplicate_buffer_size,"ax",%progbits
	.align	1
	.p2align 2,,3
	.global	sn_coap_protocol_set_duplicate_buffer_size
	.syntax unified
	.thumb
	.thumb_func
	.fpu softvfp
	.type	sn_coap_protocol_set_duplicate_buffer_size, %function
sn_coap_protocol_set_duplicate_buffer_size:
.LFB182:
	.loc 1 240 0
	.cfi_startproc
	@ args = 0, pretend = 0, frame = 0
	@ frame_needed = 0, uses_anonymous_args = 0
	@ link register save eliminated.
.LVL52:
	.loc 1 253 0
	mov	r0, #-1
.LVL53:
	bx	lr
	.cfi_endproc
.LFE182:
	.size	sn_coap_protocol_set_duplicate_buffer_size, .-sn_coap_protocol_set_duplicate_buffer_size
	.section	.text.sn_coap_protocol_set_retransmission_parameters,"ax",%progbits
	.align	1
	.p2align 2,,3
	.global	sn_coap_protocol_set_retransmission_parameters
	.syntax unified
	.thumb
	.thumb_func
	.fpu softvfp
	.type	sn_coap_protocol_set_retransmission_parameters, %function
sn_coap_protocol_set_retransmission_parameters:
.LFB183:
	.loc 1 257 0
	.cfi_startproc
	@ args = 0, pretend = 0, frame = 0
	@ frame_needed = 0, uses_anonymous_args = 0
	@ link register save eliminated.
.LVL54:
	.loc 1 259 0
	cbz	r0, .L56
	.loc 1 262 0
	cmp	r1, #6
	bhi	.L56
	.loc 1 262 0 is_stmt 0 discriminator 1
	cmp	r2, #40
	bhi	.L56
	.loc 1 264 0 is_stmt 1
	strb	r1, [r0, #36]
	.loc 1 266 0
	cbz	r2, .L57
	.loc 1 269 0
	strb	r2, [r0, #37]
	.loc 1 271 0
	movs	r2, #0
.LVL55:
.L52:
	.loc 1 275 0
	mov	r0, r2
.LVL56:
	bx	lr
.LVL57:
.L57:
	.loc 1 267 0
	movs	r3, #1
	strb	r3, [r0, #37]
	.loc 1 275 0
	mov	r0, r2
.LVL58:
	bx	lr
.LVL59:
.L56:
	.loc 1 260 0
	mov	r2, #-1
.LVL60:
	b	.L52
	.cfi_endproc
.LFE183:
	.size	sn_coap_protocol_set_retransmission_parameters, .-sn_coap_protocol_set_retransmission_parameters
	.section	.text.sn_coap_protocol_set_retransmission_buffer,"ax",%progbits
	.align	1
	.p2align 2,,3
	.global	sn_coap_protocol_set_retransmission_buffer
	.syntax unified
	.thumb
	.thumb_func
	.fpu softvfp
	.type	sn_coap_protocol_set_retransmission_buffer, %function
sn_coap_protocol_set_retransmission_buffer:
.LFB184:
	.loc 1 279 0
	.cfi_startproc
	@ args = 0, pretend = 0, frame = 0
	@ frame_needed = 0, uses_anonymous_args = 0
	@ link register save eliminated.
.LVL61:
	.loc 1 281 0
	cbz	r0, .L62
	.loc 1 284 0
	cmp	r2, #512
	bhi	.L62
	.loc 1 284 0 is_stmt 0 discriminator 1
	cmp	r1, #6
	bhi	.L62
	.loc 1 286 0 is_stmt 1
	strb	r2, [r0, #35]
	.loc 1 287 0
	strb	r1, [r0, #34]
	.loc 1 288 0
	movs	r0, #0
.LVL62:
	bx	lr
.LVL63:
.L62:
	.loc 1 282 0
	mov	r0, #-1
.LVL64:
	.loc 1 294 0
	bx	lr
	.cfi_endproc
.LFE184:
	.size	sn_coap_protocol_set_retransmission_buffer, .-sn_coap_protocol_set_retransmission_buffer
	.section	.text.sn_coap_protocol_clear_retransmission_buffer,"ax",%progbits
	.align	1
	.p2align 2,,3
	.global	sn_coap_protocol_clear_retransmission_buffer
	.syntax unified
	.thumb
	.thumb_func
	.fpu softvfp
	.type	sn_coap_protocol_clear_retransmission_buffer, %function
sn_coap_protocol_clear_retransmission_buffer:
.LFB185:
	.loc 1 297 0
	.cfi_startproc
	@ args = 0, pretend = 0, frame = 0
	@ frame_needed = 0, uses_anonymous_args = 0
.LVL65:
	.loc 1 299 0
	cmp	r0, #0
	beq	.L74
	.loc 1 297 0
	push	{r4, r5, r6, r7, r8, lr}
	.cfi_def_cfa_offset 24
	.cfi_offset 4, -24
	.cfi_offset 5, -20
	.cfi_offset 6, -16
	.cfi_offset 7, -12
	.cfi_offset 8, -8
	.cfi_offset 14, -4
.LBB155:
	.loc 1 302 0
	ldr	r4, [r0, #16]
.LVL66:
	cmp	r4, #0
	beq	.L63
	mov	r6, r0
.LBB156:
.LBB157:
	.loc 1 1393 0
	mov	r8, #0
.LBE157:
.LBE156:
.LBB160:
.LBB161:
.LBB162:
.LBB163:
	.loc 2 580 0
	ldr	r7, .L78
	b	.L66
.LVL67:
.L77:
.LBE163:
.LBE162:
	.loc 2 678 0
	str	r3, [r5, #24]
	.loc 2 682 0
	str	r5, [r3]
.LVL68:
.LBB167:
.LBB164:
	.loc 2 580 0
	str	r7, [r4, #20]
	.loc 2 581 0
	str	r7, [r4, #24]
.LVL69:
.LBE164:
.LBE167:
.LBE161:
.LBE160:
.LBB171:
.LBB158:
	.loc 1 1392 0
	ldr	r0, [r4, #8]
	ldr	r3, [r6, #4]
	blx	r3
.LVL70:
	.loc 1 1393 0
	str	r8, [r4, #8]
	.loc 1 1394 0
	mov	r0, r4
	mov	r4, r5
.LVL71:
	ldr	r3, [r6, #4]
	blx	r3
.LVL72:
.LBE158:
.LBE171:
	.loc 1 305 0
	ldrh	r3, [r6, #24]
	subs	r3, r3, #1
	strh	r3, [r6, #24]	@ movhi
.LVL73:
.L66:
.LBB172:
.LBB173:
	.loc 2 639 0
	ldr	r5, [r4, #20]
.LVL74:
.LBE173:
.LBE172:
.LBB174:
.LBB170:
	.loc 2 676 0
	ldr	r3, [r4, #24]
.LVL75:
	.loc 2 677 0
	cmp	r5, #0
	bne	.L77
.LBB168:
.LBB165:
	.loc 2 580 0
	ldr	r2, .L78
.LBE165:
.LBE168:
	.loc 2 680 0
	str	r3, [r6, #20]
	.loc 2 682 0
	str	r5, [r3]
.LVL76:
.LBB169:
.LBB166:
	.loc 2 580 0
	str	r2, [r4, #20]
	.loc 2 581 0
	str	r2, [r4, #24]
.LVL77:
.LBE166:
.LBE169:
.LBE170:
.LBE174:
.LBB175:
.LBB159:
	.loc 1 1392 0
	ldr	r3, [r6, #4]
	ldr	r0, [r4, #8]
	blx	r3
.LVL78:
	.loc 1 1394 0
	ldr	r3, [r6, #4]
	.loc 1 1393 0
	str	r5, [r4, #8]
	.loc 1 1394 0
	mov	r0, r4
	blx	r3
.LVL79:
.LBE159:
.LBE175:
	.loc 1 305 0
	ldrh	r3, [r6, #24]
	subs	r3, r3, #1
	strh	r3, [r6, #24]	@ movhi
.LVL80:
.L63:
	pop	{r4, r5, r6, r7, r8, pc}
.LVL81:
.L74:
	.cfi_def_cfa_offset 0
	.cfi_restore 4
	.cfi_restore 5
	.cfi_restore 6
	.cfi_restore 7
	.cfi_restore 8
	.cfi_restore 14
	bx	lr
.L79:
	.align	2
.L78:
	.word	-559038737
.LBE155:
	.cfi_endproc
.LFE185:
	.size	sn_coap_protocol_clear_retransmission_buffer, .-sn_coap_protocol_clear_retransmission_buffer
	.section	.text.sn_coap_protocol_delete_retransmission,"ax",%progbits
	.align	1
	.p2align 2,,3
	.global	sn_coap_protocol_delete_retransmission
	.syntax unified
	.thumb
	.thumb_func
	.fpu softvfp
	.type	sn_coap_protocol_delete_retransmission, %function
sn_coap_protocol_delete_retransmission:
.LFB186:
	.loc 1 311 0
	.cfi_startproc
	@ args = 0, pretend = 0, frame = 0
	@ frame_needed = 0, uses_anonymous_args = 0
.LVL82:
	.loc 1 313 0
	cmp	r0, #0
	beq	.L88
	.loc 1 311 0
	push	{r3, r4, r5, r6, r7, lr}
	.cfi_def_cfa_offset 24
	.cfi_offset 3, -24
	.cfi_offset 4, -20
	.cfi_offset 5, -16
	.cfi_offset 6, -12
	.cfi_offset 7, -8
	.cfi_offset 14, -4
.LBB176:
	.loc 1 316 0
	ldr	r4, [r0, #16]
.LVL83:
	cbz	r4, .L97
.L86:
.LVL84:
	.loc 1 317 0
	ldr	r3, [r4, #8]
.LBB177:
.LBB178:
	.loc 2 639 0
	ldr	r5, [r4, #20]
.LVL85:
.LBE178:
.LBE177:
	.loc 1 317 0
	cbz	r3, .L83
	.loc 1 317 0 is_stmt 0 discriminator 1
	ldr	r2, [r3, #8]
	cbz	r2, .L83
.LBB179:
	.loc 1 318 0 is_stmt 1
	ldrb	r6, [r2, #2]	@ zero_extendqisi2
.LVL86:
	.loc 1 319 0
	ldrb	r3, [r2, #3]	@ zero_extendqisi2
	add	r3, r3, r6, lsl #8
	.loc 1 320 0
	uxth	r3, r3
	cmp	r3, r1
	beq	.L98
.LVL87:
.L83:
	mov	r4, r5
.LBE179:
	.loc 1 316 0 discriminator 1
	cmp	r5, #0
	bne	.L86
.LVL88:
.L97:
.LBE176:
	.loc 1 329 0
	mvn	r0, #1
.LVL89:
	pop	{r3, r4, r5, r6, r7, pc}
.LVL90:
.L98:
.LBB199:
.LBB198:
.LBB180:
.LBB181:
	.loc 2 676 0
	ldr	r1, [r4, #24]
.LVL91:
	.loc 2 677 0
	cbz	r5, .L84
	.loc 2 678 0
	str	r1, [r5, #24]
.LVL92:
.L85:
	mov	r6, r0
.LBE181:
.LBE180:
.LBB189:
.LBB190:
	.loc 1 1393 0
	movs	r7, #0
.LBE190:
.LBE189:
	.loc 1 322 0
	ldrh	r3, [r0, #24]
.LBB193:
.LBB186:
.LBB182:
.LBB183:
	.loc 2 580 0
	ldr	r2, .L99
.LBE183:
.LBE182:
	.loc 2 682 0
	str	r5, [r1]
.LVL93:
.LBE186:
.LBE193:
	.loc 1 322 0
	subs	r3, r3, #1
.LBB194:
.LBB187:
.LBB185:
.LBB184:
	.loc 2 580 0
	str	r2, [r4, #20]
	.loc 2 581 0
	str	r2, [r4, #24]
.LVL94:
.LBE184:
.LBE185:
.LBE187:
.LBE194:
.LBB195:
.LBB191:
	.loc 1 1392 0
	ldr	r2, [r0, #4]
.LBE191:
.LBE195:
	.loc 1 322 0
	strh	r3, [r0, #24]	@ movhi
.LVL95:
.LBB196:
.LBB192:
	.loc 1 1392 0
	ldr	r0, [r4, #8]
.LVL96:
	blx	r2
.LVL97:
	.loc 1 1394 0
	ldr	r3, [r6, #4]
	mov	r0, r4
	.loc 1 1393 0
	str	r7, [r4, #8]
	.loc 1 1394 0
	blx	r3
.LVL98:
.LBE192:
.LBE196:
	.loc 1 324 0
	mov	r0, r7
	pop	{r3, r4, r5, r6, r7, pc}
.LVL99:
.L84:
.LBB197:
.LBB188:
	.loc 2 680 0
	str	r1, [r0, #20]
.LVL100:
	b	.L85
.LVL101:
.L88:
	.cfi_def_cfa_offset 0
	.cfi_restore 3
	.cfi_restore 4
	.cfi_restore 5
	.cfi_restore 6
	.cfi_restore 7
	.cfi_restore 14
.LBE188:
.LBE197:
.LBE198:
.LBE199:
	.loc 1 314 0
	mov	r0, #-1
.LVL102:
	bx	lr
.L100:
	.align	2
.L99:
	.word	-559038737
	.cfi_endproc
.LFE186:
	.size	sn_coap_protocol_delete_retransmission, .-sn_coap_protocol_delete_retransmission
	.section	.text.sn_coap_protocol_build,"ax",%progbits
	.align	1
	.p2align 2,,3
	.global	sn_coap_protocol_build
	.syntax unified
	.thumb
	.thumb_func
	.fpu softvfp
	.type	sn_coap_protocol_build, %function
sn_coap_protocol_build:
.LFB187:
	.loc 1 373 0
	.cfi_startproc
	@ args = 4, pretend = 0, frame = 8
	@ frame_needed = 0, uses_anonymous_args = 0
.LVL103:
	push	{r4, r5, r6, r7, r8, r9, r10, fp, lr}
	.cfi_def_cfa_offset 36
	.cfi_offset 4, -36
	.cfi_offset 5, -32
	.cfi_offset 6, -28
	.cfi_offset 7, -24
	.cfi_offset 8, -20
	.cfi_offset 9, -16
	.cfi_offset 10, -12
	.cfi_offset 11, -8
	.cfi_offset 14, -4
	sub	sp, sp, #12
	.cfi_def_cfa_offset 48
	.loc 1 380 0
	cmp	r1, #0
	beq	.L120
	.loc 1 380 0 discriminator 1
	cmp	r2, #0
	beq	.L120
	.loc 1 380 0 discriminator 2
	cmp	r3, #0
	beq	.L120
	.loc 1 380 0 discriminator 3
	cmp	r0, #0
	beq	.L120
	.loc 1 384 0
	ldr	r4, [r1, #4]
	cmp	r4, #0
	beq	.L120
	.loc 1 390 0
	ldrb	r4, [r3, #3]	@ zero_extendqisi2
	and	r4, r4, #239
	cmp	r4, #32
	beq	.L104
	.loc 1 391 0
	ldrh	r4, [r3, #8]
	cmp	r4, #0
	beq	.L145
.L104:
	mov	r7, r2
	mov	r6, r1
	.loc 1 416 0
	ldrh	r2, [r0, #32]
.LVL104:
	mov	r5, r0
	mov	r1, r3
.LVL105:
	mov	r0, r7
.LVL106:
	mov	r4, r3
	bl	sn_coap_builder_2
.LVL107:
	.loc 1 418 0
	subs	r8, r0, #0
	blt	.L122
	.loc 1 425 0
	ldrb	r3, [r4, #3]	@ zero_extendqisi2
	cbz	r3, .L146
.LVL108:
.L122:
	.loc 1 512 0
	mov	r0, r8
	add	sp, sp, #12
	.cfi_remember_state
	.cfi_def_cfa_offset 36
	@ sp needed
	pop	{r4, r5, r6, r7, r8, r9, r10, fp, pc}
.LVL109:
.L146:
	.cfi_restore_state
.LBB211:
.LBB212:
	.loc 1 798 0
	ldrh	r3, [r5, #34]
	cmp	r3, #0
	beq	.L122
	ldrb	r3, [r5, #36]	@ zero_extendqisi2
	cmp	r3, #0
	beq	.L122
	.loc 1 802 0
	ldrb	r3, [r5, #34]	@ zero_extendqisi2
	cbz	r3, .L107
	.loc 1 803 0
	ldrh	r2, [r5, #24]
	cmp	r2, r3
	bcs	.L144
.L107:
	.loc 1 809 0
	ldrb	r0, [r5, #35]	@ zero_extendqisi2
.LVL110:
	cbz	r0, .L108
	ldr	r3, [r5, #16]
.LVL111:
.LBB213:
.LBB214:
.LBB215:
	.loc 1 1410 0
	cmp	r3, #0
	beq	.L121
	movs	r2, #0
.LVL112:
.L111:
	.loc 1 1411 0
	ldr	r1, [r3, #8]
	cbz	r1, .L110
	.loc 1 1412 0
	ldrh	r1, [r1, #6]
	add	r2, r2, r1
.LVL113:
	uxth	r2, r2
.LVL114:
.L110:
.LBB216:
.LBB217:
	.loc 2 639 0
	ldr	r3, [r3, #20]
.LVL115:
.LBE217:
.LBE216:
	.loc 1 1410 0
	cmp	r3, #0
	bne	.L111
.LVL116:
.L109:
.LBE215:
.LBE214:
.LBE213:
	.loc 1 810 0
	add	r3, r8, r2
	cmp	r3, r0
	bgt	.L144
.LVL117:
.L108:
.LBB220:
.LBB221:
	.loc 1 1345 0
	ldr	r3, [r5]
	movs	r0, #28
.LBE221:
.LBE220:
.LBE212:
.LBE211:
	.loc 1 428 0
	ldr	fp, [r5, #28]
	ldrb	r10, [r5, #37]	@ zero_extendqisi2
.LVL118:
.LBB243:
.LBB239:
.LBB224:
.LBB222:
	.loc 1 1345 0
	blx	r3
.LVL119:
	.loc 1 1347 0
	mov	r4, r0
.LVL120:
	cmp	r0, #0
	beq	.L144
	.loc 1 1358 0
	ldrb	r2, [r6]	@ zero_extendqisi2
	.loc 1 1360 0
	ldr	r3, [r5]
	.loc 1 1358 0
	add	r2, r2, r8
.LVL121:
	.loc 1 1360 0
	adds	r2, r2, #20
.LVL122:
	uxth	r0, r2
.LVL123:
	str	r2, [sp, #4]
	blx	r3
.LVL124:
	.loc 1 1361 0
	ldr	r2, [sp, #4]
	mov	r9, r0
	cmp	r0, #0
	beq	.L147
	.loc 1 1366 0
	movs	r1, #0
	bl	memset
.LVL125:
	.loc 1 1367 0
	movs	r3, #0
	.loc 1 1370 0
	mov	r0, r9
	add	r2, r9, #12
	.loc 1 1369 0
	str	r9, [r4, #8]
	.loc 1 1367 0
	str	r3, [r4]	@ unaligned
	str	r3, [r4, #4]	@ unaligned
	str	r3, [r4, #12]	@ unaligned
	str	r3, [r4, #16]	@ unaligned
	str	r3, [r4, #20]	@ unaligned
	str	r3, [r4, #24]	@ unaligned
	.loc 1 1370 0
	str	r2, [r0], #20
	.loc 1 1372 0
	str	r0, [r9, #16]
	.loc 1 1373 0
	cmp	r8, #0
	beq	.L114
	.loc 1 1374 0
	ldrb	r3, [r6]	@ zero_extendqisi2
	add	r0, r0, r3
	str	r0, [r9, #8]
.L115:
.LVL126:
.LBE222:
.LBE224:
	.loc 1 823 0
	movs	r3, #0
	.loc 1 827 0
	mov	ip, #4
.LBE239:
.LBE243:
	.loc 1 427 0
	add	r2, r10, fp
.LBB244:
.LBB240:
	.loc 1 823 0
	strb	r3, [r4]
	.loc 1 824 0
	str	r2, [r4, #4]
	.loc 1 829 0
	mov	r1, r7
	.loc 1 827 0
	strb	ip, [r9, #4]
	.loc 1 829 0
	mov	r2, r8
	.loc 1 828 0
	strh	r8, [r9, #6]	@ movhi
	.loc 1 823 0
	str	r3, [sp, #4]
	.loc 1 829 0
	bl	memcpy
.LVL127:
	.loc 1 832 0
	ldr	r2, [r4, #8]
	ldrb	r1, [r6, #1]	@ zero_extendqisi2
	ldr	r2, [r2]
	strb	r1, [r2, #1]
	.loc 1 833 0
	ldrb	r1, [r6]	@ zero_extendqisi2
	.loc 1 834 0
	ldr	r0, [r2, #4]
	.loc 1 833 0
	strb	r1, [r2]
	.loc 1 834 0
	ldrb	r2, [r6]	@ zero_extendqisi2
	ldr	r1, [r6, #4]
	bl	memcpy
.LVL128:
	.loc 1 835 0
	ldr	r1, [r4, #8]
	ldrh	r7, [r6, #2]
.LVL129:
.LBB225:
.LBB226:
	.loc 2 631 0
	ldr	r3, [sp, #4]
.LBE226:
.LBE225:
	.loc 1 835 0
	ldr	r6, [r1]
.LVL130:
	.loc 1 842 0
	ldrh	r2, [r5, #24]
.LBB232:
.LBB227:
	.loc 2 632 0
	ldr	r1, [r5, #20]
.LBE227:
.LBE232:
	.loc 1 835 0
	strh	r7, [r6, #2]	@ movhi
.LBB233:
.LBB228:
	.loc 2 631 0
	str	r3, [r4, #20]
.LBE228:
.LBE233:
	.loc 1 838 0
	ldr	r3, [sp, #48]
	.loc 1 842 0
	adds	r2, r2, #1
.LBB234:
.LBB229:
	.loc 2 634 0
	add	r0, r4, #20
.LBE229:
.LBE234:
	.loc 1 837 0
	str	r5, [r4, #12]
	.loc 1 838 0
	str	r3, [r4, #16]
.LVL131:
.LBB235:
.LBB230:
	.loc 2 632 0
	str	r1, [r4, #24]
	.loc 2 633 0
	str	r4, [r1]
.LVL132:
.LBE230:
.LBE235:
	.loc 1 842 0
	strh	r2, [r5, #24]	@ movhi
.LBB236:
.LBB231:
	.loc 2 634 0
	str	r0, [r5, #20]
.LVL133:
	b	.L122
.LVL134:
.L145:
.LBE231:
.LBE236:
.LBE240:
.LBE244:
	.loc 1 394 0
	ldr	r5, .L148
	ldrh	r6, [r5]
	.loc 1 395 0
	adds	r4, r6, #1
	uxth	r4, r4
	.loc 1 394 0
	strh	r6, [r3, #8]	@ movhi
	.loc 1 396 0
	cbnz	r4, .L143
	.loc 1 397 0
	movs	r4, #1
.L143:
	strh	r4, [r5]	@ movhi
	b	.L104
.LVL135:
.L147:
.LBB245:
.LBB241:
.LBB237:
.LBB223:
	.loc 1 1362 0
	ldr	r3, [r5, #4]
	mov	r0, r4
.LVL136:
	blx	r3
.LVL137:
.L144:
.LBE223:
.LBE237:
.LBE241:
.LBE245:
	.loc 1 430 0
	mvn	r8, #3
.LVL138:
	b	.L122
.LVL139:
.L114:
	ldr	r0, [r9, #8]
	b	.L115
.LVL140:
.L120:
	.loc 1 381 0
	mvn	r8, #1
	b	.L122
.LVL141:
.L121:
.LBB246:
.LBB242:
.LBB238:
.LBB219:
.LBB218:
	.loc 1 1410 0
	mov	r2, r3
	b	.L109
.L149:
	.align	2
.L148:
	.word	.LANCHOR0
.LBE218:
.LBE219:
.LBE238:
.LBE242:
.LBE246:
	.cfi_endproc
.LFE187:
	.size	sn_coap_protocol_build, .-sn_coap_protocol_build
	.section	.text.sn_coap_protocol_parse,"ax",%progbits
	.align	1
	.p2align 2,,3
	.global	sn_coap_protocol_parse
	.syntax unified
	.thumb
	.thumb_func
	.fpu softvfp
	.type	sn_coap_protocol_parse, %function
sn_coap_protocol_parse:
.LFB188:
	.loc 1 515 0
	.cfi_startproc
	@ args = 4, pretend = 0, frame = 8
	@ frame_needed = 0, uses_anonymous_args = 0
.LVL142:
	push	{r4, r5, r6, r7, r8, r9, lr}
	.cfi_def_cfa_offset 28
	.cfi_offset 4, -28
	.cfi_offset 5, -24
	.cfi_offset 6, -20
	.cfi_offset 7, -16
	.cfi_offset 8, -12
	.cfi_offset 9, -8
	.cfi_offset 14, -4
	.loc 1 518 0
	movs	r4, #255
	.loc 1 515 0
	sub	sp, sp, #12
	.cfi_def_cfa_offset 40
	.loc 1 518 0
	strb	r4, [sp, #3]
	.loc 1 521 0
	cmp	r1, #0
	beq	.L195
	.loc 1 521 0 discriminator 1
	ldr	r4, [r1, #4]
	cmp	r4, #0
	beq	.L195
	.loc 1 521 0 discriminator 2
	cmp	r3, #0
	beq	.L195
	mov	r5, r0
	.loc 1 522 0
	cmp	r0, #0
	beq	.L195
	mov	r6, r1
	mov	r1, r2
.LVL143:
	.loc 1 527 0
	mov	r2, r3
.LVL144:
	add	r3, sp, #3
.LVL145:
	bl	sn_coap_parser
.LVL146:
	.loc 1 530 0
	mov	r4, r0
	cmp	r0, #0
	beq	.L195
	.loc 1 535 0
	ldrb	r3, [r0, #1]	@ zero_extendqisi2
	cmp	r3, #1
	beq	.L198
	.loc 1 542 0
	ldrb	r1, [sp, #3]	@ zero_extendqisi2
	bl	sn_coap_header_validity_check
.LVL147:
	cmp	r0, #0
	bne	.L199
	.loc 1 564 0
	ldrb	r2, [r4, #3]	@ zero_extendqisi2
	cbz	r2, .L200
	.loc 1 580 0
	ldr	r3, [r4, #28]
	cbz	r3, .L160
	.loc 1 580 0 discriminator 1
	ldr	r1, [r3, #36]
	adds	r1, r1, #1
	beq	.L201
.L161:
	.loc 1 584 0
	movs	r3, #5
	strb	r3, [r4, #1]
.LVL148:
.L150:
	.loc 1 695 0
	mov	r0, r4
	add	sp, sp, #12
	.cfi_remember_state
	.cfi_def_cfa_offset 28
	@ sp needed
	pop	{r4, r5, r6, r7, r8, r9, pc}
.LVL149:
.L200:
	.cfi_restore_state
	.loc 1 566 0
	ldrb	r7, [r4, #2]	@ zero_extendqisi2
	cmp	r7, #0
	beq	.L202
	.loc 1 580 0
	ldr	r3, [r4, #28]
	cmp	r3, #0
	beq	.L150
	.loc 1 580 0
	ldr	r1, [r3, #36]
	adds	r1, r1, #1
	bne	.L161
.L201:
	.loc 1 581 0
	ldr	r3, [r3, #40]
	adds	r3, r3, #1
	bne	.L161
.L160:
	.loc 1 672 0
	and	r2, r2, #239
	cmp	r2, #32
	bne	.L150
.LVL150:
.LBB261:
	.loc 1 679 0
	ldrh	r3, [r5, #24]
	cmp	r3, #0
	beq	.L150
.LVL151:
	ldr	r7, [r5, #16]
.LVL152:
.LBB262:
	.loc 1 683 0
	ldrh	r8, [r4, #8]
.LVL153:
.LBB263:
.LBB264:
	.loc 1 863 0
	cbnz	r7, .L164
	b	.L150
.LVL154:
.L162:
.LBB265:
.LBB266:
	.loc 2 639 0
	ldr	r7, [r7, #20]
.LVL155:
.LBE266:
.LBE265:
	.loc 1 863 0
	cmp	r7, #0
	beq	.L150
.L164:
.LVL156:
.LBB267:
	.loc 1 865 0
	ldr	r1, [r7, #8]
	ldr	r2, [r1, #8]
	ldrb	r0, [r2, #2]	@ zero_extendqisi2
.LVL157:
	.loc 1 866 0
	ldrb	r3, [r2, #3]	@ zero_extendqisi2
	add	r3, r3, r0, lsl #8
	.loc 1 869 0
	uxth	r3, r3
	cmp	r8, r3
	bne	.L162
	.loc 1 871 0
	ldr	r9, [r1]
	ldrb	r2, [r6]	@ zero_extendqisi2
.LVL158:
	ldr	r1, [r9, #4]
.LVL159:
	ldr	r0, [r6, #4]
.LVL160:
	bl	memcmp
.LVL161:
	cmp	r0, #0
	bne	.L162
	.loc 1 873 0
	ldrh	r2, [r9, #2]
	ldrh	r3, [r6, #2]
	cmp	r2, r3
	bne	.L162
.LVL162:
.LBE267:
.LBE264:
.LBE263:
	.loc 1 687 0
	mov	r2, r8
	mov	r1, r6
	mov	r0, r5
	bl	sn_coap_protocol_linked_list_send_msg_remove
.LVL163:
	b	.L150
.LVL164:
.L199:
.LBE262:
.LBE261:
	.loc 1 544 0
	ldrb	r3, [r4, #2]	@ zero_extendqisi2
	lsrs	r3, r3, #5
	cmp	r3, #1
	beq	.L156
	.loc 1 544 0 is_stmt 0 discriminator 1
	subs	r3, r3, #6
	cmp	r3, #1
	bls	.L156
.LVL165:
.L157:
	.loc 1 551 0 is_stmt 1
	mov	r1, r4
	mov	r0, r5
	bl	sn_coap_parser_release_allocated_coap_msg_mem
.LVL166:
.L195:
	.loc 1 554 0
	movs	r4, #0
	.loc 1 695 0
	mov	r0, r4
	add	sp, sp, #12
	.cfi_remember_state
	.cfi_def_cfa_offset 28
	@ sp needed
	pop	{r4, r5, r6, r7, r8, r9, pc}
.LVL167:
.L156:
	.cfi_restore_state
.LBB268:
.LBB269:
	.loc 1 931 0
	movs	r0, #112
	.loc 1 934 0
	movs	r1, #0
.LBE269:
.LBE268:
	.loc 1 547 0
	ldrh	r3, [r4, #8]
.LBB271:
.LBB270:
	.loc 1 941 0
	mov	r2, r6
	.loc 1 937 0
	lsrs	r6, r3, #8
.LVL168:
	.loc 1 938 0
	strb	r3, [sp, #7]
	.loc 1 937 0
	strb	r6, [sp, #6]
	.loc 1 931 0
	strb	r0, [sp, #4]
	.loc 1 934 0
	strb	r1, [sp, #5]
.L196:
	.loc 1 941 0
	movs	r1, #4
	ldr	r6, [r5, #8]
.LVL169:
	ldr	r3, [sp, #40]
	add	r0, sp, r1
	blx	r6
.LVL170:
	b	.L157
.LVL171:
.L198:
.LBE270:
.LBE271:
.LBB272:
.LBB273:
	.loc 1 931 0
	movs	r1, #112
.LBE273:
.LBE272:
	.loc 1 536 0
	ldrh	r3, [r0, #8]
.LBB275:
.LBB274:
	.loc 1 934 0
	movs	r7, #0
	.loc 1 931 0
	strb	r1, [sp, #4]
	.loc 1 941 0
	movs	r1, #4
	.loc 1 937 0
	lsrs	r0, r3, #8
.LVL172:
	.loc 1 941 0
	mov	r2, r6
	.loc 1 938 0
	strb	r3, [sp, #7]
	.loc 1 937 0
	strb	r0, [sp, #6]
	.loc 1 934 0
	strb	r7, [sp, #5]
	.loc 1 941 0
	add	r0, sp, r1
	ldr	r6, [r5, #8]
.LVL173:
	ldr	r3, [sp, #40]
.LVL174:
	blx	r6
.LVL175:
.LBE274:
.LBE275:
	.loc 1 537 0
	mov	r1, r4
	mov	r0, r5
	.loc 1 538 0
	mov	r4, r7
.LVL176:
	.loc 1 537 0
	bl	sn_coap_parser_release_allocated_coap_msg_mem
.LVL177:
	.loc 1 538 0
	b	.L150
.LVL178:
.L202:
.LBB276:
.LBB277:
	.loc 1 931 0
	movs	r1, #112
.LBE277:
.LBE276:
	.loc 1 567 0
	ldrh	r3, [r4, #8]
.LBB279:
.LBB278:
	.loc 1 941 0
	mov	r2, r6
	.loc 1 937 0
	lsrs	r0, r3, #8
	.loc 1 938 0
	strb	r3, [sp, #7]
	.loc 1 937 0
	strb	r0, [sp, #6]
	.loc 1 934 0
	strb	r7, [sp, #5]
	.loc 1 931 0
	strb	r1, [sp, #4]
	b	.L196
.LBE278:
.LBE279:
	.cfi_endproc
.LFE188:
	.size	sn_coap_protocol_parse, .-sn_coap_protocol_parse
	.section	.text.sn_coap_protocol_exec,"ax",%progbits
	.align	1
	.p2align 2,,3
	.global	sn_coap_protocol_exec
	.syntax unified
	.thumb
	.thumb_func
	.fpu softvfp
	.type	sn_coap_protocol_exec, %function
sn_coap_protocol_exec:
.LFB189:
	.loc 1 699 0
	.cfi_startproc
	@ args = 0, pretend = 0, frame = 8
	@ frame_needed = 0, uses_anonymous_args = 0
.LVL179:
	.loc 1 700 0
	cmp	r0, #0
	beq	.L213
	.loc 1 699 0
	push	{r4, r5, r6, r7, r8, r9, r10, fp, lr}
	.cfi_def_cfa_offset 36
	.cfi_offset 4, -36
	.cfi_offset 5, -32
	.cfi_offset 6, -28
	.cfi_offset 7, -24
	.cfi_offset 8, -20
	.cfi_offset 9, -16
	.cfi_offset 10, -12
	.cfi_offset 11, -8
	.cfi_offset 14, -4
.LBB280:
	.loc 1 720 0
	ldr	r4, [r0, #16]
.LVL180:
.LBE280:
	.loc 1 699 0
	sub	sp, sp, #12
	.cfi_def_cfa_offset 48
	.loc 1 705 0
	str	r1, [r0, #28]
.LBB288:
	.loc 1 720 0
	cmp	r4, #0
	beq	.L211
	mov	r6, r0
	mov	r8, r1
.LBB281:
	.loc 1 730 0
	mov	r9, #255
.LBB282:
	.loc 1 743 0
	mov	r10, #7
	b	.L210
.LVL181:
.L206:
.LBE282:
.LBE281:
	.loc 1 720 0 discriminator 1
	mov	r4, r5
	cmp	r5, #0
	beq	.L211
.LVL182:
.L210:
	.loc 1 722 0
	ldr	r3, [r4, #12]
.LBB284:
.LBB285:
	.loc 2 639 0
	ldr	r5, [r4, #20]
.LVL183:
.LBE285:
.LBE284:
	.loc 1 722 0
	cmp	r6, r3
	bne	.L206
	.loc 1 724 0
	ldr	r3, [r4, #4]
	cmp	r8, r3
	bcc	.L206
	.loc 1 726 0
	ldrb	r3, [r4]	@ zero_extendqisi2
	adds	r3, r3, #1
	uxtb	r3, r3
	strb	r3, [r4]
	.loc 1 729 0
	ldrb	r2, [r6, #36]	@ zero_extendqisi2
	cmp	r2, r3
.LBB286:
	.loc 1 733 0
	ldr	r3, [r4, #8]
.LBE286:
	.loc 1 729 0
	bcs	.L207
.LBB287:
	.loc 1 733 0
	ldr	r2, [r3, #8]
	.loc 1 737 0
	ldr	r1, [r6, #12]
	.loc 1 733 0
	ldrb	r0, [r2, #2]	@ zero_extendqisi2
.LVL184:
	.loc 1 734 0
	ldrb	r7, [r2, #3]	@ zero_extendqisi2
	.loc 1 730 0
	strb	r9, [sp, #7]
	.loc 1 734 0
	add	r7, r7, r0, lsl #8
	uxth	r7, r7
.LVL185:
	.loc 1 737 0
	cbz	r1, .L208
.LBB283:
	.loc 1 740 0
	ldrh	r1, [r3, #6]
	mov	r0, r6
	add	r3, sp, #7
	bl	sn_coap_parser
.LVL186:
	.loc 1 742 0
	mov	fp, r0
	cbz	r0, .L222
	.loc 1 745 0
	ldr	r2, [r4, #8]
	ldr	r3, [r4, #12]
	ldr	r1, [r2]
	.loc 1 743 0
	strb	r10, [r0, #1]
	.loc 1 745 0
	ldr	r3, [r3, #12]
	ldr	r2, [r4, #16]
	blx	r3
.LVL187:
	.loc 1 747 0
	mov	r1, fp
	ldr	r0, [r4, #12]
	bl	sn_coap_parser_release_allocated_coap_msg_mem
.LVL188:
.L222:
	ldr	r3, [r4, #8]
.LVL189:
.L208:
.LBE283:
	.loc 1 751 0
	mov	r2, r7
	ldr	r1, [r3]
	mov	r0, r6
	bl	sn_coap_protocol_linked_list_send_msg_remove
.LVL190:
.LBE287:
	.loc 1 720 0
	mov	r4, r5
	cmp	r5, #0
	bne	.L210
.LVL191:
.L211:
.LBE288:
	.loc 1 768 0
	movs	r0, #0
	.loc 1 769 0
	add	sp, sp, #12
	.cfi_remember_state
	.cfi_def_cfa_offset 36
	@ sp needed
	pop	{r4, r5, r6, r7, r8, r9, r10, fp, pc}
.LVL192:
.L207:
	.cfi_restore_state
.LBB289:
	.loc 1 754 0
	ldr	r2, [r3]
	ldrh	r1, [r3, #6]
	ldr	r0, [r3, #8]
	ldr	r7, [r6, #8]
	ldr	r3, [r4, #16]
	blx	r7
.LVL193:
	.loc 1 758 0
	ldrb	r3, [r6, #37]	@ zero_extendqisi2
	.loc 1 759 0
	ldrb	r2, [r4]	@ zero_extendqisi2
	.loc 1 758 0
	lsls	r3, r3, r2
	add	r3, r3, r8
	str	r3, [r4, #4]
	b	.L206
.LVL194:
.L213:
	.cfi_def_cfa_offset 0
	.cfi_restore 4
	.cfi_restore 5
	.cfi_restore 6
	.cfi_restore 7
	.cfi_restore 8
	.cfi_restore 9
	.cfi_restore 10
	.cfi_restore 11
	.cfi_restore 14
.LBE289:
	.loc 1 701 0
	mov	r0, #-1
.LVL195:
	bx	lr
	.cfi_endproc
.LFE189:
	.size	sn_coap_protocol_exec, .-sn_coap_protocol_exec
	.section	.bss.message_id,"aw",%nobits
	.align	1
	.set	.LANCHOR0,. + 0
	.type	message_id, %object
	.size	message_id, 2
message_id:
	.space	2
	.text
.Letext0:
	.file 3 "/cygdrive/d/PUYA/HE3/sdk-ameba-v7.1d/tools/arm-none-eabi-gcc/asdk/cygwin/newlib/arm-none-eabi/include/machine/_default_types.h"
	.file 4 "/cygdrive/d/PUYA/HE3/sdk-ameba-v7.1d/tools/arm-none-eabi-gcc/asdk/cygwin/newlib/lib/gcc/arm-none-eabi/6.5.0/include/stddef.h"
	.file 5 "/cygdrive/d/PUYA/HE3/sdk-ameba-v7.1d/tools/arm-none-eabi-gcc/asdk/cygwin/newlib/arm-none-eabi/include/sys/lock.h"
	.file 6 "/cygdrive/d/PUYA/HE3/sdk-ameba-v7.1d/tools/arm-none-eabi-gcc/asdk/cygwin/newlib/arm-none-eabi/include/sys/_types.h"
	.file 7 "/cygdrive/d/PUYA/HE3/sdk-ameba-v7.1d/tools/arm-none-eabi-gcc/asdk/cygwin/newlib/arm-none-eabi/include/sys/reent.h"
	.file 8 "<built-in>"
	.file 9 "/cygdrive/d/PUYA/HE3/sdk-ameba-v7.1d/tools/arm-none-eabi-gcc/asdk/cygwin/newlib/arm-none-eabi/include/sys/_stdint.h"
	.file 10 "/cygdrive/d/PUYA/HE3/sdk-ameba-v7.1d/tools/arm-none-eabi-gcc/asdk/cygwin/newlib/arm-none-eabi/include/time.h"
	.file 11 "/cygdrive/d/PUYA/HE3/sdk-ameba-v7.1d/tools/arm-none-eabi-gcc/asdk/cygwin/newlib/lib/gcc/arm-none-eabi/6.5.0/include/stdarg.h"
	.file 12 "/cygdrive/d/PUYA/HE3/sdk-ameba-v7.1d/tools/arm-none-eabi-gcc/asdk/cygwin/newlib/arm-none-eabi/include/stdio.h"
	.file 13 "/cygdrive/d/PUYA/HE3/sdk-ameba-v7.1d/tools/arm-none-eabi-gcc/asdk/cygwin/newlib/arm-none-eabi/include/stdlib.h"
	.file 14 "/cygdrive/d/PUYA/HE3/sdk-ameba-v7.1d/tools/arm-none-eabi-gcc/asdk/cygwin/newlib/arm-none-eabi/include/stdint.h"
	.file 15 "../../../component/common/network/coap/include/sn_coap_header.h"
	.file 16 "../../../component/common/network/coap/include/sn_coap_header_internal.h"
	.file 17 "../inc/FreeRTOSConfig.h"
	.file 18 "../../../component/soc/realtek/8710c/cmsis/rtl8710c/include/basic_types.h"
	.file 19 "../../../component/soc/realtek/8710c/app/rtl_printf/include/log_buf.h"
	.file 20 "../../../component/soc/realtek/8710c/app/stdio_port/stdio_port.h"
	.file 21 "../../../component/soc/realtek/8710c/app/rtl_printf/include/printf_entry.h"
	.file 22 "../../../component/soc/realtek/8710c/app/rtl_printf/include/rt_printf.h"
	.file 23 "../../../component/soc/realtek/8710c/misc/utilities/include/utility.h"
	.file 24 "../../../component/common/drivers/wlan/realtek/src/osdep/wireless.h"
	.file 25 "../../../component/common/drivers/wlan/realtek/include/autoconf.h"
	.file 26 "../../../component/common/api/wifi/wifi_util.h"
	.file 27 "../../../component/common/network/lwip/lwip_v2.0.2/port/realtek/arch/cc.h"
	.file 28 "../../../component/common/network/lwip/lwip_v2.0.2/src/include/lwip/ip4_addr.h"
	.file 29 "../../../component/common/network/lwip/lwip_v2.0.2/src/include/lwip/ip_addr.h"
	.file 30 "../../../component/common/network/lwip/lwip_v2.0.2/src/include/lwip/inet.h"
	.file 31 "../../../component/common/network/lwip/lwip_v2.0.2/src/include/lwip/errno.h"
	.file 32 "../../../component/common/network/lwip/lwip_v2.0.2/src/include/lwip/netdb.h"
	.file 33 "../../../component/common/network/coap/include/sn_coap_protocol_internal.h"
	.file 34 "/cygdrive/d/PUYA/HE3/sdk-ameba-v7.1d/tools/arm-none-eabi-gcc/asdk/cygwin/newlib/arm-none-eabi/include/string.h"
	.file 35 "../../../component/common/network/coap/include/sn_coap_ameba_port.h"