	.arch armv8-m.main
	.arch_extension dsp
	.eabi_attribute 20, 1
	.eabi_attribute 21, 1
	.eabi_attribute 23, 3
	.eabi_attribute 24, 1
	.eabi_attribute 25, 1
	.eabi_attribute 26, 1
	.eabi_attribute 30, 2
	.eabi_attribute 34, 1
	.eabi_attribute 18, 4
	.file	"sn_coap_builder.c"
	.text
.Ltext0:
	.cfi_sections	.debug_frame
	.section	.text.sn_coap_builder_options_build_add_one_option,"ax",%progbits
	.align	1
	.p2align 2,,3
	.syntax unified
	.thumb
	.thumb_func
	.fpu softvfp
	.type	sn_coap_builder_options_build_add_one_option, %function
sn_coap_builder_options_build_add_one_option:
.LFB187:
	.file 1 "../../../component/common/network/coap/sn_coap_builder.c"
	.loc 1 655 0
	.cfi_startproc
	@ args = 4, pretend = 0, frame = 0
	@ frame_needed = 0, uses_anonymous_args = 0
.LVL0:
	push	{r3, r4, r5, r6, r7, lr}
	.cfi_def_cfa_offset 24
	.cfi_offset 3, -24
	.cfi_offset 4, -20
	.cfi_offset 5, -16
	.cfi_offset 6, -12
	.cfi_offset 7, -8
	.cfi_offset 14, -4
	.loc 1 655 0
	ldr	r7, [sp, #24]
	.loc 1 657 0
	cmp	r2, #0
	beq	.L11
.LBB112:
	.loc 1 660 0
	ldrh	r5, [r7]
	uxth	r3, r3
.LVL1:
	subs	r5, r3, r5
	.loc 1 665 0
	cmp	r1, #12
	mov	r4, r1
	.loc 1 660 0
	uxth	r5, r5
.LVL2:
	.loc 1 665 0
	bls	.L14
	.loc 1 669 0
	subs	r1, r1, #13
.LVL3:
	uxth	ip, r1
	cmp	ip, #255
	.loc 1 670 0
	ite	ls
	movls	lr, #13
	.loc 1 674 0
	movhi	lr, #14
	ldr	r6, [r0]
	.loc 1 678 0
	cmp	r5, #12
	.loc 1 674 0
	strb	lr, [r6]
.LVL4:
	.loc 1 678 0
	bhi	.L6
.L15:
	.loc 1 679 0
	ldr	lr, [r0]
	ldrb	r6, [lr]	@ zero_extendqisi2
	add	r5, r6, r5, lsl #4
.LVL5:
	strb	r5, [lr]
	.loc 1 680 0
	ldr	r6, [r0]
	adds	r6, r6, #1
	str	r6, [r0]
.L7:
	.loc 1 701 0
	cmp	ip, #255
	bhi	.L9
.L17:
	.loc 1 702 0
	strb	r1, [r6]
	.loc 1 703 0
	ldr	r6, [r0]
	adds	r6, r6, #1
	str	r6, [r0]
.L10:
	mov	r5, r4
	mov	r4, r0
	mov	r1, r2
	.loc 1 712 0
	strh	r3, [r7]	@ movhi
	.loc 1 715 0
	mov	r0, r6
.LVL6:
	mov	r2, r5
.LVL7:
	bl	memcpy
.LVL8:
	.loc 1 718 0
	ldr	r1, [r4]
	.loc 1 720 0
	movs	r0, #1
	.loc 1 718 0
	add	r1, r1, r5
	str	r1, [r4]
	.loc 1 720 0
	pop	{r3, r4, r5, r6, r7, pc}
.LVL9:
.L14:
	.loc 1 666 0
	ldr	r6, [r0]
	subs	r1, r1, #13
.LVL10:
	.loc 1 678 0
	cmp	r5, #12
	.loc 1 666 0
	strb	r4, [r6]
	uxth	ip, r1
	.loc 1 678 0
	bls	.L15
.LVL11:
.L6:
	.loc 1 683 0
	sub	r6, r5, #13
	uxth	r6, r6
	cmp	r6, #255
	.loc 1 684 0
	ldr	lr, [r0]
	.loc 1 683 0
	bls	.L16
	.loc 1 693 0
	mvn	r6, #268
	add	r5, r5, r6
.LVL12:
	.loc 1 692 0
	ldrb	r6, [lr]	@ zero_extendqisi2
	.loc 1 693 0
	uxth	r5, r5
.LVL13:
	.loc 1 692 0
	subs	r6, r6, #32
	strb	r6, [lr]
	.loc 1 695 0
	ldr	r6, [r0]
	.loc 1 696 0
	lsr	lr, r5, #8
	.loc 1 695 0
	strb	r5, [r6, #2]
	.loc 1 696 0
	ldr	r5, [r0]
.LVL14:
	.loc 1 701 0
	cmp	ip, #255
	.loc 1 696 0
	strb	lr, [r5, #1]
	.loc 1 697 0
	ldr	r6, [r0]
	add	r6, r6, #3
	str	r6, [r0]
	.loc 1 701 0
	bls	.L17
.L9:
	.loc 1 706 0
	cmp	r4, #268
	bls	.L10
	.loc 1 707 0
	strb	r1, [r6, #1]
	.loc 1 708 0
	mvn	r1, #268
	ldr	r5, [r0]
	adds	r1, r4, r1
	asrs	r1, r1, #8
	strb	r1, [r5]
	.loc 1 709 0
	ldr	r6, [r0]
	adds	r6, r6, #2
	str	r6, [r0]
	b	.L10
.LVL15:
.L16:
	.loc 1 684 0
	ldrb	r5, [lr]	@ zero_extendqisi2
.LVL16:
	subs	r5, r5, #48
	strb	r5, [lr]
.LVL17:
	.loc 1 687 0
	ldr	r5, [r0]
	strb	r6, [r5, #1]
	.loc 1 688 0
	ldr	r6, [r0]
.LVL18:
	adds	r6, r6, #2
	str	r6, [r0]
	b	.L7
.LVL19:
.L11:
.LBE112:
	.loc 1 724 0
	mov	r0, r2
.LVL20:
	.loc 1 725 0
	pop	{r3, r4, r5, r6, r7, pc}
	.cfi_endproc
.LFE187:
	.size	sn_coap_builder_options_build_add_one_option, .-sn_coap_builder_options_build_add_one_option
	.section	.text.sn_coap_builder_options_build_add_multiple_option,"ax",%progbits
	.align	1
	.p2align 2,,3
	.syntax unified
	.thumb
	.thumb_func
	.fpu softvfp
	.type	sn_coap_builder_options_build_add_multiple_option, %function
sn_coap_builder_options_build_add_multiple_option:
.LFB189:
	.loc 1 780 0
	.cfi_startproc
	@ args = 4, pretend = 0, frame = 16
	@ frame_needed = 0, uses_anonymous_args = 0
.LVL21:
	push	{r4, r5, r6, r7, r8, r9, r10, fp, lr}
	.cfi_def_cfa_offset 36
	.cfi_offset 4, -36
	.cfi_offset 5, -32
	.cfi_offset 6, -28
	.cfi_offset 7, -24
	.cfi_offset 8, -20
	.cfi_offset 9, -16
	.cfi_offset 10, -12
	.cfi_offset 11, -8
	.cfi_offset 14, -4
	.loc 1 782 0
	ldr	r9, [r1]
	.loc 1 780 0
	sub	sp, sp, #28
	.cfi_def_cfa_offset 64
	.loc 1 782 0
	cmp	r9, #0
	beq	.L59
.LVL22:
.LBB123:
.LBB124:
.LBB125:
	.loc 1 907 0
	cmp	r3, #11
.LBE125:
.LBE124:
	.loc 1 785 0
	ldrh	r6, [r2]
.LVL23:
.LBB130:
.LBB126:
	.loc 1 907 0
	beq	.L41
	.loc 1 905 0
	cmp	r3, #8
	.loc 1 912 0
	add	ip, r6, #-1
	.loc 1 905 0
	ite	eq
	moveq	r7, #47
	movne	r7, #38
.LVL24:
	.loc 1 912 0
	cmp	ip, #1
	ble	.L43
.L74:
	movs	r2, #0
.LVL25:
	movs	r5, #1
.LVL26:
.L22:
	ldrb	r4, [r9, r5]	@ zero_extendqisi2
	adds	r5, r5, #1
	cmp	r4, r7
	it	eq
	addeq	r2, r2, #1
	uxth	r5, r5
	cmp	r5, ip
	uxtb	r2, r2
.LVL27:
	blt	.L22
.LVL28:
	.loc 1 919 0
	adds	r2, r2, #1
.LBE126:
.LBE130:
	.loc 1 793 0
	ands	r2, r2, #255
	str	r2, [sp, #12]
	beq	.L59
.L21:
	mov	r7, r3
.LBB131:
.LBB127:
	.loc 1 919 0
	mov	r8, #0
.LBE127:
.LBE131:
.LBB132:
.LBB133:
.LBB134:
	.loc 1 949 0
	cmp	r7, #11
	str	r0, [sp, #16]
	str	r1, [sp, #20]
.LBE134:
.LBE133:
.LBE132:
.LBB150:
.LBB128:
	.loc 1 919 0
	mov	r2, r9
	mov	fp, r8
	mov	r5, r8
.LVL29:
.LBE128:
.LBE150:
.LBB151:
.LBB140:
.LBB138:
	.loc 1 949 0
	beq	.L24
.LVL30:
.L73:
	cmp	r7, #8
	beq	.L24
	.loc 1 947 0
	mov	lr, #38
	.loc 1 954 0
	cmp	r6, #0
	beq	.L40
.LVL31:
.L39:
	.loc 1 950 0
	movs	r3, #0
	add	r8, r9, #-1
	mov	r10, r3
	mov	r1, r3
	mov	r0, r8
	b	.L30
.LVL32:
.L27:
.LBB135:
	.loc 1 973 0
	uxth	r1, ip
.LVL33:
.L28:
.LBE135:
	.loc 1 954 0
	adds	r3, r3, #1
.LVL34:
	uxth	r3, r3
.LVL35:
	cmp	r6, r3
	bls	.L29
.LVL36:
.L30:
.LBB136:
	.loc 1 959 0
	ldrb	r4, [r0, #1]!	@ zero_extendqisi2
.LVL37:
	.loc 1 973 0
	add	ip, r1, #1
	.loc 1 959 0
	cmp	r4, lr
	bne	.L27
.LVL38:
	.loc 1 970 0
	add	r4, r10, #1
	.loc 1 959 0
	cmp	r1, #0
	beq	.L28
	.loc 1 961 0
	cmp	fp, r10
	beq	.L29
.LBE136:
	.loc 1 954 0
	adds	r3, r3, #1
.LVL39:
	uxth	r3, r3
	cmp	r6, r3
.LBB137:
	.loc 1 970 0
	uxtb	r10, r4
.LVL40:
	.loc 1 966 0
	mov	r1, #0
.LVL41:
.LBE137:
	.loc 1 954 0
	bhi	.L30
.LVL42:
.L29:
.LBE138:
.LBE140:
.LBB141:
.LBB142:
	.loc 1 1007 0
	cmp	r7, #11
	beq	.L44
	.loc 1 1005 0
	cmp	r7, #8
	ite	eq
	moveq	lr, #47
	movne	lr, #38
.L31:
.LVL43:
	.loc 1 1011 0
	cbz	r5, .L32
	.loc 1 1020 0
	cbz	r6, .L70
	mov	ip, #0
.LBB143:
	.loc 1 1027 0
	add	r10, r5, #-1
.LBE143:
	.loc 1 1020 0
	mov	r3, ip
	b	.L37
.LVL44:
.L35:
.LBB144:
	.loc 1 1036 0
	uxth	r3, r4
.LVL45:
.LBE144:
	.loc 1 1020 0
	cmp	r6, r3
	beq	.L70
.LVL46:
.L37:
.LBB145:
	.loc 1 1025 0
	ldrb	r0, [r8, #1]!	@ zero_extendqisi2
.LVL47:
	.loc 1 1036 0
	adds	r4, r3, #1
	.loc 1 1025 0
	cmp	r0, lr
	bne	.L35
	cmp	r3, #0
	beq	.L35
	.loc 1 1027 0
	cmp	r10, ip
	beq	.L72
	.loc 1 1036 0
	uxth	r3, r4
.LVL48:
	.loc 1 1033 0
	add	ip, ip, #1
.LVL49:
.LBE145:
	.loc 1 1020 0
	cmp	r6, r3
.LBB146:
	.loc 1 1033 0
	uxtb	ip, ip
.LVL50:
.LBE146:
	.loc 1 1020 0
	bne	.L37
.LVL51:
.L70:
	.loc 1 1011 0
	movw	lr, #65535
.LVL52:
	b	.L34
.LVL53:
.L50:
	mov	r1, r5
.LVL54:
.L32:
	.loc 1 1012 0
	ldrb	r3, [r9]	@ zero_extendqisi2
	cbz	r3, .L46
	sub	lr, r3, lr
.LVL55:
	clz	lr, lr
	lsr	lr, lr, #5
.L34:
.LBE142:
.LBE141:
	.loc 1 801 0
	ldr	r3, [sp, #64]
	add	r2, r2, lr
	str	r3, [sp]
	ldr	r0, [sp, #16]
	mov	r3, r7
	bl	sn_coap_builder_options_build_add_one_option
.LVL56:
	adds	r5, r5, #1
.LBE151:
	.loc 1 793 0
	ldr	r3, [sp, #12]
	uxtb	fp, r5
	cmp	r3, fp
	bls	.L59
	ldr	r3, [sp, #20]
.LBB152:
.LBB148:
.LBB139:
	.loc 1 949 0
	cmp	r7, #11
	ldr	r2, [r3]
.LVL57:
	bne	.L73
.LVL58:
.L24:
	.loc 1 950 0
	mov	lr, #47
	.loc 1 954 0
	cmp	r6, #0
	bne	.L39
.LVL59:
.L40:
.LBE139:
.LBE148:
.LBB149:
.LBB147:
	.loc 1 1011 0
	cmp	r5, #0
	beq	.L50
	movs	r1, #0
	movw	lr, #65535
.LVL60:
	b	.L34
.LVL61:
.L44:
	.loc 1 1008 0
	mov	lr, #47
	b	.L31
.LVL62:
.L46:
	.loc 1 1012 0
	mov	lr, #1
.LVL63:
	b	.L34
.LVL64:
.L59:
.LBE147:
.LBE149:
.LBE152:
.LBE123:
	.loc 1 806 0
	movs	r0, #0
	add	sp, sp, #28
	.cfi_remember_state
	.cfi_def_cfa_offset 36
	@ sp needed
	pop	{r4, r5, r6, r7, r8, r9, r10, fp, pc}
.LVL65:
.L72:
	.cfi_restore_state
	uxth	lr, r4
.LVL66:
	b	.L34
.LVL67:
.L41:
.LBB154:
.LBB153:
.LBB129:
	.loc 1 912 0
	add	ip, r6, #-1
	cmp	ip, #1
	.loc 1 908 0
	mov	r7, #47
.LVL68:
	.loc 1 912 0
	bgt	.L74
.L43:
	.loc 1 919 0
	movs	r2, #1
.LVL69:
	str	r2, [sp, #12]
	b	.L21
.LBE129:
.LBE153:
.LBE154:
	.cfi_endproc
.LFE189:
	.size	sn_coap_builder_options_build_add_multiple_option, .-sn_coap_builder_options_build_add_multiple_option
	.section	.text.sn_coap_builder_calc_needed_packet_data_size_2.part.1,"ax",%progbits
	.align	1
	.p2align 2,,3
	.syntax unified
	.thumb
	.thumb_func
	.fpu softvfp
	.type	sn_coap_builder_calc_needed_packet_data_size_2.part.1, %function
sn_coap_builder_calc_needed_packet_data_size_2.part.1:
.LFB196:
	.loc 1 149 0
	.cfi_startproc
	@ args = 0, pretend = 0, frame = 56
	@ frame_needed = 0, uses_anonymous_args = 0
.LVL70:
	push	{r4, r5, r6, r7, r8, r9, r10, fp, lr}
	.cfi_def_cfa_offset 36
	.cfi_offset 4, -36
	.cfi_offset 5, -32
	.cfi_offset 6, -28
	.cfi_offset 7, -24
	.cfi_offset 8, -20
	.cfi_offset 9, -16
	.cfi_offset 10, -12
	.cfi_offset 11, -8
	.cfi_offset 14, -4
.LBB225:
	.loc 1 169 0
	ldr	r3, [r0, #16]
.LBE225:
	.loc 1 149 0
	sub	sp, sp, #60
	.cfi_def_cfa_offset 96
	.loc 1 149 0
	mov	r2, r0
	str	r0, [sp, #8]
.LBB427:
	.loc 1 169 0
	cmp	r3, #0
	beq	.L228
	.loc 1 170 0
	ldrb	r8, [r0]	@ zero_extendqisi2
	add	r3, r8, #-1
	cmp	r3, #7
	bhi	.L415
	.loc 1 174 0
	add	r8, r8, #4
.LVL71:
.L76:
	.loc 1 177 0
	ldr	lr, [r2, #20]
	cmp	lr, #0
	beq	.L78
	.loc 1 178 0
	ldrh	r10, [r2, #10]
.LVL72:
.LBB226:
.LBB227:
.LBB228:
.LBB229:
	.loc 1 912 0
	add	r5, r10, #-1
	cmp	r5, #1
	ble	.L230
	movs	r3, #0
	movs	r1, #1
.LVL73:
.L80:
	ldrb	r2, [lr, r1]	@ zero_extendqisi2
	adds	r1, r1, #1
	cmp	r2, #47
	it	eq
	addeq	r3, r3, #1
	uxth	r1, r1
	cmp	r1, r5
	uxtb	r3, r3
.LVL74:
	blt	.L80
.LVL75:
	.loc 1 919 0
	adds	r3, r3, #1
.LBE229:
.LBE228:
	.loc 1 829 0
	ands	ip, r3, #255
	beq	.L415
.LVL76:
.L79:
.LBB232:
.LBB230:
	.loc 1 919 0
	mov	r9, #0
	mov	r7, r9
	mov	r0, r10
.LVL77:
	mov	r10, r7
.LVL78:
	uxtah	r5, lr, r5
.LVL79:
.L87:
.LBE230:
.LBE232:
.LBB233:
.LBB234:
.LBB235:
	.loc 1 954 0
	mov	r2, r0
	cbz	r0, .L90
	movs	r6, #0
	add	r3, lr, #-1
	mov	r2, r6
	b	.L84
.LVL80:
.L81:
.LBB236:
	.loc 1 973 0
	uxth	r2, r4
.LVL81:
.L82:
.LBE236:
	.loc 1 954 0
	cmp	r5, r3
	beq	.L83
.LVL82:
.L84:
.LBB237:
	.loc 1 959 0
	ldrb	r1, [r3, #1]!	@ zero_extendqisi2
.LVL83:
	.loc 1 973 0
	adds	r4, r2, #1
	.loc 1 959 0
	cmp	r1, #47
	bne	.L81
.LVL84:
	.loc 1 970 0
	adds	r1, r6, #1
	.loc 1 959 0
	cmp	r2, #0
	beq	.L82
	.loc 1 961 0
	cmp	r6, r7
	beq	.L83
.LBE237:
	.loc 1 954 0
	cmp	r5, r3
.LBB238:
	.loc 1 970 0
	uxtb	r6, r1
.LVL85:
	.loc 1 966 0
	mov	r2, #0
.LVL86:
.LBE238:
	.loc 1 954 0
	bne	.L84
.LVL87:
.L83:
.LBE235:
.LBE234:
	.loc 1 845 0
	cmp	r2, #255
	bhi	.L415
	.loc 1 864 0
	cmp	r2, #12
	bhi	.L85
.L90:
	.loc 1 866 0
	add	r10, r10, #1
.LVL88:
	uxth	r10, r10
.LVL89:
.L86:
	add	r9, r9, #1
.LBE233:
	.loc 1 829 0
	uxtb	r7, r9
.LBB239:
	.loc 1 881 0
	add	r2, r2, r10
.LBE239:
	.loc 1 829 0
	cmp	r7, ip
.LBB240:
	.loc 1 881 0
	uxth	r10, r2
.LVL90:
.LBE240:
	.loc 1 829 0
	bcc	.L87
.LVL91:
	mov	r0, r10
.LBE227:
.LBE226:
	.loc 1 180 0
	cmp	r0, #0
	beq	.L272
	.loc 1 181 0
	add	r0, r0, r8
	uxth	r8, r0
.LVL92:
.L78:
	.loc 1 189 0
	ldr	r3, [sp, #8]
	ldr	r3, [r3, #4]
	adds	r1, r3, #1
	str	r3, [sp, #24]
	beq	.L91
	.loc 1 190 0
	cmp	r3, #65536
	mov	r1, r3
	bcs	.L415
	movs	r3, #0
	mov	r2, r3
.L96:
.LVL93:
.LBB245:
.LBB246:
.LBB247:
	.loc 1 745 0
	cmp	r2, #0
	beq	.L94
	adds	r2, r2, #1
.LVL94:
	uxtb	r2, r2
.L93:
	.loc 1 744 0
	adds	r3, r3, #1
.LVL95:
	uxtb	r3, r3
	cmp	r3, #4
	.loc 1 748 0
	lsl	r1, r1, #8
.LVL96:
	.loc 1 744 0
	bne	.L96
	adds	r3, r2, #1
.LVL97:
	uxtb	r3, r3
.L95:
.LVL98:
.LBE247:
.LBE246:
.LBE245:
	.loc 1 194 0
	add	r0, r8, r3
	uxth	r8, r0
.LVL99:
.L91:
	.loc 1 197 0
	ldr	r3, [sp, #8]
	ldr	r3, [r3, #28]
	str	r3, [sp, #4]
	cmp	r3, #0
	beq	.L97
	.loc 1 199 0
	ldr	r3, [r3, #12]
	adds	r7, r3, #1
	str	r3, [sp, #28]
	beq	.L98
	.loc 1 200 0
	cmp	r3, #65536
	mov	r1, r3
	bcs	.L415
	movs	r2, #0
	mov	r3, r2
.L103:
.LVL100:
.LBB252:
.LBB253:
.LBB254:
	.loc 1 745 0
	cmp	r3, #0
	beq	.L101
	adds	r3, r3, #1
.LVL101:
	uxtb	r3, r3
.L100:
	.loc 1 744 0
	adds	r2, r2, #1
.LVL102:
	uxtb	r2, r2
	cmp	r2, #4
	.loc 1 748 0
	lsl	r1, r1, #8
.LVL103:
	.loc 1 744 0
	bne	.L103
	adds	r3, r3, #1
	uxtb	r3, r3
.L102:
.LVL104:
.LBE254:
.LBE253:
.LBE252:
	.loc 1 204 0
	add	r0, r8, r3
	uxth	r8, r0
.LVL105:
.L98:
	.loc 1 207 0
	ldr	r3, [sp, #4]
	ldr	r3, [r3, #16]
	cmp	r3, #60
	str	r3, [sp, #32]
	beq	.L104
	movs	r2, #0
	mov	r1, r3
	mov	r3, r2
.L109:
.LVL106:
.LBB259:
.LBB260:
.LBB261:
	.loc 1 745 0
	cmp	r3, #0
	beq	.L107
	adds	r3, r3, #1
.LVL107:
	uxtb	r3, r3
.L106:
	.loc 1 744 0
	adds	r2, r2, #1
.LVL108:
	uxtb	r2, r2
	cmp	r2, #4
	.loc 1 748 0
	lsl	r1, r1, #8
.LVL109:
	.loc 1 744 0
	bne	.L109
	adds	r3, r3, #1
	uxtb	r3, r3
.L108:
.LVL110:
.LBE261:
.LBE260:
.LBE259:
	.loc 1 208 0
	add	r0, r8, r3
	uxth	r8, r0
.LVL111:
.L104:
	.loc 1 211 0
	ldr	r2, [sp, #4]
	ldr	r3, [r2, #44]
	str	r3, [sp, #20]
	cbz	r3, .L110
	.loc 1 212 0
	ldrh	r2, [r2, #2]
	subs	r3, r2, #1
	cmp	r3, #11
	bhi	.L111
	.loc 1 213 0
	add	r3, r8, #1
	uxth	r3, r3
.LVL112:
.L112:
	.loc 1 229 0
	add	r3, r3, r2
.LVL113:
	ldr	r2, [sp, #4]
	uxth	r8, r3
.LVL114:
.L110:
	.loc 1 232 0
	ldr	r3, [r2, #48]
	mov	r5, r3
	str	r3, [sp, #36]
	cmp	r3, #0
	beq	.L114
	.loc 1 233 0
	ldrb	r0, [r2]	@ zero_extendqisi2
.LBB266:
.LBB267:
.LBB268:
.LBB269:
	.loc 1 912 0
	subs	r4, r0, #1
	cmp	r4, #1
.LBE269:
.LBE268:
.LBE267:
.LBE266:
	.loc 1 233 0
	uxth	r0, r0
.LVL115:
.LBB288:
.LBB285:
.LBB273:
.LBB270:
	.loc 1 912 0
	ble	.L238
	movs	r3, #0
.LVL116:
	movs	r1, #1
.LVL117:
.L116:
	ldrb	r2, [r5, r1]	@ zero_extendqisi2
	adds	r1, r1, #1
	cmp	r2, #38
	it	eq
	addeq	r3, r3, #1
	uxth	r1, r1
	cmp	r1, r4
	uxtb	r3, r3
.LVL118:
	blt	.L116
.LVL119:
	.loc 1 919 0
	adds	r3, r3, #1
.LBE270:
.LBE273:
	.loc 1 829 0
	ands	r10, r3, #255
	beq	.L415
.LVL120:
.L115:
.LBB274:
.LBB271:
	.loc 1 919 0
	mov	fp, #0
	mov	r1, fp
	mov	r9, fp
	str	r8, [sp, #12]
	ldr	r8, [sp, #36]
.LVL121:
.L121:
.LBE271:
.LBE274:
.LBB275:
.LBB276:
.LBB277:
	.loc 1 954 0
	cbz	r0, .L272
	mov	ip, #0
	mov	r4, r8
	mov	r2, ip
	movs	r3, #1
	b	.L123
.LVL122:
.L117:
	cmp	r0, r6
.LBB278:
	.loc 1 973 0
	uxth	r2, r7
.LVL123:
.LBE278:
	.loc 1 954 0
	bls	.L119
.LVL124:
.L120:
	adds	r3, r3, #1
.LVL125:
.L123:
.LBB279:
	.loc 1 956 0
	ldrb	r5, [r4], #1	@ zero_extendqisi2
.LVL126:
	.loc 1 973 0
	adds	r7, r2, #1
	.loc 1 959 0
	cmp	r5, #38
.LBE279:
	.loc 1 954 0
	uxth	r6, r3
.LBB280:
	.loc 1 959 0
	bne	.L117
.LVL127:
	.loc 1 970 0
	add	r5, ip, #1
.LVL128:
	.loc 1 959 0
	cbz	r2, .L118
	.loc 1 961 0
	cmp	ip, r9
	beq	.L119
	.loc 1 970 0
	uxtb	ip, r5
.LVL129:
.L118:
.LBE280:
	.loc 1 954 0
	uxth	r2, r3
	cmp	r0, r2
	bls	.L415
	movs	r2, #0
	b	.L120
.LVL130:
.L113:
.LBE277:
.LBE276:
.LBE275:
.LBE285:
.LBE288:
	.loc 1 220 0
	sub	r3, r2, #270
	cmp	r3, #764
	bls	.L423
.LVL131:
.L415:
.LBB289:
.LBB290:
.LBB291:
.LBB292:
.LBB293:
	.loc 1 954 0
	movs	r0, #0
.L272:
.LBE293:
.LBE292:
.LBE291:
.LBE290:
.LBE289:
.LBE427:
	.loc 1 340 0
	add	sp, sp, #60
	.cfi_remember_state
	.cfi_def_cfa_offset 36
	@ sp needed
	pop	{r4, r5, r6, r7, r8, r9, r10, fp, pc}
.LVL132:
.L425:
	.cfi_restore_state
.LBB428:
.LBB313:
.LBB250:
.LBB248:
	.loc 1 744 0
	uxtb	r3, r2
.LVL133:
	cmp	r3, #4
	.loc 1 748 0
	lsl	r1, r1, #8
.LVL134:
	.loc 1 744 0
	beq	.L424
.LVL135:
.L94:
	.loc 1 745 0
	tst	r1, #-16777216
	.loc 1 744 0
	add	r2, r3, #1
	.loc 1 745 0
	beq	.L425
	movs	r2, #1
	b	.L93
.LVL136:
.L85:
.LBE248:
.LBE250:
.LBE313:
.LBB314:
.LBB243:
.LBB241:
	.loc 1 869 0
	add	r10, r10, #2
.LVL137:
	uxth	r10, r10
.LVL138:
	b	.L86
.LVL139:
.L107:
.LBE241:
.LBE243:
.LBE314:
.LBB315:
.LBB264:
.LBB262:
	.loc 1 745 0
	tst	r1, #-16777216
	.loc 1 744 0
	add	r3, r2, #1
	.loc 1 745 0
	beq	.L426
	movs	r3, #1
	b	.L106
.LVL140:
.L101:
.LBE262:
.LBE264:
.LBE315:
.LBB316:
.LBB257:
.LBB255:
	tst	r1, #-16777216
	.loc 1 744 0
	add	r3, r2, #1
	.loc 1 745 0
	beq	.L427
	movs	r3, #1
	b	.L100
.LVL141:
.L119:
.LBE255:
.LBE257:
.LBE316:
.LBB317:
.LBB286:
.LBB281:
	.loc 1 838 0
	subs	r3, r2, #1
	cmp	r3, #7
	bhi	.L415
.LVL142:
	add	fp, fp, #1
	.loc 1 881 0
	adds	r2, r2, #1
.LBE281:
	.loc 1 829 0
	uxtb	r9, fp
.LBB282:
	.loc 1 881 0
	add	r1, r1, r2
.LVL143:
.LBE282:
	.loc 1 829 0
	cmp	r10, r9
.LBB283:
	.loc 1 881 0
	uxth	r1, r1
.LVL144:
.LBE283:
	.loc 1 829 0
	bhi	.L121
.LVL145:
	ldr	r8, [sp, #12]
.LBE286:
.LBE317:
	.loc 1 235 0
	cmp	r1, #0
	beq	.L415
	.loc 1 236 0
	add	r0, r8, r1
	ldr	r2, [sp, #4]
	uxth	r8, r0
.LVL146:
.L114:
	.loc 1 242 0
	ldr	r3, [r2, #52]
	str	r3, [sp, #48]
	cbz	r3, .L124
	.loc 1 243 0
	ldrh	r2, [r2, #4]
	subs	r3, r2, #1
	cmp	r3, #11
	bhi	.L125
	.loc 1 244 0
	add	r3, r8, #1
	uxth	r3, r3
.LVL147:
.L126:
	.loc 1 255 0
	add	r3, r3, r2
.LVL148:
	ldr	r2, [sp, #4]
	uxth	r8, r3
.LVL149:
.L124:
	.loc 1 258 0
	ldr	fp, [r2, #56]
	cmp	fp, #0
	beq	.L127
	.loc 1 259 0
	ldrh	r10, [r2, #6]
.LVL150:
.LBB318:
.LBB319:
.LBB320:
.LBB321:
	.loc 1 912 0
	add	r5, r10, #-1
	cmp	r5, #1
	ble	.L242
	movs	r3, #0
	movs	r1, #1
.LVL151:
.L129:
	ldrb	r2, [fp, r1]	@ zero_extendqisi2
	adds	r1, r1, #1
	cmp	r2, #47
	it	eq
	addeq	r3, r3, #1
	uxth	r1, r1
	cmp	r5, r1
	uxtb	r3, r3
.LVL152:
	bgt	.L129
.LVL153:
	.loc 1 919 0
	adds	r3, r3, #1
.LBE321:
.LBE320:
	.loc 1 829 0
	ands	ip, r3, #255
	beq	.L415
.LVL154:
.L128:
.LBB324:
.LBB322:
	.loc 1 919 0
	mov	r9, #0
	mov	r0, r9
	mov	r7, r9
	uxtah	r5, fp, r5
.LVL155:
.L136:
.LBE322:
.LBE324:
.LBB325:
.LBB326:
.LBB327:
	.loc 1 954 0
	mov	r2, r10
	cmp	r10, #0
	beq	.L139
	movs	r6, #0
	add	r3, fp, #-1
	mov	r2, r6
	b	.L133
.LVL156:
.L130:
.LBB328:
	.loc 1 973 0
	uxth	r2, r4
.LVL157:
.L131:
.LBE328:
	.loc 1 954 0
	cmp	r5, r3
	beq	.L132
.LVL158:
.L133:
.LBB329:
	.loc 1 959 0
	ldrb	r1, [r3, #1]!	@ zero_extendqisi2
.LVL159:
	.loc 1 973 0
	adds	r4, r2, #1
	.loc 1 959 0
	cmp	r1, #47
	bne	.L130
.LVL160:
	.loc 1 970 0
	adds	r1, r6, #1
	.loc 1 959 0
	cmp	r2, #0
	beq	.L131
	.loc 1 961 0
	cmp	r6, r7
	beq	.L132
.LBE329:
	.loc 1 954 0
	cmp	r5, r3
.LBB330:
	.loc 1 970 0
	uxtb	r6, r1
.LVL161:
	.loc 1 966 0
	mov	r2, #0
.LVL162:
.LBE330:
	.loc 1 954 0
	bne	.L133
.LVL163:
.L132:
.LBE327:
.LBE326:
	.loc 1 845 0
	cmp	r2, #255
	bhi	.L415
	.loc 1 864 0
	cmp	r2, #12
	bhi	.L134
.L139:
	.loc 1 866 0
	adds	r0, r0, #1
.LVL164:
	uxth	r0, r0
.LVL165:
.L135:
	add	r9, r9, #1
.LBE325:
	.loc 1 829 0
	uxtb	r7, r9
.LBB331:
	.loc 1 881 0
	add	r2, r2, r0
.LBE331:
	.loc 1 829 0
	cmp	ip, r7
.LBB332:
	.loc 1 881 0
	uxth	r0, r2
.LVL166:
.LBE332:
	.loc 1 829 0
	bhi	.L136
.LVL167:
.LBE319:
.LBE318:
	.loc 1 261 0
	cmp	r0, #0
	beq	.L272
	.loc 1 262 0
	add	r0, r0, r8
	uxth	r8, r0
.LVL168:
.L127:
	.loc 1 268 0
	ldr	r3, [sp, #4]
	ldr	r3, [r3, #28]
	adds	r5, r3, #1
	str	r3, [sp, #40]
	beq	.L140
	.loc 1 269 0
	cmp	r3, #65536
	mov	r1, r3
	bcs	.L415
	movs	r2, #0
	mov	r3, r2
.L145:
.LVL169:
.LBB337:
.LBB338:
.LBB339:
	.loc 1 745 0
	cmp	r3, #0
	beq	.L143
	adds	r3, r3, #1
.LVL170:
	uxtb	r3, r3
.L142:
	.loc 1 744 0
	adds	r2, r2, #1
.LVL171:
	uxtb	r2, r2
	cmp	r2, #4
	.loc 1 748 0
	lsl	r1, r1, #8
.LVL172:
	.loc 1 744 0
	bne	.L145
	adds	r3, r3, #1
	uxtb	r3, r3
.L144:
.LVL173:
.LBE339:
.LBE338:
.LBE337:
	.loc 1 272 0
	add	r0, r8, r3
	uxth	r8, r0
.LVL174:
.L140:
	.loc 1 275 0
	ldr	r2, [sp, #4]
	ldr	r10, [r2, #60]
	cmp	r10, #0
	beq	.L146
	.loc 1 276 0
	ldrh	r3, [r2, #8]
.LBB344:
.LBB345:
.LBB346:
.LBB347:
	.loc 1 912 0
	subs	r5, r3, #1
	cmp	r5, #1
.LBE347:
.LBE346:
.LBE345:
.LBE344:
	.loc 1 276 0
	str	r3, [sp, #12]
.LVL175:
.LBB366:
.LBB363:
.LBB351:
.LBB348:
	.loc 1 912 0
	ble	.L246
	movs	r3, #0
.LVL176:
	movs	r1, #1
.LVL177:
.L148:
	ldrb	r2, [r10, r1]	@ zero_extendqisi2
	adds	r1, r1, #1
	cmp	r2, #38
	it	eq
	addeq	r3, r3, #1
	uxth	r1, r1
	cmp	r1, r5
	uxtb	r3, r3
.LVL178:
	blt	.L148
.LVL179:
	.loc 1 919 0
	adds	r3, r3, #1
.LBE348:
.LBE351:
	.loc 1 829 0
	ands	r9, r3, #255
	beq	.L415
.LVL180:
.L147:
.LBB352:
.LBB349:
	.loc 1 919 0
	mov	ip, #0
	mov	r0, ip
	mov	r7, ip
	uxtah	r5, r10, r5
.LVL181:
.L155:
.LBE349:
.LBE352:
.LBB353:
.LBB354:
.LBB355:
	.loc 1 954 0
	ldr	r3, [sp, #12]
	mov	r2, r3
	cbz	r3, .L158
	movs	r6, #0
	add	r3, r10, #-1
	mov	r2, r6
	b	.L152
.LVL182:
.L149:
.LBB356:
	.loc 1 973 0
	uxth	r2, r4
.LVL183:
.L150:
.LBE356:
	.loc 1 954 0
	cmp	r5, r3
	beq	.L151
.LVL184:
.L152:
.LBB357:
	.loc 1 959 0
	ldrb	r1, [r3, #1]!	@ zero_extendqisi2
.LVL185:
	.loc 1 973 0
	adds	r4, r2, #1
	.loc 1 959 0
	cmp	r1, #38
	bne	.L149
.LVL186:
	.loc 1 970 0
	adds	r1, r6, #1
	.loc 1 959 0
	cmp	r2, #0
	beq	.L150
	.loc 1 961 0
	cmp	r7, r6
	beq	.L151
.LBE357:
	.loc 1 954 0
	cmp	r5, r3
.LBB358:
	.loc 1 970 0
	uxtb	r6, r1
.LVL187:
	.loc 1 966 0
	mov	r2, #0
.LVL188:
.LBE358:
	.loc 1 954 0
	bne	.L152
.LVL189:
.L151:
.LBE355:
.LBE354:
	.loc 1 845 0
	cmp	r2, #255
	bhi	.L415
	.loc 1 864 0
	cmp	r2, #12
	bhi	.L153
.L158:
	.loc 1 866 0
	adds	r0, r0, #1
.LVL190:
	uxth	r0, r0
.LVL191:
.L154:
	add	ip, ip, #1
.LBE353:
	.loc 1 829 0
	uxtb	r7, ip
.LBB359:
	.loc 1 881 0
	add	r2, r2, r0
.LBE359:
	.loc 1 829 0
	cmp	r7, r9
.LBB360:
	.loc 1 881 0
	uxth	r0, r2
.LVL192:
.LBE360:
	.loc 1 829 0
	bcc	.L155
.LVL193:
.LBE363:
.LBE366:
	.loc 1 278 0
	cmp	r0, #0
	beq	.L272
	.loc 1 279 0
	add	r0, r0, r8
	uxth	r8, r0
.LVL194:
.L146:
	.loc 1 285 0
	ldr	r3, [sp, #4]
	ldr	r3, [r3, #32]
	adds	r0, r3, #1
	str	r3, [sp, #44]
	beq	.L159
	.loc 1 286 0
	cmp	r3, #16777216
	mov	r1, r3
	bcs	.L415
	movs	r2, #0
	mov	r3, r2
.L164:
.LVL195:
.LBB367:
.LBB368:
.LBB369:
	.loc 1 745 0
	cmp	r3, #0
	bne	.L160
.LVL196:
.L162:
	tst	r1, #-16777216
	.loc 1 744 0
	add	r3, r2, #1
	.loc 1 745 0
	bne	.L249
	.loc 1 744 0
	uxtb	r2, r3
.LVL197:
	cmp	r2, #4
	.loc 1 748 0
	lsl	r1, r1, #8
.LVL198:
	.loc 1 744 0
	bne	.L162
	movs	r3, #1
	b	.L163
.LVL199:
.L424:
.LBE369:
.LBE368:
.LBE367:
.LBB374:
.LBB251:
.LBB249:
	movs	r3, #1
.LVL200:
	b	.L95
.LVL201:
.L143:
.LBE249:
.LBE251:
.LBE374:
.LBB375:
.LBB342:
.LBB340:
	.loc 1 745 0
	tst	r1, #-16777216
	.loc 1 744 0
	add	r3, r2, #1
	.loc 1 745 0
	bne	.L245
	.loc 1 744 0
	uxtb	r2, r3
.LVL202:
	cmp	r2, #4
	.loc 1 748 0
	lsl	r1, r1, #8
.LVL203:
	.loc 1 744 0
	bne	.L143
	movs	r3, #1
	b	.L144
.LVL204:
.L134:
.LBE340:
.LBE342:
.LBE375:
.LBB376:
.LBB335:
.LBB333:
	.loc 1 869 0
	adds	r0, r0, #2
.LVL205:
	uxth	r0, r0
.LVL206:
	b	.L135
.LVL207:
.L153:
.LBE333:
.LBE335:
.LBE376:
.LBB377:
.LBB364:
.LBB361:
	adds	r0, r0, #2
.LVL208:
	uxth	r0, r0
.LVL209:
	b	.L154
.LVL210:
.L426:
.LBE361:
.LBE364:
.LBE377:
.LBB378:
.LBB265:
.LBB263:
	.loc 1 744 0
	uxtb	r2, r3
.LVL211:
	cmp	r2, #4
	.loc 1 748 0
	lsl	r1, r1, #8
.LVL212:
	.loc 1 744 0
	bne	.L107
	movs	r3, #1
	b	.L108
.LVL213:
.L427:
.LBE263:
.LBE265:
.LBE378:
.LBB379:
.LBB258:
.LBB256:
	uxtb	r2, r3
.LVL214:
	cmp	r2, #4
	.loc 1 748 0
	lsl	r1, r1, #8
.LVL215:
	.loc 1 744 0
	bne	.L101
	movs	r3, #1
	b	.L102
.LVL216:
.L228:
.LBE256:
.LBE258:
.LBE379:
.LBE428:
	.loc 1 161 0
	mov	r8, #4
	b	.L76
.LVL217:
.L111:
.LBB429:
	.loc 1 216 0
	sub	r3, r2, #13
	cmp	r3, #256
	bhi	.L113
	.loc 1 217 0
	add	r3, r8, #2
	uxth	r3, r3
.LVL218:
	b	.L112
.LVL219:
.L97:
	.loc 1 332 0
	ldr	r3, [sp, #8]
	ldrh	r3, [r3, #12]
	add	r8, r8, r3
.LVL220:
	uxth	r8, r8
.LVL221:
	.loc 1 334 0
	cbz	r3, .L202
	.loc 1 335 0
	add	r8, r8, #1
.LVL222:
	ldr	r3, [sp, #4]
	uxth	r8, r8
.LVL223:
.L202:
	.loc 1 337 0
	add	r3, r3, r8
	uxth	r0, r3
.LVL224:
	b	.L272
.LVL225:
.L125:
	.loc 1 247 0
	sub	r3, r2, #13
	cmp	r3, #242
	bhi	.L415
	.loc 1 248 0
	add	r3, r8, #2
	uxth	r3, r3
.LVL226:
	b	.L126
.LVL227:
.L230:
.LBB380:
.LBB244:
.LBB242:
.LBB231:
	.loc 1 919 0
	mov	ip, #1
	b	.L79
.LVL228:
.L160:
	adds	r3, r3, #1
.LVL229:
	uxtb	r3, r3
.L161:
.LBE231:
.LBE242:
.LBE244:
.LBE380:
.LBB381:
.LBB372:
.LBB370:
	.loc 1 744 0
	adds	r2, r2, #1
.LVL230:
	uxtb	r2, r2
	cmp	r2, #4
	.loc 1 748 0
	lsl	r1, r1, #8
.LVL231:
	.loc 1 744 0
	bne	.L164
	adds	r3, r3, #1
	uxtb	r3, r3
.L163:
.LVL232:
.LBE370:
.LBE372:
.LBE381:
	.loc 1 289 0
	add	r0, r8, r3
	uxth	r8, r0
.LVL233:
.L159:
	.loc 1 292 0
	ldr	r2, [sp, #4]
	ldr	r3, [r2, #64]
	str	r3, [sp, #12]
	cmp	r3, #0
	beq	.L165
	.loc 1 293 0
	ldrh	r7, [r2, #10]
.LVL234:
.LBB382:
.LBB310:
.LBB299:
.LBB300:
	.loc 1 912 0
	subs	r0, r7, #1
	cmp	r0, #1
	ble	.L250
	movs	r3, #0
.LVL235:
	movs	r1, #1
.LVL236:
.L167:
	ldr	r2, [sp, #12]
	ldrb	r2, [r2, r1]	@ zero_extendqisi2
	adds	r1, r1, #1
	cmp	r2, #38
	it	eq
	addeq	r3, r3, #1
	uxth	r1, r1
	cmp	r1, r0
	uxtb	r3, r3
.LVL237:
	blt	.L167
.LVL238:
	.loc 1 919 0
	adds	r3, r3, #1
.LBE300:
.LBE299:
	.loc 1 829 0
	ands	r3, r3, #255
	str	r3, [sp, #16]
	beq	.L415
.LVL239:
.L166:
.LBB303:
.LBB301:
	.loc 1 919 0
	movs	r3, #0
	str	lr, [sp, #52]
	mov	r0, r3
	mov	r9, r3
	mov	lr, r3
.LVL240:
.L174:
.LBE301:
.LBE303:
.LBB304:
.LBB298:
.LBB297:
	.loc 1 954 0
	cmp	r7, #0
	beq	.L415
	mov	ip, #0
	ldr	r1, [sp, #12]
	mov	r2, ip
	movs	r3, #1
	b	.L176
.LVL241:
.L168:
	cmp	r7, r5
.LBB294:
	.loc 1 973 0
	uxth	r2, r6
.LVL242:
.LBE294:
	.loc 1 954 0
	bls	.L170
.LVL243:
.L171:
	adds	r3, r3, #1
.LVL244:
.L176:
.LBB295:
	.loc 1 956 0
	ldrb	r4, [r1], #1	@ zero_extendqisi2
.LVL245:
	.loc 1 973 0
	adds	r6, r2, #1
	.loc 1 959 0
	cmp	r4, #38
.LBE295:
	.loc 1 954 0
	uxth	r5, r3
.LBB296:
	.loc 1 959 0
	bne	.L168
.LVL246:
	.loc 1 970 0
	add	r4, ip, #1
.LVL247:
	.loc 1 959 0
	cbz	r2, .L169
	.loc 1 961 0
	cmp	ip, r9
	beq	.L170
	.loc 1 970 0
	uxtb	ip, r4
.LVL248:
.L169:
.LBE296:
	.loc 1 954 0
	uxth	r2, r3
	cmp	r7, r2
	bls	.L415
	movs	r2, #0
	b	.L171
.LVL249:
.L245:
.LBE297:
.LBE298:
.LBE304:
.LBE310:
.LBE382:
.LBB383:
.LBB343:
.LBB341:
	.loc 1 745 0
	movs	r3, #1
	b	.L142
.LVL250:
.L170:
.LBE341:
.LBE343:
.LBE383:
.LBB384:
.LBB311:
.LBB305:
	.loc 1 850 0
	subs	r3, r2, #1
	cmp	r3, #254
	bhi	.L415
	.loc 1 864 0
	cmp	r2, #12
	.loc 1 866 0
	ite	ls
	addls	r0, r0, #1
.LVL251:
	.loc 1 869 0
	addhi	r0, r0, #2
	add	lr, lr, #1
.LBE305:
	.loc 1 829 0
	ldr	r3, [sp, #16]
.LBB306:
	.loc 1 869 0
	uxth	r0, r0
.LVL252:
.LBE306:
	.loc 1 829 0
	uxtb	r9, lr
.LBB307:
	.loc 1 881 0
	add	r2, r2, r0
.LBE307:
	.loc 1 829 0
	cmp	r9, r3
.LBB308:
	.loc 1 881 0
	uxth	r0, r2
.LVL253:
.LBE308:
	.loc 1 829 0
	bcc	.L174
.LVL254:
	ldr	lr, [sp, #52]
.LBE311:
.LBE384:
	.loc 1 295 0
	cmp	r0, #0
	beq	.L272
	.loc 1 296 0
	add	r0, r0, r8
	uxth	r8, r0
.LVL255:
.L165:
	.loc 1 303 0
	ldr	r3, [sp, #4]
	ldr	r3, [r3, #36]
	adds	r1, r3, #1
	mov	r2, r3
	str	r3, [sp, #16]
	beq	.L177
	.loc 1 304 0
	cmp	r3, #16777216
	mov	r1, r3
	bcs	.L415
	movs	r2, #0
	mov	r3, r2
.L182:
.LVL256:
.LBB385:
.LBB386:
.LBB387:
	.loc 1 745 0
	cmp	r3, #0
	bne	.L178
.LVL257:
.L180:
	tst	r1, #-16777216
	.loc 1 744 0
	add	r3, r2, #1
	.loc 1 745 0
	beq	.L428
	movs	r3, #1
.LVL258:
.L179:
	.loc 1 744 0
	adds	r2, r2, #1
.LVL259:
	uxtb	r2, r2
	cmp	r2, #4
	.loc 1 748 0
	lsl	r1, r1, #8
.LVL260:
	.loc 1 744 0
	bne	.L182
	adds	r3, r3, #1
	uxtb	r3, r3
.L181:
.LVL261:
.LBE387:
.LBE386:
.LBE385:
	.loc 1 307 0
	add	r0, r8, r3
	uxth	r8, r0
.LVL262:
.L177:
	.loc 1 310 0
	ldr	r1, [sp, #4]
	ldrb	r5, [r1, #1]	@ zero_extendqisi2
	ands	r0, r5, #1
	beq	.L183
.LBB390:
.LBB391:
.LBB392:
	.loc 1 744 0
	movs	r2, #0
.LBE392:
	.loc 1 742 0
	mov	r3, r2
.LBE391:
.LBE390:
	.loc 1 311 0
	ldr	r1, [r1, #20]
.LVL263:
.L188:
.LBB397:
.LBB395:
.LBB393:
	.loc 1 745 0
	cmp	r3, #0
	bne	.L184
	b	.L186
.LVL264:
.L430:
	.loc 1 744 0
	uxtb	r2, r3
.LVL265:
	cmp	r2, #4
	.loc 1 748 0
	lsl	r1, r1, #8
.LVL266:
	.loc 1 744 0
	beq	.L429
.LVL267:
.L186:
	.loc 1 745 0
	tst	r1, #-16777216
	.loc 1 744 0
	add	r3, r2, #1
	.loc 1 745 0
	beq	.L430
	mov	r3, r0
.LVL268:
.L185:
	.loc 1 744 0
	adds	r2, r2, #1
.LVL269:
	uxtb	r2, r2
	cmp	r2, #4
	.loc 1 748 0
	lsl	r1, r1, #8
.LVL270:
	.loc 1 744 0
	bne	.L188
	adds	r3, r3, #1
	uxtb	r3, r3
.L187:
.LVL271:
.LBE393:
.LBE395:
.LBE397:
	.loc 1 311 0
	add	r0, r8, r3
	uxth	r8, r0
.LVL272:
.L183:
	.loc 1 314 0
	ldr	r3, [sp, #4]
	ldr	r9, [r3, #40]
	cmp	r9, #-1
	beq	.L189
	.loc 1 315 0
	cmp	r9, #16777216
	mov	r1, r9
	bcs	.L415
	movs	r2, #0
	mov	r3, r2
	b	.L194
.LVL273:
.L190:
	adds	r3, r3, #1
.LVL274:
	uxtb	r3, r3
.L191:
.LBB398:
.LBB399:
.LBB400:
	.loc 1 744 0
	adds	r2, r2, #1
.LVL275:
	uxtb	r2, r2
	cmp	r2, #4
	.loc 1 748 0
	lsl	r1, r1, #8
.LVL276:
	.loc 1 744 0
	beq	.L431
.LVL277:
.L194:
	.loc 1 745 0
	cmp	r3, #0
	bne	.L190
.LVL278:
.L192:
	tst	r1, #-16777216
	.loc 1 744 0
	add	r3, r2, #1
	.loc 1 745 0
	beq	.L432
	movs	r3, #1
	b	.L191
.LVL279:
.L423:
.LBE400:
.LBE399:
.LBE398:
	.loc 1 221 0
	add	r3, r8, #3
	uxth	r3, r3
.LVL280:
	b	.L112
.LVL281:
.L432:
.LBB403:
.LBB402:
.LBB401:
	.loc 1 744 0
	uxtb	r2, r3
.LVL282:
	cmp	r2, #4
	.loc 1 748 0
	lsl	r1, r1, #8
.LVL283:
	.loc 1 744 0
	bne	.L192
	movs	r3, #1
.LVL284:
.L193:
.LBE401:
.LBE402:
.LBE403:
	.loc 1 318 0
	add	r0, r8, r3
	uxth	r8, r0
.LVL285:
.L189:
	.loc 1 321 0
	lsls	r3, r5, #30
	bpl	.L195
.LBB404:
.LBB405:
.LBB406:
	.loc 1 744 0
	movs	r2, #0
.LBE406:
.LBE405:
.LBE404:
	.loc 1 322 0
	ldr	r1, [sp, #4]
.LBB410:
.LBB408:
	.loc 1 742 0
	mov	r3, r2
.LBE408:
.LBE410:
	.loc 1 322 0
	ldr	r1, [r1, #24]
.LVL286:
	b	.L200
.LVL287:
.L196:
	adds	r3, r3, #1
.LVL288:
	uxtb	r3, r3
.L197:
.LBB411:
.LBB409:
.LBB407:
	.loc 1 744 0
	adds	r2, r2, #1
.LVL289:
	uxtb	r2, r2
	cmp	r2, #4
	.loc 1 748 0
	lsl	r1, r1, #8
.LVL290:
	.loc 1 744 0
	beq	.L433
.LVL291:
.L200:
	.loc 1 745 0
	cmp	r3, #0
	bne	.L196
.LVL292:
.L198:
	tst	r1, #-16777216
	.loc 1 744 0
	add	r3, r2, #1
	.loc 1 745 0
	beq	.L434
	movs	r3, #1
	b	.L197
.L434:
	.loc 1 744 0
	uxtb	r2, r3
.LVL293:
	cmp	r2, #4
	.loc 1 748 0
	lsl	r1, r1, #8
.LVL294:
	.loc 1 744 0
	bne	.L198
	movs	r3, #1
.LVL295:
.L199:
.LBE407:
.LBE409:
.LBE411:
	.loc 1 322 0
	add	r0, r8, r3
	uxth	r8, r0
.LVL296:
.L195:
	.loc 1 332 0
	ldr	r3, [sp, #8]
	ldrh	r3, [r3, #12]
	add	r8, r8, r3
.LVL297:
	uxth	r8, r8
.LVL298:
	.loc 1 334 0
	cbz	r3, .L226
	.loc 1 335 0
	add	r8, r8, #1
.LVL299:
	uxth	r8, r8
.LVL300:
.L226:
.LBB412:
.LBB413:
	.loc 1 361 0
	ldr	r3, [sp, #12]
	cmp	r3, #0
	beq	.L435
.L201:
	.loc 1 373 0
	ldr	r3, [sp, #48]
	.loc 1 377 0
	ldr	r7, [sp, #36]
	.loc 1 373 0
	cmp	r3, #0
	itet	ne
	movne	r3, #14
	moveq	r3, #17
	movne	r2, #32
	str	r3, [sp, #4]
	itete	eq
	moveq	r2, #35
	movne	r0, #25
	moveq	r0, #28
	movne	r1, #24
	itete	eq
	moveq	r1, #27
	movne	r4, #20
	moveq	r4, #23
	movne	r6, #17
	itete	eq
	moveq	r6, #20
	movne	ip, #12
	moveq	ip, #15
	movne	r3, #0
	it	eq
	moveq	r3, #1
.LVL301:
	.loc 1 377 0
	cbz	r7, .L204
	movs	r3, #13
	movs	r2, #31
	str	r3, [sp, #4]
	movs	r0, #24
	movs	r1, #23
	movs	r4, #19
	movs	r6, #16
	mov	ip, #11
	movs	r3, #0
.L204:
	.loc 1 381 0
	ldr	r7, [sp, #44]
	adds	r7, r7, #1
	beq	.L205
	movs	r3, #11
	movs	r2, #29
	str	r3, [sp, #4]
	movs	r0, #22
	movs	r1, #21
	movs	r4, #17
	movs	r6, #14
	mov	ip, #9
	movs	r3, #0
.L205:
	.loc 1 385 0
	ldr	r7, [sp, #40]
	adds	r7, r7, #1
	beq	.L206
	movs	r3, #10
	movs	r2, #28
	str	r3, [sp, #4]
	movs	r0, #21
	movs	r1, #20
	movs	r4, #16
	movs	r6, #13
	mov	ip, #8
	movs	r3, #0
.L206:
	.loc 1 389 0
	cmp	fp, #0
	beq	.L207
	movs	r3, #9
	movs	r2, #27
	str	r3, [sp, #4]
	movs	r0, #20
	movs	r1, #19
	movs	r4, #15
	movs	r6, #12
	mov	ip, #7
	movs	r3, #0
.L207:
	.loc 1 393 0
	cmp	lr, #0
	beq	.L208
	movs	r3, #6
	movs	r2, #24
	str	r3, [sp, #4]
	movs	r0, #17
	movs	r1, #16
	movs	r4, #12
	movs	r6, #9
	mov	ip, #4
	movs	r3, #0
.L208:
	.loc 1 396 0
	ldr	r7, [sp, #24]
	adds	r7, r7, #1
	beq	.L209
	movs	r3, #5
	movs	r2, #23
	str	r3, [sp, #4]
	movs	r0, #16
	movs	r1, #15
	movs	r4, #11
	movs	r6, #8
	mov	ip, #3
	movs	r3, #0
.L209:
	.loc 1 399 0
	ldr	r7, [sp, #32]
	cmp	r7, #60
	beq	.L436
	movs	r7, #3
	movs	r2, #21
	movs	r0, #14
	movs	r1, #13
	movs	r4, #9
	movs	r6, #6
	mov	ip, #1
	str	r7, [sp, #4]
.L210:
.LVL302:
	.loc 1 406 0
	ldr	r7, [sp, #12]
	cbz	r7, .L211
	.loc 1 407 0
	movs	r7, #2
	movs	r2, #20
	movs	r0, #13
	movs	r1, #12
	movs	r4, #8
	movs	r6, #5
	cmp	ip, #12
	.loc 1 408 0
	itt	gt
	addgt	r3, r3, #1
.LVL303:
	uxtbgt	r3, r3
.LVL304:
	.loc 1 407 0
	str	r7, [sp, #4]
.L211:
	.loc 1 412 0
	ldr	r7, [sp, #28]
	adds	r7, r7, #1
	beq	.L212
	.loc 1 413 0
	ldr	r2, [sp, #4]
	movs	r0, #11
	cmp	r2, #12
	mov	r1, #10
	mov	r2, #18
	mov	r4, #6
	mov	r6, #3
	.loc 1 414 0
	itt	gt
	addgt	r3, r3, #1
.LVL305:
	uxtbgt	r3, r3
.LVL306:
.L212:
	.loc 1 418 0
	cmp	r10, #0
	beq	.L213
	.loc 1 419 0
	cmp	r6, #12
	ble	.L214
	.loc 1 420 0
	adds	r3, r3, #1
.LVL307:
	uxtb	r3, r3
.LVL308:
.L214:
	.loc 1 424 0
	cmp	r9, #-1
	bne	.L216
	movs	r2, #15
	movs	r0, #8
	movs	r1, #7
.L215:
	.loc 1 430 0
	ldr	r4, [sp, #16]
	adds	r4, r4, #1
	beq	.L217
	.loc 1 431 0
	cmp	r1, #12
	ble	.L221
.L416:
	.loc 1 444 0
	adds	r3, r3, #1
.LVL309:
	uxtb	r3, r3
.LVL310:
.L221:
	.loc 1 451 0
	lsls	r1, r5, #31
	bpl	.L437
.LVL311:
	.loc 1 453 0
	adds	r3, r3, #1
.LVL312:
	uxtb	r3, r3
	b	.L202
.LVL313:
.L213:
	.loc 1 424 0
	cmp	r9, #-1
	beq	.L215
	.loc 1 425 0
	cmp	r4, #12
	ble	.L216
	.loc 1 426 0
	adds	r3, r3, #1
.LVL314:
	uxtb	r3, r3
.LVL315:
.L216:
	.loc 1 430 0
	ldr	r2, [sp, #16]
	adds	r2, r2, #1
	bne	.L221
	.loc 1 436 0
	lsls	r2, r5, #30
	bmi	.L221
	movs	r2, #12
.L219:
	.loc 1 442 0
	ldr	r1, [sp, #20]
	cmp	r1, #0
	beq	.L221
	.loc 1 443 0
	cmp	r2, #12
	bne	.L416
	b	.L221
.LVL316:
.L428:
.LBE413:
.LBE412:
.LBB417:
.LBB389:
.LBB388:
	.loc 1 744 0
	uxtb	r2, r3
.LVL317:
	cmp	r2, #4
	.loc 1 748 0
	lsl	r1, r1, #8
.LVL318:
	.loc 1 744 0
	bne	.L180
	movs	r3, #1
	b	.L181
.LVL319:
.L178:
	adds	r3, r3, #1
.LVL320:
	uxtb	r3, r3
	b	.L179
.LVL321:
.L437:
	uxth	r3, r3
.LVL322:
	b	.L202
.LVL323:
.L238:
.LBE388:
.LBE389:
.LBE417:
.LBB418:
.LBB287:
.LBB284:
.LBB272:
	.loc 1 919 0
	mov	r10, #1
	b	.L115
.LVL324:
.L436:
.LBE272:
.LBE284:
.LBE287:
.LBE418:
.LBB419:
.LBB414:
	.loc 1 356 0
	movs	r3, #0
	b	.L210
.LVL325:
.L249:
.LBE414:
.LBE419:
.LBB420:
.LBB373:
.LBB371:
	.loc 1 745 0
	movs	r3, #1
	b	.L161
.LVL326:
.L184:
	adds	r3, r3, #1
.LVL327:
	uxtb	r3, r3
	b	.L185
.LVL328:
.L250:
.LBE371:
.LBE373:
.LBE420:
.LBB421:
.LBB312:
.LBB309:
.LBB302:
	.loc 1 919 0
	movs	r3, #1
.LVL329:
	str	r3, [sp, #16]
	b	.L166
.LVL330:
.L435:
.LBE302:
.LBE309:
.LBE312:
.LBE421:
.LBB422:
.LBB415:
	.loc 1 361 0
	ldr	r3, [sp, #28]
	adds	r3, r3, #1
	bne	.L201
	.loc 1 362 0
	cmp	r10, #0
	bne	.L201
	.loc 1 363 0
	cmp	r9, #-1
	bne	.L201
	.loc 1 364 0
	ldr	r3, [sp, #16]
	adds	r3, r3, #1
	bne	.L201
	.loc 1 365 0
	ldr	r3, [sp, #20]
	cmp	r3, #0
	bne	.L201
	.loc 1 366 0
	ldr	r3, [sp, #32]
	cmp	r3, #60
	bne	.L201
	.loc 1 368 0
	lsls	r7, r5, #30
	bne	.L201
	ldr	r3, [sp, #20]
	b	.L202
.LVL331:
.L429:
.LBE415:
.LBE422:
.LBB423:
.LBB396:
.LBB394:
	.loc 1 744 0
	movs	r3, #1
	b	.L187
.LVL332:
.L431:
	adds	r3, r3, #1
	uxtb	r3, r3
	b	.L193
.LVL333:
.L433:
	adds	r3, r3, #1
	uxtb	r3, r3
	b	.L199
.LVL334:
.L217:
.LBE394:
.LBE396:
.LBE423:
.LBB424:
.LBB416:
	.loc 1 436 0
	lsls	r4, r5, #30
	bpl	.L219
	.loc 1 437 0
	cmp	r0, #12
	bgt	.L416
	b	.L221
.LVL335:
.L242:
.LBE416:
.LBE424:
.LBB425:
.LBB336:
.LBB334:
.LBB323:
	.loc 1 919 0
	mov	ip, #1
	b	.L128
.LVL336:
.L246:
.LBE323:
.LBE334:
.LBE336:
.LBE425:
.LBB426:
.LBB365:
.LBB362:
.LBB350:
	mov	r9, #1
	b	.L147
.LBE350:
.LBE362:
.LBE365:
.LBE426:
.LBE429:
	.cfi_endproc
.LFE196:
	.size	sn_coap_builder_calc_needed_packet_data_size_2.part.1, .-sn_coap_builder_calc_needed_packet_data_size_2.part.1
	.section	.text.sn_coap_build_response,"ax",%progbits
	.align	1
	.p2align 2,,3
	.global	sn_coap_build_response
	.syntax unified
	.thumb
	.thumb_func
	.fpu softvfp
	.type	sn_coap_build_response, %function
sn_coap_build_response:
.LFB179:
	.loc 1 53 0
	.cfi_startproc
	@ args = 0, pretend = 0, frame = 0
	@ frame_needed = 0, uses_anonymous_args = 0
.LVL337:
	push	{r3, r4, r5, r6, r7, lr}
	.cfi_def_cfa_offset 24
	.cfi_offset 3, -24
	.cfi_offset 4, -20
	.cfi_offset 5, -16
	.cfi_offset 6, -12
	.cfi_offset 7, -8
	.cfi_offset 14, -4
	.loc 1 56 0
	cbz	r1, .L456
	mov	r7, r0
	.loc 1 56 0 is_stmt 0 discriminator 1
	cbz	r0, .L456
	mov	r4, r1
	mov	r6, r2
	.loc 1 60 0 is_stmt 1
	bl	sn_coap_parser_alloc_message
.LVL338:
	.loc 1 61 0
	mov	r5, r0
	cbz	r0, .L456
	.loc 1 65 0
	ldrb	r3, [r4, #3]	@ zero_extendqisi2
	cbz	r3, .L457
	.loc 1 71 0
	cmp	r3, #16
	bne	.L444
	.loc 1 72 0
	strb	r3, [r0, #3]
	.loc 1 73 0
	strb	r6, [r0, #2]
.L443:
	.loc 1 82 0
	ldr	r3, [r4, #16]
	cbz	r3, .L438
	.loc 1 83 0
	ldrb	r0, [r4]	@ zero_extendqisi2
.LVL339:
	strb	r0, [r5]
	.loc 1 84 0
	ldr	r3, [r7]
	blx	r3
.LVL340:
	mov	r6, r0
	str	r0, [r5, #16]
	.loc 1 85 0
	cbz	r0, .L458
	.loc 1 89 0
	ldr	r1, [r4, #16]
	ldrb	r2, [r5]	@ zero_extendqisi2
	bl	memcpy
.LVL341:
.L438:
	.loc 1 92 0
	mov	r0, r5
	pop	{r3, r4, r5, r6, r7, pc}
.LVL342:
.L457:
	.loc 1 66 0
	movs	r2, #32
	.loc 1 68 0
	ldrh	r3, [r4, #8]
	.loc 1 67 0
	strb	r6, [r0, #2]
	.loc 1 66 0
	strb	r2, [r0, #3]
	.loc 1 68 0
	strh	r3, [r0, #8]	@ movhi
	b	.L443
.L444:
	.loc 1 78 0
	ldr	r3, [r7, #4]
	blx	r3
.LVL343:
.L456:
	.loc 1 79 0
	movs	r5, #0
	.loc 1 92 0
	mov	r0, r5
	pop	{r3, r4, r5, r6, r7, pc}
.LVL344:
.L458:
	.loc 1 86 0
	mov	r0, r5
	ldr	r3, [r7, #4]
	blx	r3
.LVL345:
	.loc 1 87 0
	mov	r5, r6
.LVL346:
	b	.L438
	.cfi_endproc
.LFE179:
	.size	sn_coap_build_response, .-sn_coap_build_response
	.section	.text.sn_coap_builder_2,"ax",%progbits
	.align	1
	.p2align 2,,3
	.global	sn_coap_builder_2
	.syntax unified
	.thumb
	.thumb_func
	.fpu softvfp
	.type	sn_coap_builder_2, %function
sn_coap_builder_2:
.LFB181:
	.loc 1 100 0
	.cfi_startproc
	@ args = 0, pretend = 0, frame = 32
	@ frame_needed = 0, uses_anonymous_args = 0
.LVL347:
	push	{r4, r5, r6, r7, r8, r9, r10, fp, lr}
	.cfi_def_cfa_offset 36
	.cfi_offset 4, -36
	.cfi_offset 5, -32
	.cfi_offset 6, -28
	.cfi_offset 7, -24
	.cfi_offset 8, -20
	.cfi_offset 9, -16
	.cfi_offset 10, -12
	.cfi_offset 11, -8
	.cfi_offset 14, -4
	sub	sp, sp, #44
	.cfi_def_cfa_offset 80
	.loc 1 100 0
	str	r0, [sp, #28]
	.loc 1 105 0
	cmp	r0, #0
	beq	.L561
	.loc 1 105 0 discriminator 1
	cmp	r1, #0
	beq	.L561
.LBB498:
.LBB499:
	.loc 1 166 0
	ldrb	r3, [r1, #3]	@ zero_extendqisi2
	mov	r4, r0
	cmp	r3, #48
	mov	r6, r1
.LVL348:
	beq	.L562
	mov	r0, r1
.LVL349:
	bl	sn_coap_builder_calc_needed_packet_data_size_2.part.1
.LVL350:
.LBE499:
.LBE498:
	.loc 1 112 0
	cmp	r0, #0
	beq	.L463
	mov	r2, r0
.L461:
	.loc 1 116 0
	movs	r1, #0
	mov	r0, r4
	bl	memset
.LVL351:
	.loc 1 119 0
	ldr	r3, [sp, #28]
.LBB501:
.LBB502:
	.loc 1 485 0
	movs	r1, #64
	mov	r0, r6
.LBE502:
.LBE501:
	.loc 1 119 0
	str	r3, [sp, #20]
.LVL352:
.LBB506:
.LBB503:
	.loc 1 485 0
	bl	sn_coap_header_validity_check
.LVL353:
	cmp	r0, #0
	bne	.L463
	.loc 1 490 0
	ldr	r2, [sp, #28]
	ldrb	r3, [r2]	@ zero_extendqisi2
	adds	r3, r3, #64
	strb	r3, [r2]
	.loc 1 493 0
	ldr	r2, [sp, #28]
	ldrb	r1, [r6, #3]	@ zero_extendqisi2
	ldrb	r3, [r2]	@ zero_extendqisi2
	add	r3, r3, r1
	strb	r3, [r2]
	.loc 1 496 0
	ldr	r2, [sp, #28]
	ldrb	r1, [r6]	@ zero_extendqisi2
	ldrb	r3, [r2]	@ zero_extendqisi2
	add	r3, r3, r1
	strb	r3, [r2]
	.loc 1 498 0
	ldr	r3, [sp, #28]
	.loc 1 500 0
	ldrb	r2, [r6, #2]	@ zero_extendqisi2
	.loc 1 498 0
	adds	r1, r3, #1
	str	r1, [sp, #28]
	.loc 1 500 0
	strb	r2, [r3, #1]
	.loc 1 501 0
	ldr	r2, [sp, #28]
	.loc 1 504 0
	ldrh	r3, [r6, #8]
	.loc 1 501 0
	adds	r1, r2, #1
	.loc 1 504 0
	lsrs	r3, r3, #8
	.loc 1 501 0
	str	r1, [sp, #28]
	.loc 1 504 0
	strb	r3, [r2, #1]
	.loc 1 505 0
	ldr	r3, [sp, #28]
	.loc 1 506 0
	ldrh	r2, [r6, #8]
	.loc 1 505 0
	adds	r1, r3, #1
	str	r1, [sp, #28]
	.loc 1 506 0
	strb	r2, [r3, #1]
	.loc 1 507 0
	ldr	r0, [sp, #28]
.LBE503:
.LBE506:
	.loc 1 130 0
	ldrb	r3, [r6, #3]	@ zero_extendqisi2
.LBB507:
.LBB504:
	.loc 1 507 0
	adds	r0, r0, #1
.LBE504:
.LBE507:
	.loc 1 130 0
	cmp	r3, #48
.LBB508:
.LBB505:
	.loc 1 507 0
	str	r0, [sp, #28]
.LVL354:
.LBE505:
.LBE508:
	.loc 1 130 0
	beq	.L464
.LVL355:
.LBB509:
.LBB510:
	.loc 1 527 0
	ldr	r3, [r6, #20]
	cmp	r3, #0
	beq	.L672
	.loc 1 533 0
	ldrb	r2, [r6]	@ zero_extendqisi2
	cmp	r2, #0
	bne	.L673
.L666:
	ldr	r3, [r6, #28]
.L471:
	.loc 1 541 0
	movs	r4, #0
	.loc 1 536 0
	add	r2, r2, r0
	str	r2, [sp, #28]
	.loc 1 541 0
	strh	r4, [sp, #34]	@ movhi
	.loc 1 546 0
	cmp	r3, #0
	beq	.L473
	.loc 1 548 0
	ldr	r2, [r3, #52]
	ldrh	r1, [r3, #4]
	add	r3, sp, #34
	mov	r5, r3
	add	r8, sp, #28
.LVL356:
	str	r3, [sp, #12]
	str	r3, [sp]
	mov	r0, r8
	movs	r3, #3
	bl	sn_coap_builder_options_build_add_one_option
.LVL357:
	.loc 1 552 0
	ldr	r2, [r6, #28]
	movs	r3, #4
	add	r1, r2, #48
	str	r5, [sp]
	mov	r0, r8
	bl	sn_coap_builder_options_build_add_multiple_option
.LVL358:
	.loc 1 556 0
	ldr	r1, [r6, #28]
	ldr	r2, [r1, #32]
	adds	r3, r2, #1
	beq	.L474
.LBB511:
.LBB512:
.LBB513:
	.loc 1 744 0
	mov	r3, r4
.LVL359:
.LBE513:
	.loc 1 742 0
	mov	r1, r4
.LVL360:
.L479:
.LBB514:
	.loc 1 745 0
	cmp	r1, #0
	beq	.L477
	adds	r4, r1, #1
	mov	r0, r1
	uxtb	r1, r4
.LVL361:
.L476:
	.loc 1 744 0
	adds	r3, r3, #1
.LVL362:
	.loc 1 746 0
	add	r4, sp, #40
	.loc 1 744 0
	uxtb	r3, r3
	.loc 1 746 0
	add	r0, r0, r4
	.loc 1 744 0
	cmp	r3, #4
	.loc 1 746 0
	lsr	r4, r2, #24
	strb	r4, [r0, #-4]
	.loc 1 748 0
	lsl	r2, r2, #8
.LVL363:
	.loc 1 744 0
	bne	.L479
	uxth	r1, r1
.L478:
.LBE514:
.LBB515:
	.loc 1 753 0
	ldr	r3, [sp, #12]
.LVL364:
	add	r2, sp, #36
.LVL365:
	str	r3, [sp]
	mov	r0, r8
	movs	r3, #6
	bl	sn_coap_builder_options_build_add_one_option
.LVL366:
	ldr	r1, [r6, #28]
.LVL367:
.L474:
.LBE515:
.LBE512:
.LBE511:
	.loc 1 562 0
	ldr	r2, [r1, #28]
	adds	r7, r2, #1
	beq	.L480
.LBB518:
.LBB519:
.LBB520:
	.loc 1 744 0
	movs	r3, #0
.LVL368:
.LBE520:
	.loc 1 742 0
	mov	r1, r3
.LVL369:
.L485:
.LBB521:
	.loc 1 745 0
	cmp	r1, #0
	beq	.L483
	adds	r4, r1, #1
	mov	r0, r1
	uxtb	r1, r4
.LVL370:
.L482:
	.loc 1 744 0
	adds	r3, r3, #1
.LVL371:
	.loc 1 746 0
	add	r4, sp, #40
	.loc 1 744 0
	uxtb	r3, r3
	.loc 1 746 0
	add	r0, r0, r4
	.loc 1 744 0
	cmp	r3, #4
	.loc 1 746 0
	lsr	r4, r2, #24
	strb	r4, [r0, #-4]
	.loc 1 748 0
	lsl	r2, r2, #8
.LVL372:
	.loc 1 744 0
	bne	.L485
	uxth	r1, r1
.L484:
.LBE521:
.LBB522:
	.loc 1 753 0
	ldr	r3, [sp, #12]
.LVL373:
	add	r2, sp, #36
.LVL374:
	str	r3, [sp]
	mov	r0, r8
	movs	r3, #7
	bl	sn_coap_builder_options_build_add_one_option
.LVL375:
	ldr	r1, [r6, #28]
.LVL376:
.L480:
.LBE522:
.LBE519:
.LBE518:
	.loc 1 568 0
	ldr	r3, [sp, #12]
	adds	r2, r1, #6
	str	r3, [sp]
	mov	r0, r8
	movs	r3, #8
	adds	r1, r1, #56
	bl	sn_coap_builder_options_build_add_multiple_option
.LVL377:
.L473:
.LBB525:
.LBB526:
	.loc 1 782 0
	ldr	r9, [r6, #20]
	cmp	r9, #0
	beq	.L486
.LVL378:
.LBB527:
	.loc 1 785 0
	ldrh	r5, [r6, #10]
.LVL379:
.LBB528:
.LBB529:
	.loc 1 912 0
	subs	r4, r5, #1
	cmp	r4, #1
	ble	.L565
	movs	r3, #0
	movs	r1, #1
.LVL380:
.L488:
	ldrb	r2, [r9, r1]	@ zero_extendqisi2
	adds	r1, r1, #1
	cmp	r2, #47
	it	eq
	addeq	r3, r3, #1
	uxth	r1, r1
	cmp	r1, r4
	uxtb	r3, r3
.LVL381:
	blt	.L488
.LVL382:
	.loc 1 919 0
	adds	r3, r3, #1
.LBE529:
.LBE528:
	.loc 1 793 0
	ands	r3, r3, #255
	str	r3, [sp, #16]
	beq	.L486
.L487:
.LBB532:
.LBB530:
	.loc 1 919 0
	movs	r7, #0
.LVL383:
	add	r3, sp, #34
.LVL384:
	mov	r2, r9
	mov	fp, r7
	uxtah	r4, r9, r4
	add	r8, sp, #28
.LVL385:
	str	r3, [sp, #12]
.LBE530:
.LBE532:
.LBB533:
.LBB534:
.LBB535:
	.loc 1 954 0
	cmp	r5, #0
	beq	.L674
.LVL386:
.L498:
	mov	r10, #0
	add	lr, r9, #-1
	mov	r1, r10
	mov	r3, lr
	b	.L492
.LVL387:
.L489:
.LBB536:
	.loc 1 973 0
	uxth	r1, ip
.LVL388:
.L490:
.LBE536:
	.loc 1 954 0
	cmp	r3, r4
	beq	.L491
.LVL389:
.L492:
.LBB537:
	.loc 1 959 0
	ldrb	r0, [r3, #1]!	@ zero_extendqisi2
.LVL390:
	.loc 1 973 0
	add	ip, r1, #1
	.loc 1 959 0
	cmp	r0, #47
	bne	.L489
.LVL391:
	.loc 1 970 0
	add	r0, r10, #1
	.loc 1 959 0
	cmp	r1, #0
	beq	.L490
	.loc 1 961 0
	cmp	r10, fp
	beq	.L491
.LBE537:
	.loc 1 954 0
	cmp	r3, r4
.LBB538:
	.loc 1 970 0
	uxtb	r10, r0
.LVL392:
	.loc 1 966 0
	mov	r1, #0
.LVL393:
.LBE538:
	.loc 1 954 0
	bne	.L492
.LVL394:
.L491:
.LBE535:
.LBE534:
.LBB540:
.LBB541:
	.loc 1 1011 0
	cbnz	r7, .L566
.L558:
.LVL395:
	.loc 1 1012 0
	ldrb	r3, [r9]	@ zero_extendqisi2
	cmp	r3, #0
	beq	.L567
	sub	r3, #47
	clz	r3, r3
	lsrs	r3, r3, #5
.LVL396:
.L494:
.LBE541:
.LBE540:
	.loc 1 801 0
	ldr	r0, [sp, #12]
	add	r2, r2, r3
	str	r0, [sp]
	movs	r3, #11
	mov	r0, r8
	bl	sn_coap_builder_options_build_add_one_option
.LVL397:
	adds	r7, r7, #1
.LBE533:
	.loc 1 793 0
	ldr	r3, [sp, #16]
	uxtb	fp, r7
	cmp	r3, fp
	bls	.L486
	ldr	r2, [r6, #20]
.LVL398:
.LBB552:
.LBB548:
.LBB539:
	.loc 1 954 0
	cmp	r5, #0
	bne	.L498
.LVL399:
.L674:
.LBE539:
.LBE548:
.LBB549:
.LBB545:
	.loc 1 1011 0
	cmp	r7, #0
	beq	.L578
	mov	r1, r5
.LVL400:
.L667:
	movw	r3, #65535
	b	.L494
.LVL401:
.L566:
	mov	r10, #0
.LBB542:
	.loc 1 1027 0
	add	fp, r7, #-1
.LBE542:
	.loc 1 1011 0
	mov	r3, r10
	b	.L493
.LVL402:
.L495:
.LBB543:
	.loc 1 1036 0
	uxth	r3, ip
.LVL403:
.LBE543:
	.loc 1 1020 0
	cmp	r5, r3
	beq	.L667
.LVL404:
.L493:
.LBB544:
	.loc 1 1025 0
	ldrb	r0, [lr, #1]!	@ zero_extendqisi2
.LVL405:
	.loc 1 1036 0
	add	ip, r3, #1
	.loc 1 1025 0
	cmp	r0, #47
	bne	.L495
	cmp	r3, #0
	beq	.L495
	.loc 1 1027 0
	cmp	r10, fp
	beq	.L675
	.loc 1 1033 0
	add	r10, r10, #1
.LVL406:
	uxtb	r10, r10
.LVL407:
	b	.L495
.LVL408:
.L679:
	ldr	r6, [sp, #24]
	ldr	r3, [r6, #28]
	str	r3, [sp, #16]
.LVL409:
.L513:
.LBE544:
.LBE545:
.LBE549:
.LBE552:
.LBE527:
.LBE526:
.LBE525:
	.loc 1 593 0
	ldr	r3, [sp, #16]
	ldr	r2, [r3, #12]
	adds	r4, r2, #1
	beq	.L528
.LBB562:
.LBB563:
.LBB564:
	.loc 1 744 0
	movs	r3, #0
.LVL410:
.LBE564:
	.loc 1 742 0
	mov	r1, r3
.LVL411:
.L533:
.LBB565:
	.loc 1 745 0
	cmp	r1, #0
	beq	.L531
	adds	r4, r1, #1
	mov	r0, r1
	uxtb	r1, r4
.LVL412:
.L530:
	.loc 1 744 0
	adds	r3, r3, #1
.LVL413:
	.loc 1 746 0
	add	r4, sp, #40
	.loc 1 744 0
	uxtb	r3, r3
	.loc 1 746 0
	add	r0, r0, r4
	.loc 1 744 0
	cmp	r3, #4
	.loc 1 746 0
	lsr	r4, r2, #24
	strb	r4, [r0, #-4]
	.loc 1 748 0
	lsl	r2, r2, #8
.LVL414:
	.loc 1 744 0
	bne	.L533
	uxth	r1, r1
.L532:
.LBE565:
.LBB566:
	.loc 1 753 0
	ldr	r3, [sp, #12]
.LVL415:
	add	r2, sp, #36
.LVL416:
	str	r3, [sp]
	mov	r0, r8
	movs	r3, #17
	bl	sn_coap_builder_options_build_add_one_option
.LVL417:
	ldr	r3, [r6, #28]
	str	r3, [sp, #16]
.LBE566:
.LBE563:
.LBE562:
	.loc 1 599 0
	cmp	r3, #0
	beq	.L669
.LVL418:
.L528:
	.loc 1 601 0
	ldr	r1, [sp, #16]
	ldr	r3, [sp, #12]
	mov	r2, r1
	str	r3, [sp]
	adds	r2, r2, #8
	movs	r3, #20
	adds	r1, r1, #60
	mov	r0, r8
	bl	sn_coap_builder_options_build_add_multiple_option
.LVL419:
	.loc 1 605 0
	ldr	r3, [r6, #28]
	ldr	r2, [r3, #40]
	adds	r0, r2, #1
	beq	.L534
.LBB569:
.LBB570:
.LBB571:
	.loc 1 744 0
	movs	r3, #0
.LVL420:
.LBE571:
	.loc 1 742 0
	mov	r1, r3
.LVL421:
.L539:
.LBB572:
	.loc 1 745 0
	cmp	r1, #0
	beq	.L537
	adds	r4, r1, #1
	mov	r0, r1
	uxtb	r1, r4
.LVL422:
.L536:
	.loc 1 744 0
	adds	r3, r3, #1
.LVL423:
	.loc 1 746 0
	add	r4, sp, #40
	.loc 1 744 0
	uxtb	r3, r3
	.loc 1 746 0
	add	r0, r0, r4
	.loc 1 744 0
	cmp	r3, #4
	.loc 1 746 0
	lsr	r4, r2, #24
	strb	r4, [r0, #-4]
	.loc 1 748 0
	lsl	r2, r2, #8
.LVL424:
	.loc 1 744 0
	bne	.L539
	uxth	r1, r1
.L538:
.LBE572:
.LBB573:
	.loc 1 753 0
	ldr	r3, [sp, #12]
.LVL425:
	add	r2, sp, #36
.LVL426:
	str	r3, [sp]
	mov	r0, r8
	movs	r3, #23
	bl	sn_coap_builder_options_build_add_one_option
.LVL427:
	ldr	r3, [r6, #28]
.LVL428:
.L534:
.LBE573:
.LBE570:
.LBE569:
	.loc 1 611 0
	ldr	r2, [r3, #36]
	adds	r1, r2, #1
	beq	.L540
.LBB576:
.LBB577:
.LBB578:
	.loc 1 744 0
	movs	r3, #0
.LVL429:
.LBE578:
	.loc 1 742 0
	mov	r1, r3
.LVL430:
.L545:
.LBB579:
	.loc 1 745 0
	cmp	r1, #0
	beq	.L543
	adds	r4, r1, #1
	mov	r0, r1
	uxtb	r1, r4
.LVL431:
.L542:
	.loc 1 744 0
	adds	r3, r3, #1
.LVL432:
	.loc 1 746 0
	add	r4, sp, #40
	.loc 1 744 0
	uxtb	r3, r3
	.loc 1 746 0
	add	r0, r0, r4
	.loc 1 744 0
	cmp	r3, #4
	.loc 1 746 0
	lsr	r4, r2, #24
	strb	r4, [r0, #-4]
	.loc 1 748 0
	lsl	r2, r2, #8
.LVL433:
	.loc 1 744 0
	bne	.L545
	uxth	r1, r1
.L544:
.LBE579:
.LBB580:
	.loc 1 753 0
	ldr	r3, [sp, #12]
.LVL434:
	add	r2, sp, #36
.LVL435:
	str	r3, [sp]
	mov	r0, r8
	movs	r3, #27
	bl	sn_coap_builder_options_build_add_one_option
.LVL436:
	ldr	r3, [r6, #28]
.LVL437:
.L540:
.LBE580:
.LBE577:
.LBE576:
	.loc 1 617 0
	ldrb	r2, [r3, #1]	@ zero_extendqisi2
	lsls	r2, r2, #30
	bmi	.L676
.L546:
	.loc 1 623 0
	ldr	r2, [r3, #44]
	ldrh	r1, [r3, #2]
	ldr	r3, [sp, #12]
	mov	r0, r8
	str	r3, [sp]
	movs	r3, #35
	bl	sn_coap_builder_options_build_add_one_option
.LVL438:
	.loc 1 628 0
	ldr	r2, [r6, #28]
	ldrb	r3, [r2, #1]	@ zero_extendqisi2
	lsls	r3, r3, #31
	bpl	.L669
.LBB583:
.LBB584:
.LBB585:
	.loc 1 744 0
	movs	r3, #0
.LBE585:
	.loc 1 742 0
	mov	r1, r3
.LBE584:
.LBE583:
	.loc 1 629 0
	ldr	r2, [r2, #20]
.LVL439:
.L557:
.LBB591:
.LBB589:
.LBB586:
	.loc 1 745 0
	cmp	r1, #0
	beq	.L555
	adds	r4, r1, #1
	mov	r0, r1
	uxtb	r1, r4
.LVL440:
.L554:
	.loc 1 744 0
	adds	r3, r3, #1
.LVL441:
	.loc 1 746 0
	add	r4, sp, #40
	.loc 1 744 0
	uxtb	r3, r3
	.loc 1 746 0
	add	r0, r0, r4
	.loc 1 744 0
	cmp	r3, #4
	.loc 1 746 0
	lsr	r4, r2, #24
	strb	r4, [r0, #-4]
	.loc 1 748 0
	lsl	r2, r2, #8
.LVL442:
	.loc 1 744 0
	bne	.L557
	uxth	r1, r1
.L556:
.LBE586:
.LBB587:
	.loc 1 753 0
	ldr	r3, [sp, #12]
.LVL443:
	mov	r0, r8
	str	r3, [sp]
	add	r2, sp, #36
.LVL444:
	movs	r3, #60
	bl	sn_coap_builder_options_build_add_one_option
.LVL445:
.L669:
	ldr	r0, [sp, #28]
.L468:
.LVL446:
.LBE587:
.LBE589:
.LBE591:
.LBE510:
.LBE509:
.LBB669:
.LBB670:
	.loc 1 1057 0
	ldrh	r3, [r6, #12]
	cbz	r3, .L464
	ldr	r3, [r6, #24]
	cbz	r3, .L464
	.loc 1 1060 0
	movs	r3, #255
	strb	r3, [r0]
	.loc 1 1061 0
	ldr	r3, [sp, #28]
	.loc 1 1064 0
	ldrh	r2, [r6, #12]
	.loc 1 1061 0
	adds	r3, r3, #1
	.loc 1 1064 0
	mov	r0, r3
	ldr	r1, [r6, #24]
	.loc 1 1061 0
	str	r3, [sp, #28]
	.loc 1 1064 0
	bl	memcpy
.LVL447:
	.loc 1 1067 0
	ldrh	r3, [r6, #12]
	ldr	r0, [sp, #28]
	add	r0, r0, r3
.LVL448:
.L464:
.LBE670:
.LBE669:
	.loc 1 142 0
	ldr	r3, [sp, #20]
	subs	r0, r0, r3
	sxth	r0, r0
.LVL449:
.L660:
	.loc 1 143 0
	add	sp, sp, #44
	.cfi_remember_state
	.cfi_def_cfa_offset 36
	@ sp needed
	pop	{r4, r5, r6, r7, r8, r9, r10, fp, pc}
.LVL450:
.L567:
	.cfi_restore_state
.LBB671:
.LBB665:
.LBB592:
.LBB559:
.LBB556:
.LBB553:
.LBB550:
.LBB546:
	.loc 1 1012 0
	movs	r3, #1
	b	.L494
.LVL451:
.L562:
.LBE546:
.LBE550:
.LBE553:
.LBE556:
.LBE559:
.LBE592:
.LBE665:
.LBE671:
.LBB672:
.LBB500:
	.loc 1 166 0
	movs	r2, #4
.LVL452:
	b	.L461
.LVL453:
.L486:
.LBE500:
.LBE672:
.LBB673:
.LBB666:
	.loc 1 576 0
	ldr	r2, [r6, #4]
	adds	r5, r2, #1
	beq	.L500
.LBB593:
.LBB594:
.LBB595:
	.loc 1 744 0
	movs	r3, #0
.LVL454:
.LBE595:
	.loc 1 742 0
	mov	r1, r3
.LVL455:
.L505:
.LBB596:
	.loc 1 745 0
	cmp	r1, #0
	beq	.L503
	adds	r4, r1, #1
	mov	r0, r1
	uxtb	r1, r4
.LVL456:
.L502:
	.loc 1 744 0
	adds	r3, r3, #1
.LVL457:
	.loc 1 746 0
	add	r4, sp, #40
	.loc 1 744 0
	uxtb	r3, r3
	.loc 1 746 0
	add	r0, r0, r4
	.loc 1 744 0
	cmp	r3, #4
	.loc 1 746 0
	lsr	r4, r2, #24
	strb	r4, [r0, #-4]
	.loc 1 748 0
	lsl	r2, r2, #8
.LVL458:
	.loc 1 744 0
	bne	.L505
	uxth	r1, r1
.L504:
.LBE596:
.LBB597:
	.loc 1 753 0
	add	r3, sp, #34
.LVL459:
	str	r3, [sp]
	add	r2, sp, #36
.LVL460:
	movs	r3, #12
.LVL461:
	add	r0, sp, #28
.LVL462:
	bl	sn_coap_builder_options_build_add_one_option
.LVL463:
.L500:
.LBE597:
.LBE594:
.LBE593:
	.loc 1 581 0
	ldr	r3, [r6, #28]
	str	r3, [sp, #16]
	cmp	r3, #0
	beq	.L669
	.loc 1 583 0
	ldr	r2, [r3, #16]
	cmp	r2, #60
	beq	.L677
	movs	r3, #0
	mov	r1, r3
.L512:
.LVL464:
.LBB600:
.LBB601:
.LBB602:
	.loc 1 745 0
	cmp	r1, #0
	beq	.L510
	adds	r4, r1, #1
	mov	r0, r1
	uxtb	r1, r4
.LVL465:
.L509:
	.loc 1 744 0
	adds	r3, r3, #1
.LVL466:
	.loc 1 746 0
	add	r4, sp, #40
	.loc 1 744 0
	uxtb	r3, r3
	.loc 1 746 0
	add	r0, r0, r4
	.loc 1 744 0
	cmp	r3, #4
	.loc 1 746 0
	lsr	r4, r2, #24
	strb	r4, [r0, #-4]
	.loc 1 748 0
	lsl	r2, r2, #8
.LVL467:
	.loc 1 744 0
	bne	.L512
	uxth	r1, r1
.L511:
.LBE602:
.LBB603:
	.loc 1 753 0
	add	r3, sp, #34
.LVL468:
	add	r8, sp, #28
.LVL469:
	str	r3, [sp, #12]
	str	r3, [sp]
	add	r2, sp, #36
.LVL470:
	movs	r3, #14
	mov	r0, r8
	bl	sn_coap_builder_options_build_add_one_option
.LVL471:
	ldr	r3, [r6, #28]
	mov	r2, r3
	str	r3, [sp, #16]
.L507:
.LVL472:
.LBE603:
.LBE601:
.LBE600:
.LBB606:
.LBB607:
	.loc 1 782 0
	ldr	r9, [r2, #64]
	cmp	r9, #0
	beq	.L513
.LVL473:
.LBB608:
	.loc 1 785 0
	ldrh	r5, [r2, #10]
.LVL474:
.LBB609:
.LBB610:
	.loc 1 912 0
	subs	r4, r5, #1
	cmp	r4, #1
	ble	.L570
	movs	r3, #0
	movs	r1, #1
.LVL475:
.L515:
	ldrb	r2, [r9, r1]	@ zero_extendqisi2
	adds	r1, r1, #1
	cmp	r2, #38
	it	eq
	addeq	r3, r3, #1
	uxth	r1, r1
	cmp	r1, r4
	uxtb	r3, r3
.LVL476:
	blt	.L515
.LVL477:
	.loc 1 919 0
	adds	r3, r3, #1
.LBE610:
.LBE609:
	.loc 1 793 0
	ands	r3, r3, #255
	beq	.L513
.L514:
.LBB613:
.LBB611:
	.loc 1 919 0
	movs	r7, #0
.LVL478:
	str	r6, [sp, #24]
	mov	r2, r9
	mov	fp, r7
	uxtah	r4, r9, r4
	mov	r6, r3
.LVL479:
.LBE611:
.LBE613:
.LBB614:
.LBB615:
.LBB616:
	.loc 1 954 0
	cmp	r5, #0
	beq	.L678
.LVL480:
.L526:
	mov	r10, #0
	add	lr, r9, #-1
	mov	r1, r10
	mov	r3, lr
	b	.L519
.LVL481:
.L516:
.LBB617:
	.loc 1 973 0
	uxth	r1, ip
.LVL482:
.L517:
.LBE617:
	.loc 1 954 0
	cmp	r3, r4
	beq	.L518
.LVL483:
.L519:
.LBB618:
	.loc 1 959 0
	ldrb	r0, [r3, #1]!	@ zero_extendqisi2
.LVL484:
	.loc 1 973 0
	add	ip, r1, #1
	.loc 1 959 0
	cmp	r0, #38
	bne	.L516
.LVL485:
	.loc 1 970 0
	add	r0, r10, #1
	.loc 1 959 0
	cmp	r1, #0
	beq	.L517
	.loc 1 961 0
	cmp	fp, r10
	beq	.L518
.LBE618:
	.loc 1 954 0
	cmp	r3, r4
.LBB619:
	.loc 1 970 0
	uxtb	r10, r0
.LVL486:
	.loc 1 966 0
	mov	r1, #0
.LVL487:
.LBE619:
	.loc 1 954 0
	bne	.L519
.LVL488:
.L518:
.LBE616:
.LBE615:
.LBB621:
.LBB622:
	.loc 1 1011 0
	cmp	r7, #0
	bne	.L571
.L559:
.LVL489:
	.loc 1 1012 0
	ldrb	r3, [r9]	@ zero_extendqisi2
	cmp	r3, #0
	beq	.L572
	sub	r3, #38
	clz	r3, r3
	lsrs	r3, r3, #5
.LVL490:
.L521:
.LBE622:
.LBE621:
	.loc 1 801 0
	ldr	r0, [sp, #12]
	adds	r7, r7, #1
	str	r0, [sp]
	add	r2, r2, r3
	mov	r0, r8
	movs	r3, #15
.LBE614:
	.loc 1 793 0
	uxtb	fp, r7
.LBB633:
	.loc 1 801 0
	bl	sn_coap_builder_options_build_add_one_option
.LVL491:
.LBE633:
	.loc 1 793 0
	cmp	fp, r6
	bcs	.L679
	ldr	r3, [sp, #16]
	ldr	r2, [r3, #64]
.LVL492:
.LBB634:
.LBB629:
.LBB620:
	.loc 1 954 0
	cmp	r5, #0
	bne	.L526
.LVL493:
.L678:
.LBE620:
.LBE629:
.LBB630:
.LBB626:
	.loc 1 1011 0
	cmp	r7, #0
	beq	.L579
	mov	r1, r5
.LVL494:
.L668:
	movw	r3, #65535
	b	.L521
.LVL495:
.L680:
.LBE626:
.LBE630:
.LBE634:
.LBE608:
.LBE607:
.LBE606:
.LBB644:
.LBB599:
.LBB598:
	.loc 1 744 0
	uxtb	r3, r0
.LVL496:
	cmp	r3, #4
	.loc 1 748 0
	lsl	r2, r2, #8
.LVL497:
	.loc 1 744 0
	beq	.L504
.LVL498:
.L503:
	.loc 1 745 0
	ands	r1, r2, #-16777216
	.loc 1 744 0
	add	r0, r3, #1
	.loc 1 745 0
	beq	.L680
	movs	r0, #0
	movs	r1, #1
	b	.L502
.LVL499:
.L681:
.LBE598:
.LBE599:
.LBE644:
.LBB645:
.LBB605:
.LBB604:
	.loc 1 744 0
	uxtb	r3, r0
.LVL500:
	cmp	r3, #4
	.loc 1 748 0
	lsl	r2, r2, #8
.LVL501:
	.loc 1 744 0
	beq	.L511
.LVL502:
.L510:
	.loc 1 745 0
	ands	r1, r2, #-16777216
	.loc 1 744 0
	add	r0, r3, #1
	.loc 1 745 0
	beq	.L681
	movs	r0, #0
	movs	r1, #1
	b	.L509
.LVL503:
.L675:
	uxth	r3, ip
.LVL504:
	b	.L494
.LVL505:
.L673:
.LBE604:
.LBE605:
.LBE645:
	.loc 1 533 0
	ldr	r1, [r6, #16]
	cmp	r1, #0
	beq	.L666
.L472:
	.loc 1 534 0
	bl	memcpy
.LVL506:
	ldr	r0, [sp, #28]
	ldrb	r2, [r6]	@ zero_extendqisi2
	b	.L666
.LVL507:
.L682:
.LBB646:
.LBB524:
.LBB523:
	.loc 1 744 0
	uxtb	r3, r0
.LVL508:
	cmp	r3, #4
	.loc 1 748 0
	lsl	r2, r2, #8
.LVL509:
	.loc 1 744 0
	beq	.L484
.LVL510:
.L483:
	.loc 1 745 0
	ands	r1, r2, #-16777216
	.loc 1 744 0
	add	r0, r3, #1
	.loc 1 745 0
	beq	.L682
	movs	r0, #0
	movs	r1, #1
	b	.L482
.LVL511:
.L683:
.LBE523:
.LBE524:
.LBE646:
.LBB647:
.LBB517:
.LBB516:
	.loc 1 744 0
	uxtb	r3, r0
.LVL512:
	cmp	r3, #4
	.loc 1 748 0
	lsl	r2, r2, #8
.LVL513:
	.loc 1 744 0
	beq	.L478
.LVL514:
.L477:
	.loc 1 745 0
	ands	r1, r2, #-16777216
	.loc 1 744 0
	add	r0, r3, #1
	.loc 1 745 0
	beq	.L683
	movs	r0, #0
	movs	r1, #1
	b	.L476
.LVL515:
.L463:
.LBE516:
.LBE517:
.LBE647:
.LBE666:
.LBE673:
	.loc 1 113 0
	mov	r0, #-1
	.loc 1 143 0
	add	sp, sp, #44
	.cfi_remember_state
	.cfi_def_cfa_offset 36
	@ sp needed
	pop	{r4, r5, r6, r7, r8, r9, r10, fp, pc}
.LVL516:
.L571:
	.cfi_restore_state
.LBB674:
.LBB667:
.LBB648:
.LBB641:
.LBB638:
.LBB635:
.LBB631:
.LBB627:
	.loc 1 1011 0
	mov	r10, #0
.LBB623:
	.loc 1 1027 0
	add	fp, r7, #-1
.LBE623:
	.loc 1 1011 0
	mov	r3, r10
	b	.L520
.LVL517:
.L522:
.LBB624:
	.loc 1 1036 0
	uxth	r3, ip
.LVL518:
.LBE624:
	.loc 1 1020 0
	cmp	r5, r3
	beq	.L668
.LVL519:
.L520:
.LBB625:
	.loc 1 1025 0
	ldrb	r0, [lr, #1]!	@ zero_extendqisi2
.LVL520:
	.loc 1 1036 0
	add	ip, r3, #1
	.loc 1 1025 0
	cmp	r0, #38
	bne	.L522
	cmp	r3, #0
	beq	.L522
	.loc 1 1027 0
	cmp	fp, r10
	beq	.L684
	.loc 1 1033 0
	add	r10, r10, #1
.LVL521:
	uxtb	r10, r10
.LVL522:
	b	.L522
.LVL523:
.L572:
.LBE625:
	.loc 1 1012 0
	movs	r3, #1
	b	.L521
.LVL524:
.L685:
.LBE627:
.LBE631:
.LBE635:
.LBE638:
.LBE641:
.LBE648:
.LBB649:
.LBB568:
.LBB567:
	.loc 1 744 0
	uxtb	r3, r0
.LVL525:
	cmp	r3, #4
	.loc 1 748 0
	lsl	r2, r2, #8
.LVL526:
	.loc 1 744 0
	beq	.L532
.LVL527:
.L531:
	.loc 1 745 0
	ands	r1, r2, #-16777216
	.loc 1 744 0
	add	r0, r3, #1
	.loc 1 745 0
	beq	.L685
	movs	r0, #0
	movs	r1, #1
	b	.L530
.LVL528:
.L686:
.LBE567:
.LBE568:
.LBE649:
.LBB650:
.LBB575:
.LBB574:
	.loc 1 744 0
	uxtb	r3, r0
.LVL529:
	cmp	r3, #4
	.loc 1 748 0
	lsl	r2, r2, #8
.LVL530:
	.loc 1 744 0
	beq	.L538
.LVL531:
.L537:
	.loc 1 745 0
	ands	r1, r2, #-16777216
	.loc 1 744 0
	add	r0, r3, #1
	.loc 1 745 0
	beq	.L686
	movs	r0, #0
	movs	r1, #1
	b	.L536
.LVL532:
.L687:
.LBE574:
.LBE575:
.LBE650:
.LBB651:
.LBB582:
.LBB581:
	.loc 1 744 0
	uxtb	r3, r0
.LVL533:
	cmp	r3, #4
	.loc 1 748 0
	lsl	r2, r2, #8
.LVL534:
	.loc 1 744 0
	beq	.L544
.LVL535:
.L543:
	.loc 1 745 0
	ands	r1, r2, #-16777216
	.loc 1 744 0
	add	r0, r3, #1
	.loc 1 745 0
	beq	.L687
	movs	r0, #0
	movs	r1, #1
	b	.L542
.LVL536:
.L688:
.LBE581:
.LBE582:
.LBE651:
.LBB652:
.LBB590:
.LBB588:
	.loc 1 744 0
	uxtb	r3, r0
.LVL537:
	cmp	r3, #4
	.loc 1 748 0
	lsl	r2, r2, #8
.LVL538:
	.loc 1 744 0
	beq	.L556
.LVL539:
.L555:
	.loc 1 745 0
	ands	r1, r2, #-16777216
	.loc 1 744 0
	add	r0, r3, #1
	.loc 1 745 0
	beq	.L688
	movs	r0, #0
	movs	r1, #1
	b	.L554
.LVL540:
.L684:
	uxth	r3, ip
.LVL541:
	b	.L521
.LVL542:
.L677:
	add	r3, sp, #34
	add	r8, sp, #28
.LVL543:
	str	r3, [sp, #12]
	ldr	r2, [sp, #16]
	b	.L507
.LVL544:
.L676:
.LBE588:
.LBE590:
.LBE652:
.LBB653:
.LBB654:
.LBB655:
	.loc 1 744 0
	movs	r2, #0
.LBE655:
	.loc 1 742 0
	mov	r1, r2
.LBE654:
.LBE653:
	.loc 1 618 0
	ldr	r3, [r3, #24]
.LVL545:
.L551:
.LBB660:
.LBB659:
.LBB656:
	.loc 1 745 0
	cbz	r1, .L549
	adds	r4, r1, #1
	mov	r0, r1
	uxtb	r1, r4
.LVL546:
.L548:
	.loc 1 744 0
	adds	r2, r2, #1
.LVL547:
	.loc 1 746 0
	add	r4, sp, #40
	.loc 1 744 0
	uxtb	r2, r2
	.loc 1 746 0
	add	r0, r0, r4
	.loc 1 744 0
	cmp	r2, #4
	.loc 1 746 0
	lsr	r4, r3, #24
	strb	r4, [r0, #-4]
	.loc 1 748 0
	lsl	r3, r3, #8
.LVL548:
	.loc 1 744 0
	bne	.L551
	uxth	r1, r1
.L550:
.LBE656:
.LBB657:
	.loc 1 753 0
	ldr	r3, [sp, #12]
.LVL549:
	add	r2, sp, #36
.LVL550:
	str	r3, [sp]
	mov	r0, r8
	movs	r3, #28
	bl	sn_coap_builder_options_build_add_one_option
.LVL551:
	ldr	r3, [r6, #28]
	b	.L546
.LVL552:
.L689:
.LBE657:
.LBB658:
	.loc 1 744 0
	uxtb	r2, r0
.LVL553:
	cmp	r2, #4
	.loc 1 748 0
	lsl	r3, r3, #8
.LVL554:
	.loc 1 744 0
	beq	.L550
.LVL555:
.L549:
	.loc 1 745 0
	ands	r1, r3, #-16777216
	.loc 1 744 0
	add	r0, r2, #1
	.loc 1 745 0
	beq	.L689
	movs	r0, #0
	movs	r1, #1
	b	.L548
.LVL556:
.L578:
.LBE658:
.LBE659:
.LBE660:
.LBB661:
.LBB560:
.LBB557:
.LBB554:
.LBB551:
.LBB547:
	.loc 1 1011 0
	mov	r1, r7
	b	.L558
.LVL557:
.L579:
.LBE547:
.LBE551:
.LBE554:
.LBE557:
.LBE560:
.LBE661:
.LBB662:
.LBB642:
.LBB639:
.LBB636:
.LBB632:
.LBB628:
	mov	r1, r7
	b	.L559
.LVL558:
.L672:
.LBE628:
.LBE632:
.LBE636:
.LBE639:
.LBE642:
.LBE662:
	.loc 1 527 0
	ldr	r1, [r6, #16]
	cbz	r1, .L690
	.loc 1 533 0
	ldrb	r2, [r6]	@ zero_extendqisi2
	cmp	r2, #0
	beq	.L666
	b	.L472
.LVL559:
.L565:
.LBB663:
.LBB561:
.LBB558:
.LBB555:
.LBB531:
	.loc 1 919 0
	movs	r3, #1
	str	r3, [sp, #16]
	b	.L487
.LVL560:
.L570:
.LBE531:
.LBE555:
.LBE558:
.LBE561:
.LBE663:
.LBB664:
.LBB643:
.LBB640:
.LBB637:
.LBB612:
	movs	r3, #1
	b	.L514
.LVL561:
.L561:
.LBE612:
.LBE637:
.LBE640:
.LBE643:
.LBE664:
.LBE667:
.LBE674:
	.loc 1 106 0
	mvn	r0, #1
.LVL562:
	b	.L660
.LVL563:
.L690:
.LBB675:
.LBB668:
	.loc 1 527 0
	ldr	r3, [r6, #4]
	adds	r3, r3, #1
	.loc 1 528 0
	ldr	r3, [r6, #28]
	.loc 1 527 0
	beq	.L691
.L469:
	.loc 1 533 0
	ldrb	r2, [r6]	@ zero_extendqisi2
	b	.L471
.L691:
	.loc 1 528 0
	cmp	r3, #0
	bne	.L469
	b	.L468
.LBE668:
.LBE675:
	.cfi_endproc
.LFE181:
	.size	sn_coap_builder_2, .-sn_coap_builder_2
	.section	.text.sn_coap_builder,"ax",%progbits
	.align	1
	.p2align 2,,3
	.global	sn_coap_builder
	.syntax unified
	.thumb
	.thumb_func
	.fpu softvfp
	.type	sn_coap_builder, %function
sn_coap_builder:
.LFB180:
	.loc 1 95 0
	.cfi_startproc
	@ args = 0, pretend = 0, frame = 0
	@ frame_needed = 0, uses_anonymous_args = 0
	@ link register save eliminated.
.LVL564:
	.loc 1 96 0
	movs	r2, #0
	b	sn_coap_builder_2
.LVL565:
	.cfi_endproc
.LFE180:
	.size	sn_coap_builder, .-sn_coap_builder
	.section	.text.sn_coap_builder_calc_needed_packet_data_size,"ax",%progbits
	.align	1
	.p2align 2,,3
	.global	sn_coap_builder_calc_needed_packet_data_size
	.syntax unified
	.thumb
	.thumb_func
	.fpu softvfp
	.type	sn_coap_builder_calc_needed_packet_data_size, %function
sn_coap_builder_calc_needed_packet_data_size:
.LFB182:
	.loc 1 145 0
	.cfi_startproc
	@ args = 0, pretend = 0, frame = 0
	@ frame_needed = 0, uses_anonymous_args = 0
	@ link register save eliminated.
.LVL566:
.LBB676:
.LBB677:
	.loc 1 155 0
	cbz	r0, .L695
.LVL567:
	.loc 1 166 0
	ldrb	r3, [r0, #3]	@ zero_extendqisi2
	cmp	r3, #48
	bne	.L697
	.loc 1 161 0
	movs	r0, #4
.LVL568:
.LBE677:
.LBE676:
	.loc 1 147 0
	bx	lr
.LVL569:
.L697:
.LBB679:
.LBB678:
	b	sn_coap_builder_calc_needed_packet_data_size_2.part.1
.LVL570:
.L695:
	bx	lr
.LBE678:
.LBE679:
	.cfi_endproc
.LFE182:
	.size	sn_coap_builder_calc_needed_packet_data_size, .-sn_coap_builder_calc_needed_packet_data_size
	.section	.text.sn_coap_builder_calc_needed_packet_data_size_2,"ax",%progbits
	.align	1
	.p2align 2,,3
	.global	sn_coap_builder_calc_needed_packet_data_size_2
	.syntax unified
	.thumb
	.thumb_func
	.fpu softvfp
	.type	sn_coap_builder_calc_needed_packet_data_size_2, %function
sn_coap_builder_calc_needed_packet_data_size_2:
.LFB183:
	.loc 1 150 0
	.cfi_startproc
	@ args = 0, pretend = 0, frame = 0
	@ frame_needed = 0, uses_anonymous_args = 0
	@ link register save eliminated.
.LVL571:
	.loc 1 155 0
	cbz	r0, .L700
.LVL572:
	.loc 1 166 0
	ldrb	r3, [r0, #3]	@ zero_extendqisi2
	cmp	r3, #48
	beq	.L701
	b	sn_coap_builder_calc_needed_packet_data_size_2.part.1
.LVL573:
.L701:
	.loc 1 161 0
	movs	r0, #4
.LVL574:
	.loc 1 340 0
	bx	lr
.LVL575:
.L700:
	bx	lr
	.cfi_endproc
.LFE183:
	.size	sn_coap_builder_calc_needed_packet_data_size_2, .-sn_coap_builder_calc_needed_packet_data_size_2
	.text
.Letext0:
	.file 2 "/cygdrive/d/PUYA/HE3/sdk-ameba-v7.1d/tools/arm-none-eabi-gcc/asdk/cygwin/newlib/arm-none-eabi/include/machine/_default_types.h"
	.file 3 "/cygdrive/d/PUYA/HE3/sdk-ameba-v7.1d/tools/arm-none-eabi-gcc/asdk/cygwin/newlib/lib/gcc/arm-none-eabi/6.5.0/include/stddef.h"
	.file 4 "/cygdrive/d/PUYA/HE3/sdk-ameba-v7.1d/tools/arm-none-eabi-gcc/asdk/cygwin/newlib/arm-none-eabi/include/sys/lock.h"
	.file 5 "/cygdrive/d/PUYA/HE3/sdk-ameba-v7.1d/tools/arm-none-eabi-gcc/asdk/cygwin/newlib/arm-none-eabi/include/sys/_types.h"
	.file 6 "/cygdrive/d/PUYA/HE3/sdk-ameba-v7.1d/tools/arm-none-eabi-gcc/asdk/cygwin/newlib/arm-none-eabi/include/sys/reent.h"
	.file 7 "<built-in>"
	.file 8 "/cygdrive/d/PUYA/HE3/sdk-ameba-v7.1d/tools/arm-none-eabi-gcc/asdk/cygwin/newlib/arm-none-eabi/include/sys/_stdint.h"
	.file 9 "/cygdrive/d/PUYA/HE3/sdk-ameba-v7.1d/tools/arm-none-eabi-gcc/asdk/cygwin/newlib/arm-none-eabi/include/time.h"
	.file 10 "../../../component/common/network/coap/include/sn_coap_header.h"
	.file 11 "../../../component/common/network/coap/include/sn_coap_header_internal.h"
	.file 12 "../../../component/common/network/coap/include/ns_list.h"
	.file 13 "../inc/FreeRTOSConfig.h"
	.file 14 "../../../component/soc/realtek/8710c/cmsis/rtl8710c/include/basic_types.h"
	.file 15 "/cygdrive/d/PUYA/HE3/sdk-ameba-v7.1d/tools/arm-none-eabi-gcc/asdk/cygwin/newlib/lib/gcc/arm-none-eabi/6.5.0/include/stdarg.h"
	.file 16 "../../../component/soc/realtek/8710c/app/rtl_printf/include/log_buf.h"
	.file 17 "../../../component/soc/realtek/8710c/app/stdio_port/stdio_port.h"
	.file 18 "../../../component/soc/realtek/8710c/app/rtl_printf/include/printf_entry.h"
	.file 19 "../../../component/soc/realtek/8710c/app/rtl_printf/include/rt_printf.h"
	.file 20 "../../../component/soc/realtek/8710c/misc/utilities/include/utility.h"
	.file 21 "/cygdrive/d/PUYA/HE3/sdk-ameba-v7.1d/tools/arm-none-eabi-gcc/asdk/cygwin/newlib/arm-none-eabi/include/stdlib.h"
	.file 22 "../../../component/common/drivers/wlan/realtek/src/osdep/wireless.h"
	.file 23 "../../../component/common/drivers/wlan/realtek/include/autoconf.h"
	.file 24 "../../../component/common/api/wifi/wifi_util.h"
	.file 25 "../../../component/common/network/lwip/lwip_v2.0.2/port/realtek/arch/cc.h"
	.file 26 "../../../component/common/network/lwip/lwip_v2.0.2/src/include/lwip/ip4_addr.h"
	.file 27 "../../../component/common/network/lwip/lwip_v2.0.2/src/include/lwip/ip_addr.h"
	.file 28 "../../../component/common/network/lwip/lwip_v2.0.2/src/include/lwip/inet.h"
	.file 29 "../../../component/common/network/lwip/lwip_v2.0.2/src/include/lwip/errno.h"
	.file 30 "../../../component/common/network/lwip/lwip_v2.0.2/src/include/lwip/netdb.h"
	.file 31 "../../../component/common/network/coap/include/sn_coap_protocol_internal.h"