	.arch armv8-m.main
	.arch_extension dsp
	.eabi_attribute 20, 1
	.eabi_attribute 21, 1
	.eabi_attribute 23, 3
	.eabi_attribute 24, 1
	.eabi_attribute 25, 1
	.eabi_attribute 26, 1
	.eabi_attribute 30, 2
	.eabi_attribute 34, 1
	.eabi_attribute 18, 4
	.file	"ssl_tls.c"
	.text
.Ltext0:
	.cfi_sections	.debug_frame
	.section	.text.ssl_calc_finished_tls_sha256,"ax",%progbits
	.align	1
	.p2align 2,,3
	.syntax unified
	.thumb
	.thumb_func
	.fpu softvfp
	.type	ssl_calc_finished_tls_sha256, %function
ssl_calc_finished_tls_sha256:
.LFB618:
	.file 1 "../../../component/common/network/ssl/mbedtls-2.4.0/library/ssl_tls.c"
	.loc 1 5008 0
	.cfi_startproc
	@ args = 0, pretend = 0, frame = 144
	@ frame_needed = 0, uses_anonymous_args = 0
.LVL0:
	push	{r4, r5, r6, r7, r8, r9, r10, fp, lr}
	.cfi_def_cfa_offset 36
	.cfi_offset 4, -36
	.cfi_offset 5, -32
	.cfi_offset 6, -28
	.cfi_offset 7, -24
	.cfi_offset 8, -20
	.cfi_offset 9, -16
	.cfi_offset 10, -12
	.cfi_offset 11, -8
	.cfi_offset 14, -4
	.loc 1 5014 0
	ldr	r7, [r0, #52]
.LVL1:
	.loc 1 5008 0
	sub	sp, sp, #164
	.cfi_def_cfa_offset 200
	.loc 1 5008 0
	mov	r5, r0
	mov	r8, r1
	mov	fp, r2
	.loc 1 5015 0
	cmp	r7, #0
	beq	.L9
.L2:
	.loc 1 5031 0
	mov	r10, #32
	.loc 1 5018 0
	add	r4, sp, #52
	mov	r0, r4
.LVL2:
	bl	mbedtls_sha256_init
.LVL3:
	.loc 1 5020 0
	ldr	r2, .L10
	movw	r3, #5020
	str	r2, [sp]
	movs	r1, #2
	ldr	r2, .L10+4
	mov	r0, r5
	bl	mbedtls_debug_print_msg
.LVL4:
	.loc 1 5022 0
	ldr	r1, [r5, #56]
	mov	r0, r4
	adds	r1, r1, #208
	bl	mbedtls_sha256_clone
.LVL5:
	.loc 1 5031 0
	ldr	r2, .L10+8
	add	r3, sp, #60
	stm	sp, {r2, r3, r10}
	movs	r1, #4
	movw	r3, #5032
	ldr	r2, .L10+4
	mov	r0, r5
	bl	mbedtls_debug_print_buf
.LVL6:
	.loc 1 5035 0
	ldr	r6, .L10+12
	ldr	r2, .L10+16
	.loc 1 5041 0
	mov	r9, #12
	.loc 1 5035 0
	cmp	fp, #0
	it	ne
	movne	r6, r2
.LVL7:
	.loc 1 5039 0
	mov	r0, r4
	add	r1, sp, #20
	bl	mbedtls_sha256_finish
.LVL8:
	.loc 1 5041 0
	ldr	r3, [r5, #56]
	str	r10, [sp]
	str	r8, [sp, #4]
	str	r9, [sp, #8]
	mov	r2, r6
	movs	r1, #48
	ldr	r6, [r3, #548]
.LVL9:
	add	r0, r7, #44
	add	r3, sp, #20
	blx	r6
.LVL10:
	.loc 1 5044 0
	ldr	r3, .L10+20
	ldr	r2, .L10+4
	stm	sp, {r3, r8, r9}
	movs	r1, #3
	movw	r3, #5044
	mov	r0, r5
	bl	mbedtls_debug_print_buf
.LVL11:
	.loc 1 5046 0
	mov	r0, r4
	bl	mbedtls_sha256_free
.LVL12:
.LBB146:
.LBB147:
	.loc 1 86 0
	movs	r2, #0
	add	r3, sp, #20
.LVL13:
.L4:
	strb	r2, [r3]
	adds	r3, r3, #1
.LVL14:
	cmp	r3, r4
	bne	.L4
.LVL15:
.LBE147:
.LBE146:
	.loc 1 5050 0 discriminator 4
	ldr	r3, .L10+24
	mov	r0, r5
	str	r3, [sp]
	ldr	r2, .L10+4
	movw	r3, #5050
	movs	r1, #2
	bl	mbedtls_debug_print_msg
.LVL16:
	.loc 1 5051 0 discriminator 4
	add	sp, sp, #164
	.cfi_remember_state
	.cfi_def_cfa_offset 36
	@ sp needed
	pop	{r4, r5, r6, r7, r8, r9, r10, fp, pc}
.LVL17:
.L9:
	.cfi_restore_state
	.loc 1 5016 0
	ldr	r7, [r0, #48]
.LVL18:
	b	.L2
.L11:
	.align	2
.L10:
	.word	.LC3
	.word	.LC2
	.word	.LC4
	.word	.LC0
	.word	.LC1
	.word	.LC5
	.word	.LC6
	.cfi_endproc
.LFE618:
	.size	ssl_calc_finished_tls_sha256, .-ssl_calc_finished_tls_sha256
	.section	.text.ssl_calc_verify_tls_sha256,"ax",%progbits
	.align	1
	.p2align 2,,3
	.syntax unified
	.thumb
	.thumb_func
	.fpu softvfp
	.type	ssl_calc_verify_tls_sha256, %function
ssl_calc_verify_tls_sha256:
.LFB591:
	.loc 1 1093 0
	.cfi_startproc
	@ args = 0, pretend = 0, frame = 112
	@ frame_needed = 0, uses_anonymous_args = 0
.LVL19:
	push	{r4, r5, r6, lr}
	.cfi_def_cfa_offset 16
	.cfi_offset 4, -16
	.cfi_offset 5, -12
	.cfi_offset 6, -8
	.cfi_offset 14, -4
	mov	r4, r0
	mov	r6, r1
	sub	sp, sp, #128
	.cfi_def_cfa_offset 144
	.loc 1 1096 0
	add	r0, sp, #20
.LVL20:
	bl	mbedtls_sha256_init
.LVL21:
	.loc 1 1098 0
	ldr	r5, .L14
	ldr	r3, .L14+4
	mov	r2, r5
	mov	r0, r4
	str	r3, [sp]
	movs	r1, #2
	movw	r3, #1098
	bl	mbedtls_debug_print_msg
.LVL22:
	.loc 1 1100 0
	ldr	r1, [r4, #56]
	add	r0, sp, #20
	adds	r1, r1, #208
	bl	mbedtls_sha256_clone
.LVL23:
	.loc 1 1101 0
	mov	r1, r6
	add	r0, sp, #20
	bl	mbedtls_sha256_finish
.LVL24:
	.loc 1 1103 0
	movs	r1, #32
	ldr	r3, .L14+8
	mov	r2, r5
	mov	r0, r4
	str	r1, [sp, #8]
	str	r3, [sp]
	str	r6, [sp, #4]
	movw	r3, #1103
	movs	r1, #3
	bl	mbedtls_debug_print_buf
.LVL25:
	.loc 1 1104 0
	ldr	r3, .L14+12
	mov	r2, r5
	mov	r0, r4
	str	r3, [sp]
	movs	r1, #2
	mov	r3, #1104
	bl	mbedtls_debug_print_msg
.LVL26:
	.loc 1 1106 0
	add	r0, sp, #20
	bl	mbedtls_sha256_free
.LVL27:
	.loc 1 1109 0
	add	sp, sp, #128
	.cfi_def_cfa_offset 16
	@ sp needed
	pop	{r4, r5, r6, pc}
.LVL28:
.L15:
	.align	2
.L14:
	.word	.LC2
	.word	.LC7
	.word	.LC8
	.word	.LC9
	.cfi_endproc
.LFE591:
	.size	ssl_calc_verify_tls_sha256, .-ssl_calc_verify_tls_sha256
	.section	.text.tls_prf_generic,"ax",%progbits
	.align	1
	.p2align 2,,3
	.syntax unified
	.thumb
	.thumb_func
	.fpu softvfp
	.type	tls_prf_generic, %function
tls_prf_generic:
.LFB586:
	.loc 1 411 0
	.cfi_startproc
	@ args = 16, pretend = 0, frame = 224
	@ frame_needed = 0, uses_anonymous_args = 0
.LVL29:
	push	{r4, r5, r6, r7, r8, r9, r10, fp, lr}
	.cfi_def_cfa_offset 36
	.cfi_offset 4, -36
	.cfi_offset 5, -32
	.cfi_offset 6, -28
	.cfi_offset 7, -24
	.cfi_offset 8, -20
	.cfi_offset 9, -16
	.cfi_offset 10, -12
	.cfi_offset 11, -8
	.cfi_offset 14, -4
	mov	r4, r0
	sub	sp, sp, #228
	.cfi_def_cfa_offset 264
	.loc 1 420 0
	add	r0, sp, #20
.LVL30:
	.loc 1 411 0
	str	r1, [sp, #8]
	str	r2, [sp, #12]
	mov	r9, r3
	ldr	r8, [sp, #272]
	ldr	r6, [sp, #276]
	.loc 1 420 0
	bl	mbedtls_md_init
.LVL31:
	.loc 1 422 0
	mov	r0, r4
	bl	mbedtls_md_info_from_type
.LVL32:
	cmp	r0, #0
	beq	.L26
	mov	fp, r0
	.loc 1 425 0
	bl	mbedtls_md_get_size
.LVL33:
	mov	r5, r0
.LVL34:
	.loc 1 427 0
	mov	r0, r9
.LVL35:
	bl	strlen
.LVL36:
	ldr	r2, [sp, #268]
	adds	r3, r5, r0
	adds	r2, r3, r2
	cmp	r2, #128
	mov	r7, r0
	str	r3, [sp, #4]
	bhi	.L27
.LVL37:
	.loc 1 431 0
	add	r4, sp, #96
	add	r10, r4, r5
	mov	r1, r9
	mov	r2, r7
	mov	r0, r10
.LVL38:
	bl	memcpy
.LVL39:
	.loc 1 432 0
	ldr	r3, [sp, #4]
	ldr	r2, [sp, #268]
	ldr	r1, [sp, #264]
	adds	r0, r4, r3
	bl	memcpy
.LVL40:
	.loc 1 438 0
	mov	r1, fp
	movs	r2, #1
	add	r0, sp, #20
	bl	mbedtls_md_setup
.LVL41:
	str	r0, [sp, #4]
	cbz	r0, .L33
.LVL42:
.L16:
	.loc 1 467 0
	ldr	r0, [sp, #4]
	add	sp, sp, #228
	.cfi_remember_state
	.cfi_def_cfa_offset 36
	@ sp needed
	pop	{r4, r5, r6, r7, r8, r9, r10, fp, pc}
.LVL43:
.L33:
	.cfi_restore_state
	.loc 1 433 0
	ldr	r3, [sp, #268]
	.loc 1 441 0
	ldr	r2, [sp, #12]
	.loc 1 433 0
	add	r7, r7, r3
.LVL44:
	.loc 1 441 0
	ldr	r1, [sp, #8]
	add	r0, sp, #20
.LVL45:
	bl	mbedtls_md_hmac_starts
.LVL46:
	.loc 1 442 0
	mov	r1, r10
	mov	r2, r7
	add	r0, sp, #20
	bl	mbedtls_md_hmac_update
.LVL47:
	.loc 1 443 0
	mov	r1, r4
	add	r0, sp, #20
	bl	mbedtls_md_hmac_finish
.LVL48:
	.loc 1 445 0
	cmp	r6, #0
	beq	.L34
	mov	r9, r8
.LVL49:
	add	r7, r7, r5
	add	r10, sp, #32
	sub	fp, r5, r8
.LVL50:
.L22:
	.loc 1 447 0
	add	r0, sp, #20
	bl	mbedtls_md_hmac_reset
.LVL51:
	.loc 1 448 0
	mov	r2, r7
	mov	r1, r4
	add	r0, sp, #20
	bl	mbedtls_md_hmac_update
.LVL52:
	.loc 1 449 0
	mov	r1, r10
	add	r0, sp, #20
	bl	mbedtls_md_hmac_finish
.LVL53:
	.loc 1 451 0
	add	r0, sp, #20
	bl	mbedtls_md_hmac_reset
.LVL54:
	.loc 1 452 0
	mov	r2, r5
	mov	r1, r4
	add	r0, sp, #20
	bl	mbedtls_md_hmac_update
.LVL55:
	.loc 1 453 0
	mov	r1, r4
	add	r0, sp, #20
	bl	mbedtls_md_hmac_finish
.LVL56:
	.loc 1 455 0
	add	r3, fp, r9
	cmp	r6, r3
	itet	cc
	udivcc	r2, r6, r5
	movcs	r2, r5
	mlscc	r2, r5, r2, r6
.LVL57:
	.loc 1 457 0
	cbz	r2, .L24
	mov	r1, r10
	mov	r0, r9
	bl	memcpy
.LVL58:
.L24:
	add	r9, r9, r5
.LVL59:
	.loc 1 445 0
	sub	r3, r9, r8
	cmp	r6, r3
	bhi	.L22
.LVL60:
.L23:
	.loc 1 461 0
	add	r0, sp, #20
	bl	mbedtls_md_free
.LVL61:
.LBB148:
.LBB149:
	.loc 1 86 0
	mov	r3, r4
	movs	r2, #0
.LVL62:
.L19:
	strb	r2, [r3]
	add	r1, sp, #224
	adds	r3, r3, #1
.LVL63:
	cmp	r3, r1
	bne	.L19
	mov	r3, r10
.LVL64:
.LBE149:
.LBE148:
.LBB150:
.LBB151:
	movs	r2, #0
.L25:
.LVL65:
	strb	r2, [r3]
	adds	r3, r3, #1
.LVL66:
	cmp	r3, r4
	bne	.L25
.LBE151:
.LBE150:
	.loc 1 467 0
	ldr	r0, [sp, #4]
	add	sp, sp, #228
	.cfi_remember_state
	.cfi_def_cfa_offset 36
	@ sp needed
	pop	{r4, r5, r6, r7, r8, r9, r10, fp, pc}
.LVL67:
.L27:
	.cfi_restore_state
	.loc 1 428 0
	ldr	r3, .L35
	str	r3, [sp, #4]
	.loc 1 467 0
	ldr	r0, [sp, #4]
	add	sp, sp, #228
	.cfi_remember_state
	.cfi_def_cfa_offset 36
	@ sp needed
	pop	{r4, r5, r6, r7, r8, r9, r10, fp, pc}
.LVL68:
.L34:
	.cfi_restore_state
	add	r10, sp, #32
	b	.L23
.LVL69:
.L26:
	.loc 1 423 0
	ldr	r3, .L35+4
	str	r3, [sp, #4]
	b	.L16
.L36:
	.align	2
.L35:
	.word	-28928
	.word	-27648
	.cfi_endproc
.LFE586:
	.size	tls_prf_generic, .-tls_prf_generic
	.section	.text.tls_prf_sha256,"ax",%progbits
	.align	1
	.p2align 2,,3
	.syntax unified
	.thumb
	.thumb_func
	.fpu softvfp
	.type	tls_prf_sha256, %function
tls_prf_sha256:
.LFB587:
	.loc 1 474 0
	.cfi_startproc
	@ args = 12, pretend = 0, frame = 0
	@ frame_needed = 0, uses_anonymous_args = 0
.LVL70:
	push	{r4, r5, r6, lr}
	.cfi_def_cfa_offset 16
	.cfi_offset 4, -16
	.cfi_offset 5, -12
	.cfi_offset 6, -8
	.cfi_offset 14, -4
	sub	sp, sp, #16
	.cfi_def_cfa_offset 32
	.loc 1 474 0
	ldr	r6, [sp, #32]
	ldr	r5, [sp, #36]
	ldr	r4, [sp, #40]
	.loc 1 475 0
	stm	sp, {r3, r6}
	str	r5, [sp, #8]
	mov	r3, r2
.LVL71:
	str	r4, [sp, #12]
	mov	r2, r1
.LVL72:
	mov	r1, r0
.LVL73:
	movs	r0, #6
.LVL74:
	bl	tls_prf_generic
.LVL75:
	.loc 1 477 0
	add	sp, sp, #16
	.cfi_def_cfa_offset 16
	@ sp needed
	pop	{r4, r5, r6, pc}
	.cfi_endproc
.LFE587:
	.size	tls_prf_sha256, .-tls_prf_sha256
	.section	.text.tls_prf_sha384,"ax",%progbits
	.align	1
	.p2align 2,,3
	.syntax unified
	.thumb
	.thumb_func
	.fpu softvfp
	.type	tls_prf_sha384, %function
tls_prf_sha384:
.LFB588:
	.loc 1 485 0
	.cfi_startproc
	@ args = 12, pretend = 0, frame = 0
	@ frame_needed = 0, uses_anonymous_args = 0
.LVL76:
	push	{r4, r5, r6, lr}
	.cfi_def_cfa_offset 16
	.cfi_offset 4, -16
	.cfi_offset 5, -12
	.cfi_offset 6, -8
	.cfi_offset 14, -4
	sub	sp, sp, #16
	.cfi_def_cfa_offset 32
	.loc 1 485 0
	ldr	r6, [sp, #32]
	ldr	r5, [sp, #36]
	ldr	r4, [sp, #40]
	.loc 1 486 0
	stm	sp, {r3, r6}
	str	r5, [sp, #8]
	mov	r3, r2
.LVL77:
	str	r4, [sp, #12]
	mov	r2, r1
.LVL78:
	mov	r1, r0
.LVL79:
	movs	r0, #7
.LVL80:
	bl	tls_prf_generic
.LVL81:
	.loc 1 488 0
	add	sp, sp, #16
	.cfi_def_cfa_offset 16
	@ sp needed
	pop	{r4, r5, r6, pc}
	.cfi_endproc
.LFE588:
	.size	tls_prf_sha384, .-tls_prf_sha384
	.section	.text.tls1_prf,"ax",%progbits
	.align	1
	.p2align 2,,3
	.syntax unified
	.thumb
	.thumb_func
	.fpu softvfp
	.type	tls1_prf, %function
tls1_prf:
.LFB585:
	.loc 1 312 0
	.cfi_startproc
	@ args = 12, pretend = 0, frame = 184
	@ frame_needed = 0, uses_anonymous_args = 0
.LVL82:
	push	{r4, r5, r6, r7, r8, r9, r10, fp, lr}
	.cfi_def_cfa_offset 36
	.cfi_offset 4, -36
	.cfi_offset 5, -32
	.cfi_offset 6, -28
	.cfi_offset 7, -24
	.cfi_offset 8, -20
	.cfi_offset 9, -16
	.cfi_offset 10, -12
	.cfi_offset 11, -8
	.cfi_offset 14, -4
	mov	r7, r2
	sub	sp, sp, #188
	.cfi_def_cfa_offset 224
	.loc 1 312 0
	str	r0, [sp, #12]
	.loc 1 322 0
	add	r0, sp, #24
.LVL83:
	.loc 1 312 0
	mov	r6, r3
	str	r1, [sp, #16]
	ldr	r4, [sp, #224]
	ldr	r10, [sp, #228]
	ldr	r5, [sp, #232]
	.loc 1 322 0
	bl	mbedtls_md_init
.LVL84:
	.loc 1 324 0
	mov	r0, r7
	bl	strlen
.LVL85:
	add	r8, r0, r4
	add	r3, r8, #20
	cmp	r3, #128
	str	r3, [sp, #8]
	bhi	.L63
.LVL86:
	mov	fp, r0
.LVL87:
	.loc 1 332 0
	mov	r1, r7
	mov	r2, fp
	add	r0, sp, #76
.LVL88:
	bl	memcpy
.LVL89:
	add	r9, sp, #56
	.loc 1 333 0
	add	r0, fp, #20
	mov	r1, r6
	mov	r2, r4
	add	r0, r0, r9
	bl	memcpy
.LVL90:
	.loc 1 339 0
	movs	r0, #3
	bl	mbedtls_md_info_from_type
.LVL91:
	mov	r1, r0
	cmp	r0, #0
	beq	.L45
	.loc 1 342 0
	movs	r2, #1
	add	r0, sp, #24
.LVL92:
	bl	mbedtls_md_setup
.LVL93:
	str	r0, [sp, #4]
	cbz	r0, .L89
.LVL94:
.L41:
	.loc 1 402 0
	ldr	r0, [sp, #4]
	add	sp, sp, #188
	.cfi_remember_state
	.cfi_def_cfa_offset 36
	@ sp needed
	pop	{r4, r5, r6, r7, r8, r9, r10, fp, pc}
.LVL95:
.L89:
	.cfi_restore_state
	.loc 1 327 0
	ldr	r3, [sp, #16]
	.loc 1 345 0
	ldr	r1, [sp, #12]
	.loc 1 327 0
	adds	r3, r3, #1
	lsrs	r3, r3, #1
	.loc 1 345 0
	mov	r2, r3
	add	r0, sp, #24
.LVL96:
	.loc 1 327 0
	str	r3, [sp, #20]
	.loc 1 345 0
	bl	mbedtls_md_hmac_starts
.LVL97:
	.loc 1 346 0
	add	r1, sp, #76
	mov	r2, r8
	add	r0, sp, #24
	bl	mbedtls_md_hmac_update
.LVL98:
	.loc 1 347 0
	add	r1, sp, #60
	add	r0, sp, #24
	bl	mbedtls_md_hmac_finish
.LVL99:
	.loc 1 349 0
	cbz	r5, .L49
	.loc 1 359 0
	and	r3, r5, #15
	ldr	fp, [sp, #4]
	add	r7, r8, #16
.LVL100:
	str	r3, [sp, #4]
.LVL101:
	add	r4, sp, #36
.LVL102:
.L48:
	.loc 1 351 0
	add	r0, sp, #24
	bl	mbedtls_md_hmac_reset
.LVL103:
	.loc 1 352 0
	mov	r2, r7
	add	r1, sp, #60
	add	r0, sp, #24
	bl	mbedtls_md_hmac_update
.LVL104:
	.loc 1 353 0
	mov	r1, r4
	add	r0, sp, #24
	bl	mbedtls_md_hmac_finish
.LVL105:
	.loc 1 355 0
	add	r0, sp, #24
	bl	mbedtls_md_hmac_reset
.LVL106:
	.loc 1 356 0
	movs	r2, #16
	add	r1, sp, #60
	add	r0, sp, #24
	bl	mbedtls_md_hmac_update
.LVL107:
	.loc 1 359 0
	add	r6, fp, #16
	.loc 1 357 0
	add	r1, sp, #60
	add	r0, sp, #24
	bl	mbedtls_md_hmac_finish
.LVL108:
	.loc 1 359 0
	cmp	r5, r6
	it	cs
	movcs	r2, #16
	bcc	.L90
.L47:
.LVL109:
	.loc 1 362 0 discriminator 3
	cmp	r2, #0
	it	eq
	moveq	r2, #1
.LVL110:
	add	r0, r10, fp
	mov	r1, r4
	bl	memcpy
.LVL111:
.L50:
	.loc 1 349 0
	cmp	r5, r6
	mov	fp, r6
	bhi	.L48
.LVL112:
.L49:
	.loc 1 365 0
	add	r0, sp, #24
	bl	mbedtls_md_free
.LVL113:
	.loc 1 370 0
	movs	r0, #4
	bl	mbedtls_md_info_from_type
.LVL114:
	mov	r1, r0
	cmp	r0, #0
	beq	.L45
	.loc 1 373 0
	movs	r2, #1
	add	r0, sp, #24
.LVL115:
	bl	mbedtls_md_setup
.LVL116:
	str	r0, [sp, #4]
	cmp	r0, #0
	bne	.L41
	.loc 1 329 0
	ldr	r3, [sp, #20]
	ldr	r2, [sp, #16]
	.loc 1 376 0
	add	r0, sp, #24
.LVL117:
	.loc 1 329 0
	subs	r1, r2, r3
	.loc 1 376 0
	ldr	r2, [sp, #12]
	add	r2, r2, r1
	mov	r1, r2
	mov	r2, r3
	bl	mbedtls_md_hmac_starts
.LVL118:
	.loc 1 377 0
	add	r1, sp, #76
	mov	r2, r8
	add	r0, sp, #24
	bl	mbedtls_md_hmac_update
.LVL119:
	.loc 1 378 0
	mov	r1, r9
	add	r0, sp, #24
	bl	mbedtls_md_hmac_finish
.LVL120:
	.loc 1 380 0
	cmp	r5, #0
	beq	.L91
	.loc 1 390 0
	ldr	r3, .L93
	add	r4, sp, #36
	umull	r2, r3, r3, r5
	lsrs	r3, r3, #4
	add	r3, r3, r3, lsl #2
	sub	r3, r5, r3, lsl #2
	str	r3, [sp, #16]
.LVL121:
	subs	r3, r3, #4
	lsrs	r3, r3, #2
	adds	r3, r3, #1
	str	r3, [sp, #20]
	add	r3, r10, #4
	str	r4, [sp, #12]
.LVL122:
	mov	fp, r10
	mov	r4, r3
	ldr	r6, [sp, #4]
	add	r8, r10, #16
.LVL123:
	str	r5, [sp, #232]
.LVL124:
.L55:
	.loc 1 382 0
	add	r0, sp, #24
	bl	mbedtls_md_hmac_reset
.LVL125:
	.loc 1 383 0
	ldr	r2, [sp, #8]
	mov	r1, r9
	add	r0, sp, #24
	bl	mbedtls_md_hmac_update
.LVL126:
	.loc 1 384 0
	ldr	r1, [sp, #12]
	add	r0, sp, #24
	bl	mbedtls_md_hmac_finish
.LVL127:
	.loc 1 386 0
	add	r0, sp, #24
	bl	mbedtls_md_hmac_reset
.LVL128:
	.loc 1 387 0
	movs	r2, #20
	mov	r1, r9
	add	r0, sp, #24
	bl	mbedtls_md_hmac_update
.LVL129:
	.loc 1 388 0
	mov	r1, r9
	add	r0, sp, #24
	bl	mbedtls_md_hmac_finish
.LVL130:
	.loc 1 390 0
	ldr	r3, [sp, #232]
	add	r0, r6, #20
	cmp	r3, r0
	bcc	.L92
	movs	r2, #20
	movs	r5, #5
	mov	r3, r2
	mov	r7, r2
.L53:
.LVL131:
	.loc 1 393 0
	ldr	ip, [fp]	@ unaligned
	ldr	r1, [sp, #36]
	cmp	r5, #1
	eor	r1, ip, r1
	str	r1, [fp]	@ unaligned
	beq	.L58
	ldr	ip, [r4]	@ unaligned
	ldr	r1, [sp, #40]
	cmp	r5, #2
	eor	r1, ip, r1
	str	r1, [r4]	@ unaligned
	beq	.L58
	ldr	ip, [r8, #-8]	@ unaligned
	ldr	r1, [sp, #44]
	cmp	r5, #3
	eor	r1, ip, r1
	str	r1, [r8, #-8]	@ unaligned
	beq	.L58
	ldr	ip, [r8, #-4]	@ unaligned
	ldr	r1, [sp, #48]
	cmp	r5, #4
	eor	r1, ip, r1
	str	r1, [r8, #-4]	@ unaligned
	beq	.L58
	.loc 1 393 0 is_stmt 0 discriminator 3
	ldr	r5, [r8]	@ unaligned
	ldr	r1, [sp, #52]
	eors	r1, r1, r5
	str	r1, [r8]	@ unaligned
.L58:
	cmp	r7, r3
	beq	.L61
.L57:
.LVL132:
	.loc 1 393 0
	add	r1, sp, #184
	adds	r5, r3, r6
	add	r1, r1, r3
	ldrb	r7, [r10, r5]	@ zero_extendqisi2
	ldrb	ip, [r1, #-148]	@ zero_extendqisi2
	.loc 1 392 0 is_stmt 1
	adds	r1, r3, #1
.LVL133:
	.loc 1 393 0
	eor	r7, r7, ip
	.loc 1 392 0
	cmp	r1, r2
	.loc 1 393 0
	strb	r7, [r10, r5]
	.loc 1 392 0
	bcs	.L61
	.loc 1 393 0
	add	r7, sp, #184
	adds	r5, r1, r6
	add	r1, r1, r7
.LVL134:
	ldrb	r7, [r1, #-148]	@ zero_extendqisi2
	ldrb	r1, [r10, r5]	@ zero_extendqisi2
	.loc 1 392 0
	adds	r3, r3, #2
.LVL135:
	.loc 1 393 0
	eors	r1, r1, r7
	.loc 1 392 0
	cmp	r3, r2
	.loc 1 393 0
	strb	r1, [r10, r5]
.LVL136:
	.loc 1 392 0
	bcs	.L61
	.loc 1 393 0
	add	r2, sp, #184
.LVL137:
	add	r6, r6, r3
.LVL138:
	add	r3, r3, r2
.LVL139:
	ldrb	r3, [r3, #-148]	@ zero_extendqisi2
	ldrb	r2, [r10, r6]	@ zero_extendqisi2
	eors	r3, r3, r2
	strb	r3, [r10, r6]
.L61:
.LVL140:
	.loc 1 380 0
	ldr	r3, [sp, #232]
	mov	r6, r0
	cmp	r3, r0
	add	r8, r8, #20
	add	fp, fp, #20
	add	r4, r4, #20
	bhi	.L55
	ldr	r4, [sp, #12]
.LVL141:
.L56:
	.loc 1 396 0
	add	r0, sp, #24
	bl	mbedtls_md_free
.LVL142:
.LBB152:
.LBB153:
	.loc 1 86 0
	mov	r3, r9
	movs	r2, #0
.LVL143:
.L52:
	strb	r2, [r3]
	add	r1, sp, #184
	adds	r3, r3, #1
.LVL144:
	cmp	r3, r1
	bne	.L52
.LBE153:
.LBE152:
.LBB154:
.LBB155:
	movs	r3, #0
.LVL145:
.L62:
	strb	r3, [r4]
	adds	r4, r4, #1
.LVL146:
	cmp	r4, r9
	bne	.L62
.LBE155:
.LBE154:
	.loc 1 402 0
	ldr	r0, [sp, #4]
	add	sp, sp, #188
	.cfi_remember_state
	.cfi_def_cfa_offset 36
	@ sp needed
	pop	{r4, r5, r6, r7, r8, r9, r10, fp, pc}
.LVL147:
.L63:
	.cfi_restore_state
	.loc 1 325 0
	ldr	r3, .L93+4
	str	r3, [sp, #4]
	.loc 1 402 0
	ldr	r0, [sp, #4]
	add	sp, sp, #188
	.cfi_remember_state
	.cfi_def_cfa_offset 36
	@ sp needed
	pop	{r4, r5, r6, r7, r8, r9, r10, fp, pc}
.LVL148:
.L90:
	.cfi_restore_state
	.loc 1 361 0 discriminator 1
	ldr	r3, [sp, #4]
	mov	r2, r3
	cmp	r3, #0
	bne	.L47
	b	.L50
.LVL149:
.L45:
	.loc 1 340 0
	ldr	r3, .L93+8
	str	r3, [sp, #4]
	b	.L41
.LVL150:
.L92:
	.loc 1 392 0 discriminator 1
	ldr	r3, [sp, #16]
	cmp	r3, #0
	beq	.L61
	mov	r2, r3
.LVL151:
	mov	r7, r3
	ldr	r3, [sp, #20]
	cmp	r2, #3
	mov	r5, r3
	lsl	r3, r3, #2
	bhi	.L53
	.loc 1 392 0 is_stmt 0
	movs	r3, #0
	b	.L57
.LVL152:
.L91:
	add	r4, sp, #36
	b	.L56
.L94:
	.align	2
.L93:
	.word	-858993459
	.word	-28928
	.word	-27648
	.cfi_endproc
.LFE585:
	.size	tls1_prf, .-tls1_prf
	.section	.text.ssl_calc_finished_tls_sha384,"ax",%progbits
	.align	1
	.p2align 2,,3
	.syntax unified
	.thumb
	.thumb_func
	.fpu softvfp
	.type	ssl_calc_finished_tls_sha384, %function
ssl_calc_finished_tls_sha384:
.LFB619:
	.loc 1 5057 0 is_stmt 1
	.cfi_startproc
	@ args = 0, pretend = 0, frame = 264
	@ frame_needed = 0, uses_anonymous_args = 0
.LVL153:
	push	{r4, r5, r6, r7, r8, r9, lr}
	.cfi_def_cfa_offset 28
	.cfi_offset 4, -28
	.cfi_offset 5, -24
	.cfi_offset 6, -20
	.cfi_offset 7, -16
	.cfi_offset 8, -12
	.cfi_offset 9, -8
	.cfi_offset 14, -4
	.loc 1 5063 0
	ldr	r7, [r0, #52]
.LVL154:
	.loc 1 5057 0
	sub	sp, sp, #284
	.cfi_def_cfa_offset 312
	.loc 1 5057 0
	mov	r5, r0
	mov	r8, r1
	mov	r9, r2
	.loc 1 5064 0
	cmp	r7, #0
	beq	.L102
.L96:
	.loc 1 5067 0
	add	r4, sp, #64
	mov	r0, r4
.LVL155:
	bl	mbedtls_sha512_init
.LVL156:
	.loc 1 5069 0
	ldr	r2, .L103
	movw	r3, #5069
	str	r2, [sp]
	movs	r1, #2
	ldr	r2, .L103+4
	mov	r0, r5
	bl	mbedtls_debug_print_msg
.LVL157:
	.loc 1 5071 0
	ldr	r1, [r5, #56]
	mov	r0, r4
	add	r1, r1, #320
	bl	mbedtls_sha512_clone
.LVL158:
	.loc 1 5080 0
	movs	r1, #64
	ldr	r2, .L103+8
	add	r3, sp, #80
	stm	sp, {r2, r3}
	str	r1, [sp, #8]
	movw	r3, #5081
	ldr	r2, .L103+4
	movs	r1, #4
	mov	r0, r5
	bl	mbedtls_debug_print_buf
.LVL159:
	.loc 1 5084 0
	ldr	r6, .L103+12
	ldr	r2, .L103+16
	.loc 1 5088 0
	mov	r0, r4
	add	r1, sp, #16
	.loc 1 5084 0
	cmp	r9, #0
	it	ne
	movne	r6, r2
.LVL160:
	.loc 1 5088 0
	bl	mbedtls_sha512_finish
.LVL161:
	.loc 1 5090 0
	mov	r9, #12
.LVL162:
	movs	r1, #48
	ldr	r3, [r5, #56]
	stm	sp, {r1, r8, r9}
	mov	r2, r6
	add	r0, r7, #44
	ldr	r6, [r3, #548]
.LVL163:
	add	r3, sp, #16
	blx	r6
.LVL164:
	.loc 1 5093 0
	ldr	r3, .L103+20
	ldr	r2, .L103+4
	stm	sp, {r3, r8, r9}
	movs	r1, #3
	movw	r3, #5093
	mov	r0, r5
	bl	mbedtls_debug_print_buf
.LVL165:
	.loc 1 5095 0
	mov	r0, r4
	bl	mbedtls_sha512_free
.LVL166:
.LBB156:
.LBB157:
	.loc 1 86 0
	movs	r2, #0
	add	r3, sp, #16
.LVL167:
.L98:
	strb	r2, [r3]
	adds	r3, r3, #1
.LVL168:
	cmp	r3, r4
	bne	.L98
.LVL169:
.LBE157:
.LBE156:
	.loc 1 5099 0 discriminator 4
	ldr	r3, .L103+24
	mov	r0, r5
	str	r3, [sp]
	ldr	r2, .L103+4
	movw	r3, #5099
	movs	r1, #2
	bl	mbedtls_debug_print_msg
.LVL170:
	.loc 1 5100 0 discriminator 4
	add	sp, sp, #284
	.cfi_remember_state
	.cfi_def_cfa_offset 28
	@ sp needed
	pop	{r4, r5, r6, r7, r8, r9, pc}
.LVL171:
.L102:
	.cfi_restore_state
	.loc 1 5065 0
	ldr	r7, [r0, #48]
.LVL172:
	b	.L96
.L104:
	.align	2
.L103:
	.word	.LC10
	.word	.LC2
	.word	.LC11
	.word	.LC0
	.word	.LC1
	.word	.LC5
	.word	.LC6
	.cfi_endproc
.LFE619:
	.size	ssl_calc_finished_tls_sha384, .-ssl_calc_finished_tls_sha384
	.section	.text.ssl_calc_verify_tls_sha384,"ax",%progbits
	.align	1
	.p2align 2,,3
	.syntax unified
	.thumb
	.thumb_func
	.fpu softvfp
	.type	ssl_calc_verify_tls_sha384, %function
ssl_calc_verify_tls_sha384:
.LFB592:
	.loc 1 1114 0
	.cfi_startproc
	@ args = 0, pretend = 0, frame = 216
	@ frame_needed = 0, uses_anonymous_args = 0
.LVL173:
	push	{r4, r5, r6, lr}
	.cfi_def_cfa_offset 16
	.cfi_offset 4, -16
	.cfi_offset 5, -12
	.cfi_offset 6, -8
	.cfi_offset 14, -4
	mov	r4, r0
	mov	r6, r1
	sub	sp, sp, #232
	.cfi_def_cfa_offset 248
	.loc 1 1117 0
	add	r0, sp, #16
.LVL174:
	bl	mbedtls_sha512_init
.LVL175:
	.loc 1 1119 0
	ldr	r5, .L107
	ldr	r3, .L107+4
	mov	r2, r5
	mov	r0, r4
	str	r3, [sp]
	movs	r1, #2
	movw	r3, #1119
	bl	mbedtls_debug_print_msg
.LVL176:
	.loc 1 1121 0
	ldr	r1, [r4, #56]
	add	r0, sp, #16
	add	r1, r1, #320
	bl	mbedtls_sha512_clone
.LVL177:
	.loc 1 1122 0
	mov	r1, r6
	add	r0, sp, #16
	bl	mbedtls_sha512_finish
.LVL178:
	.loc 1 1124 0
	movs	r1, #48
	ldr	r3, .L107+8
	mov	r2, r5
	mov	r0, r4
	str	r1, [sp, #8]
	str	r3, [sp]
	str	r6, [sp, #4]
	movw	r3, #1124
	movs	r1, #3
	bl	mbedtls_debug_print_buf
.LVL179:
	.loc 1 1125 0
	ldr	r3, .L107+12
	mov	r2, r5
	mov	r0, r4
	str	r3, [sp]
	movs	r1, #2
	movw	r3, #1125
	bl	mbedtls_debug_print_msg
.LVL180:
	.loc 1 1127 0
	add	r0, sp, #16
	bl	mbedtls_sha512_free
.LVL181:
	.loc 1 1130 0
	add	sp, sp, #232
	.cfi_def_cfa_offset 16
	@ sp needed
	pop	{r4, r5, r6, pc}
.LVL182:
.L108:
	.align	2
.L107:
	.word	.LC2
	.word	.LC12
	.word	.LC8
	.word	.LC9
	.cfi_endproc
.LFE592:
	.size	ssl_calc_verify_tls_sha384, .-ssl_calc_verify_tls_sha384
	.section	.text.ssl_calc_finished_tls,"ax",%progbits
	.align	1
	.p2align 2,,3
	.syntax unified
	.thumb
	.thumb_func
	.fpu softvfp
	.type	ssl_calc_finished_tls, %function
ssl_calc_finished_tls:
.LFB617:
	.loc 1 4948 0
	.cfi_startproc
	@ args = 0, pretend = 0, frame = 216
	@ frame_needed = 0, uses_anonymous_args = 0
.LVL183:
	push	{r4, r5, r6, r7, r8, r9, lr}
	.cfi_def_cfa_offset 28
	.cfi_offset 4, -28
	.cfi_offset 5, -24
	.cfi_offset 6, -20
	.cfi_offset 7, -16
	.cfi_offset 8, -12
	.cfi_offset 9, -8
	.cfi_offset 14, -4
	.loc 1 4955 0
	ldr	r7, [r0, #52]
.LVL184:
	.loc 1 4948 0
	sub	sp, sp, #236
	.cfi_def_cfa_offset 264
	.loc 1 4948 0
	mov	r5, r0
	mov	r8, r1
	mov	r9, r2
	.loc 1 4956 0
	cmp	r7, #0
	beq	.L116
.L110:
	.loc 1 4959 0
	ldr	r2, .L117
.LVL185:
	movw	r3, #4959
	movs	r1, #2
.LVL186:
	.loc 1 4961 0
	add	r4, sp, #52
	.loc 1 4959 0
	str	r2, [sp]
	mov	r0, r5
.LVL187:
	ldr	r2, .L117+4
	bl	mbedtls_debug_print_msg
.LVL188:
	.loc 1 4961 0
	mov	r0, r4
	bl	mbedtls_md5_init
.LVL189:
	.loc 1 4962 0
	add	r0, sp, #140
	bl	mbedtls_sha1_init
.LVL190:
	.loc 1 4964 0
	ldr	r1, [r5, #56]
	mov	r0, r4
	adds	r1, r1, #28
	bl	mbedtls_md5_clone
.LVL191:
	.loc 1 4965 0
	ldr	r1, [r5, #56]
	add	r0, sp, #140
	adds	r1, r1, #116
	bl	mbedtls_sha1_clone
.LVL192:
	.loc 1 4974 0
	movs	r1, #16
	ldr	r2, .L117+8
	add	r3, sp, #60
	stm	sp, {r2, r3}
	str	r1, [sp, #8]
	movw	r3, #4975
	ldr	r2, .L117+4
	movs	r1, #4
	mov	r0, r5
	bl	mbedtls_debug_print_buf
.LVL193:
	.loc 1 4979 0
	movs	r1, #20
	ldr	r2, .L117+12
	add	r3, sp, #148
	stm	sp, {r2, r3}
	str	r1, [sp, #8]
	movw	r3, #4980
	ldr	r2, .L117+4
	movs	r1, #4
	mov	r0, r5
	bl	mbedtls_debug_print_buf
.LVL194:
	.loc 1 4983 0
	ldr	r6, .L117+16
	ldr	r2, .L117+20
	.loc 1 4987 0
	mov	r0, r4
	add	r1, sp, #16
	.loc 1 4983 0
	cmp	r9, #0
	it	ne
	movne	r6, r2
.LVL195:
	.loc 1 4987 0
	bl	mbedtls_md5_finish
.LVL196:
	.loc 1 4988 0
	add	r0, sp, #140
	add	r1, sp, #32
	bl	mbedtls_sha1_finish
.LVL197:
	.loc 1 4990 0
	mov	r9, #12
.LVL198:
	movs	r2, #36
	ldr	r3, [r5, #56]
	stm	sp, {r2, r8, r9}
	movs	r1, #48
	mov	r2, r6
	add	r0, r7, #44
	ldr	r6, [r3, #548]
.LVL199:
	add	r3, sp, #16
	blx	r6
.LVL200:
	.loc 1 4993 0
	ldr	r3, .L117+24
	ldr	r2, .L117+4
	movs	r1, #3
	stm	sp, {r3, r8, r9}
	mov	r0, r5
	movw	r3, #4993
	bl	mbedtls_debug_print_buf
.LVL201:
	.loc 1 4995 0
	mov	r0, r4
	bl	mbedtls_md5_free
.LVL202:
	.loc 1 4996 0
	add	r0, sp, #140
	bl	mbedtls_sha1_free
.LVL203:
.LBB158:
.LBB159:
	.loc 1 86 0
	movs	r2, #0
	add	r3, sp, #16
.LVL204:
.L112:
	strb	r2, [r3]
	adds	r3, r3, #1
.LVL205:
	cmp	r3, r4
	bne	.L112
.LVL206:
.LBE159:
.LBE158:
	.loc 1 5000 0 discriminator 4
	ldr	r3, .L117+28
	mov	r0, r5
	str	r3, [sp]
	ldr	r2, .L117+4
	movw	r3, #5000
	movs	r1, #2
	bl	mbedtls_debug_print_msg
.LVL207:
	.loc 1 5001 0 discriminator 4
	add	sp, sp, #236
	.cfi_remember_state
	.cfi_def_cfa_offset 28
	@ sp needed
	pop	{r4, r5, r6, r7, r8, r9, pc}
.LVL208:
.L116:
	.cfi_restore_state
	.loc 1 4957 0
	ldr	r7, [r0, #48]
.LVL209:
	b	.L110
.L118:
	.align	2
.L117:
	.word	.LC13
	.word	.LC2
	.word	.LC14
	.word	.LC15
	.word	.LC0
	.word	.LC1
	.word	.LC5
	.word	.LC6
	.cfi_endproc
.LFE617:
	.size	ssl_calc_finished_tls, .-ssl_calc_finished_tls
	.section	.text.ssl_calc_verify_tls,"ax",%progbits
	.align	1
	.p2align 2,,3
	.syntax unified
	.thumb
	.thumb_func
	.fpu softvfp
	.type	ssl_calc_verify_tls, %function
ssl_calc_verify_tls:
.LFB590:
	.loc 1 1065 0
	.cfi_startproc
	@ args = 0, pretend = 0, frame = 184
	@ frame_needed = 0, uses_anonymous_args = 0
.LVL210:
	push	{r4, r5, r6, lr}
	.cfi_def_cfa_offset 16
	.cfi_offset 4, -16
	.cfi_offset 5, -12
	.cfi_offset 6, -8
	.cfi_offset 14, -4
	mov	r4, r0
	mov	r6, r1
	.loc 1 1069 0
	ldr	r5, .L121
	ldr	r3, .L121+4
	.loc 1 1065 0
	sub	sp, sp, #200
	.cfi_def_cfa_offset 216
	.loc 1 1069 0
	mov	r2, r5
	movs	r1, #2
.LVL211:
	str	r3, [sp]
	movw	r3, #1069
	bl	mbedtls_debug_print_msg
.LVL212:
	.loc 1 1071 0
	add	r0, sp, #20
	bl	mbedtls_md5_init
.LVL213:
	.loc 1 1072 0
	add	r0, sp, #108
	bl	mbedtls_sha1_init
.LVL214:
	.loc 1 1074 0
	ldr	r1, [r4, #56]
	add	r0, sp, #20
	adds	r1, r1, #28
	bl	mbedtls_md5_clone
.LVL215:
	.loc 1 1075 0
	ldr	r1, [r4, #56]
	add	r0, sp, #108
	adds	r1, r1, #116
	bl	mbedtls_sha1_clone
.LVL216:
	.loc 1 1077 0
	mov	r1, r6
	add	r0, sp, #20
	bl	mbedtls_md5_finish
.LVL217:
	.loc 1 1078 0
	add	r1, r6, #16
	add	r0, sp, #108
	bl	mbedtls_sha1_finish
.LVL218:
	.loc 1 1080 0
	movs	r1, #36
	ldr	r3, .L121+8
	mov	r2, r5
	mov	r0, r4
	str	r1, [sp, #8]
	str	r3, [sp]
	str	r6, [sp, #4]
	mov	r3, #1080
	movs	r1, #3
	bl	mbedtls_debug_print_buf
.LVL219:
	.loc 1 1081 0
	ldr	r3, .L121+12
	mov	r2, r5
	movs	r1, #2
	mov	r0, r4
	str	r3, [sp]
	movw	r3, #1081
	bl	mbedtls_debug_print_msg
.LVL220:
	.loc 1 1083 0
	add	r0, sp, #20
	bl	mbedtls_md5_free
.LVL221:
	.loc 1 1084 0
	add	r0, sp, #108
	bl	mbedtls_sha1_free
.LVL222:
	.loc 1 1087 0
	add	sp, sp, #200
	.cfi_def_cfa_offset 16
	@ sp needed
	pop	{r4, r5, r6, pc}
.LVL223:
.L122:
	.align	2
.L121:
	.word	.LC2
	.word	.LC16
	.word	.LC8
	.word	.LC9
	.cfi_endproc
.LFE590:
	.size	ssl_calc_verify_tls, .-ssl_calc_verify_tls
	.section	.text.ssl_decrypt_buf,"ax",%progbits
	.align	1
	.p2align 2,,3
	.syntax unified
	.thumb
	.thumb_func
	.fpu softvfp
	.type	ssl_decrypt_buf, %function
ssl_decrypt_buf:
.LFB594:
	.loc 1 1620 0
	.cfi_startproc
	@ args = 0, pretend = 0, frame = 88
	@ frame_needed = 0, uses_anonymous_args = 0
.LVL224:
	push	{r4, r5, r6, r7, r8, r9, r10, fp, lr}
	.cfi_def_cfa_offset 36
	.cfi_offset 4, -36
	.cfi_offset 5, -32
	.cfi_offset 6, -28
	.cfi_offset 7, -24
	.cfi_offset 8, -20
	.cfi_offset 9, -16
	.cfi_offset 10, -12
	.cfi_offset 11, -8
	.cfi_offset 14, -4
	mov	r4, r0
	.loc 1 1628 0
	ldr	r2, .L277
	.loc 1 1620 0
	sub	sp, sp, #108
	.cfi_def_cfa_offset 144
	.loc 1 1628 0
	str	r2, [sp]
	movs	r1, #2
	movw	r3, #1628
	ldr	r2, .L277+4
	bl	mbedtls_debug_print_msg
.LVL225:
	.loc 1 1630 0
	ldr	r1, [r4, #40]
	cmp	r1, #0
	beq	.L124
	.loc 1 1630 0 discriminator 1
	ldr	r0, [r4, #60]
	cmp	r0, #0
	beq	.L124
.LVL226:
.LBB160:
.LBB161:
	.file 2 "../../../component/common/network/ssl/mbedtls-2.4.0/include/mbedtls/cipher.h"
	.loc 2 359 0
	ldr	r3, [r0, #144]
	.loc 2 359 0
	cmp	r3, #0
	beq	.L127
.LBE161:
.LBE160:
	.loc 1 1638 0
	ldr	r5, [r4, #120]
	ldr	r2, [r0, #8]
.LBB163:
.LBB162:
	.loc 2 362 0
	ldrb	r3, [r3, #1]	@ zero_extendqisi2
.LVL227:
.LBE162:
.LBE163:
	.loc 1 1638 0
	cmp	r5, r2
	bcc	.L179
	.loc 1 1646 0
	cmp	r3, #7
	beq	.L267
	.loc 1 1746 0
	cmp	r3, #2
	bne	.L134
.LVL228:
.LBB164:
	.loc 1 1756 0
	movs	r3, #0
	.loc 1 1762 0
	ldr	r2, [r4, #20]
	.loc 1 1756 0
	str	r3, [sp, #36]
	.loc 1 1762 0
	cmp	r2, #1
	.loc 1 1763 0
	itet	gt
	ldrgt	r3, [r0, #12]
.LVL229:
	ldrle	r2, [r0, #12]
	movgt	r2, r3
	.loc 1 1766 0
	adds	r6, r3, r2
	cmp	r5, r6
	ldr	r7, [r0, #20]
	bcc	.L138
	.loc 1 1767 0 discriminator 1
	adds	r6, r7, #1
	add	r3, r3, r6
.LVL230:
	.loc 1 1766 0 discriminator 1
	cmp	r5, r3
	bcc	.L138
.LVL231:
	.loc 1 1784 0
	ldr	r6, [r1, #120]
	.loc 1 1777 0
	ldr	r8, [r4, #108]
.LVL232:
	.loc 1 1784 0
	cmp	r6, #1
	beq	.L268
	mov	r3, r5
.LBE164:
	.loc 1 1623 0
	movs	r6, #0
.LVL233:
.L141:
.LBB173:
	.loc 1 1826 0
	udiv	r7, r3, r2
	mls	r7, r2, r7, r3
	cmp	r7, #0
	bne	.L269
	.loc 1 1837 0
	ldr	r1, [r4, #20]
	cmp	r1, #1
	ble	.L262
	.loc 1 1840 0
	subs	r3, r3, r2
	str	r3, [r4, #120]
	.loc 1 1839 0
	subs	r5, r5, r2
.LVL234:
	.loc 1 1842 0
	cmp	r2, #0
	beq	.L262
	ldr	r3, [r4, #104]
	add	r1, r0, #40
	add	lr, r3, #4
	add	ip, r0, #44
	cmp	r3, ip
	it	cc
	cmpcc	r1, lr
	bcc	.L151
	cmp	r2, #8
	bls	.L151
	.loc 1 1843 0
	ldr	lr, [r3]	@ unaligned
	sub	ip, r2, #4
	str	lr, [r0, #40]
	lsr	ip, ip, #2
	ldr	lr, [r3, #4]	@ unaligned
	add	ip, ip, #1
	cmp	ip, #2
	str	lr, [r0, #44]
	lsl	lr, ip, #2
.LVL235:
	beq	.L152
	ldr	r9, [r3, #8]	@ unaligned
	cmp	ip, #3
	str	r9, [r0, #48]
	beq	.L152
	.loc 1 1843 0 is_stmt 0 discriminator 3
	ldr	r9, [r3, #12]	@ unaligned
	str	r9, [r0, #52]
.L152:
	cmp	lr, r2
	beq	.L150
.LVL236:
	.loc 1 1843 0
	ldrb	r10, [r3, ip, lsl #2]	@ zero_extendqisi2
	.loc 1 1842 0 is_stmt 1
	add	ip, lr, #1
.LVL237:
	.loc 1 1843 0
	add	r9, r0, lr
	.loc 1 1842 0
	cmp	r2, ip
	.loc 1 1843 0
	strb	r10, [r9, #40]
	.loc 1 1842 0
	bls	.L150
	.loc 1 1843 0
	ldrb	r9, [r3, ip]	@ zero_extendqisi2
	.loc 1 1842 0
	add	lr, lr, #2
	.loc 1 1843 0
	add	ip, ip, r0
.LVL238:
	.loc 1 1842 0
	cmp	r2, lr
	.loc 1 1843 0
	strb	r9, [ip, #40]
.LVL239:
	.loc 1 1842 0
	bls	.L150
	.loc 1 1843 0
	ldrb	r3, [r3, lr]	@ zero_extendqisi2
	add	lr, lr, r0
	strb	r3, [lr, #40]
.LVL240:
.L150:
	.loc 1 1847 0
	add	ip, sp, #36
	stm	sp, {r5, r8}
	mov	r3, r8
	adds	r0, r0, #144
	str	ip, [sp, #8]
	bl	mbedtls_cipher_crypt
.LVL241:
	mov	r8, r0
.LVL242:
	cmp	r0, #0
	bne	.L270
	.loc 1 1857 0
	ldr	r3, [sp, #36]
	cmp	r5, r3
	beq	.L157
	.loc 1 1859 0
	ldr	r3, .L277+8
	mov	r0, r4
.LVL243:
	str	r3, [sp]
	ldr	r2, .L277+4
	movw	r3, #1859
	movs	r1, #1
	bl	mbedtls_debug_print_msg
.LVL244:
	.loc 1 1860 0
	ldr	r8, .L277+20
.LVL245:
	b	.L123
.LVL246:
.L138:
	.loc 1 1769 0
	ldr	r3, .L277+12
	str	r2, [sp, #8]
.LVL247:
	str	r3, [sp]
	str	r7, [sp, #12]
	str	r5, [sp, #4]
	mov	r0, r4
	movw	r3, #1772
	ldr	r2, .L277+4
	movs	r1, #1
	bl	mbedtls_debug_print_msg
.LVL248:
	.loc 1 1773 0
	ldr	r8, .L277+24
.LVL249:
.L123:
.LBE173:
	.loc 1 2125 0
	mov	r0, r8
	add	sp, sp, #108
	.cfi_remember_state
	.cfi_def_cfa_offset 36
	@ sp needed
	pop	{r4, r5, r6, r7, r8, r9, r10, fp, pc}
.LVL250:
.L127:
	.cfi_restore_state
	.loc 1 1638 0
	ldr	r2, [r0, #8]
	ldr	r5, [r4, #120]
	cmp	r5, r2
	bcc	.L179
.L134:
	.loc 1 1963 0
	ldr	r3, .L277+8
	mov	r0, r4
	str	r3, [sp]
	ldr	r2, .L277+4
	movw	r3, #1963
	movs	r1, #1
	bl	mbedtls_debug_print_msg
.LVL251:
	.loc 1 1964 0
	ldr	r8, .L277+20
	b	.L123
.LVL252:
.L269:
.LBB174:
	.loc 1 1828 0
	ldr	r1, .L277+16
	str	r2, [sp, #8]
	str	r3, [sp, #4]
	str	r1, [sp]
	mov	r0, r4
	movw	r3, #1829
	ldr	r2, .L277+4
	movs	r1, #1
	bl	mbedtls_debug_print_msg
.LVL253:
	.loc 1 1830 0
	ldr	r8, .L277+24
.LVL254:
	b	.L123
.LVL255:
.L267:
.LBE174:
.LBB175:
	.loc 1 1649 0
	movs	r3, #0
	add	r7, sp, #104
	str	r3, [r7, #-48]!
	.loc 1 1656 0
	ldr	r3, [r4, #108]
	.loc 1 1653 0
	ldr	r2, [r0, #12]
	add	r1, r0, #40
	str	r7, [sp, #8]
	str	r5, [sp]
	str	r3, [sp, #4]
	adds	r0, r0, #144
	bl	mbedtls_cipher_crypt
.LVL256:
	mov	r8, r0
	cmp	r0, #0
	bne	.L271
	.loc 1 1663 0
	ldr	r3, [r4, #120]
	ldr	r2, [sp, #56]
	cmp	r3, r2
	beq	.L132
	.loc 1 1665 0
	ldr	r3, .L277+8
	mov	r0, r4
.LVL257:
	str	r3, [sp]
	ldr	r2, .L277+4
	movw	r3, #1665
	movs	r1, #1
	bl	mbedtls_debug_print_msg
.LVL258:
	.loc 1 1666 0
	ldr	r8, .L277+20
.LVL259:
	b	.L123
.L278:
	.align	2
.L277:
	.word	.LC17
	.word	.LC2
	.word	.LC18
	.word	.LC22
	.word	.LC28
	.word	-27648
	.word	-29056
.LVL260:
.L157:
.LBE175:
.LBB176:
	.loc 1 1864 0
	ldr	r1, [r4, #20]
	cmp	r1, #1
	ble	.L272
.LVL261:
.L158:
	.loc 1 1875 0
	ldr	r8, [r4, #120]
.LVL262:
	ldr	r9, [r4, #108]
	add	r0, r8, #-1
	.loc 1 1877 0
	ldr	r3, [r4, #60]
	.loc 1 1875 0
	ldrb	r5, [r9, r0]	@ zero_extendqisi2
.LVL263:
	.loc 1 1877 0
	ldr	r3, [r3, #20]
	.loc 1 1875 0
	adds	r5, r5, #1
.LVL264:
	.loc 1 1877 0
	adds	r2, r5, r3
	cmp	r8, r2
	bcc	.L273
.LBE176:
	.loc 1 1625 0
	movs	r2, #1
.LVL265:
.L159:
.LBB177:
	.loc 1 1905 0
	cmp	r1, #0
	ble	.L160
.LVL266:
.LBB165:
	.loc 1 1911 0
	movs	r1, #1
	.loc 1 1924 0
	add	lr, r5, r1
	.loc 1 1928 0
	cmp	r8, lr
	.loc 1 1912 0
	sub	r0, r0, r5
.LVL267:
	.loc 1 1928 0
	add	r3, r3, #6144
	ite	cs
	movcs	lr, #1
	movcc	lr, #0
	cmp	r0, r3
	it	cs
	movcs	lr, #0
	.loc 1 1934 0
	mov	r3, r1
	movw	ip, #257
	.loc 1 1928 0
	and	lr, lr, r2
.LVL268:
	mla	r0, lr, r0, r9
.LVL269:
	add	r10, r5, #-1
.LVL270:
.L161:
	.loc 1 1938 0 discriminator 3
	ldrb	r2, [r0, #1]!	@ zero_extendqisi2
	.loc 1 1936 0 discriminator 3
	cmp	r5, r3
	ite	cc
	movcc	r1, #0
	andcs	r1, r1, #1
.LVL271:
	.loc 1 1938 0 discriminator 3
	sub	r2, r2, r10
	clz	r2, r2
	.loc 1 1934 0 discriminator 3
	adds	r3, r3, #1
.LVL272:
	.loc 1 1938 0 discriminator 3
	lsrs	r2, r2, #5
	.loc 1 1934 0 discriminator 3
	cmp	r3, ip
	.loc 1 1937 0 discriminator 3
	mla	r7, r1, r2, r7
.LVL273:
	.loc 1 1934 0 discriminator 3
	bne	.L161
	.loc 1 1941 0
	cmp	r5, r7
	ite	ne
	movne	r10, #0
	andeq	r10, lr, #1
.LVL274:
	.loc 1 1947 0
	lsl	r3, r10, #9
.LVL275:
	sub	r3, r3, r10
.LBE165:
.LBE177:
	.loc 1 1967 0
	ldr	r2, .L279
.LBB178:
.LBB166:
	.loc 1 1947 0
	ands	r5, r5, r3
.LVL276:
.LBE166:
	.loc 1 1957 0
	sub	r3, r8, r5
.LBE178:
	.loc 1 1967 0
	str	r9, [sp, #4]
	movs	r1, #4
.LVL277:
.LBB179:
	.loc 1 1957 0
	str	r3, [r4, #120]
.LBE179:
	.loc 1 1967 0
	mov	r0, r4
	str	r3, [sp, #8]
	str	r2, [sp]
	mov	r3, #1968
	ldr	r2, .L279+4
	bl	mbedtls_debug_print_buf
.LVL278:
	.loc 1 1975 0
	cmp	r6, #0
	beq	.L274
	ldr	r1, [r4, #120]
.LVL279:
.L175:
	.loc 1 2084 0
	cmp	r1, #0
	bne	.L176
	.loc 1 2086 0
	ldr	r3, [r4, #132]
	adds	r3, r3, #1
	.loc 1 2092 0
	cmp	r3, #3
	.loc 1 2086 0
	str	r3, [r4, #132]
	.loc 1 2092 0
	bgt	.L275
.L177:
.LVL280:
	.loc 1 2111 0
	ldr	r2, [r4, #92]
	ldrb	r3, [r2, #7]	@ zero_extendqisi2
	adds	r3, r3, #1
	uxtb	r3, r3
	strb	r3, [r2, #7]
	cmp	r3, #0
	bne	.L178
.LVL281:
	ldr	r2, [r4, #92]
	ldrb	r3, [r2, #6]	@ zero_extendqisi2
	adds	r3, r3, #1
	uxtb	r3, r3
	strb	r3, [r2, #6]
	cmp	r3, #0
	bne	.L178
.LVL282:
	ldr	r2, [r4, #92]
	ldrb	r3, [r2, #5]	@ zero_extendqisi2
	adds	r3, r3, #1
	uxtb	r3, r3
	strb	r3, [r2, #5]
	cmp	r3, #0
	bne	.L178
.LVL283:
	ldr	r2, [r4, #92]
	ldrb	r3, [r2, #4]	@ zero_extendqisi2
	adds	r3, r3, #1
	uxtb	r3, r3
	strb	r3, [r2, #4]
	cmp	r3, #0
	bne	.L178
.LVL284:
	ldr	r2, [r4, #92]
	ldrb	r3, [r2, #3]	@ zero_extendqisi2
	adds	r3, r3, #1
	uxtb	r3, r3
	strb	r3, [r2, #3]
	cmp	r3, #0
	bne	.L178
.LVL285:
	ldr	r2, [r4, #92]
	ldrb	r3, [r2, #2]	@ zero_extendqisi2
	adds	r3, r3, #1
	uxtb	r3, r3
	strb	r3, [r2, #2]
	cmp	r3, #0
	bne	.L178
.LVL286:
	ldr	r2, [r4, #92]
	ldrb	r3, [r2, #1]	@ zero_extendqisi2
	adds	r3, r3, #1
	uxtb	r3, r3
	strb	r3, [r2, #1]
	cmp	r3, #0
	bne	.L178
.LVL287:
	ldr	r2, [r4, #92]
	ldrb	r3, [r2]	@ zero_extendqisi2
	adds	r3, r3, #1
	uxtb	r3, r3
	strb	r3, [r2]
	cmp	r3, #0
	bne	.L178
.LVL288:
	.loc 1 2117 0 discriminator 1
	ldr	r3, .L279+8
	mov	r0, r4
	str	r3, [sp]
	ldr	r2, .L279+4
	movw	r3, #2117
	movs	r1, #1
	bl	mbedtls_debug_print_msg
.LVL289:
	.loc 1 2118 0 discriminator 1
	ldr	r8, .L279+28
	b	.L123
.LVL290:
.L262:
	add	r1, r0, #40
	b	.L150
.LVL291:
.L270:
.LBB180:
	.loc 1 1853 0
	ldr	r3, .L279+12
	str	r0, [sp, #4]
	str	r3, [sp]
	mov	r0, r4
.LVL292:
	movw	r3, #1853
	ldr	r2, .L279+4
	movs	r1, #1
	bl	mbedtls_debug_print_ret
.LVL293:
	.loc 1 1854 0
	b	.L123
.LVL294:
.L132:
.LBE180:
	.loc 1 1967 0
	ldr	r1, [r4, #108]
	ldr	r2, .L279
	str	r3, [sp, #8]
	str	r1, [sp, #4]
	str	r2, [sp]
	mov	r3, #1968
	ldr	r2, .L279+4
	movs	r1, #4
	mov	r0, r4
.LVL295:
.LBB181:
	.loc 1 1651 0
	mov	r5, r8
.LBE181:
	.loc 1 1967 0
	bl	mbedtls_debug_print_buf
.LVL296:
	.loc 1 1625 0
	mov	r10, #1
.LVL297:
.L133:
.LBB182:
	.loc 1 1979 0
	ldr	r2, [r4, #60]
	ldr	r3, [r4, #120]
	ldr	r1, [r2, #20]
	.loc 1 1981 0
	ldr	r2, [r4, #100]
	.loc 1 1979 0
	subs	r3, r3, r1
	.loc 1 1981 0
	lsrs	r1, r3, #8
	.loc 1 1979 0
	str	r3, [r4, #120]
	.loc 1 1981 0
	strb	r1, [r2]
	.loc 1 1982 0
	ldr	r3, [r4, #100]
	ldr	r2, [r4, #120]
	.loc 1 1984 0
	mov	r0, r7
	.loc 1 1982 0
	strb	r2, [r3, #1]
	.loc 1 1984 0
	ldr	r6, [r4, #120]
	ldr	r1, [r4, #108]
	ldr	r8, [r4, #60]
	add	r1, r1, r6
	ldr	r2, [r8, #20]
	bl	memcpy
.LVL298:
	.loc 1 1998 0
	ldr	r3, [r4, #20]
	cmp	r3, #0
	ble	.L163
.LVL299:
	adds	r6, r6, #21
.LBB183:
	.loc 1 2017 0
	lsl	r3, r10, #8
	.loc 1 2014 0
	add	r5, r5, r6
.LVL300:
	.loc 1 2026 0
	movs	r2, #8
	.loc 1 2015 0
	lsrs	r6, r6, #6
	.loc 1 2026 0
	ldr	r1, [r4, #92]
	add	r0, r8, #68
	.loc 1 2014 0
	rsb	r5, r6, r5, lsr #6
.LVL301:
	.loc 1 2017 0
	sub	r6, r3, r10
	.loc 1 2026 0
	bl	mbedtls_md_hmac_update
.LVL302:
	.loc 1 2027 0
	ldr	r0, [r4, #60]
	movs	r2, #3
	ldr	r1, [r4, #96]
	adds	r0, r0, #68
	bl	mbedtls_md_hmac_update
.LVL303:
	.loc 1 2028 0
	ldr	r0, [r4, #60]
	movs	r2, #2
	ldr	r1, [r4, #100]
	adds	r0, r0, #68
	bl	mbedtls_md_hmac_update
.LVL304:
	.loc 1 2029 0
	ldr	r0, [r4, #60]
	ldr	r2, [r4, #120]
	ldr	r1, [r4, #108]
	adds	r0, r0, #68
	bl	mbedtls_md_hmac_update
.LVL305:
	.loc 1 2031 0
	ldr	r1, [r4, #108]
	ldr	r3, [r4, #120]
	ldr	r0, [r4, #60]
	add	r1, r1, r3
	adds	r0, r0, #68
	.loc 1 2017 0
	ands	r6, r6, r5
.LVL306:
	.loc 1 2031 0
	bl	mbedtls_md_hmac_finish
.LVL307:
	.loc 1 2034 0
	movs	r5, #0
	adds	r6, r6, #1
.LVL308:
.L164:
	.loc 1 2035 0 discriminator 3
	ldr	r0, [r4, #60]
	.loc 1 2034 0 discriminator 3
	adds	r5, r5, #1
.LVL309:
	.loc 1 2035 0 discriminator 3
	adds	r0, r0, #68
	ldr	r1, [r4, #108]
	bl	mbedtls_md_process
.LVL310:
	.loc 1 2034 0 discriminator 3
	cmp	r6, r5
	bne	.L164
	.loc 1 2041 0
	ldr	r0, [r4, #60]
	adds	r0, r0, #68
	bl	mbedtls_md_hmac_reset
.LVL311:
.LBE183:
	.loc 1 2055 0
	ldr	r3, [r4, #60]
	ldr	r2, .L279+16
	ldr	r1, [r3, #20]
	mov	r0, r4
	movw	r3, #2055
	str	r1, [sp, #8]
	stm	sp, {r2, r7}
	movs	r1, #4
	ldr	r2, .L279+4
	bl	mbedtls_debug_print_buf
.LVL312:
	.loc 1 2056 0
	ldr	r2, [r4, #60]
	.loc 1 2056 0
	ldr	r0, [r4, #120]
	ldr	r3, [r4, #108]
	.loc 1 2056 0
	ldr	r1, [r2, #20]
	ldr	r2, .L279+20
	.loc 1 2056 0
	add	r3, r3, r0
	.loc 1 2056 0
	stm	sp, {r2, r3}
	str	r1, [sp, #8]
	movw	r3, #2057
	movs	r1, #4
	mov	r0, r4
	ldr	r2, .L279+4
	bl	mbedtls_debug_print_buf
.LVL313:
	.loc 1 2059 0
	ldr	r3, [r4, #60]
	ldr	r6, [r4, #108]
.LVL314:
	ldr	r0, [r3, #20]
	ldr	r1, [r4, #120]
.LVL315:
.LBB184:
.LBB185:
	.file 3 "../../../component/common/network/ssl/mbedtls-2.4.0/include/mbedtls/ssl_internal.h"
	.loc 3 499 0
	cmp	r0, #0
	beq	.L166
	subs	r2, r0, #4
	lsrs	r2, r2, #2
	subs	r5, r0, #1
.LVL316:
	adds	r2, r2, #1
	cmp	r5, #3
	lsl	r3, r2, #2
	bls	.L184
	mov	r8, #0
	adds	r5, r6, r1
.LVL317:
	mov	fp, r7
	mov	ip, r8
	mov	r9, r5
.LVL318:
.L169:
	.loc 3 500 0
	ldr	r7, [r9], #4	@ unaligned
	ldr	lr, [fp], #4
	add	r8, r8, #1
	eor	r7, r7, lr
	cmp	r8, r2
	orr	ip, r7, ip
	bcc	.L169
	ubfx	r2, ip, #8, #8
	orr	r2, ip, r2
	ubfx	r7, ip, #16, #8
	orrs	r2, r2, r7
	orr	r2, r2, ip, lsr #24
	cmp	r0, r3
	uxtb	r2, r2
	beq	.L172
.LVL319:
.L168:
	add	r7, sp, #104
	add	r7, r7, r3
	ldrb	lr, [r7, #-48]	@ zero_extendqisi2
	ldrb	ip, [r5, r3]	@ zero_extendqisi2
	.loc 3 499 0
	adds	r7, r3, #1
	.loc 3 500 0
	eor	ip, ip, lr
	.loc 3 499 0
	cmp	r7, r0
	.loc 3 500 0
	orr	r2, r2, ip
.LVL320:
	.loc 3 499 0
	bcs	.L172
	.loc 3 500 0
	add	lr, sp, #104
	add	ip, r6, r7
	add	r7, r7, lr
.LVL321:
	ldrb	lr, [r7, #-48]	@ zero_extendqisi2
	ldrb	ip, [ip, r1]	@ zero_extendqisi2
	.loc 3 499 0
	adds	r7, r3, #2
	.loc 3 500 0
	eor	ip, ip, lr
	orr	r2, r2, ip
.LVL322:
	.loc 3 499 0
	cmp	r7, r0
	.loc 3 500 0
	uxtb	r2, r2
.LVL323:
	.loc 3 499 0
	bcs	.L172
	.loc 3 500 0
	add	ip, sp, #104
	add	r6, r6, r7
.LVL324:
	add	r7, r7, ip
.LVL325:
	ldrb	r6, [r6, r1]	@ zero_extendqisi2
	ldrb	r7, [r7, #-48]	@ zero_extendqisi2
	.loc 3 499 0
	adds	r3, r3, #3
.LVL326:
	.loc 3 500 0
	eors	r6, r6, r7
	.loc 3 499 0
	cmp	r0, r3
	.loc 3 500 0
	orr	r2, r2, r6
.LVL327:
	.loc 3 499 0
	bls	.L172
	.loc 3 500 0
	add	r0, sp, #104
.LVL328:
	add	r0, r0, r3
	ldrb	r0, [r0, #-48]	@ zero_extendqisi2
	ldrb	r3, [r5, r3]	@ zero_extendqisi2
.LVL329:
	eors	r3, r3, r0
	orrs	r2, r2, r3
.LVL330:
.L172:
.LBE185:
.LBE184:
	.loc 1 2059 0
	cmp	r2, #0
	beq	.L166
.LVL331:
.L263:
.LBE182:
	.loc 1 2096 0
	ldr	r8, .L279+32
	b	.L123
.LVL332:
.L273:
	.loc 1 1625 0 discriminator 1
	cmp	r6, #0
	itet	eq
	moveq	r2, r6
	movne	r2, #1
	moveq	r5, r6
.LVL333:
.LBB188:
	b	.L159
.LVL334:
.L178:
.LBE188:
	.loc 1 2122 0
	ldr	r3, .L279+24
	mov	r0, r4
	str	r3, [sp]
	ldr	r2, .L279+4
	movw	r3, #2122
	movs	r1, #2
	bl	mbedtls_debug_print_msg
.LVL335:
	.loc 1 2124 0
	mov	r8, #0
	b	.L123
.LVL336:
.L176:
	.loc 1 2100 0
	movs	r3, #0
	str	r3, [r4, #132]
	b	.L177
.L280:
	.align	2
.L279:
	.word	.LC21
	.word	.LC2
	.word	.LC30
	.word	.LC20
	.word	.LC25
	.word	.LC26
	.word	.LC31
	.word	-27520
	.word	-29056
.LVL337:
.L268:
.LBB189:
.LBB167:
	.loc 1 1789 0
	ldr	r2, .L281
	.loc 1 1794 0
	add	r9, sp, #40
	.loc 1 1789 0
	movw	r3, #1789
	str	r2, [sp]
.LVL338:
	movs	r1, #3
	ldr	r2, .L281+4
	mov	r0, r4
	bl	mbedtls_debug_print_msg
.LVL339:
	.loc 1 1794 0
	mov	r3, r9
	.loc 1 1799 0
	mov	r10, #13
	.loc 1 1791 0
	ldr	r2, [r4, #60]
	.loc 1 1792 0
	ldr	r7, [r4, #120]
	.loc 1 1791 0
	ldr	fp, [r2, #20]
.LVL340:
	.loc 1 1794 0
	ldr	r2, [r4, #92]
	.loc 1 1792 0
	sub	r7, r7, fp
	str	r7, [r4, #120]
	.loc 1 1794 0
	ldr	r0, [r2]	@ unaligned
	ldr	r1, [r2, #4]	@ unaligned
	.loc 1 1795 0
	ldr	r2, [r4, #96]
	.loc 1 1794 0
	stmia	r3!, {r0, r1}
	.loc 1 1799 0
	ldr	r3, .L281+8
	.loc 1 1795 0
	ldrh	r0, [r2]	@ unaligned
	ldrb	r1, [r2, #2]	@ zero_extendqisi2
	.loc 1 1796 0
	lsr	ip, r7, #8
	.loc 1 1799 0
	stm	sp, {r3, r9, r10}
	.loc 1 1795 0
	strh	r0, [sp, #48]	@ unaligned
	.loc 1 1799 0
	movw	r3, #1799
	ldr	r2, .L281+4
	.loc 1 1795 0
	strb	r1, [sp, #50]
	.loc 1 1799 0
	mov	r0, r4
	movs	r1, #4
	.loc 1 1796 0
	strb	ip, [sp, #51]
	.loc 1 1797 0
	strb	r7, [sp, #52]
	.loc 1 1799 0
	bl	mbedtls_debug_print_buf
.LVL341:
	.loc 1 1801 0
	ldr	r0, [r4, #60]
	mov	r2, r10
	mov	r1, r9
	adds	r0, r0, #68
	bl	mbedtls_md_hmac_update
.LVL342:
	.loc 1 1802 0
	ldr	r0, [r4, #60]
	ldr	r2, [r4, #120]
	ldr	r1, [r4, #104]
	adds	r0, r0, #68
	bl	mbedtls_md_hmac_update
.LVL343:
	.loc 1 1804 0
	ldr	r0, [r4, #60]
	add	r7, sp, #56
	mov	r1, r7
	adds	r0, r0, #68
	bl	mbedtls_md_hmac_finish
.LVL344:
	.loc 1 1805 0
	ldr	r0, [r4, #60]
	adds	r0, r0, #68
	bl	mbedtls_md_hmac_reset
.LVL345:
	.loc 1 1807 0
	ldr	r2, [r4, #60]
	.loc 1 1807 0
	ldr	r0, [r4, #120]
	ldr	r3, [r4, #104]
	.loc 1 1807 0
	ldr	r1, [r2, #20]
	ldr	r2, .L281+12
	.loc 1 1807 0
	add	r3, r3, r0
	.loc 1 1807 0
	stm	sp, {r2, r3}
	str	r1, [sp, #8]
	mov	r3, #1808
	ldr	r2, .L281+4
	movs	r1, #4
	mov	r0, r4
	bl	mbedtls_debug_print_buf
.LVL346:
	.loc 1 1809 0
	ldr	r3, [r4, #60]
	ldr	r2, .L281+16
	ldr	r1, [r3, #20]
	mov	r0, r4
	movw	r3, #1810
	str	r1, [sp, #8]
	stm	sp, {r2, r7}
	movs	r1, #4
	ldr	r2, .L281+4
	bl	mbedtls_debug_print_buf
.LVL347:
	.loc 1 1813 0
	ldr	r0, [r4, #60]
	.loc 1 1812 0
	ldr	lr, [r4, #104]
	ldr	r1, [r0, #20]
	ldr	r3, [r4, #120]
.LVL348:
.LBB168:
.LBB169:
	.loc 3 499 0
	cmp	r1, #0
	beq	.L142
	sub	ip, r1, #4
	lsr	ip, ip, #2
	add	r9, r1, #-1
	add	ip, ip, #1
	cmp	r9, #3
	lsl	r2, ip, #2
	bls	.L181
	mov	r10, #0
	str	r7, [sp, #20]
	mov	r7, r10
.LVL349:
	add	lr, lr, r3
.LVL350:
	str	lr, [sp, #16]
	str	r6, [sp, #24]
	str	r3, [sp, #28]
.LVL351:
.L144:
	.loc 3 500 0
	ldr	r3, [sp, #16]
	add	r10, r10, #1
	ldr	r6, [r3], #4	@ unaligned
	cmp	ip, r10
	str	r3, [sp, #16]
	ldr	r3, [sp, #20]
	ldr	r9, [r3], #4
	eor	r6, r6, r9
	str	r3, [sp, #20]
	orr	r7, r7, r6
	bhi	.L144
	ubfx	ip, r7, #8, #8
	orr	ip, r7, ip
	ubfx	r9, r7, #16, #8
	orr	ip, ip, r9
	orr	r7, ip, r7, lsr #24
	cmp	r1, r2
	ldr	r6, [sp, #24]
	ldr	r3, [sp, #28]
	uxtb	r7, r7
	beq	.L147
.L143:
.LVL352:
	add	ip, sp, #104
	add	ip, ip, r2
	ldrb	r10, [ip, #-48]	@ zero_extendqisi2
	ldrb	r9, [lr, r2]	@ zero_extendqisi2
	.loc 3 499 0
	add	ip, r2, #1
	.loc 3 500 0
	eor	r9, r9, r10
	.loc 3 499 0
	cmp	r1, ip
	.loc 3 500 0
	orr	r7, r7, r9
.LVL353:
	.loc 3 499 0
	bls	.L147
	.loc 3 500 0
	add	r9, sp, #104
	add	r9, r9, ip
	ldrb	r10, [r9, #-48]	@ zero_extendqisi2
	ldrb	ip, [lr, ip]	@ zero_extendqisi2
.LVL354:
	.loc 3 499 0
	add	r9, r2, #2
	.loc 3 500 0
	eor	ip, ip, r10
	orr	r7, r7, ip
.LVL355:
	.loc 3 499 0
	cmp	r1, r9
	.loc 3 500 0
	uxtb	r7, r7
.LVL356:
	.loc 3 499 0
	bls	.L147
	.loc 3 500 0
	add	ip, sp, #104
	add	ip, ip, r9
	ldrb	ip, [ip, #-48]	@ zero_extendqisi2
	ldrb	r9, [lr, r9]	@ zero_extendqisi2
.LVL357:
	.loc 3 499 0
	adds	r2, r2, #3
.LVL358:
	.loc 3 500 0
	eor	ip, r9, ip
	.loc 3 499 0
	cmp	r1, r2
	.loc 3 500 0
	orr	r7, r7, ip
.LVL359:
	.loc 3 499 0
	bls	.L147
	.loc 3 500 0
	add	r1, sp, #104
.LVL360:
	add	r1, r1, r2
	ldrb	r1, [r1, #-48]	@ zero_extendqisi2
	ldrb	r2, [lr, r2]	@ zero_extendqisi2
.LVL361:
	eors	r2, r2, r1
	orrs	r7, r7, r2
.LVL362:
.L147:
.LBE169:
.LBE168:
	.loc 1 1812 0
	cmp	r7, #0
	bne	.L276
.L142:
	.loc 1 1791 0
	sub	r5, r5, fp
.LVL363:
	ldr	r2, [r0, #12]
	b	.L141
.LVL364:
.L271:
.LBE167:
.LBE189:
.LBB190:
	.loc 1 1659 0
	ldr	r3, .L281+20
	str	r0, [sp, #4]
	str	r3, [sp]
	mov	r0, r4
.LVL365:
	movw	r3, #1659
	ldr	r2, .L281+4
	movs	r1, #1
	bl	mbedtls_debug_print_ret
.LVL366:
	.loc 1 1660 0
	b	.L123
.LVL367:
.L151:
.LBE190:
.LBB191:
	.loc 1 1843 0
	ldrb	ip, [r3]	@ zero_extendqisi2
	.loc 1 1842 0
	cmp	r2, #1
	.loc 1 1843 0
	strb	ip, [r0, #40]
.LVL368:
	.loc 1 1842 0
	bls	.L150
	.loc 1 1843 0
	ldrb	ip, [r3, #1]	@ zero_extendqisi2
	.loc 1 1842 0
	cmp	r2, #2
	.loc 1 1843 0
	strb	ip, [r0, #41]
.LVL369:
	.loc 1 1842 0
	beq	.L150
	.loc 1 1843 0
	ldrb	ip, [r3, #2]	@ zero_extendqisi2
	.loc 1 1842 0
	cmp	r2, #3
	.loc 1 1843 0
	strb	ip, [r0, #42]
.LVL370:
	.loc 1 1842 0
	beq	.L150
	.loc 1 1843 0
	ldrb	ip, [r3, #3]	@ zero_extendqisi2
	.loc 1 1842 0
	cmp	r2, #4
	.loc 1 1843 0
	strb	ip, [r0, #43]
.LVL371:
	.loc 1 1842 0
	beq	.L150
	.loc 1 1843 0
	ldrb	ip, [r3, #4]	@ zero_extendqisi2
	.loc 1 1842 0
	cmp	r2, #5
	.loc 1 1843 0
	strb	ip, [r0, #44]
.LVL372:
	.loc 1 1842 0
	beq	.L150
	.loc 1 1843 0
	ldrb	ip, [r3, #5]	@ zero_extendqisi2
	.loc 1 1842 0
	cmp	r2, #6
	.loc 1 1843 0
	strb	ip, [r0, #45]
.LVL373:
	.loc 1 1842 0
	beq	.L150
	.loc 1 1843 0
	ldrb	ip, [r3, #6]	@ zero_extendqisi2
	.loc 1 1842 0
	cmp	r2, #7
	.loc 1 1843 0
	strb	ip, [r0, #46]
.LVL374:
	.loc 1 1842 0
	beq	.L150
	.loc 1 1843 0
	ldrb	ip, [r3, #7]	@ zero_extendqisi2
	.loc 1 1842 0
	cmp	r2, #8
	.loc 1 1843 0
	strb	ip, [r0, #47]
.LVL375:
	.loc 1 1842 0
	bls	.L150
	.loc 1 1843 0
	ldrb	ip, [r3, #8]	@ zero_extendqisi2
	.loc 1 1842 0
	cmp	r2, #9
	.loc 1 1843 0
	strb	ip, [r0, #48]
.LVL376:
	.loc 1 1842 0
	bls	.L150
	.loc 1 1843 0
	ldrb	ip, [r3, #9]	@ zero_extendqisi2
	.loc 1 1842 0
	cmp	r2, #10
	.loc 1 1843 0
	strb	ip, [r0, #49]
.LVL377:
	.loc 1 1842 0
	beq	.L150
	.loc 1 1843 0
	ldrb	ip, [r3, #10]	@ zero_extendqisi2
	.loc 1 1842 0
	cmp	r2, #11
	.loc 1 1843 0
	strb	ip, [r0, #50]
.LVL378:
	.loc 1 1842 0
	beq	.L150
	.loc 1 1843 0
	ldrb	ip, [r3, #11]	@ zero_extendqisi2
	.loc 1 1842 0
	cmp	r2, #12
	.loc 1 1843 0
	strb	ip, [r0, #51]
.LVL379:
	.loc 1 1842 0
	beq	.L150
	.loc 1 1843 0
	ldrb	ip, [r3, #12]	@ zero_extendqisi2
	.loc 1 1842 0
	cmp	r2, #13
	.loc 1 1843 0
	strb	ip, [r0, #52]
.LVL380:
	.loc 1 1842 0
	beq	.L150
	.loc 1 1843 0
	ldrb	ip, [r3, #13]	@ zero_extendqisi2
	.loc 1 1842 0
	cmp	r2, #14
	.loc 1 1843 0
	strb	ip, [r0, #53]
.LVL381:
	.loc 1 1842 0
	beq	.L150
	.loc 1 1843 0
	ldrb	ip, [r3, #14]	@ zero_extendqisi2
	.loc 1 1842 0
	cmp	r2, #15
	.loc 1 1843 0
	strb	ip, [r0, #54]
.LVL382:
	itt	ne
	ldrbne	r3, [r3, #15]	@ zero_extendqisi2
	strbne	r3, [r0, #55]
.LVL383:
	b	.L150
.LVL384:
.L179:
.LBE191:
	.loc 1 1640 0
	ldr	r3, .L281+24
	str	r2, [sp, #8]
	str	r3, [sp]
	str	r5, [sp, #4]
	mov	r0, r4
	movw	r3, #1641
	ldr	r2, .L281+4
	movs	r1, #1
	bl	mbedtls_debug_print_msg
.LVL385:
	.loc 1 1642 0
	ldr	r8, .L281+36
	b	.L123
.LVL386:
.L181:
.LBB192:
.LBB172:
.LBB171:
.LBB170:
	.loc 3 499 0
	movs	r7, #0
.LVL387:
	add	lr, lr, r3
.LVL388:
	mov	r2, r7
	b	.L143
.LVL389:
.L276:
.LBE170:
.LBE171:
	.loc 1 1815 0
	ldr	r3, .L281+28
	mov	r0, r4
	str	r3, [sp]
.LVL390:
	ldr	r2, .L281+4
	movw	r3, #1815
	movs	r1, #1
	bl	mbedtls_debug_print_msg
.LVL391:
	.loc 1 1817 0
	ldr	r8, .L281+36
.LVL392:
	b	.L123
.LVL393:
.L166:
.LBE172:
.LBE192:
.LBB193:
	.loc 1 2072 0
	cmp	r10, #0
	bne	.L175
	b	.L263
.LVL394:
.L124:
.LBE193:
	.loc 1 1632 0
	ldr	r3, .L281+32
	mov	r0, r4
	str	r3, [sp]
	ldr	r2, .L281+4
	mov	r3, #1632
	movs	r1, #1
	bl	mbedtls_debug_print_msg
.LVL395:
	.loc 1 1633 0
	ldr	r8, .L281+40
	b	.L123
.LVL396:
.L160:
.LBB194:
	.loc 1 1953 0
	ldr	r3, .L281+32
	mov	r0, r4
	str	r3, [sp]
	ldr	r2, .L281+4
.LVL397:
	movw	r3, #1953
	movs	r1, #1
	bl	mbedtls_debug_print_msg
.LVL398:
	.loc 1 1954 0
	ldr	r8, .L281+40
	b	.L123
.LVL399:
.L272:
	.loc 1 1869 0
	ldr	r0, [r4, #60]
.LVL400:
	add	r1, r0, #184
	ldr	r2, [r0, #12]
	adds	r0, r0, #40
	bl	memcpy
.LVL401:
	ldr	r1, [r4, #20]
	b	.L158
.L282:
	.align	2
.L281:
	.word	.LC23
	.word	.LC2
	.word	.LC24
	.word	.LC25
	.word	.LC26
	.word	.LC20
	.word	.LC19
	.word	.LC27
	.word	.LC18
	.word	-29056
	.word	-27648
.LVL402:
.L163:
.LBE194:
.LBB195:
	.loc 1 2051 0
	ldr	r3, .L283
	mov	r0, r4
	str	r3, [sp]
	ldr	r2, .L283+4
	movw	r3, #2051
	movs	r1, #1
	bl	mbedtls_debug_print_msg
.LVL403:
	.loc 1 2052 0
	ldr	r8, .L283+12
	b	.L123
.LVL404:
.L184:
.LBB187:
.LBB186:
	.loc 3 499 0
	movs	r2, #0
	adds	r5, r6, r1
	mov	r3, r2
	b	.L168
.LVL405:
.L275:
.LBE186:
.LBE187:
.LBE195:
	.loc 1 2094 0
	ldr	r3, .L283+8
	mov	r0, r4
	str	r3, [sp]
	ldr	r2, .L283+4
	movw	r3, #2095
	movs	r1, #1
	bl	mbedtls_debug_print_msg
.LVL406:
	b	.L263
.LVL407:
.L274:
	add	r7, sp, #56
.LVL408:
	b	.L133
.L284:
	.align	2
.L283:
	.word	.LC18
	.word	.LC2
	.word	.LC29
	.word	-27648
	.cfi_endproc
.LFE594:
	.size	ssl_decrypt_buf, .-ssl_decrypt_buf
	.section	.text.ssl_update_checksum_sha256,"ax",%progbits
	.align	1
	.p2align 2,,3
	.syntax unified
	.thumb
	.thumb_func
	.fpu softvfp
	.type	ssl_update_checksum_sha256, %function
ssl_update_checksum_sha256:
.LFB615:
	.loc 1 4846 0
	.cfi_startproc
	@ args = 0, pretend = 0, frame = 0
	@ frame_needed = 0, uses_anonymous_args = 0
	@ link register save eliminated.
.LVL409:
	.loc 1 4847 0
	ldr	r0, [r0, #56]
.LVL410:
	adds	r0, r0, #208
	b	mbedtls_sha256_update
.LVL411:
	.cfi_endproc
.LFE615:
	.size	ssl_update_checksum_sha256, .-ssl_update_checksum_sha256
	.section	.text.ssl_update_checksum_sha384,"ax",%progbits
	.align	1
	.p2align 2,,3
	.syntax unified
	.thumb
	.thumb_func
	.fpu softvfp
	.type	ssl_update_checksum_sha384, %function
ssl_update_checksum_sha384:
.LFB616:
	.loc 1 4854 0
	.cfi_startproc
	@ args = 0, pretend = 0, frame = 0
	@ frame_needed = 0, uses_anonymous_args = 0
	@ link register save eliminated.
.LVL412:
	.loc 1 4855 0
	ldr	r0, [r0, #56]
.LVL413:
	add	r0, r0, #320
	b	mbedtls_sha512_update
.LVL414:
	.cfi_endproc
.LFE616:
	.size	ssl_update_checksum_sha384, .-ssl_update_checksum_sha384
	.section	.text.ssl_update_checksum_md5sha1,"ax",%progbits
	.align	1
	.p2align 2,,3
	.syntax unified
	.thumb
	.thumb_func
	.fpu softvfp
	.type	ssl_update_checksum_md5sha1, %function
ssl_update_checksum_md5sha1:
.LFB614:
	.loc 1 4836 0
	.cfi_startproc
	@ args = 0, pretend = 0, frame = 0
	@ frame_needed = 0, uses_anonymous_args = 0
.LVL415:
	push	{r4, r5, r6, lr}
	.cfi_def_cfa_offset 16
	.cfi_offset 4, -16
	.cfi_offset 5, -12
	.cfi_offset 6, -8
	.cfi_offset 14, -4
	.loc 1 4836 0
	mov	r4, r0
	mov	r5, r1
	mov	r6, r2
	.loc 1 4837 0
	ldr	r0, [r0, #56]
.LVL416:
	adds	r0, r0, #28
	bl	mbedtls_md5_update
.LVL417:
	.loc 1 4838 0
	ldr	r0, [r4, #56]
	mov	r2, r6
	mov	r1, r5
	.loc 1 4839 0
	pop	{r4, r5, r6, lr}
	.cfi_restore 14
	.cfi_restore 6
	.cfi_restore 5
	.cfi_restore 4
	.cfi_def_cfa_offset 0
.LVL418:
	.loc 1 4838 0
	adds	r0, r0, #116
	b	mbedtls_sha1_update
.LVL419:
	.cfi_endproc
.LFE614:
	.size	ssl_update_checksum_md5sha1, .-ssl_update_checksum_md5sha1
	.section	.text.ssl_update_checksum_start,"ax",%progbits
	.align	1
	.p2align 2,,3
	.syntax unified
	.thumb
	.thumb_func
	.fpu softvfp
	.type	ssl_update_checksum_start, %function
ssl_update_checksum_start:
.LFB613:
	.loc 1 4816 0
	.cfi_startproc
	@ args = 0, pretend = 0, frame = 0
	@ frame_needed = 0, uses_anonymous_args = 0
.LVL420:
	push	{r4, r5, r6, lr}
	.cfi_def_cfa_offset 16
	.cfi_offset 4, -16
	.cfi_offset 5, -12
	.cfi_offset 6, -8
	.cfi_offset 14, -4
	.loc 1 4816 0
	mov	r4, r0
	mov	r5, r1
	mov	r6, r2
	.loc 1 4819 0
	ldr	r0, [r0, #56]
.LVL421:
	adds	r0, r0, #28
	bl	mbedtls_md5_update
.LVL422:
	.loc 1 4820 0
	ldr	r0, [r4, #56]
	mov	r2, r6
	mov	r1, r5
	adds	r0, r0, #116
	bl	mbedtls_sha1_update
.LVL423:
	.loc 1 4824 0
	ldr	r0, [r4, #56]
	mov	r2, r6
	mov	r1, r5
	adds	r0, r0, #208
	bl	mbedtls_sha256_update
.LVL424:
	.loc 1 4827 0
	ldr	r0, [r4, #56]
	mov	r2, r6
	mov	r1, r5
	.loc 1 4830 0
	pop	{r4, r5, r6, lr}
	.cfi_restore 14
	.cfi_restore 6
	.cfi_restore 5
	.cfi_restore 4
	.cfi_def_cfa_offset 0
.LVL425:
	.loc 1 4827 0
	add	r0, r0, #320
	b	mbedtls_sha512_update
.LVL426:
	.cfi_endproc
.LFE613:
	.size	ssl_update_checksum_start, .-ssl_update_checksum_start
	.section	.text.ssl_handshake_init,"ax",%progbits
	.align	1
	.p2align 2,,3
	.syntax unified
	.thumb
	.thumb_func
	.fpu softvfp
	.type	ssl_handshake_init, %function
ssl_handshake_init:
.LFB627:
	.loc 1 5449 0
	.cfi_startproc
	@ args = 0, pretend = 0, frame = 0
	@ frame_needed = 0, uses_anonymous_args = 0
.LVL427:
	push	{r4, r5, r6, r7, lr}
	.cfi_def_cfa_offset 20
	.cfi_offset 4, -20
	.cfi_offset 5, -16
	.cfi_offset 6, -12
	.cfi_offset 7, -8
	.cfi_offset 14, -4
	.loc 1 5451 0
	ldr	r4, [r0, #72]
	.loc 1 5449 0
	sub	sp, sp, #12
	.cfi_def_cfa_offset 32
	.loc 1 5449 0
	mov	r5, r0
	.loc 1 5451 0
	cbz	r4, .L296
.LVL428:
.LBB219:
.LBB220:
	.loc 1 7155 0
	add	r0, r4, #80
.LVL429:
	bl	mbedtls_cipher_free
.LVL430:
	.loc 1 7156 0
	add	r0, r4, #144
	bl	mbedtls_cipher_free
.LVL431:
	.loc 1 7158 0
	add	r0, r4, #56
	bl	mbedtls_md_free
.LVL432:
	.loc 1 7159 0
	add	r0, r4, #68
	bl	mbedtls_md_free
.LVL433:
	mov	r3, r4
.LBB221:
.LBB222:
.LBB223:
	.loc 1 86 0
	movs	r1, #0
	add	r2, r4, #208
.LVL434:
.L295:
	strb	r1, [r3]
	adds	r3, r3, #1
.LVL435:
	cmp	r3, r2
	bne	.L295
.LVL436:
.L296:
.LBE223:
.LBE222:
.LBE221:
.LBE220:
.LBE219:
	.loc 1 5453 0
	ldr	r4, [r5, #52]
	cbz	r4, .L294
.LVL437:
.LBB224:
.LBB225:
	.loc 1 7260 0
	ldr	r0, [r4, #92]
	.loc 1 7263 0
	ldr	r7, .L331
	.loc 1 7260 0
	cbz	r0, .L299
	.loc 1 7262 0
	bl	mbedtls_x509_crt_free
.LVL438:
	.loc 1 7263 0
	ldr	r3, [r7]
	ldr	r0, [r4, #92]
	blx	r3
.LVL439:
.L299:
	.loc 1 7268 0
	ldr	r3, [r7]
	ldr	r0, [r4, #100]
	blx	r3
.LVL440:
	mov	r3, r4
.LBB226:
.LBB227:
.LBB228:
	.loc 1 86 0
	movs	r1, #0
	add	r2, r4, #124
.LVL441:
.L300:
	strb	r1, [r3]
	adds	r3, r3, #1
.LVL442:
	cmp	r3, r2
	bne	.L300
.LVL443:
.L294:
.LBE228:
.LBE227:
.LBE226:
.LBE225:
.LBE224:
	.loc 1 5455 0
	ldr	r4, [r5, #56]
	cbz	r4, .L298
.LVL444:
.LBB230:
.LBB231:
	.loc 1 7185 0
	add	r0, r4, #28
	bl	mbedtls_md5_free
.LVL445:
	.loc 1 7186 0
	add	r0, r4, #116
	bl	mbedtls_sha1_free
.LVL446:
	.loc 1 7190 0
	add	r0, r4, #208
	bl	mbedtls_sha256_free
.LVL447:
	.loc 1 7193 0
	add	r0, r4, #320
	bl	mbedtls_sha512_free
.LVL448:
	.loc 1 7232 0
	ldr	r0, [r4, #16]
	cbz	r0, .L306
	ldr	r7, .L331
.L305:
.LVL449:
.LBB232:
	.loc 1 7238 0
	ldr	r6, [r0, #8]
.LVL450:
	.loc 1 7239 0
	ldr	r3, [r7]
	blx	r3
.LVL451:
	.loc 1 7236 0
	mov	r0, r6
	cmp	r6, #0
	bne	.L305
.LVL452:
.L306:
.LBE232:
.LBE231:
.LBE230:
.LBB236:
.LBB229:
	.loc 1 7268 0
	mov	r3, r4
.LBE229:
.LBE236:
.LBB237:
.LBB235:
.LBB233:
.LBB234:
	.loc 1 86 0
	movs	r2, #0
	add	r1, r4, #696
.LVL453:
.L304:
	strb	r2, [r3]
	adds	r3, r3, #1
.LVL454:
	cmp	r3, r1
	bne	.L304
.LVL455:
.L298:
.LBE234:
.LBE233:
.LBE235:
.LBE237:
	.loc 1 5462 0
	ldr	r3, [r5, #72]
	cmp	r3, #0
	beq	.L329
.L302:
	.loc 1 5467 0
	ldr	r3, [r5, #52]
	cmp	r3, #0
	beq	.L330
.L307:
	.loc 1 5472 0
	ldr	r3, [r5, #56]
	cmp	r3, #0
	beq	.L308
.L311:
	.loc 1 5478 0
	ldr	r3, [r5, #72]
	cmp	r3, #0
	beq	.L309
	.loc 1 5480 0
	ldr	r0, [r5, #52]
	.loc 1 5479 0
	cmp	r0, #0
	beq	.L309
.LVL456:
.LBB238:
.LBB239:
	.loc 1 5445 0
	movs	r2, #124
	movs	r1, #0
	bl	memset
.LVL457:
.LBE239:
.LBE238:
	.loc 1 5497 0
	ldr	r4, [r5, #72]
.LVL458:
.LBB240:
.LBB241:
	.loc 1 5434 0
	movs	r2, #208
	movs	r1, #0
	mov	r0, r4
	bl	memset
.LVL459:
	.loc 1 5436 0
	add	r0, r4, #80
	bl	mbedtls_cipher_init
.LVL460:
	.loc 1 5437 0
	add	r0, r4, #144
	bl	mbedtls_cipher_init
.LVL461:
	.loc 1 5439 0
	add	r0, r4, #56
	bl	mbedtls_md_init
.LVL462:
	.loc 1 5440 0
	add	r0, r4, #68
	bl	mbedtls_md_init
.LVL463:
.LBE241:
.LBE240:
	.loc 1 5498 0
	ldr	r4, [r5, #56]
.LVL464:
.LBB242:
.LBB243:
	.loc 1 5390 0
	mov	r2, #696
	movs	r1, #0
	.loc 1 5394 0
	add	r6, r4, #28
	.loc 1 5390 0
	mov	r0, r4
	bl	memset
.LVL465:
	.loc 1 5395 0
	add	r5, r4, #116
.LVL466:
	.loc 1 5394 0
	mov	r0, r6
	bl	mbedtls_md5_init
.LVL467:
	.loc 1 5395 0
	mov	r0, r5
	bl	mbedtls_sha1_init
.LVL468:
	.loc 1 5396 0
	mov	r0, r6
	bl	mbedtls_md5_starts
.LVL469:
	.loc 1 5401 0
	add	r6, r4, #208
	.loc 1 5397 0
	mov	r0, r5
	bl	mbedtls_sha1_starts
.LVL470:
	.loc 1 5401 0
	mov	r0, r6
	bl	mbedtls_sha256_init
.LVL471:
	.loc 1 5405 0
	add	r5, r4, #320
	.loc 1 5402 0
	movs	r1, #0
	mov	r0, r6
	bl	mbedtls_sha256_starts
.LVL472:
	.loc 1 5405 0
	mov	r0, r5
	bl	mbedtls_sha512_init
.LVL473:
	.loc 1 5406 0
	mov	r0, r5
	movs	r1, #1
	bl	mbedtls_sha512_starts
.LVL474:
	.loc 1 5411 0
	movs	r1, #2
	.loc 1 5428 0
	movs	r3, #3
.LBE243:
.LBE242:
	.loc 1 5514 0
	movs	r0, #0
.LBB245:
.LBB244:
	.loc 1 5410 0
	ldr	r2, .L331+4
	.loc 1 5411 0
	str	r1, [r4]
	.loc 1 5410 0
	str	r2, [r4, #536]
	.loc 1 5428 0
	str	r3, [r4, #12]
.LVL475:
.L291:
.LBE244:
.LBE245:
	.loc 1 5515 0
	add	sp, sp, #12
	.cfi_remember_state
	.cfi_def_cfa_offset 20
	@ sp needed
	pop	{r4, r5, r6, r7, pc}
.LVL476:
.L308:
	.cfi_restore_state
	.loc 1 5474 0
	ldr	r3, .L331+8
	mov	r1, #696
	ldr	r3, [r3]
	movs	r0, #1
	blx	r3
.LVL477:
	str	r0, [r5, #56]
	.loc 1 5478 0
	cmp	r0, #0
	bne	.L311
.L309:
	.loc 1 5482 0
	ldr	r3, .L331+12
	.loc 1 5484 0
	ldr	r4, .L331
	.loc 1 5482 0
	ldr	r2, .L331+16
	movs	r1, #1
	str	r3, [sp]
	mov	r0, r5
	movw	r3, #5482
	bl	mbedtls_debug_print_msg
.LVL478:
	.loc 1 5484 0
	ldr	r3, [r4]
	ldr	r0, [r5, #56]
	blx	r3
.LVL479:
	.loc 1 5485 0
	ldr	r3, [r4]
	ldr	r0, [r5, #72]
	blx	r3
.LVL480:
	.loc 1 5486 0
	ldr	r3, [r4]
	ldr	r0, [r5, #52]
	blx	r3
.LVL481:
	.loc 1 5488 0
	movs	r3, #0
	.loc 1 5492 0
	ldr	r0, .L331+20
	.loc 1 5488 0
	str	r3, [r5, #56]
	.loc 1 5489 0
	str	r3, [r5, #72]
	.loc 1 5490 0
	str	r3, [r5, #52]
	.loc 1 5492 0
	b	.L291
.L329:
	.loc 1 5464 0
	ldr	r3, .L331+8
	movs	r1, #208
	ldr	r3, [r3]
	movs	r0, #1
	blx	r3
.LVL482:
	str	r0, [r5, #72]
	b	.L302
.L330:
	.loc 1 5469 0
	ldr	r3, .L331+8
	movs	r1, #124
	ldr	r3, [r3]
	movs	r0, #1
	blx	r3
.LVL483:
	str	r0, [r5, #52]
	b	.L307
.L332:
	.align	2
.L331:
	.word	mbedtls_free
	.word	ssl_update_checksum_start
	.word	mbedtls_calloc
	.word	.LC32
	.word	.LC2
	.word	-32512
	.cfi_endproc
.LFE627:
	.size	ssl_handshake_init, .-ssl_handshake_init
	.section	.text.mbedtls_ssl_derive_keys,"ax",%progbits
	.align	1
	.p2align 2,,3
	.global	mbedtls_ssl_derive_keys
	.syntax unified
	.thumb
	.thumb_func
	.fpu softvfp
	.type	mbedtls_ssl_derive_keys, %function
mbedtls_ssl_derive_keys:
.LFB589:
	.loc 1 524 0
	.cfi_startproc
	@ args = 0, pretend = 0, frame = 336
	@ frame_needed = 0, uses_anonymous_args = 0
.LVL484:
	push	{r4, r5, r6, r7, r8, r9, r10, fp, lr}
	.cfi_def_cfa_offset 36
	.cfi_offset 4, -36
	.cfi_offset 5, -32
	.cfi_offset 6, -28
	.cfi_offset 7, -24
	.cfi_offset 8, -20
	.cfi_offset 9, -16
	.cfi_offset 10, -12
	.cfi_offset 11, -8
	.cfi_offset 14, -4
	.loc 1 540 0
	ldr	r3, .L415
	.loc 1 524 0
	sub	sp, sp, #364
	.cfi_def_cfa_offset 400
	.loc 1 537 0
	ldr	r7, [r0, #72]
	.loc 1 540 0
	str	r3, [sp]
	.loc 1 536 0
	ldr	r4, [r0, #52]
	.loc 1 540 0
	mov	r3, #540
	ldr	r2, .L415+4
	movs	r1, #2
	.loc 1 524 0
	mov	r6, r0
	.loc 1 538 0
	ldr	r8, [r0, #56]
	.loc 1 536 0
	str	r4, [sp, #28]
.LVL485:
	.loc 1 540 0
	bl	mbedtls_debug_print_msg
.LVL486:
	.loc 1 542 0
	ldr	r3, [r7]
	ldrb	r0, [r3, #8]	@ zero_extendqisi2
	bl	mbedtls_cipher_info_from_type
.LVL487:
	.loc 1 543 0
	cmp	r0, #0
	beq	.L398
	.loc 1 550 0
	ldr	r3, [r7]
	mov	fp, r0
	ldrb	r0, [r3, #9]	@ zero_extendqisi2
.LVL488:
	bl	mbedtls_md_info_from_type
.LVL489:
	.loc 1 551 0
	str	r0, [sp, #36]
	cmp	r0, #0
	beq	.L399
	.loc 1 571 0
	ldr	r3, [r6, #20]
	cmp	r3, #2
	bgt	.L337
	.loc 1 573 0
	ldr	r3, .L415+8
	.loc 1 574 0
	ldr	r2, .L415+12
	.loc 1 573 0
	str	r3, [r8, #548]
	.loc 1 575 0
	ldr	r3, .L415+16
	.loc 1 574 0
	str	r2, [r8, #540]
	.loc 1 575 0
	str	r3, [r8, #544]
.L338:
	.loc 1 615 0
	ldr	r3, [r8, #668]
	cmp	r3, #0
	bne	.L341
	.loc 1 617 0
	ldr	r2, [r8, #552]
	ldr	r3, .L415+20
	.loc 1 617 0
	add	r9, r8, #620
	.loc 1 617 0
	str	r2, [sp, #8]
	stm	sp, {r3, r9}
	ldr	r2, .L415+4
	movw	r3, #618
	movs	r1, #3
	mov	r0, r6
.LVL490:
	bl	mbedtls_debug_print_buf
.LVL491:
	.loc 1 621 0
	ldr	r3, [r6, #56]
	ldr	r3, [r3, #688]
	cmp	r3, #1
	beq	.L400
	.loc 1 662 0
	movs	r2, #48
	movs	r3, #64
	.loc 1 665 0
	ldr	r0, [sp, #28]
	.loc 1 662 0
	ldr	r1, [r8, #552]
	.loc 1 665 0
	adds	r0, r0, #44
	.loc 1 662 0
	str	r2, [sp, #8]
	str	r3, [sp]
	str	r0, [sp, #4]
	.loc 1 664 0
	add	r10, r8, #556
	.loc 1 665 0
	str	r0, [sp, #32]
	.loc 1 662 0
	ldr	r4, [r8, #548]
.LVL492:
	mov	r3, r10
	ldr	r2, .L415+24
	mov	r0, r9
	blx	r4
.LVL493:
	.loc 1 666 0
	mov	r5, r0
	cmp	r0, #0
	bne	.L394
	add	r4, sp, #104
.LVL494:
.L346:
.LBB246:
	.loc 1 637 0
	mov	r3, r9
.LBE246:
.LBB247:
.LBB248:
	.loc 1 86 0
	movs	r2, #0
	add	r1, r8, #668
.LVL495:
.L345:
	strb	r2, [r3]
	adds	r3, r3, #1
.LVL496:
	cmp	r1, r3
	bne	.L345
.LVL497:
.L347:
.LBE248:
.LBE247:
	.loc 1 680 0
	mov	r5, r10
	add	lr, sp, #40
.LVL498:
.L348:
	mov	ip, lr
	ldr	r0, [r5]	@ unaligned
	ldr	r1, [r5, #4]	@ unaligned
	ldr	r2, [r5, #8]	@ unaligned
	ldr	r3, [r5, #12]	@ unaligned
	adds	r5, r5, #16
	cmp	r5, r9
	add	lr, lr, #16
	stmia	ip!, {r0, r1, r2, r3}
	bne	.L348
.LBB249:
.LBB250:
	.loc 1 86 0
	mov	ip, #0
.LBE250:
.LBE249:
	.loc 1 682 0
	add	lr, sp, #40
	.loc 1 681 0
	add	r9, sp, #72
	ldmia	r9!, {r0, r1, r2, r3}
.LBB253:
.LBB251:
	.loc 1 86 0
	mov	r5, lr
.LBE251:
.LBE253:
	.loc 1 681 0
	str	r0, [r10]	@ unaligned
	str	r1, [r10, #4]	@ unaligned
	str	r2, [r10, #8]	@ unaligned
	str	r3, [r10, #12]	@ unaligned
	ldmia	r9!, {r0, r1, r2, r3}
	str	r0, [r10, #16]	@ unaligned
	str	r1, [r10, #20]	@ unaligned
	str	r2, [r10, #24]	@ unaligned
	str	r3, [r10, #28]	@ unaligned
	.loc 1 682 0
	ldmia	lr!, {r0, r1, r2, r3}
	str	r0, [r8, #588]	@ unaligned
	str	r1, [r8, #592]	@ unaligned
	str	r2, [r8, #596]	@ unaligned
	str	r3, [r8, #600]	@ unaligned
	ldmia	lr!, {r0, r1, r2, r3}
	str	r0, [r8, #604]	@ unaligned
	str	r1, [r8, #608]	@ unaligned
	str	r2, [r8, #612]	@ unaligned
	str	r3, [r8, #616]	@ unaligned
.LVL499:
.L349:
.LBB254:
.LBB252:
	.loc 1 86 0
	strb	ip, [r5]
	adds	r5, r5, #1
.LVL500:
	cmp	r5, r4
	bne	.L349
.LVL501:
.LBE252:
.LBE254:
	.loc 1 697 0
	movs	r3, #64
	mov	r9, #256
	str	r3, [sp]
	str	r5, [sp, #4]
	str	r9, [sp, #8]
	ldr	r5, [r8, #548]
	mov	r3, r10
	ldr	r2, .L415+28
	movs	r1, #48
	ldr	r0, [sp, #32]
	blx	r5
.LVL502:
	.loc 1 699 0
	mov	r5, r0
	cmp	r0, #0
	bne	.L401
	.loc 1 705 0
	ldr	r3, [sp, #28]
	ldr	r0, [r3]
.LVL503:
	bl	mbedtls_ssl_get_ciphersuite_name
.LVL504:
	ldr	r3, .L415+32
	str	r0, [sp, #4]
	str	r3, [sp]
	ldr	r2, .L415+4
	movw	r3, #706
	movs	r1, #3
	mov	r0, r6
	bl	mbedtls_debug_print_msg
.LVL505:
	.loc 1 707 0
	movs	r2, #48
	ldr	r1, [sp, #32]
	ldr	r3, .L415+24
	str	r1, [sp, #4]
	str	r2, [sp, #8]
	str	r3, [sp]
	ldr	r2, .L415+4
	movw	r3, #707
	movs	r1, #3
	mov	r0, r6
	bl	mbedtls_debug_print_buf
.LVL506:
	.loc 1 708 0
	movs	r2, #64
	ldr	r3, .L415+36
	str	r2, [sp, #8]
	stm	sp, {r3, r10}
	ldr	r2, .L415+4
	mov	r3, #708
	movs	r1, #4
	mov	r0, r6
	bl	mbedtls_debug_print_buf
.LVL507:
	.loc 1 709 0
	ldr	r3, .L415+40
	ldr	r2, .L415+4
	stm	sp, {r3, r4, r9}
	movs	r1, #4
	movw	r3, #709
	mov	r0, r6
	bl	mbedtls_debug_print_buf
.LVL508:
	mov	r3, r10
	add	r10, r10, #64
.LVL509:
.L351:
.LBB255:
.LBB256:
	.loc 1 86 0
	strb	r5, [r3]
	adds	r3, r3, #1
.LVL510:
	cmp	r3, r10
	bne	.L351
.LVL511:
.LBE256:
.LBE255:
	.loc 1 717 0
	ldr	r3, [fp, #4]
	.loc 1 719 0
	ldrb	r2, [fp, #1]	@ zero_extendqisi2
	.loc 1 717 0
	lsrs	r3, r3, #3
	.loc 1 719 0
	cmp	r2, #6
	.loc 1 717 0
	str	r3, [r7, #4]
	.loc 1 719 0
	beq	.L352
	.loc 1 719 0 is_stmt 0 discriminator 1
	cmp	r2, #8
	beq	.L352
	.loc 1 735 0 is_stmt 1
	ldr	r8, [sp, #36]
.LVL512:
	movs	r2, #1
	mov	r1, r8
	add	r0, r7, #56
	bl	mbedtls_md_setup
.LVL513:
	mov	r5, r0
	cbnz	r0, .L356
	.loc 1 735 0 is_stmt 0 discriminator 1
	movs	r2, #1
	mov	r1, r8
	add	r0, r7, #68
.LVL514:
	bl	mbedtls_md_setup
.LVL515:
	mov	r5, r0
	cmp	r0, #0
	beq	.L357
.L356:
	.loc 1 738 0 is_stmt 1
	ldr	r3, .L415+44
	str	r5, [sp, #4]
	str	r3, [sp]
	mov	r0, r6
.LVL516:
	movw	r3, #738
	ldr	r2, .L415+4
	movs	r1, #1
	bl	mbedtls_debug_print_ret
.LVL517:
.L333:
	.loc 1 1012 0
	mov	r0, r5
	add	sp, sp, #364
	.cfi_remember_state
	.cfi_def_cfa_offset 36
	@ sp needed
	pop	{r4, r5, r6, r7, r8, r9, r10, fp, pc}
.LVL518:
.L337:
	.cfi_restore_state
	.loc 1 581 0
	cmp	r3, #3
	beq	.L402
	.loc 1 601 0
	ldr	r3, .L415+48
	mov	r0, r6
.LVL519:
	str	r3, [sp]
	ldr	r2, .L415+4
	movw	r3, #601
	movs	r1, #1
	bl	mbedtls_debug_print_msg
.LVL520:
	.loc 1 602 0
	ldr	r5, .L415+52
	b	.L333
.L416:
	.align	2
.L415:
	.word	.LC33
	.word	.LC2
	.word	tls1_prf
	.word	ssl_calc_verify_tls
	.word	ssl_calc_finished_tls
	.word	.LC36
	.word	.LC41
	.word	.LC43
	.word	.LC44
	.word	.LC45
	.word	.LC46
	.word	.LC47
	.word	.LC18
	.word	-27648
.LVL521:
.L352:
	.loc 1 722 0
	movs	r0, #0
	.loc 1 724 0
	movs	r1, #12
	.loc 1 725 0
	movs	r5, #4
.LVL522:
	.loc 1 729 0
	ldr	r2, [r7]
	.loc 1 722 0
	str	r0, [r7, #20]
	.loc 1 724 0
	str	r1, [r7, #12]
	.loc 1 725 0
	str	r5, [r7, #16]
	.loc 1 730 0
	ldrb	r2, [r2, #28]	@ zero_extendqisi2
	tst	r2, #2
	ite	eq
	moveq	r2, #24
	movne	r2, #16
	.loc 1 728 0
	str	r2, [r7, #8]
.LVL523:
.L355:
	.loc 1 804 0
	ldr	r5, .L417
	str	r0, [sp, #16]
	str	r1, [sp, #12]
	str	r2, [sp, #8]
	str	r3, [sp, #4]
	str	r5, [sp]
	movw	r3, #806
	ldr	r2, .L417+4
	movs	r1, #3
	mov	r0, r6
	bl	mbedtls_debug_print_msg
.LVL524:
	.loc 1 812 0
	ldr	r3, [r6]
	ldrb	r3, [r3, #112]	@ zero_extendqisi2
	lsls	r3, r3, #31
	bmi	.L364
	.loc 1 814 0
	ldr	r3, [r7, #20]
	.loc 1 815 0
	ldr	r8, [r7, #4]
	.loc 1 814 0
	lsl	r10, r3, #1
.LVL525:
	.loc 1 823 0
	ldr	r5, [r7, #16]
	.loc 1 815 0
	add	r9, r10, r8
	.loc 1 818 0
	adds	r2, r4, r3
	.loc 1 815 0
	add	r9, r9, r4
.LVL526:
	.loc 1 818 0
	str	r2, [sp, #28]
.LVL527:
	.loc 1 824 0
	cmp	r5, #0
	beq	.L403
.L365:
.LVL528:
	.loc 1 825 0
	mov	r2, r5
.LVL529:
	add	r1, r9, r8
	add	r0, r7, #24
	str	r3, [sp, #36]
	bl	memcpy
.LVL530:
	.loc 1 826 0
	add	r1, r5, r8
	mov	r2, r5
	add	r1, r1, r9
	add	r0, r7, #40
	bl	memcpy
.LVL531:
	.loc 1 872 0
	ldr	r2, [r6, #20]
	ldr	r3, [sp, #36]
	cmp	r2, #0
	ble	.L404
	.loc 1 874 0
	mov	r2, r3
	mov	r1, r4
	add	r0, r7, #56
	bl	mbedtls_md_hmac_starts
.LVL532:
	.loc 1 884 0
	ldr	r1, [sp, #28]
	ldr	r2, [r7, #20]
	add	r0, r7, #68
	bl	mbedtls_md_hmac_starts
.LVL533:
	.loc 1 917 0
	ldr	r3, [r6]
	ldr	r8, [r3, #60]
	cmp	r8, #0
	beq	.L369
	.loc 1 919 0
	ldr	r0, [r3, #64]
	ldr	r3, [r7, #20]
	str	r5, [sp, #4]
	ldr	r2, [r7, #4]
	ldr	r1, [sp, #32]
	str	r2, [sp]
	mov	r2, r4
	blx	r8
.LVL534:
.L369:
	.loc 1 926 0
	add	r8, r7, #80
	mov	r0, r8
	mov	r1, fp
	bl	mbedtls_cipher_setup
.LVL535:
	mov	r5, r0
.LVL536:
	cmp	r0, #0
	bne	.L405
	.loc 1 933 0
	adds	r7, r7, #144
.LVL537:
	mov	r0, r7
.LVL538:
	mov	r1, fp
	bl	mbedtls_cipher_setup
.LVL539:
	mov	r5, r0
	cmp	r0, #0
	bne	.L406
	.loc 1 940 0
	add	r1, r4, r10
	movs	r3, #1
	ldr	r2, [fp, #4]
	mov	r0, r8
.LVL540:
	bl	mbedtls_cipher_setkey
.LVL541:
	mov	r5, r0
	cmp	r0, #0
	bne	.L407
	.loc 1 948 0
	mov	r3, r0
	mov	r1, r9
	ldr	r2, [fp, #4]
	mov	r0, r7
.LVL542:
	bl	mbedtls_cipher_setkey
.LVL543:
	mov	r5, r0
	cmp	r0, #0
	bne	.L408
	.loc 1 957 0
	ldrb	r3, [fp, #1]	@ zero_extendqisi2
	cmp	r3, #2
	beq	.L374
.LVL544:
.L377:
.LBB257:
.LBB258:
	.loc 1 86 0
	movs	r3, #0
.LVL545:
.L375:
	strb	r3, [r4]
	add	r2, sp, #360
	adds	r4, r4, #1
.LVL546:
	cmp	r4, r2
	bne	.L375
.LVL547:
.LBE258:
.LBE257:
	.loc 1 1009 0
	ldr	r3, .L417+8
	mov	r0, r6
.LVL548:
	str	r3, [sp]
	ldr	r2, .L417+4
	movw	r3, #1009
	movs	r1, #2
	bl	mbedtls_debug_print_msg
.LVL549:
	.loc 1 1011 0
	b	.L333
.LVL550:
.L341:
	.loc 1 675 0
	ldr	r2, .L417+12
	movw	r3, #675
	str	r2, [sp]
	movs	r1, #3
	ldr	r2, .L417+4
	mov	r0, r6
.LVL551:
	bl	mbedtls_debug_print_msg
.LVL552:
	ldr	r3, [sp, #28]
	add	r10, r8, #556
	adds	r3, r3, #44
	str	r3, [sp, #32]
	add	r9, r8, #620
	add	r4, sp, #104
.LVL553:
	b	.L347
.LVL554:
.L401:
	.loc 1 701 0
	ldr	r3, .L417+16
	str	r0, [sp, #4]
	str	r3, [sp]
	mov	r0, r6
.LVL555:
	movw	r3, #701
	ldr	r2, .L417+4
	movs	r1, #1
	bl	mbedtls_debug_print_ret
.LVL556:
	.loc 1 1012 0
	mov	r0, r5
	add	sp, sp, #364
	.cfi_remember_state
	.cfi_def_cfa_offset 36
	@ sp needed
	pop	{r4, r5, r6, r7, r8, r9, r10, fp, pc}
.LVL557:
.L403:
	.cfi_restore_state
	.loc 1 824 0 discriminator 2
	ldr	r5, [r7, #12]
	b	.L365
.LVL558:
.L406:
	.loc 1 936 0
	ldr	r3, .L417+20
	str	r0, [sp, #4]
	str	r3, [sp]
	mov	r0, r6
.LVL559:
	mov	r3, #936
	ldr	r2, .L417+4
	movs	r1, #1
	bl	mbedtls_debug_print_ret
.LVL560:
	.loc 1 937 0
	b	.L333
.LVL561:
.L400:
.LBB259:
	.loc 1 626 0
	ldr	r2, .L417+24
	movw	r3, #626
	str	r2, [sp]
	movs	r1, #3
	ldr	r2, .L417+4
	mov	r0, r6
	bl	mbedtls_debug_print_msg
.LVL562:
	.loc 1 628 0
	ldr	r3, [r6, #56]
	add	r4, sp, #104
.LVL563:
	ldr	r3, [r3, #540]
	mov	r1, r4
	mov	r0, r6
	blx	r3
.LVL564:
	.loc 1 631 0
	ldr	r3, [r6, #20]
	cmp	r3, #3
	beq	.L409
	.loc 1 645 0
	movs	r5, #36
.L343:
.LVL565:
	.loc 1 647 0
	ldr	r3, .L417+28
	ldr	r2, .L417+4
	stm	sp, {r3, r4, r5}
	movs	r1, #3
	movw	r3, #647
	mov	r0, r6
	bl	mbedtls_debug_print_buf
.LVL566:
	.loc 1 649 0
	movs	r3, #48
	.loc 1 652 0
	ldr	r2, [sp, #28]
	.loc 1 649 0
	ldr	r1, [r8, #552]
	.loc 1 652 0
	adds	r2, r2, #44
	.loc 1 649 0
	str	r3, [sp, #8]
	str	r2, [sp, #4]
	str	r5, [sp]
	.loc 1 652 0
	str	r2, [sp, #32]
	.loc 1 649 0
	ldr	r5, [r8, #548]
.LVL567:
	mov	r3, r4
	ldr	r2, .L417+32
	mov	r0, r9
	blx	r5
.LVL568:
	.loc 1 653 0
	mov	r5, r0
	cmp	r0, #0
	bne	.L410
.LVL569:
	add	r10, r8, #556
	b	.L346
.LVL570:
.L402:
.LBE259:
	.loc 1 582 0 discriminator 1
	ldr	r3, [r7]
	.loc 1 581 0 discriminator 1
	ldrb	r3, [r3, #9]	@ zero_extendqisi2
	cmp	r3, #7
	beq	.L411
	.loc 1 593 0
	ldr	r3, .L417+36
	.loc 1 594 0
	ldr	r2, .L417+40
	.loc 1 593 0
	str	r3, [r8, #548]
	.loc 1 595 0
	ldr	r3, .L417+44
	.loc 1 594 0
	str	r2, [r8, #540]
	.loc 1 595 0
	str	r3, [r8, #544]
	b	.L338
.LVL571:
.L405:
	.loc 1 929 0
	ldr	r3, .L417+20
	str	r0, [sp, #4]
	str	r3, [sp]
	mov	r0, r6
.LVL572:
	movw	r3, #929
	ldr	r2, .L417+4
	movs	r1, #1
	bl	mbedtls_debug_print_ret
.LVL573:
	.loc 1 1012 0
	mov	r0, r5
	add	sp, sp, #364
	.cfi_remember_state
	.cfi_def_cfa_offset 36
	@ sp needed
	pop	{r4, r5, r6, r7, r8, r9, r10, fp, pc}
.LVL574:
.L394:
	.cfi_restore_state
	.loc 1 668 0
	ldr	r3, .L417+16
	str	r0, [sp, #4]
	str	r3, [sp]
	mov	r0, r6
.LVL575:
	mov	r3, #668
	ldr	r2, .L417+4
	movs	r1, #1
	bl	mbedtls_debug_print_ret
.LVL576:
	.loc 1 669 0
	b	.L333
.LVL577:
.L407:
	.loc 1 944 0
	ldr	r3, .L417+48
	str	r0, [sp, #4]
	str	r3, [sp]
	mov	r0, r6
.LVL578:
	mov	r3, #944
	ldr	r2, .L417+4
	movs	r1, #1
	bl	mbedtls_debug_print_ret
.LVL579:
	.loc 1 945 0
	b	.L333
.LVL580:
.L357:
	.loc 1 743 0
	ldr	r0, [sp, #36]
.LVL581:
	bl	mbedtls_md_get_size
.LVL582:
	.loc 1 751 0
	ldr	r3, [sp, #28]
	ldr	r3, [r3, #116]
	.loc 1 743 0
	str	r0, [r7, #20]
	.loc 1 751 0
	cmp	r3, #1
	beq	.L412
.L358:
	.loc 1 759 0
	ldrb	r3, [fp, #1]	@ zero_extendqisi2
	.loc 1 756 0
	ldr	r1, [fp, #12]
	.loc 1 759 0
	cmp	r3, #7
	.loc 1 756 0
	str	r1, [r7, #12]
	.loc 1 759 0
	beq	.L413
	.loc 1 770 0
	ldr	r3, [sp, #28]
	.loc 1 773 0
	ldr	r2, [fp, #20]
	.loc 1 770 0
	ldr	r3, [r3, #120]
	cmp	r3, #1
	.loc 1 780 0
	itt	ne
	udivne	r3, r0, r2
	mlane	r2, r2, r3, r2
	.loc 1 784 0
	ldr	r3, [r6, #20]
	.loc 1 773 0
	it	eq
	addeq	r2, r2, r0
	.loc 1 784 0
	cmp	r3, #1
	str	r2, [r7, #8]
	bls	.L362
	.loc 1 790 0
	subs	r3, r3, #2
	cmp	r3, #1
	bhi	.L363
	.loc 1 793 0
	add	r2, r2, r1
	str	r2, [r7, #8]
	ldr	r3, [r7, #4]
	b	.L355
.LVL583:
.L411:
	.loc 1 584 0
	ldr	r3, .L417+52
	.loc 1 585 0
	ldr	r2, .L417+56
	.loc 1 584 0
	str	r3, [r8, #548]
	.loc 1 586 0
	ldr	r3, .L417+60
	.loc 1 585 0
	str	r2, [r8, #540]
	.loc 1 586 0
	str	r3, [r8, #544]
	b	.L338
.LVL584:
.L409:
.LBB260:
	.loc 1 634 0
	ldr	r3, [r6, #72]
	ldr	r3, [r3]
	ldrb	r3, [r3, #9]	@ zero_extendqisi2
	.loc 1 637 0
	cmp	r3, #7
	ite	ne
	movne	r5, #32
	moveq	r5, #48
	b	.L343
.LVL585:
.L410:
	.loc 1 655 0
	ldr	r3, .L417+16
	str	r0, [sp, #4]
	str	r3, [sp]
	mov	r0, r6
.LVL586:
	movw	r3, #655
	ldr	r2, .L417+4
	movs	r1, #1
	bl	mbedtls_debug_print_ret
.LVL587:
	b	.L333
.LVL588:
.L408:
.LBE260:
	.loc 1 952 0
	ldr	r3, .L417+48
	str	r0, [sp, #4]
	str	r3, [sp]
	mov	r0, r6
.LVL589:
	mov	r3, #952
	ldr	r2, .L417+4
	movs	r1, #1
	bl	mbedtls_debug_print_ret
.LVL590:
	.loc 1 953 0
	b	.L333
.L418:
	.align	2
.L417:
	.word	.LC48
	.word	.LC2
	.word	.LC52
	.word	.LC42
	.word	.LC40
	.word	.LC49
	.word	.LC37
	.word	.LC38
	.word	.LC39
	.word	tls_prf_sha256
	.word	ssl_calc_verify_tls_sha256
	.word	ssl_calc_finished_tls_sha256
	.word	.LC50
	.word	tls_prf_sha384
	.word	ssl_calc_verify_tls_sha384
	.word	ssl_calc_finished_tls_sha384
.LVL591:
.L374:
	.loc 1 959 0
	mov	r0, r8
.LVL592:
	movs	r1, #4
	bl	mbedtls_cipher_set_padding_mode
.LVL593:
	mov	ip, r0
	cbnz	r0, .L414
	.loc 1 966 0
	mov	r0, r7
.LVL594:
	movs	r1, #4
	bl	mbedtls_cipher_set_padding_mode
.LVL595:
	mov	r7, r0
.LVL596:
	cmp	r0, #0
	beq	.L377
	.loc 1 969 0
	ldr	r3, .L419
	str	r0, [sp, #4]
	str	r3, [sp]
	mov	r0, r6
.LVL597:
	movw	r3, #969
	ldr	r2, .L419+4
	movs	r1, #1
	.loc 1 970 0
	mov	r5, r7
	.loc 1 969 0
	bl	mbedtls_debug_print_ret
.LVL598:
	.loc 1 970 0
	b	.L333
.LVL599:
.L362:
	ldr	r3, [r7, #4]
	b	.L355
.L413:
	.loc 1 760 0
	str	r0, [r7, #8]
	ldr	r3, [r7, #4]
	mov	r2, r0
	b	.L355
.L412:
	.loc 1 752 0
	movs	r3, #10
	mov	r0, r3
	str	r3, [r7, #20]
	b	.L358
.LVL600:
.L414:
	.loc 1 962 0
	ldr	r3, .L419
	str	r0, [sp, #4]
	str	r3, [sp]
	mov	r0, r6
.LVL601:
	movw	r3, #962
	ldr	r2, .L419+4
	movs	r1, #1
	.loc 1 963 0
	mov	r5, ip
	.loc 1 962 0
	bl	mbedtls_debug_print_ret
.LVL602:
	.loc 1 963 0
	b	.L333
.LVL603:
.L399:
	.loc 1 553 0
	ldr	r2, [r7]
	.loc 1 553 0
	ldr	r3, .L419+8
	ldrb	r2, [r2, #9]	@ zero_extendqisi2
	mov	r0, r6
.LVL604:
	str	r2, [sp, #4]
	str	r3, [sp]
	ldr	r2, .L419+4
	movw	r3, #554
	movs	r1, #1
	bl	mbedtls_debug_print_msg
.LVL605:
	.loc 1 555 0
	ldr	r5, .L419+12
	b	.L333
.LVL606:
.L364:
	.loc 1 852 0
	ldr	r3, .L419+16
	mov	r0, r6
	str	r3, [sp]
	ldr	r2, .L419+4
	mov	r3, #852
	movs	r1, #1
	bl	mbedtls_debug_print_msg
.LVL607:
	.loc 1 853 0
	ldr	r5, .L419+20
	b	.L333
.LVL608:
.L398:
	.loc 1 545 0
	ldr	r2, [r7]
	.loc 1 545 0
	ldr	r3, .L419+24
	ldrb	r2, [r2, #8]	@ zero_extendqisi2
	mov	r0, r6
.LVL609:
	str	r2, [sp, #4]
	str	r3, [sp]
	ldr	r2, .L419+4
	movw	r3, #546
	movs	r1, #1
	bl	mbedtls_debug_print_msg
.LVL610:
	.loc 1 547 0
	ldr	r5, .L419+12
	b	.L333
.LVL611:
.L404:
	.loc 1 893 0
	ldr	r3, .L419+16
	mov	r0, r6
	str	r3, [sp]
	ldr	r2, .L419+4
	movw	r3, #893
	movs	r1, #1
	bl	mbedtls_debug_print_msg
.LVL612:
	.loc 1 894 0
	ldr	r5, .L419+20
.LVL613:
	b	.L333
.LVL614:
.L363:
	.loc 1 798 0
	ldr	r3, .L419+16
	mov	r0, r6
	str	r3, [sp]
	ldr	r2, .L419+4
	movw	r3, #798
	movs	r1, #1
	bl	mbedtls_debug_print_msg
.LVL615:
	.loc 1 799 0
	ldr	r5, .L419+20
.LVL616:
	b	.L333
.L420:
	.align	2
.L419:
	.word	.LC51
	.word	.LC2
	.word	.LC35
	.word	-28928
	.word	.LC18
	.word	-27648
	.word	.LC34
	.cfi_endproc
.LFE589:
	.size	mbedtls_ssl_derive_keys, .-mbedtls_ssl_derive_keys
	.section	.text.mbedtls_ssl_fetch_input,"ax",%progbits
	.align	1
	.p2align 2,,3
	.global	mbedtls_ssl_fetch_input
	.syntax unified
	.thumb
	.thumb_func
	.fpu softvfp
	.type	mbedtls_ssl_fetch_input, %function
mbedtls_ssl_fetch_input:
.LFB595:
	.loc 1 2283 0
	.cfi_startproc
	@ args = 0, pretend = 0, frame = 0
	@ frame_needed = 0, uses_anonymous_args = 0
.LVL617:
	push	{r4, r5, r6, r7, r8, r9, r10, fp, lr}
	.cfi_def_cfa_offset 36
	.cfi_offset 4, -36
	.cfi_offset 5, -32
	.cfi_offset 6, -28
	.cfi_offset 7, -24
	.cfi_offset 8, -20
	.cfi_offset 9, -16
	.cfi_offset 10, -12
	.cfi_offset 11, -8
	.cfi_offset 14, -4
	mov	r4, r0
	.loc 1 2287 0
	ldr	r3, .L443
	.loc 1 2283 0
	sub	sp, sp, #20
	.cfi_def_cfa_offset 56
	.loc 1 2287 0
	str	r3, [sp]
	.loc 1 2283 0
	mov	r5, r1
	.loc 1 2287 0
	movw	r3, #2287
	ldr	r2, .L443+4
	movs	r1, #2
.LVL618:
	bl	mbedtls_debug_print_msg
.LVL619:
	.loc 1 2289 0
	ldr	r3, [r4, #28]
	cmp	r3, #0
	beq	.L441
.L422:
	.loc 1 2296 0
	ldr	r3, [r4, #96]
	ldr	r2, [r4, #88]
	subs	r3, r3, r2
	rsb	r3, r3, #6464
	adds	r3, r3, #13
	cmp	r3, r5
	bcc	.L442
	.loc 1 2467 0
	ldr	r3, [r4, #124]
	ldr	r8, .L443+36
	str	r3, [sp, #4]
	movs	r1, #2
	str	r5, [sp, #8]
	str	r8, [sp]
	movw	r3, #2468
	ldr	r2, .L443+4
	mov	r0, r4
	bl	mbedtls_debug_print_msg
.LVL620:
	.loc 1 2470 0
	ldr	r1, [r4, #124]
	cmp	r5, r1
	bls	.L430
	ldr	r9, .L443+40
	.loc 1 2502 0
	ldr	r10, .L443+4
	b	.L429
.LVL621:
.L431:
	.loc 1 2485 0
	ldr	r0, [r4, #96]
	ldr	r3, [r4]
	add	r1, r1, r0
	mov	r2, r7
	ldr	r3, [r3, #88]
	ldr	r0, [r4, #36]
	blx	r6
.LVL622:
	mov	r6, r0
.LVL623:
.L428:
	.loc 1 2502 0
	ldr	r3, [r4, #124]
	mov	r2, r10
	str	r3, [sp, #4]
	movs	r1, #2
	movw	r3, #2503
	mov	r0, r4
.LVL624:
	str	r5, [sp, #8]
	str	r8, [sp]
	bl	mbedtls_debug_print_msg
.LVL625:
	.loc 1 2504 0
	str	r6, [sp, #4]
	str	r9, [sp]
	movw	r3, #2504
	mov	r2, r10
	movs	r1, #2
	mov	r0, r4
	bl	mbedtls_debug_print_ret
.LVL626:
	.loc 1 2506 0
	cmp	r6, #0
	beq	.L433
	.loc 1 2509 0
	blt	.L421
	.loc 1 2512 0
	ldr	r1, [r4, #124]
	add	r1, r1, r6
	.loc 1 2470 0
	cmp	r5, r1
	.loc 1 2512 0
	str	r1, [r4, #124]
	.loc 1 2470 0
	bls	.L430
.LVL627:
.L429:
.LBB263:
.LBB264:
	.loc 1 119 0
	ldr	r3, [r4, #84]
.LBE264:
.LBE263:
	.loc 1 2472 0
	subs	r7, r5, r1
.LVL628:
.LBB267:
.LBB265:
	.loc 1 119 0
	cbz	r3, .L426
	.loc 1 122 0
	ldr	r0, [r4, #76]
	blx	r3
.LVL629:
	cmp	r0, #2
	mov	fp, r0
	beq	.L427
	ldr	r1, [r4, #124]
.L426:
.LVL630:
.LBE265:
.LBE267:
	.loc 1 2478 0
	ldr	r6, [r4, #32]
	cmp	r6, #0
	bne	.L431
	.loc 1 2496 0
	ldr	r3, [r4, #96]
	mov	r2, r7
	add	r1, r1, r3
	ldr	r0, [r4, #36]
	ldr	r3, [r4, #28]
	blx	r3
.LVL631:
	mov	r6, r0
.LVL632:
	b	.L428
.LVL633:
.L427:
.LBB268:
.LBB266:
	.loc 1 124 0
	ldr	r2, .L443+8
	movs	r3, #124
	str	r2, [sp]
	movs	r1, #3
	ldr	r2, .L443+4
	mov	r0, r4
	bl	mbedtls_debug_print_msg
.LVL634:
.LBE266:
.LBE268:
	.loc 1 2502 0
	ldr	r3, [r4, #124]
	.loc 1 2504 0
	ldr	r6, .L443+12
	.loc 1 2502 0
	str	r3, [sp, #4]
	ldr	r2, .L443+4
	movw	r3, #2503
	mov	r1, fp
	mov	r0, r4
	str	r5, [sp, #8]
	str	r8, [sp]
	bl	mbedtls_debug_print_msg
.LVL635:
	.loc 1 2504 0
	str	r9, [sp]
	mov	r1, fp
	mov	r0, r4
	str	r6, [sp, #4]
	movw	r3, #2504
	ldr	r2, .L443+4
	bl	mbedtls_debug_print_ret
.LVL636:
.L421:
	.loc 1 2519 0
	mov	r0, r6
	add	sp, sp, #20
	.cfi_remember_state
	.cfi_def_cfa_offset 36
	@ sp needed
	pop	{r4, r5, r6, r7, r8, r9, r10, fp, pc}
.LVL637:
.L430:
	.cfi_restore_state
	.loc 1 2518 0
	movs	r6, #0
	.loc 1 2516 0
	ldr	r3, .L443+16
	mov	r0, r4
	str	r3, [sp]
	ldr	r2, .L443+4
	movw	r3, #2516
	movs	r1, #2
	bl	mbedtls_debug_print_msg
.LVL638:
	.loc 1 2519 0
	mov	r0, r6
	add	sp, sp, #20
	.cfi_remember_state
	.cfi_def_cfa_offset 36
	@ sp needed
	pop	{r4, r5, r6, r7, r8, r9, r10, fp, pc}
.LVL639:
.L433:
	.cfi_restore_state
	.loc 1 2507 0
	ldr	r6, .L443+20
.LVL640:
	.loc 1 2519 0
	mov	r0, r6
	add	sp, sp, #20
	.cfi_remember_state
	.cfi_def_cfa_offset 36
	@ sp needed
	pop	{r4, r5, r6, r7, r8, r9, r10, fp, pc}
.LVL641:
.L441:
	.cfi_restore_state
	.loc 1 2289 0 discriminator 1
	ldr	r3, [r4, #32]
	cmp	r3, #0
	bne	.L422
	.loc 1 2291 0
	ldr	r3, .L443+24
	mov	r0, r4
	str	r3, [sp]
	ldr	r2, .L443+4
	movw	r3, #2292
	movs	r1, #1
	bl	mbedtls_debug_print_msg
.LVL642:
	.loc 1 2293 0
	ldr	r6, .L443+28
	b	.L421
.L442:
	.loc 1 2298 0
	ldr	r3, .L443+32
	mov	r0, r4
	str	r3, [sp]
	ldr	r2, .L443+4
	movw	r3, #2298
	movs	r1, #1
	bl	mbedtls_debug_print_msg
.LVL643:
	.loc 1 2299 0
	ldr	r6, .L443+28
	b	.L421
.L444:
	.align	2
.L443:
	.word	.LC53
	.word	.LC2
	.word	.LC58
	.word	-26624
	.word	.LC57
	.word	-29312
	.word	.LC54
	.word	-28928
	.word	.LC55
	.word	.LC56
	.word	.LC59
	.cfi_endproc
.LFE595:
	.size	mbedtls_ssl_fetch_input, .-mbedtls_ssl_fetch_input
	.section	.text.mbedtls_ssl_flush_output,"ax",%progbits
	.align	1
	.p2align 2,,3
	.global	mbedtls_ssl_flush_output
	.syntax unified
	.thumb
	.thumb_func
	.fpu softvfp
	.type	mbedtls_ssl_flush_output, %function
mbedtls_ssl_flush_output:
.LFB596:
	.loc 1 2525 0
	.cfi_startproc
	@ args = 0, pretend = 0, frame = 0
	@ frame_needed = 0, uses_anonymous_args = 0
.LVL644:
	push	{r4, r5, r6, r7, r8, lr}
	.cfi_def_cfa_offset 24
	.cfi_offset 4, -24
	.cfi_offset 5, -20
	.cfi_offset 6, -16
	.cfi_offset 7, -12
	.cfi_offset 8, -8
	.cfi_offset 14, -4
	mov	r4, r0
	.loc 1 2529 0
	ldr	r2, .L456
	.loc 1 2525 0
	sub	sp, sp, #16
	.cfi_def_cfa_offset 40
	.loc 1 2529 0
	movw	r3, #2529
	str	r2, [sp]
	movs	r1, #2
	ldr	r2, .L456+4
	bl	mbedtls_debug_print_msg
.LVL645:
	.loc 1 2531 0
	ldr	r3, [r4, #24]
	cmp	r3, #0
	beq	.L453
	.loc 1 2539 0
	ldr	r5, [r4, #172]
	cmp	r5, #0
	beq	.L448
	ldr	r8, .L456+28
	ldr	r7, .L456+8
.LBB271:
.LBB272:
	.loc 1 2547 0
	ldr	r6, .L456+4
	b	.L449
.LVL646:
.L455:
	.loc 1 2569 0
	ldr	r3, [r4, #172]
	subs	r5, r3, r5
.LVL647:
	str	r5, [r4, #172]
	.loc 1 2545 0
	cbz	r5, .L454
.LVL648:
.L449:
	.loc 1 2547 0
	ldr	r3, [r4, #168]
	mov	r2, r6
	adds	r3, r3, #5
	str	r5, [sp, #8]
	str	r3, [sp, #4]
	movs	r1, #2
	movw	r3, #2548
	mov	r0, r4
	str	r8, [sp]
	bl	mbedtls_debug_print_msg
.LVL649:
	.loc 1 2550 0
	ldr	r1, [r4, #168]
	.loc 1 2551 0
	ldr	r2, [r4, #172]
.LVL650:
	.loc 1 2550 0
	ldr	r3, [r4, #148]
	adds	r1, r1, #5
	.loc 1 2551 0
	subs	r1, r1, r2
	.loc 1 2561 0
	add	r1, r1, r3
	ldr	r0, [r4, #36]
	ldr	r3, [r4, #24]
	blx	r3
.LVL651:
	mov	r5, r0
.LVL652:
	.loc 1 2564 0
	str	r0, [sp, #4]
	str	r7, [sp]
	movw	r3, #2564
	mov	r2, r6
	movs	r1, #2
	mov	r0, r4
.LVL653:
	bl	mbedtls_debug_print_ret
.LVL654:
	.loc 1 2566 0
	cmp	r5, #0
	bgt	.L455
.LVL655:
.L445:
.LBE272:
.LBE271:
	.loc 1 2586 0
	mov	r0, r5
	add	sp, sp, #16
	.cfi_remember_state
	.cfi_def_cfa_offset 24
	@ sp needed
	pop	{r4, r5, r6, r7, r8, pc}
.LVL656:
.L454:
	.cfi_restore_state
.LBB275:
.LBB273:
	.loc 1 2573 0
	ldr	r2, [r4, #144]
	ldrb	r3, [r2, #7]	@ zero_extendqisi2
	adds	r3, r3, #1
	uxtb	r3, r3
	strb	r3, [r2, #7]
	cmp	r3, #0
	bne	.L450
.LVL657:
	ldr	r2, [r4, #144]
	ldrb	r3, [r2, #6]	@ zero_extendqisi2
	adds	r3, r3, #1
	uxtb	r3, r3
	strb	r3, [r2, #6]
	cmp	r3, #0
	bne	.L450
.LVL658:
	ldr	r2, [r4, #144]
	ldrb	r3, [r2, #5]	@ zero_extendqisi2
	adds	r3, r3, #1
	uxtb	r3, r3
	strb	r3, [r2, #5]
	cbnz	r3, .L450
.LVL659:
	ldr	r2, [r4, #144]
	ldrb	r3, [r2, #4]	@ zero_extendqisi2
	adds	r3, r3, #1
	uxtb	r3, r3
	strb	r3, [r2, #4]
	cbnz	r3, .L450
.LVL660:
	ldr	r2, [r4, #144]
	ldrb	r3, [r2, #3]	@ zero_extendqisi2
	adds	r3, r3, #1
	uxtb	r3, r3
	strb	r3, [r2, #3]
	cbnz	r3, .L450
.LVL661:
	ldr	r2, [r4, #144]
	ldrb	r3, [r2, #2]	@ zero_extendqisi2
	adds	r3, r3, #1
	uxtb	r3, r3
	strb	r3, [r2, #2]
	cbnz	r3, .L450
.LVL662:
	ldr	r2, [r4, #144]
	ldrb	r3, [r2, #1]	@ zero_extendqisi2
	adds	r3, r3, #1
	uxtb	r3, r3
	strb	r3, [r2, #1]
	cbnz	r3, .L450
.LVL663:
	ldr	r2, [r4, #144]
	ldrb	r3, [r2]	@ zero_extendqisi2
	adds	r3, r3, #1
	uxtb	r3, r3
	strb	r3, [r2]
	cbnz	r3, .L450
.LVL664:
	.loc 1 2579 0
	ldr	r3, .L456+12
	mov	r0, r4
	str	r3, [sp]
	ldr	r2, .L456+4
	movw	r3, #2579
	movs	r1, #1
	.loc 1 2580 0
	sub	r5, r5, #27520
	.loc 1 2579 0
	bl	mbedtls_debug_print_msg
.LVL665:
.LBE273:
.LBE275:
	.loc 1 2586 0
	mov	r0, r5
	add	sp, sp, #16
	.cfi_remember_state
	.cfi_def_cfa_offset 24
	@ sp needed
	pop	{r4, r5, r6, r7, r8, pc}
.LVL666:
.L450:
	.cfi_restore_state
.LBB276:
.LBB274:
	.loc 1 2585 0
	movs	r5, #0
	.loc 1 2583 0
	ldr	r3, .L456+16
	mov	r0, r4
	str	r3, [sp]
	ldr	r2, .L456+4
	movw	r3, #2583
	movs	r1, #2
	bl	mbedtls_debug_print_msg
.LVL667:
.LBE274:
.LBE276:
	.loc 1 2586 0
	mov	r0, r5
	add	sp, sp, #16
	.cfi_remember_state
	.cfi_def_cfa_offset 24
	@ sp needed
	pop	{r4, r5, r6, r7, r8, pc}
.LVL668:
.L448:
	.cfi_restore_state
	.loc 1 2541 0
	ldr	r3, .L456+16
	mov	r0, r4
	str	r3, [sp]
	ldr	r2, .L456+4
	movw	r3, #2541
	movs	r1, #2
	bl	mbedtls_debug_print_msg
.LVL669:
	.loc 1 2586 0
	mov	r0, r5
	add	sp, sp, #16
	.cfi_remember_state
	.cfi_def_cfa_offset 24
	@ sp needed
	pop	{r4, r5, r6, r7, r8, pc}
.LVL670:
.L453:
	.cfi_restore_state
	.loc 1 2533 0
	ldr	r3, .L456+20
	mov	r0, r4
	str	r3, [sp]
	ldr	r2, .L456+4
	movw	r3, #2534
	movs	r1, #1
	bl	mbedtls_debug_print_msg
.LVL671:
	.loc 1 2535 0
	ldr	r5, .L456+24
	b	.L445
.L457:
	.align	2
.L456:
	.word	.LC60
	.word	.LC2
	.word	.LC62
	.word	.LC63
	.word	.LC64
	.word	.LC54
	.word	-28928
	.word	.LC61
	.cfi_endproc
.LFE596:
	.size	mbedtls_ssl_flush_output, .-mbedtls_ssl_flush_output
	.section	.text.mbedtls_ssl_write_record,"ax",%progbits
	.align	1
	.p2align 2,,3
	.global	mbedtls_ssl_write_record
	.syntax unified
	.thumb
	.thumb_func
	.fpu softvfp
	.type	mbedtls_ssl_write_record, %function
mbedtls_ssl_write_record:
.LFB597:
	.loc 1 2820 0
	.cfi_startproc
	@ args = 0, pretend = 0, frame = 24
	@ frame_needed = 0, uses_anonymous_args = 0
.LVL672:
	push	{r4, r5, r6, r7, r8, lr}
	.cfi_def_cfa_offset 24
	.cfi_offset 4, -24
	.cfi_offset 5, -20
	.cfi_offset 6, -16
	.cfi_offset 7, -12
	.cfi_offset 8, -8
	.cfi_offset 14, -4
	mov	r4, r0
	.loc 1 2824 0
	ldr	r2, .L514
	.loc 1 2820 0
	sub	sp, sp, #48
	.cfi_def_cfa_offset 72
	.loc 1 2824 0
	str	r2, [sp]
	movw	r3, #2824
	ldr	r2, .L514+4
	movs	r1, #2
	.loc 1 2822 0
	ldr	r5, [r0, #168]
.LVL673:
	.loc 1 2824 0
	bl	mbedtls_debug_print_msg
.LVL674:
	.loc 1 2835 0
	ldr	r3, [r4, #164]
	cmp	r3, #22
	beq	.L504
	uxtb	r6, r5
.L489:
	.loc 1 2936 0
	ldr	r2, [r4, #148]
	.loc 1 2940 0
	lsrs	r5, r5, #8
.LVL675:
	.loc 1 2936 0
	strb	r3, [r2]
	.loc 1 2938 0
	ldr	r3, [r4, #148]
	.loc 1 2937 0
	ldr	r1, [r4, #20]
.LVL676:
.LBB286:
.LBB287:
	.loc 1 7848 0
	ldr	r2, [r4, #16]
	.loc 1 7849 0
	strb	r1, [r3, #2]
.LVL677:
	.loc 1 7848 0
	strb	r2, [r3, #1]
.LBE287:
.LBE286:
	.loc 1 2940 0
	ldr	r3, [r4, #152]
	strb	r5, [r3]
	.loc 1 2941 0
	ldr	r3, [r4, #152]
	strb	r6, [r3, #1]
	.loc 1 2943 0
	ldr	r3, [r4, #64]
	cmp	r3, #0
	beq	.L463
.LVL678:
.LBB288:
.LBB289:
	.loc 1 1310 0
	ldr	r2, .L514+8
	movw	r3, #1310
	str	r2, [sp]
	movs	r1, #2
	ldr	r2, .L514+4
	mov	r0, r4
	bl	mbedtls_debug_print_msg
.LVL679:
	.loc 1 1312 0
	ldr	r3, [r4, #44]
	cmp	r3, #0
	beq	.L464
	.loc 1 1312 0
	ldr	r3, [r4, #64]
	cmp	r3, #0
	beq	.L464
.LVL680:
.LBB290:
.LBB291:
	.loc 2 359 0
	ldr	r3, [r3, #80]
.LVL681:
	.loc 2 359 0
	cmp	r3, #0
	beq	.L467
.LBE291:
.LBE290:
	.loc 1 1320 0
	ldr	r0, [r4, #168]
	ldr	r1, [r4, #160]
	ldr	r2, .L514+12
.LBB293:
.LBB292:
	.loc 2 362 0
	ldrb	r5, [r3, #1]	@ zero_extendqisi2
.LVL682:
.LBE292:
.LBE293:
	.loc 1 1320 0
	str	r0, [sp, #8]
	str	r1, [sp, #4]
	str	r2, [sp]
	movw	r3, #1321
	ldr	r2, .L514+4
	movs	r1, #4
	mov	r0, r4
	bl	mbedtls_debug_print_buf
.LVL683:
	.loc 1 1327 0
	cmp	r5, #7
	beq	.L468
	cmp	r5, #2
	beq	.L505
.LVL684:
.L469:
	.loc 1 1601 0
	movw	r3, #1601
	ldr	r2, .L514+16
.L502:
.LBB294:
	.loc 1 1547 0
	str	r2, [sp]
	movs	r1, #1
	ldr	r2, .L514+4
	mov	r0, r4
	bl	mbedtls_debug_print_msg
.LVL685:
	.loc 1 1548 0
	ldr	r7, .L514+20
.L466:
.LVL686:
.LBE294:
.LBE289:
.LBE288:
	.loc 1 2947 0
	ldr	r3, .L514+24
	mov	r0, r4
	str	r3, [sp]
	str	r7, [sp, #4]
	movw	r3, #2947
	ldr	r2, .L514+4
	movs	r1, #1
	bl	mbedtls_debug_print_ret
.LVL687:
	.loc 1 2976 0
	mov	r0, r7
	add	sp, sp, #48
	.cfi_remember_state
	.cfi_def_cfa_offset 24
	@ sp needed
	pop	{r4, r5, r6, r7, r8, pc}
.LVL688:
.L485:
	.cfi_restore_state
.LBB306:
.LBB302:
.LBB296:
	.loc 1 1552 0
	ldr	r3, [r4, #20]
	cmp	r3, #1
	bgt	.L486
	.loc 1 1557 0
	ldr	r0, [r4, #64]
.LVL689:
	ldr	r2, [r0, #12]
	add	r1, r0, #120
	adds	r0, r0, #24
	bl	memcpy
.LVL690:
.L486:
	.loc 1 1564 0
	cmp	r6, #0
	beq	.L506
.LVL691:
.L477:
.LBE296:
	.loc 1 1612 0
	ldr	r2, .L514+28
	movw	r3, #1612
	str	r2, [sp]
	movs	r1, #2
	ldr	r2, .L514+4
	mov	r0, r4
	bl	mbedtls_debug_print_msg
.LVL692:
.LBE302:
.LBE306:
	.loc 1 2951 0
	ldr	r3, [r4, #168]
.LVL693:
	.loc 1 2952 0
	ldr	r2, [r4, #152]
	lsrs	r1, r3, #8
	strb	r1, [r2]
	.loc 1 2953 0
	ldr	r2, [r4, #152]
	strb	r3, [r2, #1]
.LVL694:
.L463:
	.loc 1 2956 0
	ldr	r3, [r4, #168]
	.loc 1 2958 0
	ldr	r2, [r4, #152]
	.loc 1 2956 0
	adds	r3, r3, #5
	str	r3, [r4, #172]
	.loc 1 2958 0
	ldrb	r1, [r2]	@ zero_extendqisi2
	ldrb	r3, [r2, #1]	@ zero_extendqisi2
	ldr	r2, [r4, #148]
	.loc 1 2958 0
	orr	r3, r3, r1, lsl #8
	str	r3, [sp, #16]
	ldrb	r3, [r2, #2]	@ zero_extendqisi2
	ldr	r1, .L514+32
	str	r3, [sp, #12]
	ldrb	r0, [r2, #1]	@ zero_extendqisi2
	movw	r3, #2961
	str	r0, [sp, #8]
	ldrb	r0, [r2]	@ zero_extendqisi2
	ldr	r2, .L514+4
	str	r0, [sp, #4]
	str	r1, [sp]
	mov	r0, r4
	movs	r1, #3
	bl	mbedtls_debug_print_msg
.LVL695:
	.loc 1 2963 0
	ldr	r3, [r4, #168]
	ldr	r1, [r4, #148]
	ldr	r2, .L514+36
	adds	r3, r3, #5
	str	r3, [sp, #8]
	str	r1, [sp, #4]
	str	r2, [sp]
	movw	r3, #2964
	ldr	r2, .L514+4
	movs	r1, #4
	mov	r0, r4
	bl	mbedtls_debug_print_buf
.LVL696:
	.loc 1 2967 0
	mov	r0, r4
	bl	mbedtls_ssl_flush_output
.LVL697:
	mov	r7, r0
	cmp	r0, #0
	bne	.L507
	.loc 1 2973 0
	ldr	r3, .L514+40
	mov	r0, r4
.LVL698:
	str	r3, [sp]
	ldr	r2, .L514+4
	movw	r3, #2973
	movs	r1, #2
	bl	mbedtls_debug_print_msg
.LVL699:
.L458:
	.loc 1 2976 0
	mov	r0, r7
	add	sp, sp, #48
	.cfi_remember_state
	.cfi_def_cfa_offset 24
	@ sp needed
	pop	{r4, r5, r6, r7, r8, pc}
.LVL700:
.L468:
	.cfi_restore_state
.LBB307:
.LBB303:
	.loc 1 1346 0
	ldr	r3, [r4, #20]
	cmp	r3, #0
	ble	.L471
	.loc 1 1348 0
	ldr	r0, [r4, #64]
	movs	r2, #8
	ldr	r1, [r4, #144]
	adds	r0, r0, #56
	bl	mbedtls_md_hmac_update
.LVL701:
	.loc 1 1349 0
	ldr	r0, [r4, #64]
	movs	r2, #3
	ldr	r1, [r4, #148]
	adds	r0, r0, #56
	bl	mbedtls_md_hmac_update
.LVL702:
	.loc 1 1350 0
	ldr	r0, [r4, #64]
	movs	r2, #2
	ldr	r1, [r4, #152]
	adds	r0, r0, #56
	bl	mbedtls_md_hmac_update
.LVL703:
	.loc 1 1351 0
	ldr	r0, [r4, #64]
	ldr	r2, [r4, #168]
	ldr	r1, [r4, #160]
	adds	r0, r0, #56
	bl	mbedtls_md_hmac_update
.LVL704:
	.loc 1 1353 0
	ldr	r3, [r4, #168]
	ldr	r1, [r4, #160]
	ldr	r0, [r4, #64]
	add	r1, r1, r3
	adds	r0, r0, #56
	bl	mbedtls_md_hmac_finish
.LVL705:
	.loc 1 1355 0
	ldr	r0, [r4, #64]
	adds	r0, r0, #56
	bl	mbedtls_md_hmac_reset
.LVL706:
	.loc 1 1364 0
	ldr	r2, [r4, #64]
	.loc 1 1364 0
	ldr	r0, [r4, #168]
	ldr	r3, [r4, #160]
	.loc 1 1364 0
	ldr	r1, [r2, #20]
	ldr	r2, .L514+44
	.loc 1 1364 0
	add	r3, r3, r0
	.loc 1 1364 0
	stm	sp, {r2, r3}
	str	r1, [sp, #8]
	movw	r3, #1366
	ldr	r2, .L514+4
	mov	r0, r4
	movs	r1, #4
	bl	mbedtls_debug_print_buf
.LVL707:
	.loc 1 1368 0
	ldr	r3, [r4, #64]
	ldr	r0, [r4, #168]
	ldr	r2, [r3, #20]
	.loc 1 1377 0
	cmp	r5, #7
	.loc 1 1368 0
	add	r0, r0, r2
	str	r0, [r4, #168]
.LVL708:
	.loc 1 1377 0
	beq	.L508
	.loc 1 1484 0
	cmp	r5, #2
	bne	.L469
	.loc 1 1369 0
	movs	r6, #1
.LVL709:
.L470:
.LBB297:
	.loc 1 1490 0
	ldr	r2, [r3, #12]
	adds	r7, r0, #1
	udiv	r5, r7, r2
	.loc 1 1488 0
	movs	r3, #0
	.loc 1 1490 0
	mls	r5, r2, r5, r7
	subs	r5, r2, r5
.LVL710:
	.loc 1 1492 0
	cmp	r2, r5
	.loc 1 1490 0
	mov	r1, r0
	.loc 1 1488 0
	str	r3, [sp, #28]
	.loc 1 1492 0
	beq	.L478
	uxtb	r0, r5
	b	.L480
.LVL711:
.L509:
	ldr	r1, [r4, #168]
.LVL712:
.L480:
	.loc 1 1496 0
	ldr	r2, [r4, #160]
	add	r2, r2, r3
	.loc 1 1495 0
	adds	r3, r3, #1
.LVL713:
	cmp	r5, r3
	.loc 1 1496 0
	strb	r0, [r2, r1]
	.loc 1 1495 0
	bcs	.L509
.LVL714:
.L479:
	.loc 1 1498 0
	ldr	r3, [r4, #168]
	.loc 1 1508 0
	ldr	r2, [r4, #20]
	.loc 1 1498 0
	adds	r3, r3, #1
	add	r8, r3, r5
	.loc 1 1508 0
	cmp	r2, #1
	.loc 1 1498 0
	str	r8, [r4, #168]
.LVL715:
	.loc 1 1508 0
	ble	.L510
	.loc 1 1513 0
	ldr	r3, [r4]
	ldr	r1, [r4, #64]
	ldr	r7, [r3, #24]
	ldr	r2, [r1, #12]
	ldr	r0, [r3, #28]
	adds	r1, r1, #24
	blx	r7
.LVL716:
	.loc 1 1515 0
	mov	r7, r0
	cmp	r0, #0
	bne	.L466
	.loc 1 1518 0
	ldr	r1, [r4, #64]
	ldr	r0, [r4, #156]
.LVL717:
	ldr	r2, [r1, #12]
	adds	r1, r1, #24
	bl	memcpy
.LVL718:
	.loc 1 1526 0
	ldr	r3, [r4, #64]
	.loc 1 1525 0
	ldr	r8, [r4, #168]
.LVL719:
	.loc 1 1526 0
	ldr	r2, [r3, #12]
	.loc 1 1524 0
	ldr	r7, [r4, #160]
.LVL720:
	.loc 1 1526 0
	add	r3, r8, r2
	str	r3, [r4, #168]
.LVL721:
.L482:
	.loc 1 1530 0
	ldr	r1, .L514+48
	adds	r5, r5, #1
	stm	sp, {r1, r3}
	str	r5, [sp, #12]
	str	r2, [sp, #8]
	movw	r3, #1533
	ldr	r2, .L514+4
	movs	r1, #3
	mov	r0, r4
	bl	mbedtls_debug_print_msg
.LVL722:
	.loc 1 1535 0
	ldr	r0, [r4, #64]
	add	r5, sp, #28
	ldr	r2, [r0, #12]
	mov	r3, r7
	str	r7, [sp, #4]
	add	r1, r0, #24
	str	r8, [sp]
	adds	r0, r0, #80
	str	r5, [sp, #8]
	bl	mbedtls_cipher_crypt
.LVL723:
	mov	r7, r0
.LVL724:
	cmp	r0, #0
	bne	.L511
	.loc 1 1545 0
	ldr	r3, [sp, #28]
	cmp	r8, r3
	beq	.L485
	.loc 1 1547 0
	ldr	r2, .L514+16
	movw	r3, #1547
	b	.L502
.LVL725:
.L507:
.LBE297:
.LBE303:
.LBE307:
	.loc 1 2969 0
	ldr	r3, .L514+52
	str	r0, [sp, #4]
	str	r3, [sp]
	mov	r0, r4
.LVL726:
	movw	r3, #2969
	ldr	r2, .L514+4
	movs	r1, #1
	bl	mbedtls_debug_print_ret
.LVL727:
	.loc 1 2976 0
	mov	r0, r7
	add	sp, sp, #48
	.cfi_remember_state
	.cfi_def_cfa_offset 24
	@ sp needed
	pop	{r4, r5, r6, r7, r8, pc}
.LVL728:
.L515:
	.align	2
.L514:
	.word	.LC65
	.word	.LC2
	.word	.LC66
	.word	.LC67
	.word	.LC18
	.word	-27648
	.word	.LC75
	.word	.LC70
	.word	.LC71
	.word	.LC72
	.word	.LC74
	.word	.LC26
	.word	.LC69
	.word	.LC73
.LVL729:
.L504:
	.cfi_restore_state
	.loc 1 2837 0
	ldr	r3, [r4, #160]
.LVL730:
	.loc 1 2839 0
	ldrb	r2, [r3]	@ zero_extendqisi2
.LVL731:
	cbz	r2, .L460
	.loc 1 2839 0 is_stmt 0 discriminator 1
	ldr	r2, [r4, #56]
.LVL732:
	cmp	r2, #0
	beq	.L512
	.loc 1 2846 0 is_stmt 1
	subs	r2, r5, #4
	lsrs	r1, r2, #16
	strb	r1, [r3, #1]
	.loc 1 2847 0
	ldr	r3, [r4, #160]
.LVL733:
	lsrs	r2, r2, #8
	strb	r2, [r3, #2]
	.loc 1 2848 0
	ldr	r3, [r4, #160]
	uxtb	r6, r5
	subs	r2, r6, #4
	strb	r2, [r3, #3]
	.loc 1 2885 0
	ldr	r3, [r4, #56]
	ldr	r1, [r4, #160]
	ldr	r3, [r3, #536]
	mov	r2, r5
	mov	r0, r4
	blx	r3
.LVL734:
	ldr	r3, [r4, #164]
	b	.L489
.LVL735:
.L467:
.LBB308:
.LBB304:
	.loc 1 1320 0
	ldr	r1, [r4, #168]
	ldr	r2, [r4, #160]
	ldr	r3, .L516
	str	r1, [sp, #8]
	str	r2, [sp, #4]
	str	r3, [sp]
	ldr	r2, .L516+4
	movw	r3, #1321
	movs	r1, #4
	mov	r0, r4
	bl	mbedtls_debug_print_buf
.LVL736:
	b	.L469
.LVL737:
.L460:
.LBE304:
.LBE308:
	.loc 1 2846 0
	subs	r2, r5, #4
.LVL738:
	lsrs	r1, r2, #16
	strb	r1, [r3, #1]
	.loc 1 2847 0
	ldr	r3, [r4, #160]
.LVL739:
	lsrs	r2, r2, #8
	strb	r2, [r3, #2]
	.loc 1 2848 0
	ldr	r3, [r4, #160]
	uxtb	r6, r5
	subs	r2, r6, #4
	strb	r2, [r3, #3]
	ldr	r3, [r4, #164]
	b	.L489
.LVL740:
.L478:
.LBB309:
.LBB305:
.LBB298:
	.loc 1 1496 0
	ldr	r2, [r4, #160]
	.loc 1 1493 0
	mov	r5, r3
	.loc 1 1496 0
	strb	r3, [r2, r0]
.LVL741:
	b	.L479
.LVL742:
.L510:
	ldr	r3, [r4, #64]
	.loc 1 1501 0
	ldr	r7, [r4, #160]
	ldr	r2, [r3, #12]
	mov	r3, r8
	b	.L482
.LVL743:
.L505:
.LBE298:
	.loc 1 1330 0
	ldr	r3, [r4, #44]
	ldr	r3, [r3, #120]
	cmp	r3, #0
	beq	.L468
	movs	r6, #0
	ldr	r0, [r4, #168]
	ldr	r3, [r4, #64]
	b	.L470
.LVL744:
.L508:
.LBB299:
	.loc 1 1380 0
	movs	r6, #0
	.loc 1 1382 0
	ldr	r3, .L516+8
	.loc 1 1380 0
	add	r5, sp, #48
	.loc 1 1382 0
	str	r0, [sp, #4]
	str	r6, [sp, #8]
	str	r3, [sp]
	ldr	r2, .L516+4
	.loc 1 1380 0
	str	r6, [r5, #-16]!
	.loc 1 1382 0
	mov	r3, #1384
	movs	r1, #3
	mov	r0, r4
	bl	mbedtls_debug_print_msg
.LVL745:
	.loc 1 1386 0
	ldr	r0, [r4, #64]
	.loc 1 1389 0
	ldr	r3, [r4, #160]
	.loc 1 1386 0
	ldr	r6, [r4, #168]
	ldr	r2, [r0, #12]
	add	r1, r0, #24
	str	r5, [sp, #8]
	adds	r0, r0, #80
	str	r3, [sp, #4]
	str	r6, [sp]
	bl	mbedtls_cipher_crypt
.LVL746:
	mov	r7, r0
	cmp	r0, #0
	bne	.L513
	.loc 1 1396 0
	ldr	r2, [r4, #168]
	ldr	r3, [sp, #32]
	cmp	r2, r3
	beq	.L477
	.loc 1 1398 0
	ldr	r2, .L516+12
	movw	r3, #1398
	b	.L502
.LVL747:
.L511:
.LBE299:
.LBB300:
	.loc 1 1541 0
	ldr	r3, .L516+16
	ldr	r2, .L516+4
	stm	sp, {r3, r7}
	movs	r1, #1
	movw	r3, #1541
	mov	r0, r4
.LVL748:
	bl	mbedtls_debug_print_ret
.LVL749:
	b	.L466
.L506:
.LBB295:
	.loc 1 1576 0
	ldr	r2, .L516+20
	.loc 1 1578 0
	add	r5, sp, #32
	.loc 1 1576 0
	mov	r3, #1576
	str	r2, [sp]
	movs	r1, #3
	ldr	r2, .L516+4
	mov	r0, r4
	bl	mbedtls_debug_print_msg
.LVL750:
	.loc 1 1578 0
	mov	r3, r5
	.loc 1 1583 0
	movs	r6, #13
.LVL751:
	.loc 1 1578 0
	ldr	r1, [r4, #144]
	.loc 1 1579 0
	ldr	r2, [r4, #148]
	.loc 1 1578 0
	ldr	r0, [r1]	@ unaligned
	ldr	r1, [r1, #4]	@ unaligned
	.loc 1 1580 0
	ldr	r7, [r4, #168]
.LVL752:
	.loc 1 1578 0
	stmia	r3!, {r0, r1}
	.loc 1 1583 0
	ldr	r3, .L516+24
	.loc 1 1579 0
	ldrh	r0, [r2]	@ unaligned
	ldrb	r1, [r2, #2]	@ zero_extendqisi2
	.loc 1 1580 0
	lsr	ip, r7, #8
	.loc 1 1583 0
	stm	sp, {r3, r5, r6}
	.loc 1 1579 0
	strh	r0, [sp, #40]	@ unaligned
	.loc 1 1583 0
	movw	r3, #1583
	ldr	r2, .L516+4
	.loc 1 1579 0
	strb	r1, [sp, #42]
	.loc 1 1583 0
	mov	r0, r4
	movs	r1, #4
	.loc 1 1580 0
	strb	ip, [sp, #43]
	.loc 1 1581 0
	strb	r7, [sp, #44]
	.loc 1 1583 0
	bl	mbedtls_debug_print_buf
.LVL753:
	.loc 1 1585 0
	ldr	r0, [r4, #64]
	mov	r2, r6
	mov	r1, r5
	adds	r0, r0, #56
	bl	mbedtls_md_hmac_update
.LVL754:
	.loc 1 1586 0
	ldr	r0, [r4, #64]
	ldr	r2, [r4, #168]
	ldr	r1, [r4, #156]
	adds	r0, r0, #56
	bl	mbedtls_md_hmac_update
.LVL755:
	.loc 1 1588 0
	ldr	r3, [r4, #168]
	ldr	r1, [r4, #156]
	ldr	r0, [r4, #64]
	add	r1, r1, r3
	adds	r0, r0, #56
	bl	mbedtls_md_hmac_finish
.LVL756:
	.loc 1 1590 0
	ldr	r0, [r4, #64]
	adds	r0, r0, #56
	bl	mbedtls_md_hmac_reset
.LVL757:
	.loc 1 1592 0
	ldr	r2, [r4, #64]
	ldr	r3, [r4, #168]
	ldr	r2, [r2, #20]
	add	r3, r3, r2
	str	r3, [r4, #168]
.LVL758:
	b	.L477
.LVL759:
.L513:
.LBE295:
.LBE300:
.LBB301:
	.loc 1 1392 0
	ldr	r3, .L516+16
	ldr	r2, .L516+4
	stm	sp, {r3, r7}
	movs	r1, #1
	mov	r3, #1392
	mov	r0, r4
.LVL760:
	bl	mbedtls_debug_print_ret
.LVL761:
	b	.L466
.LVL762:
.L464:
.LBE301:
	.loc 1 1314 0
	ldr	r2, .L516+12
	movw	r3, #1314
	b	.L502
.L471:
	.loc 1 1360 0
	ldr	r2, .L516+12
	mov	r3, #1360
	b	.L502
.LVL763:
.L512:
.LBE305:
.LBE309:
	.loc 1 2842 0
	ldr	r3, .L516+12
.LVL764:
	mov	r0, r4
	str	r3, [sp]
.LVL765:
	ldr	r2, .L516+4
	movw	r3, #2842
	movs	r1, #1
	bl	mbedtls_debug_print_msg
.LVL766:
	.loc 1 2843 0
	ldr	r7, .L516+28
	b	.L458
.L517:
	.align	2
.L516:
	.word	.LC67
	.word	.LC2
	.word	.LC68
	.word	.LC18
	.word	.LC20
	.word	.LC23
	.word	.LC24
	.word	-27648
	.cfi_endproc
.LFE597:
	.size	mbedtls_ssl_write_record, .-mbedtls_ssl_write_record
	.section	.text.mbedtls_ssl_prepare_handshake_record,"ax",%progbits
	.align	1
	.p2align 2,,3
	.global	mbedtls_ssl_prepare_handshake_record
	.syntax unified
	.thumb
	.thumb_func
	.fpu softvfp
	.type	mbedtls_ssl_prepare_handshake_record, %function
mbedtls_ssl_prepare_handshake_record:
.LFB598:
	.loc 1 3201 0
	.cfi_startproc
	@ args = 0, pretend = 0, frame = 0
	@ frame_needed = 0, uses_anonymous_args = 0
.LVL767:
	push	{r4, r5, r6, r7, lr}
	.cfi_def_cfa_offset 20
	.cfi_offset 4, -20
	.cfi_offset 5, -16
	.cfi_offset 6, -12
	.cfi_offset 7, -8
	.cfi_offset 14, -4
	.loc 1 3202 0
	ldr	r1, [r0, #120]
.LVL768:
	.loc 1 3201 0
	sub	sp, sp, #20
	.cfi_def_cfa_offset 40
	.loc 1 3202 0
	cmp	r1, #3
	bls	.L523
.LVL769:
	mov	r4, r0
	.loc 1 3210 0
	ldr	r2, [r0, #108]
	.loc 1 3214 0
	ldr	r5, .L525
	.loc 1 3211 0
	ldrb	r3, [r2, #2]	@ zero_extendqisi2
	.loc 1 3210 0
	ldrb	r7, [r2, #1]	@ zero_extendqisi2
	.loc 1 3212 0
	ldrb	r6, [r2, #3]	@ zero_extendqisi2
	.loc 1 3211 0
	lsls	r3, r3, #8
	.loc 1 3210 0
	orr	r3, r3, r7, lsl #16
	.loc 1 3211 0
	orrs	r3, r3, r6
	.loc 1 3209 0
	adds	r3, r3, #4
	str	r3, [r0, #128]
	.loc 1 3214 0
	str	r3, [sp, #12]
	ldrb	r2, [r2]	@ zero_extendqisi2
	mov	r3, #3216
	str	r2, [sp, #8]
	str	r1, [sp, #4]
	ldr	r2, .L525+4
	str	r5, [sp]
	movs	r1, #3
	bl	mbedtls_debug_print_msg
.LVL770:
	.loc 1 3276 0
	ldr	r2, [r4, #120]
	ldr	r3, [r4, #128]
	cmp	r2, r3
	.loc 1 3282 0
	it	cs
	movcs	r0, #0
	.loc 1 3276 0
	bcc	.L524
.LVL771:
.L518:
	.loc 1 3283 0
	add	sp, sp, #20
	.cfi_remember_state
	.cfi_def_cfa_offset 20
	@ sp needed
	pop	{r4, r5, r6, r7, pc}
.LVL772:
.L523:
	.cfi_restore_state
	.loc 1 3204 0
	ldr	r3, .L525+8
	str	r1, [sp, #4]
	str	r3, [sp]
	ldr	r2, .L525+4
	movw	r3, #3205
	movs	r1, #1
	bl	mbedtls_debug_print_msg
.LVL773:
	.loc 1 3206 0
	ldr	r0, .L525+12
	b	.L518
.LVL774:
.L524:
.LBB312:
.LBB313:
	.loc 1 3278 0
	ldr	r3, .L525+16
	mov	r0, r4
	str	r3, [sp]
	ldr	r2, .L525+4
	movw	r3, #3278
	movs	r1, #1
	bl	mbedtls_debug_print_msg
.LVL775:
	ldr	r0, .L525+20
	b	.L518
.L526:
	.align	2
.L525:
	.word	.LC77
	.word	.LC2
	.word	.LC76
	.word	-29184
	.word	.LC78
	.word	-28800
.LBE313:
.LBE312:
	.cfi_endproc
.LFE598:
	.size	mbedtls_ssl_prepare_handshake_record, .-mbedtls_ssl_prepare_handshake_record
	.section	.text.mbedtls_ssl_update_handshake_status,"ax",%progbits
	.align	1
	.p2align 2,,3
	.global	mbedtls_ssl_update_handshake_status
	.syntax unified
	.thumb
	.thumb_func
	.fpu softvfp
	.type	mbedtls_ssl_update_handshake_status, %function
mbedtls_ssl_update_handshake_status:
.LFB599:
	.loc 1 3286 0
	.cfi_startproc
	@ args = 0, pretend = 0, frame = 0
	@ frame_needed = 0, uses_anonymous_args = 0
	@ link register save eliminated.
.LVL776:
	.loc 1 3288 0
	ldr	r2, [r0, #4]
	cmp	r2, #16
	beq	.L527
	.loc 1 3289 0 discriminator 1
	ldr	r2, [r0, #56]
	.loc 1 3288 0 discriminator 1
	cbz	r2, .L527
	.loc 1 3286 0
	push	{r4}
	.cfi_def_cfa_offset 4
	.cfi_offset 4, -4
	.loc 1 3291 0
	ldr	r4, [r2, #536]
	ldr	r1, [r0, #108]
	mov	r3, r4
	ldr	r2, [r0, #128]
	.loc 1 3302 0
	pop	{r4}
	.cfi_restore 4
	.cfi_def_cfa_offset 0
	.loc 1 3291 0
	bx	r3	@ indirect register sibling call
.LVL777:
.L527:
	bx	lr
	.cfi_endproc
.LFE599:
	.size	mbedtls_ssl_update_handshake_status, .-mbedtls_ssl_update_handshake_status
	.section	.text.mbedtls_ssl_read_record,"ax",%progbits
	.align	1
	.p2align 2,,3
	.global	mbedtls_ssl_read_record
	.syntax unified
	.thumb
	.thumb_func
	.fpu softvfp
	.type	mbedtls_ssl_read_record, %function
mbedtls_ssl_read_record:
.LFB602:
	.loc 1 3881 0
	.cfi_startproc
	@ args = 0, pretend = 0, frame = 0
	@ frame_needed = 0, uses_anonymous_args = 0
.LVL778:
	push	{r4, r5, r6, r7, r8, r9, lr}
	.cfi_def_cfa_offset 28
	.cfi_offset 4, -28
	.cfi_offset 5, -24
	.cfi_offset 6, -20
	.cfi_offset 7, -16
	.cfi_offset 8, -12
	.cfi_offset 9, -8
	.cfi_offset 14, -4
	.loc 1 3884 0
	ldr	r2, .L617
	.loc 1 3881 0
	sub	sp, sp, #28
	.cfi_def_cfa_offset 56
	.loc 1 3884 0
	str	r2, [sp]
	movw	r3, #3884
	ldr	r2, .L617+4
	movs	r1, #2
	.loc 1 3881 0
	mov	r4, r0
	.loc 1 3884 0
	bl	mbedtls_debug_print_msg
.LVL779:
.LBB342:
.LBB343:
	.loc 1 3928 0
	ldr	r8, .L617+60
	ldr	r6, .L617+4
.LBB344:
.LBB345:
	.loc 1 3619 0
	ldr	r7, .L617+8
.L582:
.LVL780:
.LBE345:
.LBE344:
	.loc 1 3918 0
	ldr	r1, [r4, #128]
	cbz	r1, .L539
	ldr	r2, [r4, #120]
	cmp	r1, r2
	bcc	.L596
.L539:
	.loc 1 3934 0
	movs	r3, #0
	.loc 1 3943 0
	movs	r1, #5
	.loc 1 3934 0
	str	r3, [r4, #128]
.LVL781:
	.loc 1 3943 0
	mov	r0, r4
	bl	mbedtls_ssl_fetch_input
.LVL782:
	mov	r5, r0
	cmp	r0, #0
	bne	.L597
.LVL783:
.LBB362:
.LBB356:
	.loc 1 3619 0
	movs	r2, #5
	ldr	r3, [r4, #96]
	movs	r1, #4
	str	r2, [sp, #8]
	str	r3, [sp, #4]
	mov	r2, r6
	movw	r3, #3619
	mov	r0, r4
.LVL784:
	str	r7, [sp]
	bl	mbedtls_debug_print_buf
.LVL785:
	.loc 1 3621 0
	ldr	r2, [r4, #96]
	.loc 1 3622 0
	ldr	r3, [r4, #100]
	.loc 1 3621 0
	ldrb	r0, [r2]	@ zero_extendqisi2
	.loc 1 3625 0
	ldr	ip, .L617+64
	.loc 1 3621 0
	str	r0, [r4, #116]
	.loc 1 3622 0
	ldrb	r5, [r3]	@ zero_extendqisi2
.LVL786:
	ldrb	r1, [r3, #1]	@ zero_extendqisi2
	.loc 1 3625 0
	movw	r3, #3628
	.loc 1 3622 0
	orr	r1, r1, r5, lsl #8
	str	r1, [r4, #120]
.LVL787:
.LBB346:
.LBB347:
	.loc 1 7870 0
	ldrb	r5, [r2, #1]	@ zero_extendqisi2
.LVL788:
	.loc 1 7871 0
	ldrb	r9, [r2, #2]	@ zero_extendqisi2
.LVL789:
.LBE347:
.LBE346:
	.loc 1 3625 0
	str	r0, [sp, #4]
	str	r1, [sp, #16]
	mov	r2, r6
	str	r9, [sp, #12]
	str	r5, [sp, #8]
	str	ip, [sp]
	movs	r1, #3
	mov	r0, r4
	bl	mbedtls_debug_print_msg
.LVL790:
	.loc 1 3633 0
	ldr	r3, [r4, #116]
	subs	r3, r3, #20
	.loc 1 3631 0
	cmp	r3, #3
	bhi	.L598
	.loc 1 3649 0
	ldr	r3, [r4, #16]
	cmp	r5, r3
	bne	.L599
	.loc 1 3655 0
	ldr	r3, [r4]
	ldrb	r3, [r3, #105]	@ zero_extendqisi2
	cmp	r9, r3
	bgt	.L600
	.loc 1 3663 0
	ldr	r3, [r4, #108]
	ldr	r2, [r4, #88]
	.loc 1 3662 0
	ldr	r1, [r4, #120]
	.loc 1 3663 0
	subs	r3, r3, r2
	rsb	r3, r3, #6464
	adds	r3, r3, #13
	.loc 1 3662 0
	cmp	r1, r3
	bhi	.L601
	.loc 1 3670 0
	ldr	r3, [r4, #60]
	cmp	r3, #0
	beq	.L602
	.loc 1 3685 0
	ldr	r3, [r3, #8]
	cmp	r1, r3
	bcc	.L603
	.loc 1 3708 0
	ldr	r2, [r4, #20]
	cmp	r2, #0
	ble	.L549
	.loc 1 3713 0
	add	r3, r3, #6400
	.loc 1 3708 0
	cmp	r1, r3
	bhi	.L604
.L549:
.LVL791:
.LBE356:
.LBE362:
	.loc 1 3984 0
	adds	r1, r1, #5
	mov	r0, r4
	bl	mbedtls_ssl_fetch_input
.LVL792:
	mov	r5, r0
	cmp	r0, #0
	bne	.L605
.LBB363:
.LBB364:
	.loc 1 3808 0
	ldr	r3, [r4, #120]
	ldr	r1, [r4, #96]
	ldr	r2, .L617+12
	adds	r3, r3, #5
.LBE364:
.LBE363:
	.loc 1 3997 0
	str	r5, [r4, #124]
.LVL793:
.LBB369:
.LBB365:
	.loc 1 3808 0
	mov	r0, r4
.LVL794:
	str	r3, [sp, #8]
	str	r1, [sp, #4]
	str	r2, [sp]
	movw	r3, #3809
	mov	r2, r6
	movs	r1, #4
	bl	mbedtls_debug_print_buf
.LVL795:
	.loc 1 3827 0
	ldr	r3, [r4, #60]
	cbz	r3, .L540
	.loc 1 3829 0
	mov	r0, r4
	bl	ssl_decrypt_buf
.LVL796:
	mov	r5, r0
.LVL797:
	cmp	r0, #0
	bne	.L606
	.loc 1 3835 0
	ldr	r1, [r4, #120]
	ldr	r2, [r4, #108]
	ldr	r3, .L617+16
	str	r1, [sp, #8]
	str	r2, [sp, #4]
	str	r3, [sp]
	mov	r2, r6
	movw	r3, #3836
	movs	r1, #4
	mov	r0, r4
.LVL798:
	bl	mbedtls_debug_print_buf
.LVL799:
	.loc 1 3841 0
	ldr	r3, [r4, #120]
	cmp	r3, #6144
	bhi	.L607
.LVL800:
.L540:
.LBE365:
.LBE369:
.LBE343:
.LBE342:
.LBB391:
.LBB392:
	.loc 1 4106 0
	ldr	r3, [r4, #116]
	cmp	r3, #22
	beq	.L608
.LVL801:
.L568:
	.loc 1 4114 0
	cmp	r3, #21
	beq	.L609
.LVL802:
.LBE392:
.LBE391:
.LBB412:
.LBB413:
	.loc 1 3904 0
	cmp	r3, #22
	beq	.L610
.L564:
	.loc 1 3909 0
	ldr	r3, .L617+20
	mov	r0, r4
	str	r3, [sp]
	ldr	r2, .L617+4
	movw	r3, #3909
	movs	r1, #2
	bl	mbedtls_debug_print_msg
.LVL803:
	movs	r5, #0
.L538:
.LBE413:
.LBE412:
	.loc 1 3912 0
	mov	r0, r5
	add	sp, sp, #28
	.cfi_remember_state
	.cfi_def_cfa_offset 28
	@ sp needed
	pop	{r4, r5, r6, r7, r8, r9, pc}
.LVL804:
.L597:
	.cfi_restore_state
.LBB417:
.LBB386:
	.loc 1 3945 0
	ldr	r3, .L617+24
	ldr	r2, .L617+4
	stm	sp, {r3, r5}
	movs	r1, #1
	movw	r3, #3945
	mov	r0, r4
.LVL805:
	bl	mbedtls_debug_print_ret
.LVL806:
.L542:
.LBE386:
.LBE417:
	.loc 1 3890 0
	ldr	r3, .L617+28
	mov	r0, r4
	str	r3, [sp]
	str	r5, [sp, #4]
	movw	r3, #3890
	ldr	r2, .L617+4
	movs	r1, #1
	bl	mbedtls_debug_print_ret
.LVL807:
	.loc 1 3912 0
	mov	r0, r5
	add	sp, sp, #28
	.cfi_remember_state
	.cfi_def_cfa_offset 28
	@ sp needed
	pop	{r4, r5, r6, r7, r8, r9, pc}
.LVL808:
.L609:
	.cfi_restore_state
.LBB418:
.LBB407:
.LBB393:
.LBB394:
	.loc 1 4116 0
	ldr	r2, [r4, #108]
	.loc 1 4116 0
	ldr	r1, .L617+32
	ldrb	r0, [r2, #1]	@ zero_extendqisi2
	movw	r3, #4117
	str	r0, [sp, #8]
	ldrb	r0, [r2]	@ zero_extendqisi2
	mov	r2, r6
	str	r0, [sp, #4]
	str	r1, [sp]
	mov	r0, r4
	movs	r1, #2
	bl	mbedtls_debug_print_msg
.LVL809:
	.loc 1 4122 0
	ldr	r2, [r4, #108]
	ldrb	r3, [r2]	@ zero_extendqisi2
	cmp	r3, #2
	beq	.L611
	.loc 1 4129 0
	cmp	r3, #1
	bne	.L582
	.loc 1 4130 0
	ldrb	r3, [r2, #1]	@ zero_extendqisi2
	.loc 1 4129 0
	cmp	r3, #0
	beq	.L612
	.loc 1 4137 0
	cmp	r3, #100
	bne	.L582
	.loc 1 4140 0
	ldr	r2, .L617+36
	movw	r3, #4140
	str	r2, [sp]
	movs	r1, #2
	ldr	r2, .L617+4
	mov	r0, r4
	bl	mbedtls_debug_print_msg
.LVL810:
	ldr	r3, [r4, #116]
.LVL811:
.LBE394:
.LBE393:
.LBE407:
.LBE418:
.LBB419:
.LBB416:
	.loc 1 3904 0
	cmp	r3, #22
	bne	.L564
.LVL812:
.L610:
.LBB414:
.LBB415:
	.loc 1 3288 0
	ldr	r3, [r4, #4]
	cmp	r3, #16
	beq	.L564
	.loc 1 3289 0
	ldr	r3, [r4, #56]
	.loc 1 3288 0
	cmp	r3, #0
	beq	.L564
	.loc 1 3291 0
	ldr	r3, [r3, #536]
	ldr	r2, [r4, #128]
	ldr	r1, [r4, #108]
	mov	r0, r4
	blx	r3
.LVL813:
	b	.L564
.LVL814:
.L598:
.LBE415:
.LBE414:
.LBE416:
.LBE419:
.LBB420:
.LBB387:
.LBB370:
.LBB357:
	.loc 1 3636 0
	ldr	r2, .L617+40
	movw	r3, #3636
	str	r2, [sp]
	movs	r1, #1
	ldr	r2, .L617+4
	mov	r0, r4
	bl	mbedtls_debug_print_msg
.LVL815:
.LBB348:
.LBB349:
	.loc 1 4185 0
	ldr	r3, [r4]
	cmp	r3, #0
	beq	.L571
	.loc 1 4188 0
	ldr	r2, .L617+44
	movw	r3, #4188
	str	r2, [sp]
	movs	r1, #2
	ldr	r2, .L617+4
	mov	r0, r4
	bl	mbedtls_debug_print_msg
.LVL816:
	.loc 1 4191 0
	movs	r6, #2
	.loc 1 4190 0
	movs	r1, #21
	.loc 1 4193 0
	movs	r2, #10
	.loc 1 4192 0
	ldr	r3, [r4, #160]
	.loc 1 4190 0
	str	r1, [r4, #164]
	.loc 1 4191 0
	str	r6, [r4, #168]
	.loc 1 4192 0
	strb	r6, [r3]
	.loc 1 4193 0
	ldr	r3, [r4, #160]
	.loc 1 4195 0
	mov	r0, r4
	.loc 1 4193 0
	strb	r2, [r3, #1]
	.loc 1 4195 0
	bl	mbedtls_ssl_write_record
.LVL817:
	mov	r5, r0
.LVL818:
	cmp	r0, #0
	bne	.L613
.LVL819:
.LBB350:
.LBB351:
	.loc 1 4201 0
	ldr	r3, .L617+48
	mov	r1, r6
	str	r3, [sp]
	ldr	r2, .L617+4
	movw	r3, #4201
	mov	r0, r4
.LVL820:
	bl	mbedtls_debug_print_msg
.LVL821:
.LBE351:
.LBE350:
.LBE349:
.LBE348:
	.loc 1 3645 0
	ldr	r5, .L617+52
	b	.L542
.LVL822:
.L596:
.LBE357:
.LBE370:
	.loc 1 3925 0
	ldr	r0, [r4, #108]
	.loc 1 3923 0
	subs	r2, r2, r1
	str	r2, [r4, #120]
	.loc 1 3925 0
	add	r1, r1, r0
	bl	memmove
.LVL823:
	.loc 1 3928 0
	ldr	r2, [r4, #120]
	ldr	r3, [r4, #108]
	movs	r1, #4
	str	r2, [sp, #8]
	str	r3, [sp, #4]
	str	r8, [sp]
	movw	r3, #3929
	mov	r2, r6
	mov	r0, r4
	bl	mbedtls_debug_print_buf
.LVL824:
.LBE387:
.LBE420:
.LBB421:
.LBB408:
	.loc 1 4106 0
	ldr	r3, [r4, #116]
	cmp	r3, #22
	bne	.L568
.L608:
.LVL825:
.LBB397:
.LBB398:
	.loc 1 3202 0
	ldr	r1, [r4, #120]
.LVL826:
	cmp	r1, #3
	bls	.L614
.LVL827:
	.loc 1 3210 0
	ldr	r2, [r4, #108]
	.loc 1 3214 0
	ldr	r0, .L617+56
	.loc 1 3211 0
	ldrb	r3, [r2, #2]	@ zero_extendqisi2
	.loc 1 3210 0
	ldrb	ip, [r2, #1]	@ zero_extendqisi2
	.loc 1 3212 0
	ldrb	r5, [r2, #3]	@ zero_extendqisi2
	.loc 1 3211 0
	lsls	r3, r3, #8
	.loc 1 3210 0
	orr	r3, r3, ip, lsl #16
	.loc 1 3211 0
	orrs	r3, r3, r5
	.loc 1 3209 0
	adds	r3, r3, #4
	str	r3, [r4, #128]
	.loc 1 3214 0
	str	r3, [sp, #12]
	ldrb	r2, [r2]	@ zero_extendqisi2
	mov	r3, #3216
	stm	sp, {r0, r1, r2}
	mov	r2, r6
	movs	r1, #3
	mov	r0, r4
	bl	mbedtls_debug_print_msg
.LVL828:
	.loc 1 3276 0
	ldr	r2, [r4, #120]
	ldr	r3, [r4, #128]
	cmp	r2, r3
	bcc	.L615
	ldr	r3, [r4, #116]
	b	.L568
.L618:
	.align	2
.L617:
	.word	.LC79
	.word	.LC2
	.word	.LC82
	.word	.LC91
	.word	.LC93
	.word	.LC99
	.word	.LC81
	.word	.LC100
	.word	.LC94
	.word	.LC97
	.word	.LC84
	.word	.LC85
	.word	.LC87
	.word	-29184
	.word	.LC77
	.word	.LC80
	.word	.LC83
.LVL829:
.L605:
.LBE398:
.LBE397:
.LBE408:
.LBE421:
.LBB422:
.LBB388:
	.loc 1 3987 0
	ldr	r3, .L619
	ldr	r2, .L619+4
	stm	sp, {r3, r5}
	movs	r1, #1
	movw	r3, #3987
	mov	r0, r4
.LVL830:
	bl	mbedtls_debug_print_ret
.LVL831:
	b	.L542
.LVL832:
.L606:
.LBB371:
.LBB366:
	.loc 1 3831 0
	ldr	r3, .L619+8
	ldr	r2, .L619+4
	stm	sp, {r3, r5}
	movs	r1, #1
	movw	r3, #3831
	mov	r0, r4
.LVL833:
	bl	mbedtls_debug_print_ret
.LVL834:
.LBE366:
.LBE371:
	.loc 1 4045 0
	cmn	r5, #29056
	bne	.L542
.LVL835:
.LBB372:
.LBB373:
	.loc 1 4185 0
	ldr	r3, [r4]
	cmp	r3, #0
	beq	.L542
	.loc 1 4188 0
	ldr	r2, .L619+12
	movw	r3, #4188
	str	r2, [sp]
	movs	r1, #2
	ldr	r2, .L619+4
	mov	r0, r4
	bl	mbedtls_debug_print_msg
.LVL836:
	.loc 1 4191 0
	movs	r6, #2
	.loc 1 4190 0
	movs	r1, #21
	.loc 1 4193 0
	movs	r2, #20
	.loc 1 4192 0
	ldr	r3, [r4, #160]
	.loc 1 4190 0
	str	r1, [r4, #164]
	.loc 1 4191 0
	str	r6, [r4, #168]
	.loc 1 4192 0
	strb	r6, [r3]
	.loc 1 4193 0
	ldr	r3, [r4, #160]
	.loc 1 4195 0
	mov	r0, r4
	.loc 1 4193 0
	strb	r2, [r3, #1]
	.loc 1 4195 0
	bl	mbedtls_ssl_write_record
.LVL837:
	cbnz	r0, .L616
.LVL838:
.LBB374:
.LBB375:
	.loc 1 4201 0
	ldr	r3, .L619+16
	mov	r1, r6
	str	r3, [sp]
	ldr	r2, .L619+4
	movw	r3, #4201
	mov	r0, r4
.LVL839:
	bl	mbedtls_debug_print_msg
.LVL840:
	b	.L542
.LVL841:
.L613:
.LBE375:
.LBE374:
.LBE373:
.LBE372:
.LBB378:
.LBB358:
.LBB354:
.LBB352:
	.loc 1 4197 0
	ldr	r3, .L619+20
	str	r0, [sp, #4]
.LVL842:
.L591:
.LBE352:
.LBE354:
.LBE358:
.LBE378:
.LBB379:
.LBB376:
	str	r3, [sp]
	ldr	r2, .L619+4
	movw	r3, #4197
	movs	r1, #1
	mov	r0, r4
	bl	mbedtls_debug_print_ret
.LVL843:
	b	.L542
.LVL844:
.L602:
.LBE376:
.LBE379:
.LBB380:
.LBB359:
	.loc 1 3672 0
	subs	r3, r1, #1
	cmp	r3, #6144
	bcc	.L549
	.loc 1 3679 0
	ldr	r2, .L619+24
	movw	r3, #3679
	b	.L590
.L599:
	.loc 1 3651 0
	movw	r3, #3651
	ldr	r2, .L619+28
.LVL845:
.L590:
.LBE359:
.LBE380:
.LBB381:
.LBB367:
	.loc 1 3844 0
	str	r2, [sp]
	movs	r1, #1
	ldr	r2, .L619+4
	mov	r0, r4
	bl	mbedtls_debug_print_msg
.LVL846:
	.loc 1 3845 0
	ldr	r5, .L619+32
	b	.L542
.LVL847:
.L600:
.LBE367:
.LBE381:
.LBB382:
.LBB360:
	.loc 1 3657 0
	ldr	r2, .L619+36
	movw	r3, #3657
	b	.L590
.L601:
	.loc 1 3665 0
	ldr	r2, .L619+24
	movw	r3, #3665
	b	.L590
.LVL848:
.L616:
.LBE360:
.LBE382:
.LBB383:
.LBB377:
	.loc 1 4197 0
	ldr	r3, .L619+20
	str	r0, [sp, #4]
	b	.L591
.LVL849:
.L614:
.LBE377:
.LBE383:
.LBE388:
.LBE422:
.LBB423:
.LBB409:
.LBB403:
.LBB401:
	.loc 1 3204 0
	ldr	r3, .L619+40
	str	r1, [sp, #4]
	str	r3, [sp]
	ldr	r2, .L619+4
	movw	r3, #3205
	movs	r1, #1
	mov	r0, r4
	bl	mbedtls_debug_print_msg
.LVL850:
	.loc 1 3206 0
	ldr	r5, .L619+32
.LVL851:
.L569:
.LBE401:
.LBE403:
.LBE409:
.LBE423:
	.loc 1 3900 0
	ldr	r3, .L619+44
	str	r5, [sp, #4]
	str	r3, [sp]
	mov	r0, r4
	movw	r3, #3900
	ldr	r2, .L619+4
	movs	r1, #1
	bl	mbedtls_debug_print_ret
.LVL852:
	.loc 1 3901 0
	b	.L538
.LVL853:
.L603:
.LBB424:
.LBB389:
.LBB384:
.LBB361:
	.loc 1 3687 0
	ldr	r2, .L619+24
	movw	r3, #3687
	b	.L590
.L604:
	.loc 1 3716 0
	ldr	r2, .L619+24
	movw	r3, #3716
	b	.L590
.LVL854:
.L571:
.LBB355:
.LBB353:
	.loc 1 4186 0
	ldr	r5, .L619+48
.LVL855:
	b	.L542
.LVL856:
.L615:
.LBE353:
.LBE355:
.LBE361:
.LBE384:
.LBE389:
.LBE424:
.LBB425:
.LBB410:
.LBB404:
.LBB402:
.LBB399:
.LBB400:
	.loc 1 3278 0
	ldr	r2, .L619+52
	movw	r3, #3278
	str	r2, [sp]
	movs	r1, #1
	ldr	r2, .L619+4
	mov	r0, r4
	bl	mbedtls_debug_print_msg
.LVL857:
	ldr	r5, .L619+56
	b	.L569
.LVL858:
.L611:
.LBE400:
.LBE399:
.LBE402:
.LBE404:
.LBB405:
.LBB395:
	.loc 1 4124 0
	ldrb	r2, [r2, #1]	@ zero_extendqisi2
	ldr	r3, .L619+60
	str	r2, [sp, #4]
	str	r3, [sp]
	ldr	r2, .L619+4
	movw	r3, #4125
	movs	r1, #1
	mov	r0, r4
	bl	mbedtls_debug_print_msg
.LVL859:
	.loc 1 4126 0
	ldr	r5, .L619+64
	b	.L569
.LVL860:
.L607:
.LBE395:
.LBE405:
.LBE410:
.LBE425:
.LBB426:
.LBB390:
.LBB385:
.LBB368:
	.loc 1 3844 0
	ldr	r2, .L619+24
	movw	r3, #3844
	b	.L590
.LVL861:
.L612:
.LBE368:
.LBE385:
.LBE390:
.LBE426:
.LBB427:
.LBB411:
.LBB406:
.LBB396:
	.loc 1 4132 0
	ldr	r2, .L619+68
	movw	r3, #4132
	str	r2, [sp]
	movs	r1, #2
	ldr	r2, .L619+4
	mov	r0, r4
	bl	mbedtls_debug_print_msg
.LVL862:
	.loc 1 4133 0
	ldr	r5, .L619+72
	b	.L569
.L620:
	.align	2
.L619:
	.word	.LC81
	.word	.LC2
	.word	.LC92
	.word	.LC85
	.word	.LC87
	.word	.LC86
	.word	.LC90
	.word	.LC88
	.word	-29184
	.word	.LC89
	.word	.LC76
	.word	.LC98
	.word	-28928
	.word	.LC78
	.word	-28800
	.word	.LC95
	.word	-30592
	.word	.LC96
	.word	-30848
.LBE396:
.LBE406:
.LBE411:
.LBE427:
	.cfi_endproc
.LFE602:
	.size	mbedtls_ssl_read_record, .-mbedtls_ssl_read_record
	.section	.text.mbedtls_ssl_read_record_layer,"ax",%progbits
	.align	1
	.p2align 2,,3
	.global	mbedtls_ssl_read_record_layer
	.syntax unified
	.thumb
	.thumb_func
	.fpu softvfp
	.type	mbedtls_ssl_read_record_layer, %function
mbedtls_ssl_read_record_layer:
.LFB603:
	.loc 1 3915 0
	.cfi_startproc
	@ args = 0, pretend = 0, frame = 0
	@ frame_needed = 0, uses_anonymous_args = 0
.LVL863:
	push	{r4, r5, r6, r7, lr}
	.cfi_def_cfa_offset 20
	.cfi_offset 4, -20
	.cfi_offset 5, -16
	.cfi_offset 6, -12
	.cfi_offset 7, -8
	.cfi_offset 14, -4
	.loc 1 3918 0
	ldr	r1, [r0, #128]
	.loc 1 3915 0
	sub	sp, sp, #28
	.cfi_def_cfa_offset 48
	.loc 1 3915 0
	mov	r4, r0
	.loc 1 3918 0
	cbz	r1, .L622
	.loc 1 3918 0 is_stmt 0 discriminator 1
	ldr	r2, [r0, #120]
	cmp	r1, r2
	bcc	.L648
.L622:
	.loc 1 3934 0 is_stmt 1
	movs	r3, #0
	.loc 1 3943 0
	movs	r1, #5
	.loc 1 3934 0
	str	r3, [r4, #128]
.LVL864:
	.loc 1 3943 0
	mov	r0, r4
.LVL865:
	bl	mbedtls_ssl_fetch_input
.LVL866:
	mov	r5, r0
	cmp	r0, #0
	bne	.L649
.LVL867:
.LBB442:
.LBB443:
	.loc 1 3619 0
	movs	r1, #5
	ldr	r2, [r4, #96]
	ldr	r3, .L663
	str	r1, [sp, #8]
	str	r2, [sp, #4]
	str	r3, [sp]
	ldr	r2, .L663+4
	movw	r3, #3619
	movs	r1, #4
	mov	r0, r4
.LVL868:
	bl	mbedtls_debug_print_buf
.LVL869:
	.loc 1 3621 0
	ldr	r1, [r4, #96]
	.loc 1 3622 0
	ldr	r3, [r4, #100]
	.loc 1 3621 0
	ldrb	r0, [r1]	@ zero_extendqisi2
	.loc 1 3625 0
	ldr	r7, .L663+8
	.loc 1 3621 0
	str	r0, [r4, #116]
	.loc 1 3622 0
	ldrb	r5, [r3]	@ zero_extendqisi2
.LVL870:
	ldrb	r2, [r3, #1]	@ zero_extendqisi2
	.loc 1 3625 0
	movw	r3, #3628
	.loc 1 3622 0
	orr	r2, r2, r5, lsl #8
	str	r2, [r4, #120]
.LVL871:
.LBB444:
.LBB445:
	.loc 1 7870 0
	ldrb	r5, [r1, #1]	@ zero_extendqisi2
.LVL872:
	.loc 1 7871 0
	ldrb	r6, [r1, #2]	@ zero_extendqisi2
.LVL873:
.LBE445:
.LBE444:
	.loc 1 3625 0
	str	r0, [sp, #4]
	str	r2, [sp, #16]
	str	r6, [sp, #12]
	str	r5, [sp, #8]
	str	r7, [sp]
	ldr	r2, .L663+4
	movs	r1, #3
	mov	r0, r4
	bl	mbedtls_debug_print_msg
.LVL874:
	.loc 1 3633 0
	ldr	r3, [r4, #116]
	subs	r3, r3, #20
	.loc 1 3631 0
	cmp	r3, #3
	bhi	.L650
	.loc 1 3649 0
	ldr	r3, [r4, #16]
	cmp	r5, r3
	bne	.L651
	.loc 1 3655 0
	ldr	r3, [r4]
	ldrb	r3, [r3, #105]	@ zero_extendqisi2
	cmp	r6, r3
	bgt	.L652
	.loc 1 3663 0
	ldr	r3, [r4, #108]
	ldr	r2, [r4, #88]
	.loc 1 3662 0
	ldr	r1, [r4, #120]
	.loc 1 3663 0
	subs	r3, r3, r2
	rsb	r3, r3, #6464
	adds	r3, r3, #13
	.loc 1 3662 0
	cmp	r1, r3
	bhi	.L653
	.loc 1 3670 0
	ldr	r3, [r4, #60]
	cmp	r3, #0
	beq	.L654
	.loc 1 3685 0
	ldr	r3, [r3, #8]
	cmp	r1, r3
	bcc	.L655
	.loc 1 3708 0
	ldr	r2, [r4, #20]
	cmp	r2, #0
	ble	.L631
	.loc 1 3713 0
	add	r3, r3, #6400
	.loc 1 3708 0
	cmp	r1, r3
	bhi	.L656
.L631:
.LVL875:
.LBE443:
.LBE442:
	.loc 1 3984 0
	adds	r1, r1, #5
	mov	r0, r4
	bl	mbedtls_ssl_fetch_input
.LVL876:
	mov	r5, r0
	cmp	r0, #0
	bne	.L657
.LBB458:
.LBB459:
	.loc 1 3808 0
	ldr	r3, [r4, #120]
	ldr	r1, [r4, #96]
	ldr	r2, .L663+12
	adds	r3, r3, #5
.LBE459:
.LBE458:
	.loc 1 3997 0
	str	r5, [r4, #124]
.LVL877:
.LBB463:
.LBB460:
	.loc 1 3808 0
	mov	r0, r4
.LVL878:
	str	r3, [sp, #8]
	str	r1, [sp, #4]
	str	r2, [sp]
	movw	r3, #3809
	ldr	r2, .L663+4
	movs	r1, #4
	bl	mbedtls_debug_print_buf
.LVL879:
	.loc 1 3827 0
	ldr	r3, [r4, #60]
	cbz	r3, .L621
	.loc 1 3829 0
	mov	r0, r4
	bl	ssl_decrypt_buf
.LVL880:
	mov	r6, r0
	cmp	r0, #0
	bne	.L658
	.loc 1 3835 0
	ldr	r1, [r4, #120]
	ldr	r2, [r4, #108]
	ldr	r3, .L663+16
	str	r1, [sp, #8]
	str	r2, [sp, #4]
	str	r3, [sp]
	ldr	r2, .L663+4
	movw	r3, #3836
	movs	r1, #4
	mov	r0, r4
.LVL881:
	bl	mbedtls_debug_print_buf
.LVL882:
	.loc 1 3841 0
	ldr	r3, [r4, #120]
	cmp	r3, #6144
	bhi	.L659
.LVL883:
.L621:
.LBE460:
.LBE463:
	.loc 1 4097 0
	mov	r0, r5
	add	sp, sp, #28
	.cfi_remember_state
	.cfi_def_cfa_offset 20
	@ sp needed
	pop	{r4, r5, r6, r7, pc}
.LVL884:
.L649:
	.cfi_restore_state
	.loc 1 3945 0
	ldr	r3, .L663+20
	str	r0, [sp, #4]
	str	r3, [sp]
	mov	r0, r4
.LVL885:
	movw	r3, #3945
	ldr	r2, .L663+4
	movs	r1, #1
	bl	mbedtls_debug_print_ret
.LVL886:
	.loc 1 4097 0
	mov	r0, r5
	add	sp, sp, #28
	.cfi_remember_state
	.cfi_def_cfa_offset 20
	@ sp needed
	pop	{r4, r5, r6, r7, pc}
.LVL887:
.L650:
	.cfi_restore_state
.LBB464:
.LBB454:
	.loc 1 3636 0
	ldr	r2, .L663+24
	movw	r3, #3636
	str	r2, [sp]
	movs	r1, #1
	ldr	r2, .L663+4
	mov	r0, r4
	bl	mbedtls_debug_print_msg
.LVL888:
.LBB446:
.LBB447:
	.loc 1 4185 0
	ldr	r3, [r4]
	cmp	r3, #0
	beq	.L640
	.loc 1 4188 0
	ldr	r2, .L663+28
	movw	r3, #4188
	str	r2, [sp]
	movs	r1, #2
	ldr	r2, .L663+4
	mov	r0, r4
	bl	mbedtls_debug_print_msg
.LVL889:
	.loc 1 4191 0
	movs	r6, #2
.LVL890:
	.loc 1 4190 0
	movs	r1, #21
	.loc 1 4193 0
	movs	r2, #10
	.loc 1 4192 0
	ldr	r3, [r4, #160]
	.loc 1 4190 0
	str	r1, [r4, #164]
	.loc 1 4191 0
	str	r6, [r4, #168]
	.loc 1 4192 0
	strb	r6, [r3]
	.loc 1 4193 0
	ldr	r3, [r4, #160]
	.loc 1 4195 0
	mov	r0, r4
	.loc 1 4193 0
	strb	r2, [r3, #1]
	.loc 1 4195 0
	bl	mbedtls_ssl_write_record
.LVL891:
	mov	r5, r0
.LVL892:
	cmp	r0, #0
	bne	.L660
.LVL893:
.LBB448:
.LBB449:
	.loc 1 4201 0
	ldr	r3, .L663+32
	mov	r1, r6
	str	r3, [sp]
	mov	r0, r4
.LVL894:
	movw	r3, #4201
	ldr	r2, .L663+4
	bl	mbedtls_debug_print_msg
.LVL895:
.LBE449:
.LBE448:
.LBE447:
.LBE446:
	.loc 1 3645 0
	ldr	r5, .L663+36
	b	.L621
.LVL896:
.L648:
.LBE454:
.LBE464:
	.loc 1 3931 0
	movs	r5, #0
	.loc 1 3925 0
	ldr	r0, [r0, #108]
.LVL897:
	.loc 1 3923 0
	subs	r2, r2, r1
	str	r2, [r4, #120]
	.loc 1 3925 0
	add	r1, r1, r0
	bl	memmove
.LVL898:
	.loc 1 3928 0
	ldr	r1, [r4, #120]
	ldr	r2, [r4, #108]
	ldr	r3, .L663+40
	str	r1, [sp, #8]
	str	r2, [sp, #4]
	mov	r0, r4
	str	r3, [sp]
	ldr	r2, .L663+4
	movw	r3, #3929
	movs	r1, #4
	bl	mbedtls_debug_print_buf
.LVL899:
	.loc 1 4097 0
	mov	r0, r5
	add	sp, sp, #28
	.cfi_remember_state
	.cfi_def_cfa_offset 20
	@ sp needed
	pop	{r4, r5, r6, r7, pc}
.LVL900:
.L657:
	.cfi_restore_state
	.loc 1 3987 0
	ldr	r3, .L663+20
	str	r5, [sp, #4]
	str	r3, [sp]
	mov	r0, r4
.LVL901:
	movw	r3, #3987
	ldr	r2, .L663+4
	movs	r1, #1
	bl	mbedtls_debug_print_ret
.LVL902:
	.loc 1 3988 0
	b	.L621
.LVL903:
.L658:
.LBB465:
.LBB461:
	.loc 1 3831 0
	ldr	r3, .L663+44
	ldr	r2, .L663+4
	stm	sp, {r3, r6}
	movs	r1, #1
	movw	r3, #3831
	mov	r0, r4
.LVL904:
	bl	mbedtls_debug_print_ret
.LVL905:
.LBE461:
.LBE465:
	.loc 1 4045 0
	cmn	r6, #29056
	beq	.L661
.L641:
.LBB466:
.LBB467:
	.loc 1 4185 0
	mov	r5, r6
	b	.L621
.LVL906:
.L660:
.LBE467:
.LBE466:
.LBB472:
.LBB455:
.LBB452:
.LBB450:
	.loc 1 4197 0
	ldr	r3, .L663+48
	str	r0, [sp, #4]
	str	r3, [sp]
	mov	r0, r4
.LVL907:
	movw	r3, #4197
	ldr	r2, .L663+4
	movs	r1, #1
	bl	mbedtls_debug_print_ret
.LVL908:
	b	.L621
.LVL909:
.L654:
.LBE450:
.LBE452:
	.loc 1 3672 0
	subs	r3, r1, #1
	cmp	r3, #6144
	bcc	.L631
	.loc 1 3679 0
	ldr	r3, .L663+52
	mov	r0, r4
	str	r3, [sp]
	ldr	r2, .L663+4
	movw	r3, #3679
	movs	r1, #1
	bl	mbedtls_debug_print_msg
.LVL910:
	.loc 1 3680 0
	ldr	r5, .L663+36
.LVL911:
	b	.L621
.LVL912:
.L661:
.LBE455:
.LBE472:
.LBB473:
.LBB470:
	.loc 1 4185 0
	ldr	r3, [r4]
	cmp	r3, #0
	beq	.L641
	.loc 1 4188 0
	ldr	r2, .L663+28
	movw	r3, #4188
	str	r2, [sp]
	movs	r1, #2
	ldr	r2, .L663+4
	mov	r0, r4
	bl	mbedtls_debug_print_msg
.LVL913:
	.loc 1 4191 0
	movs	r5, #2
	.loc 1 4190 0
	movs	r1, #21
	.loc 1 4193 0
	movs	r2, #20
	.loc 1 4192 0
	ldr	r3, [r4, #160]
	.loc 1 4190 0
	str	r1, [r4, #164]
	.loc 1 4191 0
	str	r5, [r4, #168]
	.loc 1 4192 0
	strb	r5, [r3]
	.loc 1 4193 0
	ldr	r3, [r4, #160]
	.loc 1 4195 0
	mov	r0, r4
	.loc 1 4193 0
	strb	r2, [r3, #1]
	.loc 1 4195 0
	bl	mbedtls_ssl_write_record
.LVL914:
	cmp	r0, #0
	bne	.L662
.LVL915:
.LBB468:
.LBB469:
	.loc 1 4201 0
	ldr	r3, .L663+32
	mov	r1, r5
	str	r3, [sp]
	mov	r0, r4
.LVL916:
	movw	r3, #4201
	ldr	r2, .L663+4
	mov	r5, r6
	bl	mbedtls_debug_print_msg
.LVL917:
	b	.L621
.LVL918:
.L659:
.LBE469:
.LBE468:
.LBE470:
.LBE473:
.LBB474:
.LBB462:
	.loc 1 3844 0
	ldr	r3, .L663+52
	mov	r0, r4
	str	r3, [sp]
	ldr	r2, .L663+4
	movw	r3, #3844
	movs	r1, #1
	bl	mbedtls_debug_print_msg
.LVL919:
	.loc 1 3845 0
	ldr	r5, .L663+36
	b	.L621
.LVL920:
.L651:
.LBE462:
.LBE474:
.LBB475:
.LBB456:
	.loc 1 3651 0
	ldr	r3, .L663+56
	mov	r0, r4
	str	r3, [sp]
	ldr	r2, .L663+4
	movw	r3, #3651
	movs	r1, #1
	bl	mbedtls_debug_print_msg
.LVL921:
	.loc 1 3652 0
	ldr	r5, .L663+36
.LVL922:
	b	.L621
.LVL923:
.L652:
	.loc 1 3657 0
	ldr	r3, .L663+60
	mov	r0, r4
	str	r3, [sp]
	ldr	r2, .L663+4
	movw	r3, #3657
	movs	r1, #1
	bl	mbedtls_debug_print_msg
.LVL924:
	.loc 1 3658 0
	ldr	r5, .L663+36
.LVL925:
	b	.L621
.LVL926:
.L653:
	.loc 1 3665 0
	ldr	r3, .L663+52
	mov	r0, r4
	str	r3, [sp]
	ldr	r2, .L663+4
	movw	r3, #3665
	movs	r1, #1
	bl	mbedtls_debug_print_msg
.LVL927:
	.loc 1 3666 0
	ldr	r5, .L663+36
.LVL928:
	b	.L621
.LVL929:
.L662:
.LBE456:
.LBE475:
.LBB476:
.LBB471:
	.loc 1 4197 0
	ldr	r3, .L663+48
	str	r0, [sp, #4]
	str	r3, [sp]
	mov	r0, r4
.LVL930:
	movw	r3, #4197
	ldr	r2, .L663+4
	movs	r1, #1
	mov	r5, r6
	bl	mbedtls_debug_print_ret
.LVL931:
	b	.L621
.L664:
	.align	2
.L663:
	.word	.LC82
	.word	.LC2
	.word	.LC83
	.word	.LC91
	.word	.LC93
	.word	.LC81
	.word	.LC84
	.word	.LC85
	.word	.LC87
	.word	-29184
	.word	.LC80
	.word	.LC92
	.word	.LC86
	.word	.LC90
	.word	.LC88
	.word	.LC89
.LVL932:
.L655:
.LBE471:
.LBE476:
.LBB477:
.LBB457:
	.loc 1 3687 0
	ldr	r3, .L665
	mov	r0, r4
	str	r3, [sp]
	ldr	r2, .L665+4
	movw	r3, #3687
	movs	r1, #1
	bl	mbedtls_debug_print_msg
.LVL933:
	.loc 1 3688 0
	ldr	r5, .L665+8
.LVL934:
	b	.L621
.LVL935:
.L656:
	.loc 1 3716 0
	ldr	r3, .L665
	mov	r0, r4
	str	r3, [sp]
	ldr	r2, .L665+4
	movw	r3, #3716
	movs	r1, #1
	bl	mbedtls_debug_print_msg
.LVL936:
	.loc 1 3717 0
	ldr	r5, .L665+8
.LVL937:
	b	.L621
.LVL938:
.L640:
.LBB453:
.LBB451:
	.loc 1 4186 0
	ldr	r5, .L665+12
.LVL939:
	b	.L621
.L666:
	.align	2
.L665:
	.word	.LC90
	.word	.LC2
	.word	-29184
	.word	-28928
.LBE451:
.LBE453:
.LBE457:
.LBE477:
	.cfi_endproc
.LFE603:
	.size	mbedtls_ssl_read_record_layer, .-mbedtls_ssl_read_record_layer
	.section	.text.mbedtls_ssl_handle_message_type,"ax",%progbits
	.align	1
	.p2align 2,,3
	.global	mbedtls_ssl_handle_message_type
	.syntax unified
	.thumb
	.thumb_func
	.fpu softvfp
	.type	mbedtls_ssl_handle_message_type, %function
mbedtls_ssl_handle_message_type:
.LFB604:
	.loc 1 4100 0
	.cfi_startproc
	@ args = 0, pretend = 0, frame = 0
	@ frame_needed = 0, uses_anonymous_args = 0
.LVL940:
	push	{r4, r5, r6, r7, lr}
	.cfi_def_cfa_offset 20
	.cfi_offset 4, -20
	.cfi_offset 5, -16
	.cfi_offset 6, -12
	.cfi_offset 7, -8
	.cfi_offset 14, -4
	.loc 1 4106 0
	ldr	r3, [r0, #116]
	.loc 1 4100 0
	sub	sp, sp, #20
	.cfi_def_cfa_offset 40
	.loc 1 4106 0
	cmp	r3, #22
	.loc 1 4100 0
	mov	r4, r0
	.loc 1 4106 0
	beq	.L678
.LVL941:
.L668:
	.loc 1 4114 0
	cmp	r3, #21
	beq	.L679
	.loc 1 4162 0
	movs	r0, #0
.L667:
	.loc 1 4163 0
	add	sp, sp, #20
	.cfi_remember_state
	.cfi_def_cfa_offset 20
	@ sp needed
	pop	{r4, r5, r6, r7, pc}
.LVL942:
.L679:
	.cfi_restore_state
.LBB484:
.LBB485:
	.loc 1 4116 0
	ldr	r2, [r4, #108]
	.loc 1 4116 0
	ldr	r1, .L684
	ldrb	r0, [r2, #1]	@ zero_extendqisi2
	movw	r3, #4117
	str	r0, [sp, #8]
	ldrb	r0, [r2]	@ zero_extendqisi2
	ldr	r2, .L684+4
	str	r0, [sp, #4]
	str	r1, [sp]
	mov	r0, r4
	movs	r1, #2
	bl	mbedtls_debug_print_msg
.LVL943:
	.loc 1 4122 0
	ldr	r2, [r4, #108]
	ldrb	r3, [r2]	@ zero_extendqisi2
	cmp	r3, #2
	beq	.L680
	.loc 1 4129 0
	cmp	r3, #1
	beq	.L681
.L676:
	.loc 1 4159 0
	ldr	r0, .L684+8
.LBE485:
.LBE484:
	.loc 1 4163 0
	add	sp, sp, #20
	.cfi_remember_state
	.cfi_def_cfa_offset 20
	@ sp needed
	pop	{r4, r5, r6, r7, pc}
.LVL944:
.L678:
	.cfi_restore_state
.LBB488:
.LBB489:
	.loc 1 3202 0
	ldr	r1, [r0, #120]
.LVL945:
	cmp	r1, #3
	bls	.L682
.LVL946:
	.loc 1 3210 0
	ldr	r2, [r0, #108]
	.loc 1 3214 0
	ldr	r5, .L684+12
	.loc 1 3211 0
	ldrb	r3, [r2, #2]	@ zero_extendqisi2
	.loc 1 3210 0
	ldrb	r7, [r2, #1]	@ zero_extendqisi2
	.loc 1 3212 0
	ldrb	r6, [r2, #3]	@ zero_extendqisi2
	.loc 1 3211 0
	lsls	r3, r3, #8
	.loc 1 3210 0
	orr	r3, r3, r7, lsl #16
	.loc 1 3211 0
	orrs	r3, r3, r6
	.loc 1 3209 0
	adds	r3, r3, #4
	str	r3, [r0, #128]
	.loc 1 3214 0
	str	r3, [sp, #12]
	ldrb	r2, [r2]	@ zero_extendqisi2
	mov	r3, #3216
	str	r2, [sp, #8]
	str	r1, [sp, #4]
	ldr	r2, .L684+4
	str	r5, [sp]
	movs	r1, #3
	bl	mbedtls_debug_print_msg
.LVL947:
	.loc 1 3276 0
	ldr	r2, [r4, #120]
	ldr	r3, [r4, #128]
	cmp	r2, r3
	bcc	.L671
	ldr	r3, [r4, #116]
	b	.L668
.LVL948:
.L681:
.LBE489:
.LBE488:
.LBB493:
.LBB486:
	.loc 1 4130 0
	ldrb	r3, [r2, #1]	@ zero_extendqisi2
	.loc 1 4129 0
	cmp	r3, #0
	beq	.L683
	.loc 1 4137 0
	cmp	r3, #100
	bne	.L676
	.loc 1 4140 0
	ldr	r3, .L684+16
	mov	r0, r4
	str	r3, [sp]
	ldr	r2, .L684+4
	movw	r3, #4140
	movs	r1, #2
	bl	mbedtls_debug_print_msg
.LVL949:
	.loc 1 4142 0
	movs	r0, #0
.LBE486:
.LBE493:
	.loc 1 4163 0
	add	sp, sp, #20
	.cfi_remember_state
	.cfi_def_cfa_offset 20
	@ sp needed
	pop	{r4, r5, r6, r7, pc}
.LVL950:
.L682:
	.cfi_restore_state
.LBB494:
.LBB492:
	.loc 1 3204 0
	ldr	r3, .L684+20
	str	r1, [sp, #4]
	str	r3, [sp]
	ldr	r2, .L684+4
	movw	r3, #3205
	movs	r1, #1
	bl	mbedtls_debug_print_msg
.LVL951:
	.loc 1 3206 0
	ldr	r0, .L684+24
	b	.L667
.LVL952:
.L671:
.LBB490:
.LBB491:
	.loc 1 3278 0
	ldr	r3, .L684+28
	mov	r0, r4
	str	r3, [sp]
	ldr	r2, .L684+4
	movw	r3, #3278
	movs	r1, #1
	bl	mbedtls_debug_print_msg
.LVL953:
	ldr	r0, .L684+32
	b	.L667
.LVL954:
.L680:
.LBE491:
.LBE490:
.LBE492:
.LBE494:
.LBB495:
.LBB487:
	.loc 1 4124 0
	ldrb	r2, [r2, #1]	@ zero_extendqisi2
	ldr	r3, .L684+36
	str	r2, [sp, #4]
	mov	r0, r4
	str	r3, [sp]
	ldr	r2, .L684+4
	movw	r3, #4125
	movs	r1, #1
	bl	mbedtls_debug_print_msg
.LVL955:
	.loc 1 4126 0
	ldr	r0, .L684+40
	b	.L667
.L683:
	.loc 1 4132 0
	ldr	r3, .L684+44
	mov	r0, r4
	str	r3, [sp]
	ldr	r2, .L684+4
	movw	r3, #4132
	movs	r1, #2
	bl	mbedtls_debug_print_msg
.LVL956:
	.loc 1 4133 0
	ldr	r0, .L684+48
	b	.L667
.L685:
	.align	2
.L684:
	.word	.LC94
	.word	.LC2
	.word	-26240
	.word	.LC77
	.word	.LC97
	.word	.LC76
	.word	-29184
	.word	.LC78
	.word	-28800
	.word	.LC95
	.word	-30592
	.word	.LC96
	.word	-30848
.LBE487:
.LBE495:
	.cfi_endproc
.LFE604:
	.size	mbedtls_ssl_handle_message_type, .-mbedtls_ssl_handle_message_type
	.section	.text.mbedtls_ssl_send_fatal_handshake_failure,"ax",%progbits
	.align	1
	.p2align 2,,3
	.global	mbedtls_ssl_send_fatal_handshake_failure
	.syntax unified
	.thumb
	.thumb_func
	.fpu softvfp
	.type	mbedtls_ssl_send_fatal_handshake_failure, %function
mbedtls_ssl_send_fatal_handshake_failure:
.LFB605:
	.loc 1 4166 0
	.cfi_startproc
	@ args = 0, pretend = 0, frame = 0
	@ frame_needed = 0, uses_anonymous_args = 0
.LVL957:
	push	{r4, r5, r6, lr}
	.cfi_def_cfa_offset 16
	.cfi_offset 4, -16
	.cfi_offset 5, -12
	.cfi_offset 6, -8
	.cfi_offset 14, -4
	sub	sp, sp, #8
	.cfi_def_cfa_offset 24
.LBB500:
.LBB501:
	.loc 1 4185 0
	cmp	r0, #0
	beq	.L690
	.loc 1 4185 0
	ldr	r3, [r0]
	mov	r4, r0
	cbz	r3, .L690
	.loc 1 4188 0
	ldr	r2, .L693
	movw	r3, #4188
	str	r2, [sp]
	movs	r1, #2
	ldr	r2, .L693+4
	bl	mbedtls_debug_print_msg
.LVL958:
	.loc 1 4191 0
	movs	r5, #2
	.loc 1 4190 0
	movs	r1, #21
	.loc 1 4193 0
	movs	r2, #40
	.loc 1 4192 0
	ldr	r3, [r4, #160]
	.loc 1 4190 0
	str	r1, [r4, #164]
	.loc 1 4191 0
	str	r5, [r4, #168]
	.loc 1 4192 0
	strb	r5, [r3]
	.loc 1 4193 0
	ldr	r3, [r4, #160]
	.loc 1 4195 0
	mov	r0, r4
	.loc 1 4193 0
	strb	r2, [r3, #1]
	.loc 1 4195 0
	bl	mbedtls_ssl_write_record
.LVL959:
	mov	r6, r0
	cbnz	r0, .L692
.LVL960:
.LBB502:
.LBB503:
	.loc 1 4201 0
	ldr	r3, .L693+8
	mov	r1, r5
	str	r3, [sp]
	mov	r0, r4
.LVL961:
	movw	r3, #4201
	ldr	r2, .L693+4
	bl	mbedtls_debug_print_msg
.LVL962:
.L686:
.LBE503:
.LBE502:
.LBE501:
.LBE500:
	.loc 1 4177 0
	mov	r0, r6
	add	sp, sp, #8
	.cfi_remember_state
	.cfi_def_cfa_offset 16
	@ sp needed
	pop	{r4, r5, r6, pc}
.LVL963:
.L692:
	.cfi_restore_state
.LBB506:
.LBB504:
	.loc 1 4197 0
	ldr	r3, .L693+12
	str	r0, [sp, #4]
	str	r3, [sp]
	mov	r0, r4
.LVL964:
	movw	r3, #4197
	ldr	r2, .L693+4
	movs	r1, #1
	bl	mbedtls_debug_print_ret
.LVL965:
.LBE504:
.LBE506:
	.loc 1 4177 0
	mov	r0, r6
	add	sp, sp, #8
	.cfi_remember_state
	.cfi_def_cfa_offset 16
	@ sp needed
	pop	{r4, r5, r6, pc}
.LVL966:
.L690:
	.cfi_restore_state
.LBB507:
.LBB505:
	.loc 1 4186 0
	ldr	r6, .L693+16
	b	.L686
.L694:
	.align	2
.L693:
	.word	.LC85
	.word	.LC2
	.word	.LC87
	.word	.LC86
	.word	-28928
.LBE505:
.LBE507:
	.cfi_endproc
.LFE605:
	.size	mbedtls_ssl_send_fatal_handshake_failure, .-mbedtls_ssl_send_fatal_handshake_failure
	.section	.text.mbedtls_ssl_send_alert_message,"ax",%progbits
	.align	1
	.p2align 2,,3
	.global	mbedtls_ssl_send_alert_message
	.syntax unified
	.thumb
	.thumb_func
	.fpu softvfp
	.type	mbedtls_ssl_send_alert_message, %function
mbedtls_ssl_send_alert_message:
.LFB606:
	.loc 1 4182 0
	.cfi_startproc
	@ args = 0, pretend = 0, frame = 0
	@ frame_needed = 0, uses_anonymous_args = 0
.LVL967:
	push	{r4, r5, r6, r7, lr}
	.cfi_def_cfa_offset 20
	.cfi_offset 4, -20
	.cfi_offset 5, -16
	.cfi_offset 6, -12
	.cfi_offset 7, -8
	.cfi_offset 14, -4
	sub	sp, sp, #12
	.cfi_def_cfa_offset 32
	.loc 1 4185 0
	cmp	r0, #0
	beq	.L699
	.loc 1 4185 0 discriminator 1
	ldr	r3, [r0]
	mov	r4, r0
	cbz	r3, .L699
	mov	r7, r2
	.loc 1 4188 0
	ldr	r2, .L702
.LVL968:
	mov	r5, r1
	movw	r3, #4188
	str	r2, [sp]
	movs	r1, #2
.LVL969:
	ldr	r2, .L702+4
	bl	mbedtls_debug_print_msg
.LVL970:
	.loc 1 4191 0
	movs	r6, #2
	.loc 1 4190 0
	movs	r2, #21
	.loc 1 4192 0
	ldr	r3, [r4, #160]
	.loc 1 4190 0
	str	r2, [r4, #164]
	.loc 1 4191 0
	str	r6, [r4, #168]
	.loc 1 4192 0
	strb	r5, [r3]
	.loc 1 4193 0
	ldr	r3, [r4, #160]
	.loc 1 4195 0
	mov	r0, r4
	.loc 1 4193 0
	strb	r7, [r3, #1]
	.loc 1 4195 0
	bl	mbedtls_ssl_write_record
.LVL971:
	mov	r5, r0
	cbnz	r0, .L701
.LVL972:
.LBB510:
.LBB511:
	.loc 1 4201 0
	ldr	r3, .L702+8
	mov	r1, r6
	str	r3, [sp]
	mov	r0, r4
.LVL973:
	movw	r3, #4201
	ldr	r2, .L702+4
	bl	mbedtls_debug_print_msg
.LVL974:
.L695:
.LBE511:
.LBE510:
	.loc 1 4204 0
	mov	r0, r5
	add	sp, sp, #12
	.cfi_remember_state
	.cfi_def_cfa_offset 20
	@ sp needed
	pop	{r4, r5, r6, r7, pc}
.LVL975:
.L701:
	.cfi_restore_state
	.loc 1 4197 0
	ldr	r3, .L702+12
	str	r0, [sp, #4]
	str	r3, [sp]
	mov	r0, r4
.LVL976:
	movw	r3, #4197
	ldr	r2, .L702+4
	movs	r1, #1
	bl	mbedtls_debug_print_ret
.LVL977:
	.loc 1 4204 0
	mov	r0, r5
	add	sp, sp, #12
	.cfi_remember_state
	.cfi_def_cfa_offset 20
	@ sp needed
	pop	{r4, r5, r6, r7, pc}
.LVL978:
.L699:
	.cfi_restore_state
	.loc 1 4186 0
	ldr	r5, .L702+16
	b	.L695
.L703:
	.align	2
.L702:
	.word	.LC85
	.word	.LC2
	.word	.LC87
	.word	.LC86
	.word	-28928
	.cfi_endproc
.LFE606:
	.size	mbedtls_ssl_send_alert_message, .-mbedtls_ssl_send_alert_message
	.section	.text.mbedtls_ssl_write_certificate,"ax",%progbits
	.align	1
	.p2align 2,,3
	.global	mbedtls_ssl_write_certificate
	.syntax unified
	.thumb
	.thumb_func
	.fpu softvfp
	.type	mbedtls_ssl_write_certificate, %function
mbedtls_ssl_write_certificate:
.LFB607:
	.loc 1 4257 0
	.cfi_startproc
	@ args = 0, pretend = 0, frame = 0
	@ frame_needed = 0, uses_anonymous_args = 0
.LVL979:
	push	{r4, r5, r6, r7, r8, lr}
	.cfi_def_cfa_offset 24
	.cfi_offset 4, -24
	.cfi_offset 5, -20
	.cfi_offset 6, -16
	.cfi_offset 7, -12
	.cfi_offset 8, -8
	.cfi_offset 14, -4
	.loc 1 4261 0
	ldr	r3, [r0, #72]
	.loc 1 4263 0
	ldr	r2, .L736
	.loc 1 4261 0
	ldr	r4, [r3]
.LVL980:
	.loc 1 4257 0
	sub	sp, sp, #16
	.cfi_def_cfa_offset 40
	.loc 1 4263 0
	movw	r3, #4263
	str	r2, [sp]
	movs	r1, #2
	ldr	r2, .L736+4
	.loc 1 4257 0
	mov	r6, r0
	.loc 1 4263 0
	bl	mbedtls_debug_print_msg
.LVL981:
	.loc 1 4265 0
	ldrb	r3, [r4, #10]	@ zero_extendqisi2
	cmp	r3, #11
	bls	.L732
.LVL982:
.L705:
	.loc 1 4276 0
	ldr	r2, [r6]
	ldrb	r3, [r2, #112]	@ zero_extendqisi2
	lsls	r3, r3, #31
	bmi	.L707
	.loc 1 4278 0
	ldr	r4, [r6, #180]
	cmp	r4, #0
	beq	.L733
.L707:
	ldr	r3, [r6, #56]
.LVL983:
.LBB512:
.LBB513:
	.loc 3 429 0
	cmp	r3, #0
	beq	.L708
	.loc 3 429 0
	ldr	r3, [r3, #8]
	cmp	r3, #0
	beq	.L708
.L709:
.LVL984:
	.loc 3 434 0
	ldr	r3, [r3]
.LVL985:
.L710:
.LBE513:
.LBE512:
	.loc 1 4315 0
	ldr	r2, .L736+8
	movs	r1, #3
	stm	sp, {r2, r3}
	mov	r0, r6
	movw	r3, #4315
	ldr	r2, .L736+4
	bl	mbedtls_debug_print_crt
.LVL986:
	ldr	r3, [r6, #56]
.LVL987:
.LBB515:
.LBB516:
	.loc 3 429 0
	cmp	r3, #0
	beq	.L711
	.loc 3 429 0
	ldr	r5, [r3, #8]
	cmp	r5, #0
	beq	.L711
.L712:
.LVL988:
	.loc 3 434 0
	ldr	r5, [r5]
.LVL989:
.LBE516:
.LBE515:
	.loc 1 4329 0
	cmp	r5, #0
	beq	.L721
	.loc 1 4335 0
	movw	r3, #6134
	.loc 1 4331 0
	ldr	r4, [r5, #4]
.LVL990:
	.loc 1 4335 0
	cmp	r4, r3
	mov	r3, #7
	bhi	.L714
	movw	r7, #6141
.LVL991:
.L716:
	.loc 1 4347 0
	ldr	r2, [r6, #160]
	lsrs	r1, r4, #16
	strb	r1, [r2, r3]
	.loc 1 4348 0
	ldr	r2, [r6, #160]
	lsrs	r1, r4, #8
	add	r2, r2, r3
	strb	r1, [r2, #1]
	.loc 1 4349 0
	ldr	r2, [r6, #160]
	.loc 1 4351 0
	add	r8, r3, #3
.LVL992:
	.loc 1 4349 0
	add	r3, r3, r2
	strb	r4, [r3, #2]
	.loc 1 4351 0
	ldr	r0, [r6, #160]
	ldr	r1, [r5, #8]
	mov	r2, r4
	add	r0, r0, r8
	bl	memcpy
.LVL993:
	.loc 1 4352 0
	ldr	r5, [r5, #304]
.LVL994:
	add	r3, r8, r4
.LVL995:
	.loc 1 4335 0
	subs	r2, r7, r3
	.loc 1 4329 0
	cmp	r5, #0
	beq	.L734
	.loc 1 4331 0
	ldr	r4, [r5, #4]
.LVL996:
	.loc 1 4335 0
	cmp	r4, r2
	bls	.L716
.LVL997:
.L714:
	.loc 1 4338 0
	mov	r2, #6144
	.loc 1 4338 0
	add	r4, r4, r3
.LVL998:
	.loc 1 4338 0
	adds	r4, r4, #3
	ldr	r3, .L736+12
	str	r4, [sp, #4]
	.loc 1 4344 0
	ldr	r4, .L736+16
	.loc 1 4338 0
	mov	r0, r6
	str	r2, [sp, #8]
	str	r3, [sp]
	ldr	r2, .L736+4
	movw	r3, #4342
	movs	r1, #1
	bl	mbedtls_debug_print_msg
.LVL999:
	.loc 1 4378 0
	mov	r0, r4
	add	sp, sp, #16
	.cfi_remember_state
	.cfi_def_cfa_offset 24
	@ sp needed
	pop	{r4, r5, r6, r7, r8, pc}
.LVL1000:
.L732:
	.cfi_restore_state
	.loc 1 4265 0
	mov	r0, #2400
	lsrs	r0, r0, r3
	mvns	r0, r0
	ands	r4, r0, #1
.LVL1001:
	bne	.L705
	.loc 1 4270 0
	movw	r3, #4270
	ldr	r2, .L736+20
.L731:
	.loc 1 4280 0
	str	r2, [sp]
	mov	r0, r6
	ldr	r2, .L736+4
	movs	r1, #2
	bl	mbedtls_debug_print_msg
.LVL1002:
	.loc 1 4378 0
	mov	r0, r4
	.loc 1 4281 0
	ldr	r3, [r6, #4]
	adds	r3, r3, #1
	str	r3, [r6, #4]
	.loc 1 4378 0
	add	sp, sp, #16
	.cfi_remember_state
	.cfi_def_cfa_offset 24
	@ sp needed
	pop	{r4, r5, r6, r7, r8, pc}
.LVL1003:
.L708:
	.cfi_restore_state
.LBB518:
.LBB514:
	.loc 3 432 0
	ldr	r3, [r2, #72]
.LVL1004:
	.loc 3 434 0
	cmp	r3, #0
	beq	.L710
	b	.L709
.LVL1005:
.L733:
.LBE514:
.LBE518:
	.loc 1 4280 0
	ldr	r2, .L736+20
	movw	r3, #4280
	b	.L731
.LVL1006:
.L734:
	subs	r5, r3, #7
.LVL1007:
	ubfx	r0, r5, #16, #8
	ubfx	r7, r5, #8, #8
	uxtb	r5, r5
.LVL1008:
.L713:
	.loc 1 4360 0
	movs	r4, #22
	.loc 1 4361 0
	movs	r1, #11
	.loc 1 4355 0
	ldr	r2, [r6, #160]
	strb	r0, [r2, #4]
	.loc 1 4356 0
	ldr	r2, [r6, #160]
	.loc 1 4369 0
	mov	r0, r6
	.loc 1 4356 0
	strb	r7, [r2, #5]
	.loc 1 4357 0
	ldr	r2, [r6, #160]
	strb	r5, [r2, #6]
	.loc 1 4361 0
	ldr	r2, [r6, #160]
	.loc 1 4359 0
	str	r3, [r6, #168]
	.loc 1 4360 0
	str	r4, [r6, #164]
	.loc 1 4361 0
	strb	r1, [r2]
	.loc 1 4367 0
	ldr	r3, [r6, #4]
	adds	r3, r3, #1
	str	r3, [r6, #4]
	.loc 1 4369 0
	bl	mbedtls_ssl_write_record
.LVL1009:
	mov	r4, r0
	cbnz	r0, .L735
	.loc 1 4375 0
	ldr	r3, .L736+24
	mov	r0, r6
.LVL1010:
	str	r3, [sp]
	ldr	r2, .L736+4
	movw	r3, #4375
	movs	r1, #2
	bl	mbedtls_debug_print_msg
.LVL1011:
	.loc 1 4378 0
	mov	r0, r4
	add	sp, sp, #16
	.cfi_remember_state
	.cfi_def_cfa_offset 24
	@ sp needed
	pop	{r4, r5, r6, r7, r8, pc}
.LVL1012:
.L711:
	.cfi_restore_state
.LBB519:
.LBB517:
	.loc 3 432 0
	ldr	r3, [r6]
	ldr	r5, [r3, #72]
.LVL1013:
	.loc 3 434 0
	cmp	r5, #0
	bne	.L712
.LVL1014:
.L721:
.LBE517:
.LBE519:
	.loc 1 4329 0
	movs	r3, #7
	mov	r7, r5
	mov	r0, r5
	b	.L713
.LVL1015:
.L735:
	.loc 1 4371 0
	ldr	r3, .L736+28
	str	r0, [sp, #4]
	str	r3, [sp]
	mov	r0, r6
.LVL1016:
	movw	r3, #4371
	ldr	r2, .L736+4
	movs	r1, #1
	bl	mbedtls_debug_print_ret
.LVL1017:
	.loc 1 4378 0
	mov	r0, r4
	add	sp, sp, #16
	.cfi_def_cfa_offset 24
	@ sp needed
	pop	{r4, r5, r6, r7, r8, pc}
.LVL1018:
.L737:
	.align	2
.L736:
	.word	.LC101
	.word	.LC2
	.word	.LC103
	.word	.LC104
	.word	-29952
	.word	.LC102
	.word	.LC105
	.word	.LC86
	.cfi_endproc
.LFE607:
	.size	mbedtls_ssl_write_certificate, .-mbedtls_ssl_write_certificate
	.section	.text.mbedtls_ssl_parse_certificate,"ax",%progbits
	.align	1
	.p2align 2,,3
	.global	mbedtls_ssl_parse_certificate
	.syntax unified
	.thumb
	.thumb_func
	.fpu softvfp
	.type	mbedtls_ssl_parse_certificate, %function
mbedtls_ssl_parse_certificate:
.LFB608:
	.loc 1 4381 0
	.cfi_startproc
	@ args = 0, pretend = 0, frame = 0
	@ frame_needed = 0, uses_anonymous_args = 0
.LVL1019:
	push	{r4, r5, r6, r7, r8, r9, lr}
	.cfi_def_cfa_offset 28
	.cfi_offset 4, -28
	.cfi_offset 5, -24
	.cfi_offset 6, -20
	.cfi_offset 7, -16
	.cfi_offset 8, -12
	.cfi_offset 9, -8
	.cfi_offset 14, -4
	.loc 1 4384 0
	ldr	r1, [r0, #72]
	.loc 1 4385 0
	ldr	r3, [r0]
	.loc 1 4387 0
	ldr	r2, .L786
	.loc 1 4384 0
	ldr	r4, [r1]
.LVL1020:
	.loc 1 4381 0
	sub	sp, sp, #20
	.cfi_def_cfa_offset 48
	.loc 1 4385 0
	ldrb	r7, [r3, #112]	@ zero_extendqisi2
	.loc 1 4387 0
	movs	r1, #2
	movw	r3, #4387
	str	r2, [sp]
	ldr	r2, .L786+4
	.loc 1 4381 0
	mov	r5, r0
	.loc 1 4387 0
	bl	mbedtls_debug_print_msg
.LVL1021:
	.loc 1 4389 0
	ldrb	r3, [r4, #10]	@ zero_extendqisi2
	.loc 1 4385 0
	ubfx	r7, r7, #2, #2
.LVL1022:
	.loc 1 4389 0
	cmp	r3, #11
	bls	.L778
.L739:
	.loc 1 4423 0
	mov	r0, r5
	bl	mbedtls_ssl_read_record
.LVL1023:
	mov	r6, r0
	cmp	r0, #0
	bne	.L779
	.loc 1 4429 0
	ldr	r3, [r5, #4]
	.loc 1 4478 0
	ldr	r2, [r5, #116]
	.loc 1 4429 0
	adds	r3, r3, #1
	.loc 1 4478 0
	cmp	r2, #22
	.loc 1 4429 0
	str	r3, [r5, #4]
	.loc 1 4478 0
	bne	.L780
	.loc 1 4484 0
	ldr	r2, [r5, #108]
	ldrb	r3, [r2]	@ zero_extendqisi2
	cmp	r3, #11
	bne	.L743
	.loc 1 4485 0 discriminator 1
	ldr	r1, [r5, #128]
.LVL1024:
	.loc 1 4484 0 discriminator 1
	cmp	r1, #9
	bls	.L743
.LVL1025:
	.loc 1 4496 0
	ldrb	r0, [r2, #5]	@ zero_extendqisi2
.LVL1026:
	ldrb	r3, [r2, #6]	@ zero_extendqisi2
	.loc 1 4498 0
	ldrb	r2, [r2, #4]	@ zero_extendqisi2
	.loc 1 4496 0
	orr	r3, r3, r0, lsl #8
.LVL1027:
	.loc 1 4498 0
	cmp	r2, #0
	bne	.L745
.LVL1028:
	.loc 1 4499 0 discriminator 1
	adds	r3, r3, #7
.LVL1029:
	.loc 1 4498 0 discriminator 1
	cmp	r1, r3
	bne	.L745
	.loc 1 4506 0
	ldr	r4, [r5, #52]
.LVL1030:
	ldr	r0, [r4, #92]
	cbz	r0, .L747
	.loc 1 4508 0
	bl	mbedtls_x509_crt_free
.LVL1031:
	.loc 1 4509 0
	ldr	r2, [r5, #52]
	ldr	r3, .L786+8
	ldr	r0, [r2, #92]
	ldr	r3, [r3]
	blx	r3
.LVL1032:
	ldr	r4, [r5, #52]
.L747:
	.loc 1 4512 0
	ldr	r3, .L786+12
	mov	r1, #308
	ldr	r3, [r3]
	movs	r0, #1
	blx	r3
.LVL1033:
	str	r0, [r4, #92]
	cmp	r0, #0
	beq	.L781
	.loc 1 4520 0
	ldr	r3, [r5, #52]
	.loc 1 4524 0
	mov	r9, #0
	.loc 1 4520 0
	ldr	r0, [r3, #92]
	bl	mbedtls_x509_crt_init
.LVL1034:
	.loc 1 4522 0
	movs	r4, #7
	.loc 1 4544 0
	ldr	r8, .L786+64
.LVL1035:
.L749:
	.loc 1 4524 0
	ldr	r0, [r5, #128]
	.loc 1 4534 0
	add	ip, r4, #3
	.loc 1 4524 0
	cmp	r4, r0
	bcs	.L782
	.loc 1 4526 0
	ldr	r3, [r5, #108]
	.loc 1 4542 0
	add	r1, r3, ip
	.loc 1 4532 0
	add	lr, r3, r4
	.loc 1 4526 0
	ldrb	r3, [r3, r4]	@ zero_extendqisi2
	cmp	r3, #0
	bne	.L783
	.loc 1 4532 0
	ldrb	r3, [lr, #1]	@ zero_extendqisi2
	.loc 1 4533 0
	ldrb	r2, [lr, #2]	@ zero_extendqisi2
	.loc 1 4532 0
	orr	r2, r2, r3, lsl #8
.LVL1036:
	.loc 1 4536 0
	cmp	r2, #127
	add	r4, r2, ip
	bls	.L751
	.loc 1 4536 0 is_stmt 0 discriminator 1
	cmp	r0, r4
	bcc	.L751
	.loc 1 4542 0 is_stmt 1
	ldr	r3, [r5, #52]
	ldr	r0, [r3, #92]
	bl	mbedtls_x509_crt_parse_der
.LVL1037:
	.loc 1 4544 0
	mov	r9, r0
	cmp	r0, #0
	beq	.L749
	.loc 1 4544 0 is_stmt 0 discriminator 1
	cmp	r0, r8
	beq	.L749
	.loc 1 4546 0 is_stmt 1
	ldr	r3, .L786+16
	str	r0, [sp, #4]
	str	r3, [sp]
	mov	r0, r5
.LVL1038:
	movw	r3, #4546
	ldr	r2, .L786+4
	movs	r1, #1
	.loc 1 4542 0
	mov	r6, r9
	.loc 1 4546 0
	bl	mbedtls_debug_print_ret
.LVL1039:
	.loc 1 4547 0
	b	.L738
.LVL1040:
.L778:
	.loc 1 4389 0
	mov	r6, #2400
	lsrs	r6, r6, r3
	mvns	r6, r6
	ands	r6, r6, #1
	bne	.L739
	.loc 1 4394 0
	ldr	r2, .L786+20
	movw	r3, #4394
	str	r2, [sp]
	movs	r1, #2
	ldr	r2, .L786+4
	mov	r0, r5
	bl	mbedtls_debug_print_msg
.LVL1041:
	.loc 1 4395 0
	ldr	r3, [r5, #4]
	adds	r3, r3, #1
	str	r3, [r5, #4]
.LVL1042:
.L738:
	.loc 1 4657 0
	mov	r0, r6
	add	sp, sp, #20
	.cfi_remember_state
	.cfi_def_cfa_offset 28
	@ sp needed
	pop	{r4, r5, r6, r7, r8, r9, pc}
.LVL1043:
.L779:
	.cfi_restore_state
	.loc 1 4425 0
	ldr	r3, .L786+24
	str	r0, [sp, #4]
	str	r3, [sp]
	mov	r0, r5
.LVL1044:
	movw	r3, #4425
	ldr	r2, .L786+4
	movs	r1, #1
	bl	mbedtls_debug_print_ret
.LVL1045:
	.loc 1 4426 0
	b	.L738
.LVL1046:
.L751:
	.loc 1 4538 0
	ldr	r3, .L786+28
	.loc 1 4539 0
	ldr	r6, .L786+32
	.loc 1 4538 0
	mov	r0, r5
	str	r3, [sp]
	ldr	r2, .L786+4
.LVL1047:
	movw	r3, #4538
	movs	r1, #1
	bl	mbedtls_debug_print_msg
.LVL1048:
	.loc 1 4657 0
	mov	r0, r6
	add	sp, sp, #20
	.cfi_remember_state
	.cfi_def_cfa_offset 28
	@ sp needed
	pop	{r4, r5, r6, r7, r8, r9, pc}
.LVL1049:
.L782:
	.cfi_restore_state
	.loc 1 4553 0
	ldr	r3, [r5, #52]
	ldr	r2, .L786+36
	ldr	r1, [r3, #92]
	mov	r0, r5
	movw	r3, #4553
	str	r1, [sp, #4]
	str	r2, [sp]
	movs	r1, #3
	ldr	r2, .L786+4
	bl	mbedtls_debug_print_crt
.LVL1050:
	.loc 1 4560 0
	ldr	r4, [r5]
.LVL1051:
	ldrb	r3, [r4, #112]	@ zero_extendqisi2
	lsls	r3, r3, #31
	bmi	.L755
	.loc 1 4560 0 is_stmt 0 discriminator 1
	ldr	r1, [r5, #8]
	cmp	r1, #1
	bne	.L755
	.loc 1 4563 0 is_stmt 1
	ldr	r3, [r5, #48]
	ldr	r3, [r3, #92]
	cmp	r3, #0
	beq	.L784
	.loc 1 4570 0
	ldr	r1, [r5, #52]
	.loc 1 4569 0
	ldr	r2, [r3, #4]
	.loc 1 4570 0
	ldr	r1, [r1, #92]
	.loc 1 4569 0
	ldr	r0, [r1, #4]
	cmp	r2, r0
	bne	.L757
	.loc 1 4571 0
	ldr	r1, [r1, #8]
	ldr	r0, [r3, #8]
	bl	memcmp
.LVL1052:
	.loc 1 4570 0
	cbz	r0, .L755
.L757:
	.loc 1 4575 0
	ldr	r3, .L786+40
	mov	r0, r5
	str	r3, [sp]
	ldr	r2, .L786+4
	movw	r3, #4575
	movs	r1, #1
	bl	mbedtls_debug_print_msg
.LVL1053:
	.loc 1 4576 0
	ldr	r6, .L786+32
	b	.L738
.L755:
	.loc 1 4581 0
	cmp	r7, #0
	beq	.L762
.LBB520:
	.loc 1 4587 0
	ldr	r3, [r5, #56]
	ldr	r1, [r3, #20]
	cmp	r1, #0
	beq	.L759
.LVL1054:
	.loc 1 4590 0
	ldr	r2, [r3, #24]
.LVL1055:
.L760:
	.loc 1 4609 0
	ldr	ip, [r5, #52]
	.loc 1 4608 0
	ldr	r3, [r4, #56]
	ldr	lr, [r4, #68]
	ldr	r0, [ip, #92]
	str	r3, [sp, #12]
	ldr	r4, [r4, #52]
	ldr	r3, [r5, #184]
	add	ip, ip, #96
	str	r3, [sp]
	str	r4, [sp, #8]
	str	ip, [sp, #4]
	mov	r3, lr
	bl	mbedtls_x509_crt_verify_with_profile
.LVL1056:
	.loc 1 4616 0
	mov	r4, r0
	cmp	r0, #0
	bne	.L785
.LVL1057:
.L761:
	.loc 1 4608 0
	cmp	r7, #1
	it	ne
	movne	r6, r4
.LVL1058:
.L758:
.LBE520:
	.loc 1 4654 0
	ldr	r3, .L786+44
	mov	r0, r5
	str	r3, [sp]
	ldr	r2, .L786+4
	movw	r3, #4654
	movs	r1, #2
	bl	mbedtls_debug_print_msg
.LVL1059:
	.loc 1 4656 0
	b	.L738
.LVL1060:
.L783:
	.loc 1 4528 0
	ldr	r3, .L786+28
	mov	r0, r5
	str	r3, [sp]
	ldr	r2, .L786+4
	movw	r3, #4528
	movs	r1, #1
	bl	mbedtls_debug_print_msg
.LVL1061:
	.loc 1 4529 0
	ldr	r6, .L786+32
	b	.L738
.LVL1062:
.L762:
.LBB521:
	mov	r6, r9
	b	.L758
.LVL1063:
.L745:
.LBE521:
	.loc 1 4501 0
	ldr	r3, .L786+28
	mov	r0, r5
.LVL1064:
	str	r3, [sp]
.LVL1065:
	ldr	r2, .L786+4
	movw	r3, #4501
	movs	r1, #1
	bl	mbedtls_debug_print_msg
.LVL1066:
	.loc 1 4502 0
	ldr	r6, .L786+32
.LVL1067:
	b	.L738
.LVL1068:
.L743:
	.loc 1 4487 0
	ldr	r3, .L786+28
	mov	r0, r5
.LVL1069:
	str	r3, [sp]
	ldr	r2, .L786+4
	movw	r3, #4487
	movs	r1, #1
	bl	mbedtls_debug_print_msg
.LVL1070:
	.loc 1 4488 0
	ldr	r6, .L786+32
.LVL1071:
	b	.L738
.LVL1072:
.L780:
	.loc 1 4480 0
	ldr	r3, .L786+28
	mov	r0, r5
.LVL1073:
	str	r3, [sp]
	ldr	r2, .L786+4
	mov	r3, #4480
	movs	r1, #1
	bl	mbedtls_debug_print_msg
.LVL1074:
	.loc 1 4481 0
	ldr	r6, .L786+48
.LVL1075:
	b	.L738
.LVL1076:
.L785:
.LBB522:
	.loc 1 4618 0
	ldr	r3, .L786+52
	ldr	r2, .L786+4
	stm	sp, {r3, r4}
	movs	r1, #1
	movw	r3, #4618
	mov	r0, r5
.LVL1077:
	bl	mbedtls_debug_print_ret
.LVL1078:
	b	.L761
.LVL1079:
.L759:
	.loc 1 4595 0
	ldr	r1, [r4, #76]
.LVL1080:
	.loc 1 4596 0
	ldr	r2, [r4, #80]
.LVL1081:
	.loc 1 4599 0
	cmp	r1, #0
	bne	.L760
	.loc 1 4601 0
	ldr	r3, .L786+56
	mov	r0, r5
	str	r3, [sp]
	ldr	r2, .L786+4
.LVL1082:
	movw	r3, #4601
	movs	r1, #1
.LVL1083:
	bl	mbedtls_debug_print_msg
.LVL1084:
	.loc 1 4602 0
	ldr	r6, .L786+60
	b	.L738
.L787:
	.align	2
.L786:
	.word	.LC106
	.word	.LC2
	.word	mbedtls_free
	.word	mbedtls_calloc
	.word	.LC111
	.word	.LC107
	.word	.LC108
	.word	.LC109
	.word	-31232
	.word	.LC112
	.word	.LC114
	.word	.LC117
	.word	-30464
	.word	.LC116
	.word	.LC115
	.word	-30336
	.word	-9774
.LVL1085:
.L781:
.LBE522:
	.loc 1 4515 0
	mov	r2, #308
	ldr	r3, .L788
	str	r2, [sp, #4]
	str	r3, [sp]
	mov	r0, r5
	movw	r3, #4516
	ldr	r2, .L788+4
	movs	r1, #1
	bl	mbedtls_debug_print_msg
.LVL1086:
	.loc 1 4517 0
	ldr	r6, .L788+8
.LVL1087:
	b	.L738
.L784:
	.loc 1 4565 0
	ldr	r3, .L788+12
	mov	r0, r5
	str	r3, [sp]
	ldr	r2, .L788+4
	movw	r3, #4565
	bl	mbedtls_debug_print_msg
.LVL1088:
	.loc 1 4566 0
	ldr	r6, .L788+16
	b	.L738
.L789:
	.align	2
.L788:
	.word	.LC110
	.word	.LC2
	.word	-32512
	.word	.LC113
	.word	-31232
	.cfi_endproc
.LFE608:
	.size	mbedtls_ssl_parse_certificate, .-mbedtls_ssl_parse_certificate
	.section	.text.mbedtls_ssl_write_change_cipher_spec,"ax",%progbits
	.align	1
	.p2align 2,,3
	.global	mbedtls_ssl_write_change_cipher_spec
	.syntax unified
	.thumb
	.thumb_func
	.fpu softvfp
	.type	mbedtls_ssl_write_change_cipher_spec, %function
mbedtls_ssl_write_change_cipher_spec:
.LFB609:
	.loc 1 4667 0
	.cfi_startproc
	@ args = 0, pretend = 0, frame = 0
	@ frame_needed = 0, uses_anonymous_args = 0
.LVL1089:
	push	{r4, r5, r6, lr}
	.cfi_def_cfa_offset 16
	.cfi_offset 4, -16
	.cfi_offset 5, -12
	.cfi_offset 6, -8
	.cfi_offset 14, -4
	.loc 1 4670 0
	ldr	r3, .L795
	.loc 1 4667 0
	mov	r4, r0
	sub	sp, sp, #8
	.cfi_def_cfa_offset 24
	.loc 1 4670 0
	str	r3, [sp]
	ldr	r2, .L795+4
	movw	r3, #4670
	movs	r1, #2
	bl	mbedtls_debug_print_msg
.LVL1090:
	.loc 1 4673 0
	movs	r6, #1
	.loc 1 4672 0
	movs	r2, #20
	.loc 1 4674 0
	ldr	r3, [r4, #160]
	.loc 1 4672 0
	str	r2, [r4, #164]
	.loc 1 4673 0
	str	r6, [r4, #168]
	.loc 1 4674 0
	strb	r6, [r3]
	.loc 1 4676 0
	ldr	r3, [r4, #4]
	.loc 1 4678 0
	mov	r0, r4
	.loc 1 4676 0
	add	r3, r3, r6
	str	r3, [r4, #4]
	.loc 1 4678 0
	bl	mbedtls_ssl_write_record
.LVL1091:
	mov	r5, r0
	cbnz	r0, .L794
	.loc 1 4684 0
	ldr	r3, .L795+8
	mov	r0, r4
.LVL1092:
	str	r3, [sp]
	ldr	r2, .L795+4
	movw	r3, #4684
	movs	r1, #2
	bl	mbedtls_debug_print_msg
.LVL1093:
	.loc 1 4687 0
	mov	r0, r5
	add	sp, sp, #8
	.cfi_remember_state
	.cfi_def_cfa_offset 16
	@ sp needed
	pop	{r4, r5, r6, pc}
.LVL1094:
.L794:
	.cfi_restore_state
	.loc 1 4680 0
	ldr	r3, .L795+12
	str	r0, [sp, #4]
	str	r3, [sp]
	mov	r0, r4
.LVL1095:
	mov	r1, r6
	movw	r3, #4680
	ldr	r2, .L795+4
	bl	mbedtls_debug_print_ret
.LVL1096:
	.loc 1 4687 0
	mov	r0, r5
	add	sp, sp, #8
	.cfi_def_cfa_offset 16
	@ sp needed
	pop	{r4, r5, r6, pc}
.LVL1097:
.L796:
	.align	2
.L795:
	.word	.LC118
	.word	.LC2
	.word	.LC119
	.word	.LC86
	.cfi_endproc
.LFE609:
	.size	mbedtls_ssl_write_change_cipher_spec, .-mbedtls_ssl_write_change_cipher_spec
	.section	.text.mbedtls_ssl_parse_change_cipher_spec,"ax",%progbits
	.align	1
	.p2align 2,,3
	.global	mbedtls_ssl_parse_change_cipher_spec
	.syntax unified
	.thumb
	.thumb_func
	.fpu softvfp
	.type	mbedtls_ssl_parse_change_cipher_spec, %function
mbedtls_ssl_parse_change_cipher_spec:
.LFB610:
	.loc 1 4690 0
	.cfi_startproc
	@ args = 0, pretend = 0, frame = 0
	@ frame_needed = 0, uses_anonymous_args = 0
.LVL1098:
	push	{r4, r5, lr}
	.cfi_def_cfa_offset 12
	.cfi_offset 4, -12
	.cfi_offset 5, -8
	.cfi_offset 14, -4
	mov	r4, r0
	.loc 1 4693 0
	ldr	r3, .L808
	.loc 1 4690 0
	sub	sp, sp, #12
	.cfi_def_cfa_offset 24
	.loc 1 4693 0
	str	r3, [sp]
	ldr	r2, .L808+4
	movw	r3, #4693
	movs	r1, #2
	bl	mbedtls_debug_print_msg
.LVL1099:
	.loc 1 4695 0
	mov	r0, r4
	bl	mbedtls_ssl_read_record
.LVL1100:
	mov	r5, r0
	cmp	r0, #0
	bne	.L806
	.loc 1 4701 0
	ldr	r3, [r4, #116]
	cmp	r3, #20
	bne	.L807
	.loc 1 4707 0
	ldr	r3, [r4, #120]
	cmp	r3, #1
	bne	.L801
	.loc 1 4707 0 is_stmt 0 discriminator 1
	ldr	r3, [r4, #108]
	ldrb	r3, [r3]	@ zero_extendqisi2
	cmp	r3, #1
	bne	.L801
	.loc 1 4717 0 is_stmt 1
	ldr	r2, .L808+8
	movw	r3, #4717
	str	r2, [sp]
	movs	r1, #3
	ldr	r2, .L808+4
	mov	r0, r4
.LVL1101:
	bl	mbedtls_debug_print_msg
.LVL1102:
	.loc 1 4718 0
	ldr	r1, [r4, #72]
	.loc 1 4719 0
	ldr	r2, [r4, #52]
	.loc 1 4737 0
	ldr	r3, [r4, #92]
	.loc 1 4718 0
	str	r1, [r4, #60]
	.loc 1 4719 0
	str	r2, [r4, #40]
	.loc 1 4737 0
	str	r5, [r3]	@ unaligned
	str	r5, [r3, #4]	@ unaligned
	.loc 1 4742 0
	ldr	r3, [r4, #20]
	cmp	r3, #1
	ble	.L803
	.loc 1 4744 0
	ldr	r1, [r4, #72]
	ldr	r2, [r4, #104]
	ldr	r3, [r1, #12]
	ldr	r1, [r1, #16]
	subs	r3, r3, r1
	add	r2, r2, r3
.L804:
	.loc 1 4761 0
	ldr	r3, [r4, #4]
	.loc 1 4763 0
	ldr	r1, .L808+12
	.loc 1 4761 0
	adds	r3, r3, #1
	str	r2, [r4, #108]
	str	r3, [r4, #4]
	.loc 1 4763 0
	mov	r0, r4
	str	r1, [sp]
	movw	r3, #4763
	ldr	r2, .L808+4
	movs	r1, #2
	bl	mbedtls_debug_print_msg
.LVL1103:
.L797:
	.loc 1 4766 0
	mov	r0, r5
	add	sp, sp, #12
	.cfi_remember_state
	.cfi_def_cfa_offset 12
	@ sp needed
	pop	{r4, r5, pc}
.LVL1104:
.L806:
	.cfi_restore_state
	.loc 1 4697 0
	ldr	r3, .L808+16
	str	r0, [sp, #4]
	str	r3, [sp]
	mov	r0, r4
.LVL1105:
	movw	r3, #4697
	ldr	r2, .L808+4
	movs	r1, #1
	bl	mbedtls_debug_print_ret
.LVL1106:
	.loc 1 4766 0
	mov	r0, r5
	add	sp, sp, #12
	.cfi_remember_state
	.cfi_def_cfa_offset 12
	@ sp needed
	pop	{r4, r5, pc}
.LVL1107:
.L803:
	.cfi_restore_state
	.loc 1 4748 0
	ldr	r2, [r4, #104]
	b	.L804
.LVL1108:
.L801:
	.loc 1 4709 0
	ldr	r3, .L808+20
	.loc 1 4710 0
	ldr	r5, .L808+24
	.loc 1 4709 0
	mov	r0, r4
.LVL1109:
	str	r3, [sp]
	ldr	r2, .L808+4
	movw	r3, #4709
	movs	r1, #1
	bl	mbedtls_debug_print_msg
.LVL1110:
	.loc 1 4766 0
	mov	r0, r5
	add	sp, sp, #12
	.cfi_remember_state
	.cfi_def_cfa_offset 12
	@ sp needed
	pop	{r4, r5, pc}
.LVL1111:
.L807:
	.cfi_restore_state
	.loc 1 4703 0
	ldr	r3, .L808+20
	mov	r0, r4
.LVL1112:
	str	r3, [sp]
	ldr	r2, .L808+4
	movw	r3, #4703
	movs	r1, #1
	bl	mbedtls_debug_print_msg
.LVL1113:
	.loc 1 4704 0
	ldr	r5, .L808+28
.LVL1114:
	b	.L797
.L809:
	.align	2
.L808:
	.word	.LC120
	.word	.LC2
	.word	.LC122
	.word	.LC123
	.word	.LC108
	.word	.LC121
	.word	-32256
	.word	-30464
	.cfi_endproc
.LFE610:
	.size	mbedtls_ssl_parse_change_cipher_spec, .-mbedtls_ssl_parse_change_cipher_spec
	.section	.text.mbedtls_ssl_optimize_checksum,"ax",%progbits
	.align	1
	.p2align 2,,3
	.global	mbedtls_ssl_optimize_checksum
	.syntax unified
	.thumb
	.thumb_func
	.fpu softvfp
	.type	mbedtls_ssl_optimize_checksum, %function
mbedtls_ssl_optimize_checksum:
.LFB611:
	.loc 1 4770 0
	.cfi_startproc
	@ args = 0, pretend = 0, frame = 0
	@ frame_needed = 0, uses_anonymous_args = 0
	@ link register save eliminated.
.LVL1115:
	.loc 1 4775 0
	ldr	r3, [r0, #20]
	cmp	r3, #2
	ble	.L814
	.loc 1 4781 0
	ldrb	r3, [r1, #9]	@ zero_extendqisi2
	cmp	r3, #7
	.loc 1 4782 0
	it	eq
	ldreq	r2, .L815
	ldr	r3, [r0, #56]
	.loc 1 4787 0
	it	ne
	ldrne	r2, .L815+4
	str	r2, [r3, #536]
	bx	lr
.L814:
	.loc 1 4776 0
	ldr	r3, [r0, #56]
	ldr	r2, .L815+8
	str	r2, [r3, #536]
	bx	lr
.L816:
	.align	2
.L815:
	.word	ssl_update_checksum_sha384
	.word	ssl_update_checksum_sha256
	.word	ssl_update_checksum_md5sha1
	.cfi_endproc
.LFE611:
	.size	mbedtls_ssl_optimize_checksum, .-mbedtls_ssl_optimize_checksum
	.section	.text.mbedtls_ssl_reset_checksum,"ax",%progbits
	.align	1
	.p2align 2,,3
	.global	mbedtls_ssl_reset_checksum
	.syntax unified
	.thumb
	.thumb_func
	.fpu softvfp
	.type	mbedtls_ssl_reset_checksum, %function
mbedtls_ssl_reset_checksum:
.LFB612:
	.loc 1 4798 0
	.cfi_startproc
	@ args = 0, pretend = 0, frame = 0
	@ frame_needed = 0, uses_anonymous_args = 0
.LVL1116:
	push	{r4, lr}
	.cfi_def_cfa_offset 8
	.cfi_offset 4, -8
	.cfi_offset 14, -4
	.loc 1 4798 0
	mov	r4, r0
	.loc 1 4801 0
	ldr	r0, [r0, #56]
.LVL1117:
	adds	r0, r0, #28
	bl	mbedtls_md5_starts
.LVL1118:
	.loc 1 4802 0
	ldr	r0, [r4, #56]
	adds	r0, r0, #116
	bl	mbedtls_sha1_starts
.LVL1119:
	.loc 1 4806 0
	ldr	r0, [r4, #56]
	movs	r1, #0
	adds	r0, r0, #208
	bl	mbedtls_sha256_starts
.LVL1120:
	.loc 1 4809 0
	ldr	r0, [r4, #56]
	movs	r1, #1
	.loc 1 4812 0
	pop	{r4, lr}
	.cfi_restore 14
	.cfi_restore 4
	.cfi_def_cfa_offset 0
.LVL1121:
	.loc 1 4809 0
	add	r0, r0, #320
	b	mbedtls_sha512_starts
.LVL1122:
	.cfi_endproc
.LFE612:
	.size	mbedtls_ssl_reset_checksum, .-mbedtls_ssl_reset_checksum
	.section	.text.mbedtls_ssl_handshake_wrapup,"ax",%progbits
	.align	1
	.p2align 2,,3
	.global	mbedtls_ssl_handshake_wrapup
	.syntax unified
	.thumb
	.thumb_func
	.fpu softvfp
	.type	mbedtls_ssl_handshake_wrapup, %function
mbedtls_ssl_handshake_wrapup:
.LFB621:
	.loc 1 5130 0
	.cfi_startproc
	@ args = 0, pretend = 0, frame = 0
	@ frame_needed = 0, uses_anonymous_args = 0
.LVL1123:
	push	{r4, r5, r6, r7, lr}
	.cfi_def_cfa_offset 20
	.cfi_offset 4, -20
	.cfi_offset 5, -16
	.cfi_offset 6, -12
	.cfi_offset 7, -8
	.cfi_offset 14, -4
	mov	r5, r0
	.loc 1 5131 0
	ldr	r2, [r0, #56]
	.loc 1 5133 0
	ldr	r1, .L860
	.loc 1 5130 0
	sub	sp, sp, #12
	.cfi_def_cfa_offset 32
	.loc 1 5131 0
	ldr	r7, [r2, #668]
.LVL1124:
	.loc 1 5133 0
	movw	r3, #5133
	str	r1, [sp]
	ldr	r2, .L860+4
	movs	r1, #3
	bl	mbedtls_debug_print_msg
.LVL1125:
	.loc 1 5136 0
	ldr	r3, [r5, #8]
	cmp	r3, #1
	beq	.L857
.L820:
	.loc 1 5146 0
	ldr	r4, [r5, #48]
	cmp	r4, #0
	beq	.L858
	.loc 1 5151 0
	ldr	r2, [r4, #120]
	.loc 1 5150 0
	ldr	r3, [r5, #52]
.LBB542:
.LBB543:
	.loc 1 7260 0
	ldr	r0, [r4, #92]
	.loc 1 7263 0
	ldr	r6, .L860+8
.LBE543:
.LBE542:
	.loc 1 5150 0
	str	r2, [r3, #120]
.LVL1126:
.LBB549:
.LBB547:
	.loc 1 7260 0
	cbz	r0, .L822
	.loc 1 7262 0
	bl	mbedtls_x509_crt_free
.LVL1127:
	.loc 1 7263 0
	ldr	r3, [r6]
	ldr	r0, [r4, #92]
	blx	r3
.LVL1128:
.L822:
	.loc 1 7268 0
	ldr	r3, [r6]
	ldr	r0, [r4, #100]
	blx	r3
.LVL1129:
	mov	r3, r4
.LBB544:
.LBB545:
.LBB546:
	.loc 1 86 0
	movs	r1, #0
	add	r2, r4, #124
.LVL1130:
.L823:
	strb	r1, [r3]
	adds	r3, r3, #1
.LVL1131:
	cmp	r3, r2
	bne	.L823
.LVL1132:
.LBE546:
.LBE545:
.LBE544:
.LBE547:
.LBE549:
	.loc 1 5155 0
	ldr	r3, [r6]
.LVL1133:
	ldr	r0, [r5, #48]
	blx	r3
.LVL1134:
.L821:
	.loc 1 5158 0
	movs	r0, #0
	.loc 1 5163 0
	ldr	r2, [r5]
	.loc 1 5157 0
	ldr	r1, [r5, #52]
	.loc 1 5163 0
	ldr	r3, [r2, #36]
	.loc 1 5158 0
	str	r0, [r5, #52]
	.loc 1 5157 0
	str	r1, [r5, #48]
	.loc 1 5163 0
	cbz	r3, .L825
	.loc 1 5163 0 discriminator 1
	ldr	r0, [r1, #8]
	cbz	r0, .L825
	.loc 1 5164 0
	cmp	r7, #0
	beq	.L859
.L825:
.LVL1135:
.LBB550:
.LBB551:
	.loc 1 5106 0
	ldr	r2, .L860+12
	movw	r3, #5106
	str	r2, [sp]
	movs	r1, #3
	ldr	r2, .L860+4
	mov	r0, r5
	bl	mbedtls_debug_print_msg
.LVL1136:
	.loc 1 5111 0
	ldr	r4, [r5, #56]
.LVL1137:
.LBB552:
.LBB553:
	.loc 1 7180 0
	cbz	r4, .L827
	.loc 1 7185 0
	add	r0, r4, #28
	bl	mbedtls_md5_free
.LVL1138:
	.loc 1 7186 0
	add	r0, r4, #116
	bl	mbedtls_sha1_free
.LVL1139:
	.loc 1 7190 0
	add	r0, r4, #208
	bl	mbedtls_sha256_free
.LVL1140:
	.loc 1 7193 0
	add	r0, r4, #320
	bl	mbedtls_sha512_free
.LVL1141:
	.loc 1 7232 0
	ldr	r0, [r4, #16]
	cbz	r0, .L831
.LVL1142:
.L830:
.LBB554:
	.loc 1 7238 0
	ldr	r7, [r0, #8]
.LVL1143:
	.loc 1 7239 0
	ldr	r3, [r6]
	blx	r3
.LVL1144:
	.loc 1 7236 0
	mov	r0, r7
	cmp	r7, #0
	bne	.L830
.LVL1145:
.L831:
.LBE554:
.LBE553:
.LBE552:
.LBE551:
.LBE550:
.LBB568:
.LBB548:
	.loc 1 7268 0
	mov	r0, r4
.LBE548:
.LBE568:
.LBB569:
.LBB567:
.LBB558:
.LBB557:
.LBB555:
.LBB556:
	.loc 1 86 0
	movs	r3, #0
	add	r2, r4, #696
.LVL1146:
.L829:
	strb	r3, [r0]
	adds	r0, r0, #1
.LVL1147:
	cmp	r0, r2
	bne	.L829
	ldr	r4, [r5, #56]
.LVL1148:
.L827:
.LBE556:
.LBE555:
.LBE557:
.LBE558:
	.loc 1 5113 0
	movs	r7, #0
	.loc 1 5112 0
	mov	r0, r4
	ldr	r3, [r6]
	blx	r3
.LVL1149:
	.loc 1 5118 0
	ldr	r4, [r5, #68]
	.loc 1 5113 0
	str	r7, [r5, #56]
	.loc 1 5118 0
	cbz	r4, .L832
.LVL1150:
.LBB559:
.LBB560:
	.loc 1 7155 0
	add	r0, r4, #80
	bl	mbedtls_cipher_free
.LVL1151:
	.loc 1 7156 0
	add	r0, r4, #144
	bl	mbedtls_cipher_free
.LVL1152:
	.loc 1 7158 0
	add	r0, r4, #56
	bl	mbedtls_md_free
.LVL1153:
	.loc 1 7159 0
	add	r0, r4, #68
	bl	mbedtls_md_free
.LVL1154:
.LBB561:
.LBB562:
.LBB563:
	.loc 1 86 0
	mov	r1, r7
.LBE563:
.LBE562:
.LBE561:
	.loc 1 7159 0
	mov	r3, r4
	add	r2, r4, #208
.LVL1155:
.L833:
.LBB566:
.LBB565:
.LBB564:
	.loc 1 86 0
	strb	r1, [r3]
	adds	r3, r3, #1
.LVL1156:
	cmp	r3, r2
	bne	.L833
.LVL1157:
.LBE564:
.LBE565:
.LBE566:
.LBE560:
.LBE559:
	.loc 1 5121 0
	ldr	r3, [r6]
.LVL1158:
	ldr	r0, [r5, #68]
	blx	r3
.LVL1159:
.L832:
	.loc 1 5124 0
	movs	r1, #0
	.loc 1 5123 0
	ldr	r2, [r5, #72]
	.loc 1 5126 0
	ldr	r3, .L860+16
	.loc 1 5124 0
	str	r1, [r5, #72]
	.loc 1 5123 0
	str	r2, [r5, #68]
	.loc 1 5126 0
	mov	r0, r5
	str	r3, [sp]
	ldr	r2, .L860+4
	movw	r3, #5126
	movs	r1, #3
	bl	mbedtls_debug_print_msg
.LVL1160:
.LBE567:
.LBE569:
	.loc 1 5186 0
	ldr	r3, [r5, #4]
	.loc 1 5188 0
	ldr	r2, .L860+20
	.loc 1 5186 0
	adds	r3, r3, #1
	str	r3, [r5, #4]
	.loc 1 5188 0
	mov	r0, r5
	str	r2, [sp]
	movw	r3, #5188
	ldr	r2, .L860+4
	movs	r1, #3
	bl	mbedtls_debug_print_msg
.LVL1161:
	.loc 1 5189 0
	add	sp, sp, #12
	.cfi_remember_state
	.cfi_def_cfa_offset 20
	@ sp needed
	pop	{r4, r5, r6, r7, pc}
.LVL1162:
.L859:
	.cfi_restore_state
	.loc 1 5167 0
	ldr	r0, [r2, #40]
	blx	r3
.LVL1163:
	cmp	r0, #0
	beq	.L825
	.loc 1 5168 0
	ldr	r2, .L860+24
	movw	r3, #5168
	str	r2, [sp]
	movs	r1, #1
	ldr	r2, .L860+4
	mov	r0, r5
	bl	mbedtls_debug_print_msg
.LVL1164:
	b	.L825
.L858:
	ldr	r6, .L860+8
	b	.L821
.L857:
	.loc 1 5138 0
	movs	r2, #2
	.loc 1 5139 0
	movs	r3, #0
	.loc 1 5138 0
	str	r2, [r5, #8]
	.loc 1 5139 0
	str	r3, [r5, #12]
	b	.L820
.L861:
	.align	2
.L860:
	.word	.LC124
	.word	.LC2
	.word	mbedtls_free
	.word	.LC126
	.word	.LC127
	.word	.LC128
	.word	.LC125
	.cfi_endproc
.LFE621:
	.size	mbedtls_ssl_handshake_wrapup, .-mbedtls_ssl_handshake_wrapup
	.section	.text.mbedtls_ssl_write_finished,"ax",%progbits
	.align	1
	.p2align 2,,3
	.global	mbedtls_ssl_write_finished
	.syntax unified
	.thumb
	.thumb_func
	.fpu softvfp
	.type	mbedtls_ssl_write_finished, %function
mbedtls_ssl_write_finished:
.LFB622:
	.loc 1 5192 0
	.cfi_startproc
	@ args = 0, pretend = 0, frame = 0
	@ frame_needed = 0, uses_anonymous_args = 0
.LVL1165:
	push	{r4, r5, r6, lr}
	.cfi_def_cfa_offset 16
	.cfi_offset 4, -16
	.cfi_offset 5, -12
	.cfi_offset 6, -8
	.cfi_offset 14, -4
	mov	r4, r0
	.loc 1 5195 0
	ldr	r2, .L874
	.loc 1 5192 0
	sub	sp, sp, #8
	.cfi_def_cfa_offset 24
	.loc 1 5195 0
	movw	r3, #5195
	str	r2, [sp]
	movs	r1, #2
	ldr	r2, .L874+4
	bl	mbedtls_debug_print_msg
.LVL1166:
	.loc 1 5200 0
	ldr	r3, [r4, #20]
	cmp	r3, #1
	ble	.L863
	.loc 1 5202 0
	ldr	r2, [r4, #72]
	ldr	r1, [r4, #156]
	ldr	r3, [r2, #12]
	ldr	r2, [r2, #16]
	subs	r3, r3, r2
	add	r1, r1, r3
.L864:
	.loc 1 5208 0
	ldr	r2, [r4]
	ldr	r3, [r4, #56]
	ldrb	r2, [r2, #112]	@ zero_extendqisi2
	ldr	r3, [r3, #544]
	and	r2, r2, #1
	str	r1, [r4, #160]
	mov	r0, r4
	adds	r1, r1, #4
	blx	r3
.LVL1167:
	.loc 1 5216 0
	ldr	r3, [r4, #20]
	.loc 1 5220 0
	ldr	r5, [r4, #160]
	.loc 1 5216 0
	cmp	r3, #0
	ite	ne
	movne	r2, #12
	moveq	r2, #36
	.loc 1 5220 0
	add	r1, r5, #4
	.loc 1 5219 0
	str	r2, [r4, #192]
	.loc 1 5220 0
	add	r0, r4, #196
	.loc 1 5216 0
	ite	ne
	movne	r6, #16
	moveq	r6, #40
	.loc 1 5220 0
	bl	memcpy
.LVL1168:
	.loc 1 5225 0
	movs	r3, #20
	.loc 1 5224 0
	movs	r2, #22
	.loc 1 5223 0
	str	r6, [r4, #168]
	.loc 1 5224 0
	str	r2, [r4, #164]
	.loc 1 5225 0
	strb	r3, [r5]
	.loc 1 5231 0
	ldr	r3, [r4, #56]
	ldr	r3, [r3, #668]
	cbz	r3, .L866
	.loc 1 5234 0
	ldr	r3, [r4]
	ldrb	r3, [r3, #112]	@ zero_extendqisi2
	lsls	r3, r3, #31
	bpl	.L872
.L867:
	.loc 1 5249 0
	ldr	r2, .L874+8
	movw	r3, #5249
	str	r2, [sp]
	movs	r1, #3
	ldr	r2, .L874+4
	mov	r0, r4
	bl	mbedtls_debug_print_msg
.LVL1169:
	.loc 1 5277 0
	movs	r2, #0
	ldr	r3, [r4, #144]
	.loc 1 5298 0
	mov	r0, r4
	.loc 1 5277 0
	str	r2, [r3]	@ unaligned
	str	r2, [r3, #4]	@ unaligned
	.loc 1 5279 0
	ldr	r2, [r4, #72]
	.loc 1 5280 0
	ldr	r3, [r4, #52]
	.loc 1 5279 0
	str	r2, [r4, #64]
	.loc 1 5280 0
	str	r3, [r4, #44]
	.loc 1 5298 0
	bl	mbedtls_ssl_write_record
.LVL1170:
	mov	r5, r0
	cbnz	r0, .L873
	.loc 1 5304 0
	ldr	r3, .L874+12
	mov	r0, r4
.LVL1171:
	str	r3, [sp]
	ldr	r2, .L874+4
	movw	r3, #5304
	movs	r1, #2
	bl	mbedtls_debug_print_msg
.LVL1172:
	.loc 1 5307 0
	mov	r0, r5
	add	sp, sp, #8
	.cfi_remember_state
	.cfi_def_cfa_offset 16
	@ sp needed
	pop	{r4, r5, r6, pc}
.LVL1173:
.L866:
	.cfi_restore_state
	.loc 1 5243 0
	ldr	r3, [r4, #4]
	adds	r3, r3, #1
	str	r3, [r4, #4]
	b	.L867
.L872:
	.loc 1 5235 0
	movs	r3, #15
	str	r3, [r4, #4]
	b	.L867
.LVL1174:
.L873:
	.loc 1 5300 0
	ldr	r3, .L874+16
	str	r0, [sp, #4]
	str	r3, [sp]
	mov	r0, r4
.LVL1175:
	movw	r3, #5300
	ldr	r2, .L874+4
	movs	r1, #1
	bl	mbedtls_debug_print_ret
.LVL1176:
	.loc 1 5307 0
	mov	r0, r5
	add	sp, sp, #8
	.cfi_remember_state
	.cfi_def_cfa_offset 16
	@ sp needed
	pop	{r4, r5, r6, pc}
.LVL1177:
.L863:
	.cfi_restore_state
	.loc 1 5206 0
	ldr	r1, [r4, #156]
	b	.L864
.L875:
	.align	2
.L874:
	.word	.LC129
	.word	.LC2
	.word	.LC130
	.word	.LC131
	.word	.LC86
	.cfi_endproc
.LFE622:
	.size	mbedtls_ssl_write_finished, .-mbedtls_ssl_write_finished
	.section	.text.mbedtls_ssl_parse_finished,"ax",%progbits
	.align	1
	.p2align 2,,3
	.global	mbedtls_ssl_parse_finished
	.syntax unified
	.thumb
	.thumb_func
	.fpu softvfp
	.type	mbedtls_ssl_parse_finished, %function
mbedtls_ssl_parse_finished:
.LFB623:
	.loc 1 5316 0
	.cfi_startproc
	@ args = 0, pretend = 0, frame = 16
	@ frame_needed = 0, uses_anonymous_args = 0
.LVL1178:
	push	{r4, r5, r6, lr}
	.cfi_def_cfa_offset 16
	.cfi_offset 4, -16
	.cfi_offset 5, -12
	.cfi_offset 6, -8
	.cfi_offset 14, -4
	mov	r4, r0
	.loc 1 5321 0
	ldr	r2, .L890
	.loc 1 5316 0
	sub	sp, sp, #24
	.cfi_def_cfa_offset 40
	.loc 1 5321 0
	movw	r3, #5321
	str	r2, [sp]
	movs	r1, #2
	ldr	r2, .L890+4
	bl	mbedtls_debug_print_msg
.LVL1179:
	.loc 1 5323 0
	ldr	r2, [r4]
	ldr	r3, [r4, #56]
	ldrb	r2, [r2, #112]	@ zero_extendqisi2
	ldr	r3, [r3, #544]
	mvns	r2, r2
	mov	r0, r4
	and	r2, r2, #1
	add	r1, sp, #12
	blx	r3
.LVL1180:
	.loc 1 5325 0
	mov	r0, r4
	bl	mbedtls_ssl_read_record
.LVL1181:
	mov	r5, r0
	cmp	r0, #0
	bne	.L886
	.loc 1 5331 0
	ldr	r3, [r4, #116]
	cmp	r3, #22
	bne	.L887
.LVL1182:
	.loc 1 5345 0
	ldr	r2, [r4, #108]
	ldrb	r3, [r2]	@ zero_extendqisi2
	cmp	r3, #20
	bne	.L880
.LVL1183:
	.loc 1 5345 0 is_stmt 0 discriminator 1
	ldr	r3, [r4, #128]
	cmp	r3, #16
	bne	.L880
.LBB570:
.LBB571:
	.loc 3 500 0 is_stmt 1
	ldr	r3, [r2, #4]	@ unaligned
	ldr	r0, [sp, #12]
.LVL1184:
	ldr	r6, [r2, #8]	@ unaligned
	ldr	r1, [sp, #16]
	eors	r3, r3, r0
	ldr	r2, [r2, #12]	@ unaligned
	ldr	r0, [sp, #20]
	eors	r1, r1, r6
	orrs	r3, r3, r1
	eors	r2, r2, r0
	orrs	r3, r3, r2
.LBE571:
.LBE570:
	.loc 1 5352 0
	ubfx	r2, r3, #8, #8
	orrs	r2, r2, r3
	ubfx	r1, r3, #16, #8
	orrs	r2, r2, r1
	orr	r3, r2, r3, lsr #24
	tst	r3, #255
	bne	.L888
	.loc 1 5360 0
	movs	r6, #12
	.loc 1 5361 0
	add	r3, sp, #12
	ldmia	r3!, {r0, r1, r2}
	.loc 1 5364 0
	ldr	r3, [r4, #56]
	.loc 1 5361 0
	str	r0, [r4, #208]	@ unaligned
	str	r1, [r4, #212]	@ unaligned
	str	r2, [r4, #216]	@ unaligned
	.loc 1 5364 0
	ldr	r3, [r3, #668]
	.loc 1 5360 0
	str	r6, [r4, #192]
	.loc 1 5364 0
	cbnz	r3, .L889
	.loc 1 5376 0
	ldr	r3, [r4, #4]
	adds	r3, r3, #1
	str	r3, [r4, #4]
.L884:
	.loc 1 5383 0
	ldr	r3, .L890+8
	mov	r0, r4
	str	r3, [sp]
	ldr	r2, .L890+4
	movw	r3, #5383
	movs	r1, #2
	bl	mbedtls_debug_print_msg
.LVL1185:
.L876:
	.loc 1 5386 0
	mov	r0, r5
	add	sp, sp, #24
	.cfi_remember_state
	.cfi_def_cfa_offset 16
	@ sp needed
	pop	{r4, r5, r6, pc}
.LVL1186:
.L889:
	.cfi_restore_state
	.loc 1 5367 0
	ldr	r3, [r4]
	ldrb	r3, [r3, #112]	@ zero_extendqisi2
	lsls	r3, r3, #31
	bmi	.L884
	.loc 1 5368 0
	movs	r3, #10
	str	r3, [r4, #4]
	b	.L884
.LVL1187:
.L886:
	.loc 1 5327 0
	ldr	r3, .L890+12
	str	r0, [sp, #4]
	str	r3, [sp]
	mov	r0, r4
.LVL1188:
	movw	r3, #5327
	ldr	r2, .L890+4
	movs	r1, #1
	bl	mbedtls_debug_print_ret
.LVL1189:
	.loc 1 5386 0
	mov	r0, r5
	add	sp, sp, #24
	.cfi_remember_state
	.cfi_def_cfa_offset 16
	@ sp needed
	pop	{r4, r5, r6, pc}
.LVL1190:
.L880:
	.cfi_restore_state
	.loc 1 5348 0
	ldr	r3, .L890+16
	.loc 1 5349 0
	ldr	r5, .L890+20
	.loc 1 5348 0
	mov	r0, r4
.LVL1191:
	str	r3, [sp]
	ldr	r2, .L890+4
	movw	r3, #5348
	movs	r1, #1
	bl	mbedtls_debug_print_msg
.LVL1192:
	.loc 1 5386 0
	mov	r0, r5
	add	sp, sp, #24
	.cfi_remember_state
	.cfi_def_cfa_offset 16
	@ sp needed
	pop	{r4, r5, r6, pc}
.LVL1193:
.L887:
	.cfi_restore_state
	.loc 1 5333 0
	ldr	r3, .L890+16
	mov	r0, r4
.LVL1194:
	str	r3, [sp]
	ldr	r2, .L890+4
	movw	r3, #5333
	movs	r1, #1
	bl	mbedtls_debug_print_msg
.LVL1195:
	.loc 1 5334 0
	ldr	r5, .L890+24
.LVL1196:
	b	.L876
.LVL1197:
.L888:
	.loc 1 5355 0
	ldr	r3, .L890+16
	mov	r0, r4
	str	r3, [sp]
	ldr	r2, .L890+4
	movw	r3, #5355
	movs	r1, #1
	bl	mbedtls_debug_print_msg
.LVL1198:
	.loc 1 5356 0
	ldr	r5, .L890+20
.LVL1199:
	b	.L876
.L891:
	.align	2
.L890:
	.word	.LC132
	.word	.LC2
	.word	.LC134
	.word	.LC108
	.word	.LC133
	.word	-32384
	.word	-30464
	.cfi_endproc
.LFE623:
	.size	mbedtls_ssl_parse_finished, .-mbedtls_ssl_parse_finished
	.section	.text.mbedtls_ssl_session_init,"ax",%progbits
	.align	1
	.p2align 2,,3
	.global	mbedtls_ssl_session_init
	.syntax unified
	.thumb
	.thumb_func
	.fpu softvfp
	.type	mbedtls_ssl_session_init, %function
mbedtls_ssl_session_init:
.LFB626:
	.loc 1 5444 0
	.cfi_startproc
	@ args = 0, pretend = 0, frame = 0
	@ frame_needed = 0, uses_anonymous_args = 0
	@ link register save eliminated.
.LVL1200:
	.loc 1 5445 0
	movs	r2, #124
	movs	r1, #0
	b	memset
.LVL1201:
	.cfi_endproc
.LFE626:
	.size	mbedtls_ssl_session_init, .-mbedtls_ssl_session_init
	.section	.text.mbedtls_ssl_init,"ax",%progbits
	.align	1
	.p2align 2,,3
	.global	mbedtls_ssl_init
	.syntax unified
	.thumb
	.thumb_func
	.fpu softvfp
	.type	mbedtls_ssl_init, %function
mbedtls_ssl_init:
.LFB628:
	.loc 1 5553 0
	.cfi_startproc
	@ args = 0, pretend = 0, frame = 0
	@ frame_needed = 0, uses_anonymous_args = 0
.LVL1202:
	push	{r3, lr}
	.cfi_def_cfa_offset 8
	.cfi_offset 3, -8
	.cfi_offset 14, -4
	.loc 1 5554 0
	movs	r2, #220
	movs	r1, #0
	bl	memset
.LVL1203:
	.loc 1 5557 0
	ldr	r3, .L897
	ldr	r3, [r3, #60]
	cbnz	r3, .L896
	pop	{r3, pc}
.L896:
	.loc 1 5561 0
	pop	{r3, lr}
	.cfi_restore 14
	.cfi_restore 3
	.cfi_def_cfa_offset 0
	.loc 1 5558 0
	b	crypto_init
.LVL1204:
.L898:
	.align	2
.L897:
	.word	rom_ssl_ram_map
	.cfi_endproc
.LFE628:
	.size	mbedtls_ssl_init, .-mbedtls_ssl_init
	.section	.text.mbedtls_ssl_setup,"ax",%progbits
	.align	1
	.p2align 2,,3
	.global	mbedtls_ssl_setup
	.syntax unified
	.thumb
	.thumb_func
	.fpu softvfp
	.type	mbedtls_ssl_setup, %function
mbedtls_ssl_setup:
.LFB629:
	.loc 1 5578 0
	.cfi_startproc
	@ args = 0, pretend = 0, frame = 0
	@ frame_needed = 0, uses_anonymous_args = 0
.LVL1205:
	push	{r4, r5, r6, r7, lr}
	.cfi_def_cfa_offset 20
	.cfi_offset 4, -20
	.cfi_offset 5, -16
	.cfi_offset 6, -12
	.cfi_offset 7, -8
	.cfi_offset 14, -4
	.loc 1 5592 0
	ldr	r5, .L908
	.loc 1 5581 0
	str	r1, [r0]
.LVL1206:
	.loc 1 5578 0
	mov	r4, r0
	sub	sp, sp, #12
	.cfi_def_cfa_offset 32
	.loc 1 5592 0
	ldr	r3, [r5]
	movw	r1, #6477
.LVL1207:
	movs	r0, #1
.LVL1208:
	blx	r3
.LVL1209:
	str	r0, [r4, #88]
	cbz	r0, .L902
	.loc 1 5593 0 discriminator 1
	ldr	r3, [r5]
	movw	r1, #6477
	movs	r0, #1
	blx	r3
.LVL1210:
	str	r0, [r4, #140]
	.loc 1 5592 0 discriminator 1
	cbz	r0, .L902
	.loc 1 5625 0
	add	r5, r0, #8
	.loc 1 5626 0
	add	r1, r0, #11
	.loc 1 5624 0
	str	r0, [r4, #144]
	.loc 1 5627 0
	adds	r0, r0, #13
	str	r0, [r4, #156]
	.loc 1 5628 0
	str	r0, [r4, #160]
	.loc 1 5637 0
	mov	r0, r4
	.loc 1 5630 0
	ldr	r3, [r4, #88]
	.loc 1 5625 0
	str	r5, [r4, #148]
	.loc 1 5633 0
	add	r2, r3, #13
	.loc 1 5631 0
	add	r7, r3, #8
	.loc 1 5632 0
	add	r6, r3, #11
	.loc 1 5630 0
	str	r3, [r4, #92]
	.loc 1 5631 0
	str	r7, [r4, #96]
	.loc 1 5632 0
	str	r6, [r4, #100]
	.loc 1 5633 0
	str	r2, [r4, #104]
	.loc 1 5634 0
	str	r2, [r4, #108]
	.loc 1 5626 0
	str	r1, [r4, #152]
	.loc 1 5641 0
	add	sp, sp, #12
	.cfi_remember_state
	.cfi_def_cfa_offset 20
	@ sp needed
	pop	{r4, r5, r6, r7, lr}
	.cfi_restore 14
	.cfi_restore 7
	.cfi_restore 6
	.cfi_restore 5
	.cfi_restore 4
	.cfi_def_cfa_offset 0
.LVL1211:
	.loc 1 5637 0
	b	ssl_handshake_init
.LVL1212:
.L902:
	.cfi_restore_state
	.loc 1 5596 0
	movw	r2, #6477
	ldr	r3, .L908+4
	str	r2, [sp, #4]
	str	r3, [sp]
	ldr	r2, .L908+8
	movs	r1, #1
	mov	r0, r4
	movw	r3, #5596
	bl	mbedtls_debug_print_msg
.LVL1213:
	.loc 1 5600 0
	ldr	r3, .L908+12
	ldr	r0, [r4, #88]
	ldr	r3, [r3]
	blx	r3
.LVL1214:
	.loc 1 5602 0
	movs	r3, #0
	.loc 1 5641 0
	ldr	r0, .L908+16
	.loc 1 5602 0
	str	r3, [r4, #88]
	.loc 1 5641 0
	add	sp, sp, #12
	.cfi_def_cfa_offset 20
	@ sp needed
	pop	{r4, r5, r6, r7, pc}
.LVL1215:
.L909:
	.align	2
.L908:
	.word	mbedtls_calloc
	.word	.LC110
	.word	.LC2
	.word	mbedtls_free
	.word	-32512
	.cfi_endproc
.LFE629:
	.size	mbedtls_ssl_setup, .-mbedtls_ssl_setup
	.section	.text.mbedtls_ssl_session_reset,"ax",%progbits
	.align	1
	.p2align 2,,3
	.global	mbedtls_ssl_session_reset
	.syntax unified
	.thumb
	.thumb_func
	.fpu softvfp
	.type	mbedtls_ssl_session_reset, %function
mbedtls_ssl_session_reset:
.LFB631:
	.loc 1 5754 0
	.cfi_startproc
	@ args = 0, pretend = 0, frame = 0
	@ frame_needed = 0, uses_anonymous_args = 0
.LVL1216:
	push	{r4, r5, r6, r7, lr}
	.cfi_def_cfa_offset 20
	.cfi_offset 4, -20
	.cfi_offset 5, -16
	.cfi_offset 6, -12
	.cfi_offset 7, -8
	.cfi_offset 14, -4
.LBB588:
.LBB589:
	.loc 1 5654 0
	movs	r4, #0
.LBB590:
.LBB591:
	.loc 1 107 0
	ldr	r3, [r0, #80]
.LBE591:
.LBE590:
.LBE589:
.LBE588:
	.loc 1 5754 0
	sub	sp, sp, #12
	.cfi_def_cfa_offset 32
	.loc 1 5754 0
	mov	r6, r0
.LVL1217:
.LBB609:
.LBB607:
	.loc 1 5654 0
	str	r4, [r0, #4]
.LVL1218:
.LBB593:
.LBB592:
	.loc 1 107 0
	cbz	r3, .L911
	.loc 1 110 0
	ldr	r3, .L936
	ldr	r2, .L936+4
	stm	sp, {r3, r4}
	movs	r1, #3
	movs	r3, #110
	bl	mbedtls_debug_print_msg
.LVL1219:
	.loc 1 111 0
	ldr	r3, [r6, #80]
	mov	r2, r4
	mov	r1, r4
	ldr	r0, [r6, #76]
	blx	r3
.LVL1220:
.L911:
.LBE592:
.LBE593:
	.loc 1 5660 0
	movs	r3, #0
	.loc 1 5671 0
	ldr	r2, [r6, #88]
	.loc 1 5688 0
	ldr	r0, [r6, #140]
	.loc 1 5693 0
	ldrsb	r1, [r6, #176]
	.loc 1 5671 0
	adds	r2, r2, #13
	.loc 1 5688 0
	add	r4, r0, #13
	.loc 1 5660 0
	str	r3, [r6, #8]
	.loc 1 5661 0
	str	r3, [r6, #12]
	.loc 1 5663 0
	str	r3, [r6, #192]
	.loc 1 5664 0
	str	r3, [r6, #196]	@ unaligned
	str	r3, [r6, #200]	@ unaligned
	str	r3, [r6, #204]	@ unaligned
	.loc 1 5665 0
	str	r3, [r6, #208]	@ unaligned
	str	r3, [r6, #212]	@ unaligned
	str	r3, [r6, #216]	@ unaligned
	.loc 1 5667 0
	str	r3, [r6, #188]
	.loc 1 5669 0
	str	r3, [r6, #112]
	.loc 1 5672 0
	str	r3, [r6, #116]
	.loc 1 5673 0
	str	r3, [r6, #120]
	.loc 1 5675 0
	str	r3, [r6, #124]
	.loc 1 5684 0
	str	r3, [r6, #128]
	.loc 1 5685 0
	str	r3, [r6, #132]
	.loc 1 5686 0
	str	r3, [r6, #136]
	.loc 1 5689 0
	str	r3, [r6, #164]
	.loc 1 5690 0
	str	r3, [r6, #168]
	.loc 1 5691 0
	str	r3, [r6, #172]
	.loc 1 5671 0
	str	r2, [r6, #108]
	.loc 1 5688 0
	str	r4, [r6, #160]
	.loc 1 5693 0
	cbz	r1, .L912
	.loc 1 5694 0
	strb	r3, [r6, #176]
.L912:
	.loc 1 5697 0
	movs	r4, #0
	.loc 1 5700 0
	movw	r2, #6477
	mov	r1, r4
	.loc 1 5697 0
	str	r4, [r6, #60]
	.loc 1 5698 0
	str	r4, [r6, #64]
	.loc 1 5700 0
	bl	memset
.LVL1221:
	.loc 1 5702 0
	mov	r1, r4
	movw	r2, #6477
	ldr	r0, [r6, #88]
	bl	memset
.LVL1222:
	.loc 1 5716 0
	ldr	r5, [r6, #68]
	cbz	r5, .L913
.LVL1223:
.LBB594:
.LBB595:
	.loc 1 7155 0
	add	r0, r5, #80
	bl	mbedtls_cipher_free
.LVL1224:
	.loc 1 7156 0
	add	r0, r5, #144
	bl	mbedtls_cipher_free
.LVL1225:
	.loc 1 7158 0
	add	r0, r5, #56
	bl	mbedtls_md_free
.LVL1226:
	.loc 1 7159 0
	add	r0, r5, #68
	bl	mbedtls_md_free
.LVL1227:
	mov	r3, r5
	add	r2, r5, #208
.LVL1228:
.L914:
.LBB596:
.LBB597:
.LBB598:
	.loc 1 86 0
	strb	r4, [r3]
	adds	r3, r3, #1
.LVL1229:
	cmp	r2, r3
	bne	.L914
.LVL1230:
.LBE598:
.LBE597:
.LBE596:
.LBE595:
.LBE594:
	.loc 1 5719 0
	ldr	r7, .L936+8
	ldr	r0, [r6, #68]
	ldr	r3, [r7]
.LVL1231:
	blx	r3
.LVL1232:
	.loc 1 5720 0
	str	r4, [r6, #68]
.LVL1233:
.L913:
	.loc 1 5723 0
	ldr	r4, [r6, #48]
	cbz	r4, .L915
.LVL1234:
.LBB599:
.LBB600:
	.loc 1 7260 0
	ldr	r0, [r4, #92]
	.loc 1 7263 0
	ldr	r7, .L936+8
	.loc 1 7260 0
	cbz	r0, .L916
	.loc 1 7262 0
	bl	mbedtls_x509_crt_free
.LVL1235:
	.loc 1 7263 0
	ldr	r3, [r7]
	ldr	r0, [r4, #92]
	blx	r3
.LVL1236:
.L916:
	.loc 1 7268 0
	ldr	r3, [r7]
	ldr	r0, [r4, #100]
	blx	r3
.LVL1237:
.LBB601:
.LBB602:
.LBB603:
	.loc 1 86 0
	movs	r5, #0
.LBE603:
.LBE602:
.LBE601:
	.loc 1 7268 0
	mov	r3, r4
	add	r2, r4, #124
.LVL1238:
.L917:
.LBB606:
.LBB605:
.LBB604:
	.loc 1 86 0
	strb	r5, [r3]
	adds	r3, r3, #1
.LVL1239:
	cmp	r2, r3
	bne	.L917
.LVL1240:
.LBE604:
.LBE605:
.LBE606:
.LBE600:
.LBE599:
	.loc 1 5726 0
	ldr	r3, [r7]
.LVL1241:
	ldr	r0, [r6, #48]
	blx	r3
.LVL1242:
	.loc 1 5727 0
	str	r5, [r6, #48]
.LVL1243:
.L915:
	.loc 1 5743 0
	mov	r0, r6
.LBE607:
.LBE609:
	.loc 1 5756 0
	add	sp, sp, #12
	.cfi_def_cfa_offset 20
	@ sp needed
	pop	{r4, r5, r6, r7, lr}
	.cfi_restore 14
	.cfi_restore 7
	.cfi_restore 6
	.cfi_restore 5
	.cfi_restore 4
	.cfi_def_cfa_offset 0
.LVL1244:
.LBB610:
.LBB608:
	.loc 1 5743 0
	b	ssl_handshake_init
.LVL1245:
.L937:
	.align	2
.L936:
	.word	.LC135
	.word	.LC2
	.word	mbedtls_free
.LBE608:
.LBE610:
	.cfi_endproc
.LFE631:
	.size	mbedtls_ssl_session_reset, .-mbedtls_ssl_session_reset
	.section	.text.mbedtls_ssl_conf_endpoint,"ax",%progbits
	.align	1
	.p2align 2,,3
	.global	mbedtls_ssl_conf_endpoint
	.syntax unified
	.thumb
	.thumb_func
	.fpu softvfp
	.type	mbedtls_ssl_conf_endpoint, %function
mbedtls_ssl_conf_endpoint:
.LFB632:
	.loc 1 5762 0
	.cfi_startproc
	@ args = 0, pretend = 0, frame = 0
	@ frame_needed = 0, uses_anonymous_args = 0
	@ link register save eliminated.
.LVL1246:
	.loc 1 5763 0
	ldrb	r3, [r0, #112]	@ zero_extendqisi2
	bfi	r3, r1, #0, #1
	strb	r3, [r0, #112]
	bx	lr
	.cfi_endproc
.LFE632:
	.size	mbedtls_ssl_conf_endpoint, .-mbedtls_ssl_conf_endpoint
	.section	.text.mbedtls_ssl_conf_transport,"ax",%progbits
	.align	1
	.p2align 2,,3
	.global	mbedtls_ssl_conf_transport
	.syntax unified
	.thumb
	.thumb_func
	.fpu softvfp
	.type	mbedtls_ssl_conf_transport, %function
mbedtls_ssl_conf_transport:
.LFB633:
	.loc 1 5767 0
	.cfi_startproc
	@ args = 0, pretend = 0, frame = 0
	@ frame_needed = 0, uses_anonymous_args = 0
	@ link register save eliminated.
.LVL1247:
	.loc 1 5768 0
	ldrb	r3, [r0, #112]	@ zero_extendqisi2
	bfi	r3, r1, #1, #1
	strb	r3, [r0, #112]
	bx	lr
	.cfi_endproc
.LFE633:
	.size	mbedtls_ssl_conf_transport, .-mbedtls_ssl_conf_transport
	.section	.text.mbedtls_ssl_conf_authmode,"ax",%progbits
	.align	1
	.p2align 2,,3
	.global	mbedtls_ssl_conf_authmode
	.syntax unified
	.thumb
	.thumb_func
	.fpu softvfp
	.type	mbedtls_ssl_conf_authmode, %function
mbedtls_ssl_conf_authmode:
.LFB634:
	.loc 1 5794 0
	.cfi_startproc
	@ args = 0, pretend = 0, frame = 0
	@ frame_needed = 0, uses_anonymous_args = 0
	@ link register save eliminated.
.LVL1248:
	.loc 1 5795 0
	ldrb	r3, [r0, #112]	@ zero_extendqisi2
	bfi	r3, r1, #2, #2
	strb	r3, [r0, #112]
	bx	lr
	.cfi_endproc
.LFE634:
	.size	mbedtls_ssl_conf_authmode, .-mbedtls_ssl_conf_authmode
	.section	.text.mbedtls_ssl_conf_verify,"ax",%progbits
	.align	1
	.p2align 2,,3
	.global	mbedtls_ssl_conf_verify
	.syntax unified
	.thumb
	.thumb_func
	.fpu softvfp
	.type	mbedtls_ssl_conf_verify, %function
mbedtls_ssl_conf_verify:
.LFB635:
	.loc 1 5802 0
	.cfi_startproc
	@ args = 0, pretend = 0, frame = 0
	@ frame_needed = 0, uses_anonymous_args = 0
	@ link register save eliminated.
.LVL1249:
	.loc 1 5803 0
	str	r1, [r0, #52]
	.loc 1 5804 0
	str	r2, [r0, #56]
	bx	lr
	.cfi_endproc
.LFE635:
	.size	mbedtls_ssl_conf_verify, .-mbedtls_ssl_conf_verify
	.section	.text.mbedtls_ssl_conf_rng,"ax",%progbits
	.align	1
	.p2align 2,,3
	.global	mbedtls_ssl_conf_rng
	.syntax unified
	.thumb
	.thumb_func
	.fpu softvfp
	.type	mbedtls_ssl_conf_rng, %function
mbedtls_ssl_conf_rng:
.LFB636:
	.loc 1 5811 0
	.cfi_startproc
	@ args = 0, pretend = 0, frame = 0
	@ frame_needed = 0, uses_anonymous_args = 0
	@ link register save eliminated.
.LVL1250:
	.loc 1 5812 0
	str	r1, [r0, #24]
	.loc 1 5813 0
	str	r2, [r0, #28]
	bx	lr
	.cfi_endproc
.LFE636:
	.size	mbedtls_ssl_conf_rng, .-mbedtls_ssl_conf_rng
	.section	.text.mbedtls_ssl_conf_dbg,"ax",%progbits
	.align	1
	.p2align 2,,3
	.global	mbedtls_ssl_conf_dbg
	.syntax unified
	.thumb
	.thumb_func
	.fpu softvfp
	.type	mbedtls_ssl_conf_dbg, %function
mbedtls_ssl_conf_dbg:
.LFB637:
	.loc 1 5819 0
	.cfi_startproc
	@ args = 0, pretend = 0, frame = 0
	@ frame_needed = 0, uses_anonymous_args = 0
	@ link register save eliminated.
.LVL1251:
	.loc 1 5820 0
	str	r1, [r0, #16]
	.loc 1 5821 0
	str	r2, [r0, #20]
	bx	lr
	.cfi_endproc
.LFE637:
	.size	mbedtls_ssl_conf_dbg, .-mbedtls_ssl_conf_dbg
	.section	.text.mbedtls_ssl_set_bio,"ax",%progbits
	.align	1
	.p2align 2,,3
	.global	mbedtls_ssl_set_bio
	.syntax unified
	.thumb
	.thumb_func
	.fpu softvfp
	.type	mbedtls_ssl_set_bio, %function
mbedtls_ssl_set_bio:
.LFB638:
	.loc 1 5829 0
	.cfi_startproc
	@ args = 4, pretend = 0, frame = 0
	@ frame_needed = 0, uses_anonymous_args = 0
	@ link register save eliminated.
.LVL1252:
	push	{r4}
	.cfi_def_cfa_offset 4
	.cfi_offset 4, -4
	.loc 1 5829 0
	ldr	r4, [sp, #4]
	.loc 1 5830 0
	str	r1, [r0, #36]
	.loc 1 5833 0
	str	r4, [r0, #32]
	.loc 1 5831 0
	str	r2, [r0, #24]
	.loc 1 5832 0
	str	r3, [r0, #28]
	.loc 1 5834 0
	pop	{r4}
	.cfi_restore 4
	.cfi_def_cfa_offset 0
.LVL1253:
	bx	lr
	.cfi_endproc
.LFE638:
	.size	mbedtls_ssl_set_bio, .-mbedtls_ssl_set_bio
	.section	.text.mbedtls_ssl_conf_read_timeout,"ax",%progbits
	.align	1
	.p2align 2,,3
	.global	mbedtls_ssl_conf_read_timeout
	.syntax unified
	.thumb
	.thumb_func
	.fpu softvfp
	.type	mbedtls_ssl_conf_read_timeout, %function
mbedtls_ssl_conf_read_timeout:
.LFB639:
	.loc 1 5837 0
	.cfi_startproc
	@ args = 0, pretend = 0, frame = 0
	@ frame_needed = 0, uses_anonymous_args = 0
	@ link register save eliminated.
.LVL1254:
	.loc 1 5838 0
	str	r1, [r0, #88]
	bx	lr
	.cfi_endproc
.LFE639:
	.size	mbedtls_ssl_conf_read_timeout, .-mbedtls_ssl_conf_read_timeout
	.section	.text.mbedtls_ssl_set_timer_cb,"ax",%progbits
	.align	1
	.p2align 2,,3
	.global	mbedtls_ssl_set_timer_cb
	.syntax unified
	.thumb
	.thumb_func
	.fpu softvfp
	.type	mbedtls_ssl_set_timer_cb, %function
mbedtls_ssl_set_timer_cb:
.LFB640:
	.loc 1 5845 0
	.cfi_startproc
	@ args = 0, pretend = 0, frame = 0
	@ frame_needed = 0, uses_anonymous_args = 0
.LVL1255:
	.loc 1 5847 0
	str	r2, [r0, #80]
	.loc 1 5846 0
	str	r1, [r0, #76]
	.loc 1 5848 0
	str	r3, [r0, #84]
.LVL1256:
.LBB613:
.LBB614:
	.loc 1 107 0
	cbz	r2, .L947
.LBE614:
.LBE613:
	.loc 1 5845 0
	push	{r4, r5, lr}
	.cfi_def_cfa_offset 12
	.cfi_offset 4, -12
	.cfi_offset 5, -8
	.cfi_offset 14, -4
.LBB618:
.LBB615:
	.loc 1 110 0
	movs	r5, #0
	ldr	r3, .L952
.LVL1257:
	mov	r4, r0
.LBE615:
.LBE618:
	.loc 1 5845 0
	sub	sp, sp, #12
	.cfi_def_cfa_offset 24
.LBB619:
.LBB616:
	.loc 1 110 0
	stm	sp, {r3, r5}
.LVL1258:
	ldr	r2, .L952+4
.LVL1259:
	movs	r3, #110
	movs	r1, #3
.LVL1260:
	bl	mbedtls_debug_print_msg
.LVL1261:
	.loc 1 111 0
	mov	r2, r5
	mov	r1, r5
	ldr	r3, [r4, #80]
	ldr	r0, [r4, #76]
.LBE616:
.LBE619:
	.loc 1 5852 0
	add	sp, sp, #12
	.cfi_def_cfa_offset 12
	@ sp needed
	pop	{r4, r5, lr}
	.cfi_restore 14
	.cfi_restore 5
	.cfi_restore 4
	.cfi_def_cfa_offset 0
.LVL1262:
.LBB620:
.LBB617:
	.loc 1 111 0
	bx	r3	@ indirect register sibling call
.LVL1263:
.L947:
	bx	lr
.L953:
	.align	2
.L952:
	.word	.LC135
	.word	.LC2
.LBE617:
.LBE620:
	.cfi_endproc
.LFE640:
	.size	mbedtls_ssl_set_timer_cb, .-mbedtls_ssl_set_timer_cb
	.section	.text.mbedtls_ssl_set_session,"ax",%progbits
	.align	1
	.p2align 2,,3
	.global	mbedtls_ssl_set_session
	.syntax unified
	.thumb
	.thumb_func
	.fpu softvfp
	.type	mbedtls_ssl_set_session, %function
mbedtls_ssl_set_session:
.LFB641:
	.loc 1 5868 0
	.cfi_startproc
	@ args = 0, pretend = 0, frame = 0
	@ frame_needed = 0, uses_anonymous_args = 0
.LVL1264:
	push	{r3, r4, r5, r6, r7, r8, r9, lr}
	.cfi_def_cfa_offset 32
	.cfi_offset 3, -32
	.cfi_offset 4, -28
	.cfi_offset 5, -24
	.cfi_offset 6, -20
	.cfi_offset 7, -16
	.cfi_offset 8, -12
	.cfi_offset 9, -8
	.cfi_offset 14, -4
	.loc 1 5871 0
	cmp	r0, #0
	beq	.L965
	.loc 1 5871 0 discriminator 1
	cmp	r1, #0
	beq	.L965
	.loc 1 5873 0
	ldr	r5, [r0, #52]
	.loc 1 5872 0
	cmp	r5, #0
	beq	.L965
	.loc 1 5874 0
	ldr	r3, [r0]
	ldrb	r3, [r3, #112]	@ zero_extendqisi2
	.loc 1 5873 0
	lsls	r3, r3, #31
	bmi	.L965
.LVL1265:
	mov	r8, r0
.LBB630:
.LBB631:
.LBB632:
.LBB633:
	.loc 1 7260 0
	ldr	r0, [r5, #92]
.LVL1266:
	mov	r6, r1
.LVL1267:
	.loc 1 7263 0
	ldr	r9, .L984+12
	.loc 1 7260 0
	cbz	r0, .L956
	.loc 1 7262 0
	bl	mbedtls_x509_crt_free
.LVL1268:
	.loc 1 7263 0
	ldr	r3, [r9]
	ldr	r0, [r5, #92]
	blx	r3
.LVL1269:
.L956:
	.loc 1 7268 0
	ldr	r3, [r9]
	ldr	r0, [r5, #100]
	blx	r3
.LVL1270:
.LBB634:
.LBB635:
.LBB636:
	.loc 1 86 0
	movs	r4, #0
.LBE636:
.LBE635:
.LBE634:
	.loc 1 7268 0
	mov	r3, r5
	add	r2, r5, #124
.LVL1271:
.L957:
.LBB639:
.LBB638:
.LBB637:
	.loc 1 86 0
	strb	r4, [r3]
	adds	r3, r3, #1
.LVL1272:
	cmp	r2, r3
	bne	.L957
.LVL1273:
.LBE637:
.LBE638:
.LBE639:
.LBE633:
.LBE632:
	.loc 1 201 0
	movs	r2, #124
	mov	r1, r6
	mov	r0, r5
	bl	memcpy
.LVL1274:
	.loc 1 204 0
	ldr	r3, [r6, #92]
	cbz	r3, .L958
.LBB640:
	.loc 1 208 0
	ldr	r3, .L984
	mov	r1, #308
	ldr	r3, [r3]
	movs	r0, #1
	blx	r3
.LVL1275:
	str	r0, [r5, #92]
	.loc 1 209 0
	cbz	r0, .L961
	.loc 1 212 0
	bl	mbedtls_x509_crt_init
.LVL1276:
	.loc 1 214 0
	ldr	r3, [r6, #92]
	ldr	r0, [r5, #92]
	ldr	r2, [r3, #4]
	ldr	r1, [r3, #8]
	bl	mbedtls_x509_crt_parse_der
.LVL1277:
	mov	r7, r0
	cbnz	r0, .L983
.LVL1278:
.L958:
.LBE640:
	.loc 1 225 0
	ldr	r3, [r6, #100]
	cbz	r3, .L960
	.loc 1 227 0
	ldr	r3, .L984
	ldr	r1, [r6, #104]
	ldr	r3, [r3]
	movs	r0, #1
	blx	r3
.LVL1279:
	str	r0, [r5, #100]
	.loc 1 228 0
	cbz	r0, .L961
	.loc 1 231 0
	ldr	r2, [r6, #104]
	ldr	r1, [r6, #100]
	bl	memcpy
.LVL1280:
.L960:
.LBE631:
.LBE630:
	.loc 1 5882 0
	movs	r2, #1
	.loc 1 5884 0
	movs	r7, #0
	.loc 1 5882 0
	ldr	r3, [r8, #56]
	str	r2, [r3, #668]
.L954:
	.loc 1 5885 0
	mov	r0, r7
	pop	{r3, r4, r5, r6, r7, r8, r9, pc}
.LVL1281:
.L983:
.LBB645:
.LBB643:
.LBB641:
	.loc 1 217 0
	ldr	r0, [r5, #92]
.LVL1282:
	ldr	r3, [r9]
	blx	r3
.LVL1283:
	.loc 1 218 0
	str	r4, [r5, #92]
.LBE641:
.LBE643:
.LBE645:
	.loc 1 5885 0
	mov	r0, r7
	pop	{r3, r4, r5, r6, r7, r8, r9, pc}
.LVL1284:
.L965:
	.loc 1 5876 0
	ldr	r7, .L984+4
	.loc 1 5885 0
	mov	r0, r7
.LVL1285:
	pop	{r3, r4, r5, r6, r7, r8, r9, pc}
.LVL1286:
.L961:
.LBB646:
.LBB644:
.LBB642:
	.loc 1 210 0
	ldr	r7, .L984+8
	b	.L954
.L985:
	.align	2
.L984:
	.word	mbedtls_calloc
	.word	-28928
	.word	-32512
	.word	mbedtls_free
.LBE642:
.LBE644:
.LBE646:
	.cfi_endproc
.LFE641:
	.size	mbedtls_ssl_set_session, .-mbedtls_ssl_set_session
	.section	.text.mbedtls_ssl_conf_ciphersuites,"ax",%progbits
	.align	1
	.p2align 2,,3
	.global	mbedtls_ssl_conf_ciphersuites
	.syntax unified
	.thumb
	.thumb_func
	.fpu softvfp
	.type	mbedtls_ssl_conf_ciphersuites, %function
mbedtls_ssl_conf_ciphersuites:
.LFB642:
	.loc 1 5890 0
	.cfi_startproc
	@ args = 0, pretend = 0, frame = 0
	@ frame_needed = 0, uses_anonymous_args = 0
	@ link register save eliminated.
.LVL1287:
	.loc 1 5891 0
	str	r1, [r0]
	.loc 1 5892 0
	str	r1, [r0, #4]
	.loc 1 5893 0
	str	r1, [r0, #8]
	.loc 1 5894 0
	str	r1, [r0, #12]
	bx	lr
	.cfi_endproc
.LFE642:
	.size	mbedtls_ssl_conf_ciphersuites, .-mbedtls_ssl_conf_ciphersuites
	.section	.text.mbedtls_ssl_conf_ciphersuites_for_version,"ax",%progbits
	.align	1
	.p2align 2,,3
	.global	mbedtls_ssl_conf_ciphersuites_for_version
	.syntax unified
	.thumb
	.thumb_func
	.fpu softvfp
	.type	mbedtls_ssl_conf_ciphersuites_for_version, %function
mbedtls_ssl_conf_ciphersuites_for_version:
.LFB643:
	.loc 1 5900 0
	.cfi_startproc
	@ args = 0, pretend = 0, frame = 0
	@ frame_needed = 0, uses_anonymous_args = 0
	@ link register save eliminated.
.LVL1288:
	.loc 1 5901 0
	cmp	r2, #3
	bne	.L987
	.loc 1 5904 0
	cmp	r3, #3
	.loc 1 5907 0
	it	ls
	strls	r1, [r0, r3, lsl #2]
.L987:
	bx	lr
	.cfi_endproc
.LFE643:
	.size	mbedtls_ssl_conf_ciphersuites_for_version, .-mbedtls_ssl_conf_ciphersuites_for_version
	.section	.text.mbedtls_ssl_conf_cert_profile,"ax",%progbits
	.align	1
	.p2align 2,,3
	.global	mbedtls_ssl_conf_cert_profile
	.syntax unified
	.thumb
	.thumb_func
	.fpu softvfp
	.type	mbedtls_ssl_conf_cert_profile, %function
mbedtls_ssl_conf_cert_profile:
.LFB644:
	.loc 1 5913 0
	.cfi_startproc
	@ args = 0, pretend = 0, frame = 0
	@ frame_needed = 0, uses_anonymous_args = 0
	@ link register save eliminated.
.LVL1289:
	.loc 1 5914 0
	str	r1, [r0, #68]
	bx	lr
	.cfi_endproc
.LFE644:
	.size	mbedtls_ssl_conf_cert_profile, .-mbedtls_ssl_conf_cert_profile
	.section	.text.mbedtls_ssl_conf_own_cert,"ax",%progbits
	.align	1
	.p2align 2,,3
	.global	mbedtls_ssl_conf_own_cert
	.syntax unified
	.thumb
	.thumb_func
	.fpu softvfp
	.type	mbedtls_ssl_conf_own_cert, %function
mbedtls_ssl_conf_own_cert:
.LFB646:
	.loc 1 5951 0
	.cfi_startproc
	@ args = 0, pretend = 0, frame = 0
	@ frame_needed = 0, uses_anonymous_args = 0
.LVL1290:
.LBB647:
.LBB648:
	.loc 1 5924 0
	ldr	r3, .L998
.LBE648:
.LBE647:
	.loc 1 5951 0
	push	{r4, r5, r6, lr}
	.cfi_def_cfa_offset 16
	.cfi_offset 4, -16
	.cfi_offset 5, -12
	.cfi_offset 6, -8
	.cfi_offset 14, -4
.LBB653:
.LBB650:
	.loc 1 5924 0
	ldr	r3, [r3]
.LBE650:
.LBE653:
	.loc 1 5951 0
	mov	r4, r0
.LVL1291:
	mov	r6, r1
.LVL1292:
.LBB654:
.LBB651:
	.loc 1 5924 0
	movs	r0, #1
.LVL1293:
	movs	r1, #12
.LVL1294:
.LBE651:
.LBE654:
	.loc 1 5951 0
	mov	r5, r2
.LVL1295:
.LBB655:
.LBB652:
	.loc 1 5924 0
	blx	r3
.LVL1296:
	.loc 1 5925 0
	cbz	r0, .L994
	.loc 1 5930 0
	movs	r3, #0
	str	r3, [r0, #8]
	.loc 1 5933 0
	ldr	r1, [r4, #72]
	.loc 1 5928 0
	str	r6, [r0]
	.loc 1 5929 0
	str	r5, [r0, #4]
	.loc 1 5933 0
	cbnz	r1, .L993
	b	.L997
.LVL1297:
.L995:
.LBB649:
	.loc 1 5940 0
	mov	r1, r3
.LVL1298:
.L993:
	ldr	r3, [r1, #8]
	cmp	r3, #0
	bne	.L995
	.loc 1 5942 0
	str	r0, [r1, #8]
.LBE649:
	.loc 1 5945 0
	mov	r0, r3
.LVL1299:
	pop	{r4, r5, r6, pc}
.LVL1300:
.L997:
	.loc 1 5935 0
	str	r0, [r4, #72]
	.loc 1 5945 0
	mov	r0, r1
.LVL1301:
	pop	{r4, r5, r6, pc}
.LVL1302:
.L994:
	.loc 1 5926 0
	ldr	r0, .L998+4
.LVL1303:
.LBE652:
.LBE655:
	.loc 1 5953 0
	pop	{r4, r5, r6, pc}
.LVL1304:
.L999:
	.align	2
.L998:
	.word	mbedtls_calloc
	.word	-32512
	.cfi_endproc
.LFE646:
	.size	mbedtls_ssl_conf_own_cert, .-mbedtls_ssl_conf_own_cert
	.section	.text.mbedtls_ssl_conf_ca_chain,"ax",%progbits
	.align	1
	.p2align 2,,3
	.global	mbedtls_ssl_conf_ca_chain
	.syntax unified
	.thumb
	.thumb_func
	.fpu softvfp
	.type	mbedtls_ssl_conf_ca_chain, %function
mbedtls_ssl_conf_ca_chain:
.LFB647:
	.loc 1 5958 0
	.cfi_startproc
	@ args = 0, pretend = 0, frame = 0
	@ frame_needed = 0, uses_anonymous_args = 0
	@ link register save eliminated.
.LVL1305:
	.loc 1 5959 0
	str	r1, [r0, #76]
	.loc 1 5960 0
	str	r2, [r0, #80]
	bx	lr
	.cfi_endproc
.LFE647:
	.size	mbedtls_ssl_conf_ca_chain, .-mbedtls_ssl_conf_ca_chain
	.section	.text.mbedtls_ssl_set_hs_own_cert,"ax",%progbits
	.align	1
	.p2align 2,,3
	.global	mbedtls_ssl_set_hs_own_cert
	.syntax unified
	.thumb
	.thumb_func
	.fpu softvfp
	.type	mbedtls_ssl_set_hs_own_cert, %function
mbedtls_ssl_set_hs_own_cert:
.LFB648:
	.loc 1 5968 0
	.cfi_startproc
	@ args = 0, pretend = 0, frame = 0
	@ frame_needed = 0, uses_anonymous_args = 0
.LVL1306:
.LBB656:
.LBB657:
	.loc 1 5924 0
	ldr	r3, .L1009
.LBE657:
.LBE656:
	.loc 1 5968 0
	push	{r4, r5, r6, lr}
	.cfi_def_cfa_offset 16
	.cfi_offset 4, -16
	.cfi_offset 5, -12
	.cfi_offset 6, -8
	.cfi_offset 14, -4
.LBB662:
.LBB659:
	.loc 1 5924 0
	ldr	r3, [r3]
.LBE659:
.LBE662:
	.loc 1 5968 0
	mov	r6, r1
	.loc 1 5969 0
	ldr	r4, [r0, #56]
.LVL1307:
.LBB663:
.LBB660:
	.loc 1 5924 0
	movs	r1, #12
.LVL1308:
	movs	r0, #1
.LVL1309:
.LBE660:
.LBE663:
	.loc 1 5968 0
	mov	r5, r2
.LVL1310:
.LBB664:
.LBB661:
	.loc 1 5924 0
	blx	r3
.LVL1311:
	.loc 1 5925 0
	cbz	r0, .L1005
	.loc 1 5930 0
	movs	r3, #0
	str	r3, [r0, #8]
	.loc 1 5933 0
	ldr	r1, [r4, #16]
	.loc 1 5928 0
	str	r6, [r0]
	.loc 1 5929 0
	str	r5, [r0, #4]
	.loc 1 5933 0
	cbnz	r1, .L1004
	b	.L1008
.LVL1312:
.L1006:
.LBB658:
	.loc 1 5940 0
	mov	r1, r3
.LVL1313:
.L1004:
	ldr	r3, [r1, #8]
	cmp	r3, #0
	bne	.L1006
	.loc 1 5942 0
	str	r0, [r1, #8]
.LBE658:
	.loc 1 5945 0
	mov	r0, r3
.LVL1314:
	pop	{r4, r5, r6, pc}
.LVL1315:
.L1008:
	.loc 1 5935 0
	str	r0, [r4, #16]
	.loc 1 5945 0
	mov	r0, r1
.LVL1316:
	pop	{r4, r5, r6, pc}
.LVL1317:
.L1005:
	.loc 1 5926 0
	ldr	r0, .L1009+4
.LVL1318:
.LBE661:
.LBE664:
	.loc 1 5971 0
	pop	{r4, r5, r6, pc}
.LVL1319:
.L1010:
	.align	2
.L1009:
	.word	mbedtls_calloc
	.word	-32512
	.cfi_endproc
.LFE648:
	.size	mbedtls_ssl_set_hs_own_cert, .-mbedtls_ssl_set_hs_own_cert
	.section	.text.mbedtls_ssl_set_hs_ca_chain,"ax",%progbits
	.align	1
	.p2align 2,,3
	.global	mbedtls_ssl_set_hs_ca_chain
	.syntax unified
	.thumb
	.thumb_func
	.fpu softvfp
	.type	mbedtls_ssl_set_hs_ca_chain, %function
mbedtls_ssl_set_hs_ca_chain:
.LFB649:
	.loc 1 5976 0
	.cfi_startproc
	@ args = 0, pretend = 0, frame = 0
	@ frame_needed = 0, uses_anonymous_args = 0
	@ link register save eliminated.
.LVL1320:
	.loc 1 5977 0
	ldr	r3, [r0, #56]
	str	r1, [r3, #20]
	.loc 1 5978 0
	str	r2, [r3, #24]
	bx	lr
	.cfi_endproc
.LFE649:
	.size	mbedtls_ssl_set_hs_ca_chain, .-mbedtls_ssl_set_hs_ca_chain
	.section	.text.mbedtls_ssl_set_hs_authmode,"ax",%progbits
	.align	1
	.p2align 2,,3
	.global	mbedtls_ssl_set_hs_authmode
	.syntax unified
	.thumb
	.thumb_func
	.fpu softvfp
	.type	mbedtls_ssl_set_hs_authmode, %function
mbedtls_ssl_set_hs_authmode:
.LFB650:
	.loc 1 5983 0
	.cfi_startproc
	@ args = 0, pretend = 0, frame = 0
	@ frame_needed = 0, uses_anonymous_args = 0
	@ link register save eliminated.
.LVL1321:
	.loc 1 5984 0
	ldr	r3, [r0, #56]
	str	r1, [r3, #12]
	bx	lr
	.cfi_endproc
.LFE650:
	.size	mbedtls_ssl_set_hs_authmode, .-mbedtls_ssl_set_hs_authmode
	.section	.text.mbedtls_ssl_conf_sig_hashes,"ax",%progbits
	.align	1
	.p2align 2,,3
	.global	mbedtls_ssl_conf_sig_hashes
	.syntax unified
	.thumb
	.thumb_func
	.fpu softvfp
	.type	mbedtls_ssl_conf_sig_hashes, %function
mbedtls_ssl_conf_sig_hashes:
.LFB651:
	.loc 1 6143 0
	.cfi_startproc
	@ args = 0, pretend = 0, frame = 0
	@ frame_needed = 0, uses_anonymous_args = 0
	@ link register save eliminated.
.LVL1322:
	.loc 1 6144 0
	str	r1, [r0, #84]
	bx	lr
	.cfi_endproc
.LFE651:
	.size	mbedtls_ssl_conf_sig_hashes, .-mbedtls_ssl_conf_sig_hashes
	.section	.text.mbedtls_ssl_set_hostname,"ax",%progbits
	.align	1
	.p2align 2,,3
	.global	mbedtls_ssl_set_hostname
	.syntax unified
	.thumb
	.thumb_func
	.fpu softvfp
	.type	mbedtls_ssl_set_hostname, %function
mbedtls_ssl_set_hostname:
.LFB652:
	.loc 1 6161 0
	.cfi_startproc
	@ args = 0, pretend = 0, frame = 0
	@ frame_needed = 0, uses_anonymous_args = 0
.LVL1323:
	.loc 1 6164 0
	cbz	r1, .L1016
	.loc 1 6161 0
	push	{r4, r5, r6, lr}
	.cfi_def_cfa_offset 16
	.cfi_offset 4, -16
	.cfi_offset 5, -12
	.cfi_offset 6, -8
	.cfi_offset 14, -4
	mov	r5, r0
	.loc 1 6167 0
	mov	r0, r1
.LVL1324:
	mov	r4, r1
	bl	strlen
.LVL1325:
	.loc 1 6172 0
	cmp	r0, #255
	.loc 1 6167 0
	mov	r6, r0
.LVL1326:
	.loc 1 6172 0
	bhi	.L1017
	.loc 1 6175 0
	ldr	r3, .L1023
	adds	r1, r0, #1
	ldr	r3, [r3]
	movs	r0, #1
.LVL1327:
	blx	r3
.LVL1328:
	str	r0, [r5, #184]
	.loc 1 6177 0
	cbz	r0, .L1018
	.loc 1 6180 0
	mov	r2, r6
	mov	r1, r4
	bl	memcpy
.LVL1329:
	.loc 1 6182 0
	movs	r3, #0
	ldr	r2, [r5, #184]
	.loc 1 6184 0
	mov	r0, r3
	.loc 1 6182 0
	strb	r3, [r2, r6]
	.loc 1 6184 0
	pop	{r4, r5, r6, pc}
.LVL1330:
.L1017:
	.loc 1 6165 0
	ldr	r0, .L1023+4
.LVL1331:
	pop	{r4, r5, r6, pc}
.LVL1332:
.L1018:
	.loc 1 6178 0
	ldr	r0, .L1023+8
	.loc 1 6185 0
	pop	{r4, r5, r6, pc}
.LVL1333:
.L1016:
	.cfi_def_cfa_offset 0
	.cfi_restore 4
	.cfi_restore 5
	.cfi_restore 6
	.cfi_restore 14
	.loc 1 6165 0
	ldr	r0, .L1023+4
.LVL1334:
	bx	lr
.L1024:
	.align	2
.L1023:
	.word	mbedtls_calloc
	.word	-28928
	.word	-32512
	.cfi_endproc
.LFE652:
	.size	mbedtls_ssl_set_hostname, .-mbedtls_ssl_set_hostname
	.section	.text.mbedtls_ssl_conf_sni,"ax",%progbits
	.align	1
	.p2align 2,,3
	.global	mbedtls_ssl_conf_sni
	.syntax unified
	.thumb
	.thumb_func
	.fpu softvfp
	.type	mbedtls_ssl_conf_sni, %function
mbedtls_ssl_conf_sni:
.LFB653:
	.loc 1 6193 0
	.cfi_startproc
	@ args = 0, pretend = 0, frame = 0
	@ frame_needed = 0, uses_anonymous_args = 0
	@ link register save eliminated.
.LVL1335:
	.loc 1 6194 0
	str	r1, [r0, #44]
	.loc 1 6195 0
	str	r2, [r0, #48]
	bx	lr
	.cfi_endproc
.LFE653:
	.size	mbedtls_ssl_conf_sni, .-mbedtls_ssl_conf_sni
	.section	.text.mbedtls_ssl_conf_max_version,"ax",%progbits
	.align	1
	.p2align 2,,3
	.global	mbedtls_ssl_conf_max_version
	.syntax unified
	.thumb
	.thumb_func
	.fpu softvfp
	.type	mbedtls_ssl_conf_max_version, %function
mbedtls_ssl_conf_max_version:
.LFB654:
	.loc 1 6231 0
	.cfi_startproc
	@ args = 0, pretend = 0, frame = 0
	@ frame_needed = 0, uses_anonymous_args = 0
	@ link register save eliminated.
.LVL1336:
	.loc 1 6232 0
	strb	r1, [r0, #104]
	.loc 1 6233 0
	strb	r2, [r0, #105]
	bx	lr
	.cfi_endproc
.LFE654:
	.size	mbedtls_ssl_conf_max_version, .-mbedtls_ssl_conf_max_version
	.section	.text.mbedtls_ssl_conf_min_version,"ax",%progbits
	.align	1
	.p2align 2,,3
	.global	mbedtls_ssl_conf_min_version
	.syntax unified
	.thumb
	.thumb_func
	.fpu softvfp
	.type	mbedtls_ssl_conf_min_version, %function
mbedtls_ssl_conf_min_version:
.LFB655:
	.loc 1 6237 0
	.cfi_startproc
	@ args = 0, pretend = 0, frame = 0
	@ frame_needed = 0, uses_anonymous_args = 0
	@ link register save eliminated.
.LVL1337:
	.loc 1 6238 0
	strb	r1, [r0, #106]
	.loc 1 6239 0
	strb	r2, [r0, #107]
	bx	lr
	.cfi_endproc
.LFE655:
	.size	mbedtls_ssl_conf_min_version, .-mbedtls_ssl_conf_min_version
	.section	.text.mbedtls_ssl_conf_fallback,"ax",%progbits
	.align	1
	.p2align 2,,3
	.global	mbedtls_ssl_conf_fallback
	.syntax unified
	.thumb
	.thumb_func
	.fpu softvfp
	.type	mbedtls_ssl_conf_fallback, %function
mbedtls_ssl_conf_fallback:
.LFB656:
	.loc 1 6244 0
	.cfi_startproc
	@ args = 0, pretend = 0, frame = 0
	@ frame_needed = 0, uses_anonymous_args = 0
	@ link register save eliminated.
.LVL1338:
	.loc 1 6245 0
	ldrb	r3, [r0, #114]	@ zero_extendqisi2
	bfi	r3, r1, #0, #1
.LVL1339:
	strb	r3, [r0, #114]
	bx	lr
	.cfi_endproc
.LFE656:
	.size	mbedtls_ssl_conf_fallback, .-mbedtls_ssl_conf_fallback
	.section	.text.mbedtls_ssl_conf_encrypt_then_mac,"ax",%progbits
	.align	1
	.p2align 2,,3
	.global	mbedtls_ssl_conf_encrypt_then_mac
	.syntax unified
	.thumb
	.thumb_func
	.fpu softvfp
	.type	mbedtls_ssl_conf_encrypt_then_mac, %function
mbedtls_ssl_conf_encrypt_then_mac:
.LFB657:
	.loc 1 6251 0
	.cfi_startproc
	@ args = 0, pretend = 0, frame = 0
	@ frame_needed = 0, uses_anonymous_args = 0
	@ link register save eliminated.
.LVL1340:
	.loc 1 6252 0
	ldrb	r3, [r0, #113]	@ zero_extendqisi2
	bfi	r3, r1, #2, #1
.LVL1341:
	strb	r3, [r0, #113]
	bx	lr
	.cfi_endproc
.LFE657:
	.size	mbedtls_ssl_conf_encrypt_then_mac, .-mbedtls_ssl_conf_encrypt_then_mac
	.section	.text.mbedtls_ssl_conf_extended_master_secret,"ax",%progbits
	.align	1
	.p2align 2,,3
	.global	mbedtls_ssl_conf_extended_master_secret
	.syntax unified
	.thumb
	.thumb_func
	.fpu softvfp
	.type	mbedtls_ssl_conf_extended_master_secret, %function
mbedtls_ssl_conf_extended_master_secret:
.LFB658:
	.loc 1 6258 0
	.cfi_startproc
	@ args = 0, pretend = 0, frame = 0
	@ frame_needed = 0, uses_anonymous_args = 0
	@ link register save eliminated.
.LVL1342:
	.loc 1 6259 0
	ldrb	r3, [r0, #113]	@ zero_extendqisi2
	bfi	r3, r1, #3, #1
.LVL1343:
	strb	r3, [r0, #113]
	bx	lr
	.cfi_endproc
.LFE658:
	.size	mbedtls_ssl_conf_extended_master_secret, .-mbedtls_ssl_conf_extended_master_secret
	.section	.text.mbedtls_ssl_conf_arc4_support,"ax",%progbits
	.align	1
	.p2align 2,,3
	.global	mbedtls_ssl_conf_arc4_support
	.syntax unified
	.thumb
	.thumb_func
	.fpu softvfp
	.type	mbedtls_ssl_conf_arc4_support, %function
mbedtls_ssl_conf_arc4_support:
.LFB659:
	.loc 1 6265 0
	.cfi_startproc
	@ args = 0, pretend = 0, frame = 0
	@ frame_needed = 0, uses_anonymous_args = 0
	@ link register save eliminated.
.LVL1344:
	.loc 1 6266 0
	ldrb	r3, [r0, #112]	@ zero_extendqisi2
	bfi	r3, r1, #6, #1
	strb	r3, [r0, #112]
	bx	lr
	.cfi_endproc
.LFE659:
	.size	mbedtls_ssl_conf_arc4_support, .-mbedtls_ssl_conf_arc4_support
	.section	.text.mbedtls_ssl_conf_max_frag_len,"ax",%progbits
	.align	1
	.p2align 2,,3
	.global	mbedtls_ssl_conf_max_frag_len
	.syntax unified
	.thumb
	.thumb_func
	.fpu softvfp
	.type	mbedtls_ssl_conf_max_frag_len, %function
mbedtls_ssl_conf_max_frag_len:
.LFB660:
	.loc 1 6272 0
	.cfi_startproc
	@ args = 0, pretend = 0, frame = 0
	@ frame_needed = 0, uses_anonymous_args = 0
	@ link register save eliminated.
.LVL1345:
	.loc 1 6273 0
	cmp	r1, #4
	bhi	.L1035
	.loc 1 6274 0 discriminator 1
	ldr	r3, .L1038
	.loc 1 6273 0 discriminator 1
	ldr	r3, [r3, r1, lsl #2]
	cmp	r3, #6144
	bhi	.L1035
	.loc 1 6279 0
	cbnz	r1, .L1037
	.loc 1 6283 0
	mov	r3, #6144
.L1032:
	.loc 1 6289 0
	mov	r0, r3
.LVL1346:
	bx	lr
.LVL1347:
.L1037:
	.loc 1 6288 0
	movs	r3, #0
	.loc 1 6286 0
	ldrh	r2, [r0, #112]
	bfi	r2, r1, #7, #3
.LVL1348:
	strh	r2, [r0, #112]	@ movhi
	.loc 1 6289 0
	mov	r0, r3
.LVL1349:
	bx	lr
.LVL1350:
.L1035:
	.loc 1 6276 0
	ldr	r3, .L1038+4
	b	.L1032
.L1039:
	.align	2
.L1038:
	.word	.LANCHOR0
	.word	-28928
	.cfi_endproc
.LFE660:
	.size	mbedtls_ssl_conf_max_frag_len, .-mbedtls_ssl_conf_max_frag_len
	.section	.text.mbedtls_ssl_conf_truncated_hmac,"ax",%progbits
	.align	1
	.p2align 2,,3
	.global	mbedtls_ssl_conf_truncated_hmac
	.syntax unified
	.thumb
	.thumb_func
	.fpu softvfp
	.type	mbedtls_ssl_conf_truncated_hmac, %function
mbedtls_ssl_conf_truncated_hmac:
.LFB661:
	.loc 1 6294 0
	.cfi_startproc
	@ args = 0, pretend = 0, frame = 0
	@ frame_needed = 0, uses_anonymous_args = 0
	@ link register save eliminated.
.LVL1351:
	.loc 1 6295 0
	ldrb	r3, [r0, #113]	@ zero_extendqisi2
	bfi	r3, r1, #6, #1
.LVL1352:
	strb	r3, [r0, #113]
	bx	lr
	.cfi_endproc
.LFE661:
	.size	mbedtls_ssl_conf_truncated_hmac, .-mbedtls_ssl_conf_truncated_hmac
	.section	.text.mbedtls_ssl_conf_cbc_record_splitting,"ax",%progbits
	.align	1
	.p2align 2,,3
	.global	mbedtls_ssl_conf_cbc_record_splitting
	.syntax unified
	.thumb
	.thumb_func
	.fpu softvfp
	.type	mbedtls_ssl_conf_cbc_record_splitting, %function
mbedtls_ssl_conf_cbc_record_splitting:
.LFB662:
	.loc 1 6301 0
	.cfi_startproc
	@ args = 0, pretend = 0, frame = 0
	@ frame_needed = 0, uses_anonymous_args = 0
	@ link register save eliminated.
.LVL1353:
	.loc 1 6302 0
	ldrb	r3, [r0, #113]	@ zero_extendqisi2
	bfi	r3, r1, #4, #1
.LVL1354:
	strb	r3, [r0, #113]
	bx	lr
	.cfi_endproc
.LFE662:
	.size	mbedtls_ssl_conf_cbc_record_splitting, .-mbedtls_ssl_conf_cbc_record_splitting
	.section	.text.mbedtls_ssl_conf_legacy_renegotiation,"ax",%progbits
	.align	1
	.p2align 2,,3
	.global	mbedtls_ssl_conf_legacy_renegotiation
	.syntax unified
	.thumb
	.thumb_func
	.fpu softvfp
	.type	mbedtls_ssl_conf_legacy_renegotiation, %function
mbedtls_ssl_conf_legacy_renegotiation:
.LFB663:
	.loc 1 6307 0
	.cfi_startproc
	@ args = 0, pretend = 0, frame = 0
	@ frame_needed = 0, uses_anonymous_args = 0
	@ link register save eliminated.
.LVL1355:
	.loc 1 6308 0
	ldrb	r3, [r0, #112]	@ zero_extendqisi2
	bfi	r3, r1, #4, #2
	strb	r3, [r0, #112]
	bx	lr
	.cfi_endproc
.LFE663:
	.size	mbedtls_ssl_conf_legacy_renegotiation, .-mbedtls_ssl_conf_legacy_renegotiation
	.section	.text.mbedtls_ssl_conf_renegotiation,"ax",%progbits
	.align	1
	.p2align 2,,3
	.global	mbedtls_ssl_conf_renegotiation
	.syntax unified
	.thumb
	.thumb_func
	.fpu softvfp
	.type	mbedtls_ssl_conf_renegotiation, %function
mbedtls_ssl_conf_renegotiation:
.LFB664:
	.loc 1 6313 0
	.cfi_startproc
	@ args = 0, pretend = 0, frame = 0
	@ frame_needed = 0, uses_anonymous_args = 0
	@ link register save eliminated.
.LVL1356:
	.loc 1 6314 0
	ldrb	r3, [r0, #113]	@ zero_extendqisi2
	bfi	r3, r1, #5, #1
.LVL1357:
	strb	r3, [r0, #113]
	bx	lr
	.cfi_endproc
.LFE664:
	.size	mbedtls_ssl_conf_renegotiation, .-mbedtls_ssl_conf_renegotiation
	.section	.text.mbedtls_ssl_conf_renegotiation_enforced,"ax",%progbits
	.align	1
	.p2align 2,,3
	.global	mbedtls_ssl_conf_renegotiation_enforced
	.syntax unified
	.thumb
	.thumb_func
	.fpu softvfp
	.type	mbedtls_ssl_conf_renegotiation_enforced, %function
mbedtls_ssl_conf_renegotiation_enforced:
.LFB665:
	.loc 1 6318 0
	.cfi_startproc
	@ args = 0, pretend = 0, frame = 0
	@ frame_needed = 0, uses_anonymous_args = 0
	@ link register save eliminated.
.LVL1358:
	.loc 1 6319 0
	str	r1, [r0, #92]
	bx	lr
	.cfi_endproc
.LFE665:
	.size	mbedtls_ssl_conf_renegotiation_enforced, .-mbedtls_ssl_conf_renegotiation_enforced
	.section	.text.mbedtls_ssl_conf_renegotiation_period,"ax",%progbits
	.align	1
	.p2align 2,,3
	.global	mbedtls_ssl_conf_renegotiation_period
	.syntax unified
	.thumb
	.thumb_func
	.fpu softvfp
	.type	mbedtls_ssl_conf_renegotiation_period, %function
mbedtls_ssl_conf_renegotiation_period:
.LFB666:
	.loc 1 6324 0
	.cfi_startproc
	@ args = 0, pretend = 0, frame = 0
	@ frame_needed = 0, uses_anonymous_args = 0
	@ link register save eliminated.
.LVL1359:
	.loc 1 6325 0
	ldr	r2, [r1]	@ unaligned
	ldr	r3, [r1, #4]	@ unaligned
	str	r2, [r0, #96]	@ unaligned
	str	r3, [r0, #100]	@ unaligned
	bx	lr
	.cfi_endproc
.LFE666:
	.size	mbedtls_ssl_conf_renegotiation_period, .-mbedtls_ssl_conf_renegotiation_period
	.section	.text.mbedtls_ssl_conf_session_tickets,"ax",%progbits
	.align	1
	.p2align 2,,3
	.global	mbedtls_ssl_conf_session_tickets
	.syntax unified
	.thumb
	.thumb_func
	.fpu softvfp
	.type	mbedtls_ssl_conf_session_tickets, %function
mbedtls_ssl_conf_session_tickets:
.LFB667:
	.loc 1 6332 0
	.cfi_startproc
	@ args = 0, pretend = 0, frame = 0
	@ frame_needed = 0, uses_anonymous_args = 0
	@ link register save eliminated.
.LVL1360:
	.loc 1 6333 0
	ldrb	r3, [r0, #113]	@ zero_extendqisi2
	bfi	r3, r1, #7, #1
.LVL1361:
	strb	r3, [r0, #113]
	bx	lr
	.cfi_endproc
.LFE667:
	.size	mbedtls_ssl_conf_session_tickets, .-mbedtls_ssl_conf_session_tickets
	.section	.text.mbedtls_ssl_conf_export_keys_cb,"ax",%progbits
	.align	1
	.p2align 2,,3
	.global	mbedtls_ssl_conf_export_keys_cb
	.syntax unified
	.thumb
	.thumb_func
	.fpu softvfp
	.type	mbedtls_ssl_conf_export_keys_cb, %function
mbedtls_ssl_conf_export_keys_cb:
.LFB668:
	.loc 1 6354 0
	.cfi_startproc
	@ args = 0, pretend = 0, frame = 0
	@ frame_needed = 0, uses_anonymous_args = 0
	@ link register save eliminated.
.LVL1362:
	.loc 1 6355 0
	str	r1, [r0, #60]
	.loc 1 6356 0
	str	r2, [r0, #64]
	bx	lr
	.cfi_endproc
.LFE668:
	.size	mbedtls_ssl_conf_export_keys_cb, .-mbedtls_ssl_conf_export_keys_cb
	.section	.text.mbedtls_ssl_get_bytes_avail,"ax",%progbits
	.align	1
	.p2align 2,,3
	.global	mbedtls_ssl_get_bytes_avail
	.syntax unified
	.thumb
	.thumb_func
	.fpu softvfp
	.type	mbedtls_ssl_get_bytes_avail, %function
mbedtls_ssl_get_bytes_avail:
.LFB669:
	.loc 1 6364 0
	.cfi_startproc
	@ args = 0, pretend = 0, frame = 0
	@ frame_needed = 0, uses_anonymous_args = 0
	@ link register save eliminated.
.LVL1363:
	.loc 1 6365 0
	ldr	r3, [r0, #112]
	cbz	r3, .L1050
	.loc 1 6365 0 is_stmt 0 discriminator 1
	ldr	r0, [r0, #120]
.LVL1364:
	bx	lr
.LVL1365:
.L1050:
	.loc 1 6365 0
	mov	r0, r3
.LVL1366:
	.loc 1 6366 0 is_stmt 1
	bx	lr
	.cfi_endproc
.LFE669:
	.size	mbedtls_ssl_get_bytes_avail, .-mbedtls_ssl_get_bytes_avail
	.section	.text.mbedtls_ssl_get_verify_result,"ax",%progbits
	.align	1
	.p2align 2,,3
	.global	mbedtls_ssl_get_verify_result
	.syntax unified
	.thumb
	.thumb_func
	.fpu softvfp
	.type	mbedtls_ssl_get_verify_result, %function
mbedtls_ssl_get_verify_result:
.LFB670:
	.loc 1 6369 0
	.cfi_startproc
	@ args = 0, pretend = 0, frame = 0
	@ frame_needed = 0, uses_anonymous_args = 0
	@ link register save eliminated.
.LVL1367:
	.loc 1 6370 0
	ldr	r3, [r0, #48]
	cbz	r3, .L1056
.L1055:
	.loc 1 6374 0
	ldr	r0, [r3, #96]
.LVL1368:
	bx	lr
.LVL1369:
.L1056:
	.loc 1 6373 0
	ldr	r3, [r0, #52]
	cmp	r3, #0
	bne	.L1055
	.loc 1 6376 0
	mov	r0, #-1
.LVL1370:
	.loc 1 6377 0
	bx	lr
	.cfi_endproc
.LFE670:
	.size	mbedtls_ssl_get_verify_result, .-mbedtls_ssl_get_verify_result
	.section	.text.mbedtls_ssl_get_ciphersuite,"ax",%progbits
	.align	1
	.p2align 2,,3
	.global	mbedtls_ssl_get_ciphersuite
	.syntax unified
	.thumb
	.thumb_func
	.fpu softvfp
	.type	mbedtls_ssl_get_ciphersuite, %function
mbedtls_ssl_get_ciphersuite:
.LFB671:
	.loc 1 6380 0
	.cfi_startproc
	@ args = 0, pretend = 0, frame = 0
	@ frame_needed = 0, uses_anonymous_args = 0
	@ link register save eliminated.
.LVL1371:
	.loc 1 6381 0
	cbz	r0, .L1057
	.loc 1 6381 0 discriminator 1
	ldr	r3, [r0, #48]
	cbz	r3, .L1057
	.loc 1 6384 0
	ldr	r0, [r3]
.LVL1372:
	b	mbedtls_ssl_get_ciphersuite_name
.LVL1373:
.L1057:
	.loc 1 6385 0
	movs	r0, #0
.LVL1374:
	bx	lr
	.cfi_endproc
.LFE671:
	.size	mbedtls_ssl_get_ciphersuite, .-mbedtls_ssl_get_ciphersuite
	.section	.text.mbedtls_ssl_get_version,"ax",%progbits
	.align	1
	.p2align 2,,3
	.global	mbedtls_ssl_get_version
	.syntax unified
	.thumb
	.thumb_func
	.fpu softvfp
	.type	mbedtls_ssl_get_version, %function
mbedtls_ssl_get_version:
.LFB672:
	.loc 1 6388 0
	.cfi_startproc
	@ args = 0, pretend = 0, frame = 0
	@ frame_needed = 0, uses_anonymous_args = 0
	@ link register save eliminated.
.LVL1375:
	ldr	r3, [r0, #20]
	cmp	r3, #3
	itte	ls
	ldrls	r2, .L1066
	ldrls	r0, [r2, r3, lsl #2]
.LVL1376:
	.loc 1 6406 0
	ldrhi	r0, .L1066+4
	.loc 1 6423 0
	bx	lr
.L1067:
	.align	2
.L1066:
	.word	.LANCHOR1
	.word	.LC136
	.cfi_endproc
.LFE672:
	.size	mbedtls_ssl_get_version, .-mbedtls_ssl_get_version
	.section	.text.mbedtls_ssl_get_record_expansion,"ax",%progbits
	.align	1
	.p2align 2,,3
	.global	mbedtls_ssl_get_record_expansion
	.syntax unified
	.thumb
	.thumb_func
	.fpu softvfp
	.type	mbedtls_ssl_get_record_expansion, %function
mbedtls_ssl_get_record_expansion:
.LFB673:
	.loc 1 6426 0
	.cfi_startproc
	@ args = 0, pretend = 0, frame = 0
	@ frame_needed = 0, uses_anonymous_args = 0
.LVL1377:
	.loc 1 6428 0
	ldr	r3, [r0, #64]
.LVL1378:
	.loc 1 6435 0
	cbz	r3, .L1074
.LVL1379:
.LBB665:
.LBB666:
	.loc 2 359 0
	ldr	r2, [r3, #80]
	.loc 2 359 0
	cbz	r2, .L1070
.LVL1380:
.LBE666:
.LBE665:
	.loc 1 6438 0
	ldrb	r1, [r2, #1]	@ zero_extendqisi2
	cmp	r1, #2
	beq	.L1071
	bcc	.L1070
	subs	r1, r1, #6
	cmp	r1, #2
	bhi	.L1070
	.loc 1 6443 0
	ldr	r0, [r3, #8]
.LVL1381:
	.loc 1 6456 0
	adds	r0, r0, #5
.LVL1382:
	bx	lr
.LVL1383:
.L1071:
	.loc 1 6447 0
	ldr	r0, [r2, #20]
.LVL1384:
	ldr	r3, [r3, #20]
.LVL1385:
	add	r0, r0, r3
.LVL1386:
	.loc 1 6456 0
	adds	r0, r0, #5
.LVL1387:
	bx	lr
.LVL1388:
.L1074:
	.loc 1 6436 0
	movs	r0, #5
.LVL1389:
	bx	lr
.LVL1390:
.L1070:
	.loc 1 6426 0
	push	{lr}
	.cfi_def_cfa_offset 4
	.cfi_offset 14, -4
	.loc 1 6452 0
	ldr	r3, .L1081
.LVL1391:
	.loc 1 6426 0
	sub	sp, sp, #12
	.cfi_def_cfa_offset 16
	.loc 1 6452 0
	str	r3, [sp]
.LVL1392:
	ldr	r2, .L1081+4
	movw	r3, #6452
	movs	r1, #1
	bl	mbedtls_debug_print_msg
.LVL1393:
	.loc 1 6453 0
	ldr	r0, .L1081+8
	.loc 1 6457 0
	add	sp, sp, #12
	.cfi_def_cfa_offset 4
	@ sp needed
	ldr	pc, [sp], #4
.L1082:
	.align	2
.L1081:
	.word	.LC18
	.word	.LC2
	.word	-27648
	.cfi_endproc
.LFE673:
	.size	mbedtls_ssl_get_record_expansion, .-mbedtls_ssl_get_record_expansion
	.section	.text.mbedtls_ssl_get_max_frag_len,"ax",%progbits
	.align	1
	.p2align 2,,3
	.global	mbedtls_ssl_get_max_frag_len
	.syntax unified
	.thumb
	.thumb_func
	.fpu softvfp
	.type	mbedtls_ssl_get_max_frag_len, %function
mbedtls_ssl_get_max_frag_len:
.LFB674:
	.loc 1 6461 0
	.cfi_startproc
	@ args = 0, pretend = 0, frame = 0
	@ frame_needed = 0, uses_anonymous_args = 0
	@ link register save eliminated.
.LVL1394:
	.loc 1 6489 0
	ldr	r3, [r0]
	.loc 1 6494 0
	ldr	r1, [r0, #44]
	.loc 1 6489 0
	ldrh	r3, [r3, #112]
	ldr	r2, .L1088
	ubfx	r3, r3, #7, #3
	ldr	r0, [r2, r3, lsl #2]
.LVL1395:
	.loc 1 6494 0
	cbz	r1, .L1083
	.loc 1 6495 0 discriminator 1
	ldrb	r3, [r1, #112]	@ zero_extendqisi2
	ldr	r3, [r2, r3, lsl #2]
	cmp	r0, r3
	it	cs
	movcs	r0, r3
.LVL1396:
.L1083:
	.loc 1 6502 0
	bx	lr
.L1089:
	.align	2
.L1088:
	.word	.LANCHOR0
	.cfi_endproc
.LFE674:
	.size	mbedtls_ssl_get_max_frag_len, .-mbedtls_ssl_get_max_frag_len
	.section	.text.mbedtls_ssl_get_peer_cert,"ax",%progbits
	.align	1
	.p2align 2,,3
	.global	mbedtls_ssl_get_peer_cert
	.syntax unified
	.thumb
	.thumb_func
	.fpu softvfp
	.type	mbedtls_ssl_get_peer_cert, %function
mbedtls_ssl_get_peer_cert:
.LFB675:
	.loc 1 6507 0
	.cfi_startproc
	@ args = 0, pretend = 0, frame = 0
	@ frame_needed = 0, uses_anonymous_args = 0
	@ link register save eliminated.
.LVL1397:
	.loc 1 6508 0
	cbz	r0, .L1090
	.loc 1 6508 0 discriminator 1
	ldr	r0, [r0, #48]
.LVL1398:
	cbz	r0, .L1090
	.loc 1 6511 0
	ldr	r0, [r0, #92]
.L1090:
	.loc 1 6512 0
	bx	lr
	.cfi_endproc
.LFE675:
	.size	mbedtls_ssl_get_peer_cert, .-mbedtls_ssl_get_peer_cert
	.section	.text.mbedtls_ssl_get_session,"ax",%progbits
	.align	1
	.p2align 2,,3
	.global	mbedtls_ssl_get_session
	.syntax unified
	.thumb
	.thumb_func
	.fpu softvfp
	.type	mbedtls_ssl_get_session, %function
mbedtls_ssl_get_session:
.LFB676:
	.loc 1 6517 0
	.cfi_startproc
	@ args = 0, pretend = 0, frame = 0
	@ frame_needed = 0, uses_anonymous_args = 0
.LVL1399:
	push	{r4, r5, r6, r7, r8, lr}
	.cfi_def_cfa_offset 24
	.cfi_offset 4, -24
	.cfi_offset 5, -20
	.cfi_offset 6, -16
	.cfi_offset 7, -12
	.cfi_offset 8, -8
	.cfi_offset 14, -4
	.loc 1 6518 0
	cmp	r0, #0
	beq	.L1104
	.loc 1 6518 0 discriminator 1
	cmp	r1, #0
	beq	.L1104
	.loc 1 6520 0
	ldr	r6, [r0, #48]
	.loc 1 6519 0
	cmp	r6, #0
	beq	.L1104
	.loc 1 6521 0
	ldr	r3, [r0]
	ldrb	r3, [r3, #112]	@ zero_extendqisi2
	.loc 1 6520 0
	lsls	r3, r3, #31
	bmi	.L1104
.LVL1400:
.LBB676:
.LBB677:
.LBB678:
.LBB679:
	.loc 1 7260 0
	ldr	r0, [r1, #92]
.LVL1401:
	mov	r5, r1
	.loc 1 7263 0
	ldr	r8, .L1121+12
	.loc 1 7260 0
	cbz	r0, .L1096
	.loc 1 7262 0
	bl	mbedtls_x509_crt_free
.LVL1402:
	.loc 1 7263 0
	ldr	r3, [r8]
	ldr	r0, [r5, #92]
	blx	r3
.LVL1403:
.L1096:
	.loc 1 7268 0
	ldr	r3, [r8]
	ldr	r0, [r5, #100]
	blx	r3
.LVL1404:
.LBB680:
.LBB681:
.LBB682:
	.loc 1 86 0
	movs	r4, #0
.LBE682:
.LBE681:
.LBE680:
	.loc 1 7268 0
	mov	r3, r5
	add	r2, r5, #124
.LVL1405:
.L1097:
.LBB685:
.LBB684:
.LBB683:
	.loc 1 86 0
	strb	r4, [r3]
	adds	r3, r3, #1
.LVL1406:
	cmp	r2, r3
	bne	.L1097
.LVL1407:
.LBE683:
.LBE684:
.LBE685:
.LBE679:
.LBE678:
	.loc 1 201 0
	movs	r2, #124
	mov	r1, r6
	mov	r0, r5
	bl	memcpy
.LVL1408:
	.loc 1 204 0
	ldr	r3, [r6, #92]
	cbz	r3, .L1098
.LBB686:
	.loc 1 208 0
	ldr	r3, .L1121
	mov	r1, #308
	ldr	r3, [r3]
	movs	r0, #1
	blx	r3
.LVL1409:
	str	r0, [r5, #92]
	.loc 1 209 0
	cbz	r0, .L1100
	.loc 1 212 0
	bl	mbedtls_x509_crt_init
.LVL1410:
	.loc 1 214 0
	ldr	r3, [r6, #92]
	ldr	r0, [r5, #92]
	ldr	r2, [r3, #4]
	ldr	r1, [r3, #8]
	bl	mbedtls_x509_crt_parse_der
.LVL1411:
	mov	r7, r0
	cbnz	r0, .L1120
.LVL1412:
.L1098:
.LBE686:
	.loc 1 225 0
	ldr	r7, [r6, #100]
	cbz	r7, .L1094
	.loc 1 227 0
	ldr	r3, .L1121
	ldr	r1, [r6, #104]
	ldr	r3, [r3]
	movs	r0, #1
	blx	r3
.LVL1413:
	str	r0, [r5, #100]
	.loc 1 228 0
	cbz	r0, .L1100
	.loc 1 231 0
	ldr	r2, [r6, #104]
	ldr	r1, [r6, #100]
	bl	memcpy
.LVL1414:
	.loc 1 235 0
	movs	r7, #0
.L1094:
.LBE677:
.LBE676:
	.loc 1 6527 0
	mov	r0, r7
	pop	{r4, r5, r6, r7, r8, pc}
.LVL1415:
.L1120:
.LBB691:
.LBB689:
.LBB687:
	.loc 1 217 0
	ldr	r0, [r5, #92]
.LVL1416:
	ldr	r3, [r8]
	blx	r3
.LVL1417:
	.loc 1 218 0
	str	r4, [r5, #92]
.LBE687:
.LBE689:
.LBE691:
	.loc 1 6527 0
	mov	r0, r7
	pop	{r4, r5, r6, r7, r8, pc}
.LVL1418:
.L1104:
	.loc 1 6523 0
	ldr	r7, .L1121+4
	.loc 1 6527 0
	mov	r0, r7
.LVL1419:
	pop	{r4, r5, r6, r7, r8, pc}
.LVL1420:
.L1100:
.LBB692:
.LBB690:
.LBB688:
	.loc 1 210 0
	ldr	r7, .L1121+8
	b	.L1094
.L1122:
	.align	2
.L1121:
	.word	mbedtls_calloc
	.word	-28928
	.word	-32512
	.word	mbedtls_free
.LBE688:
.LBE690:
.LBE692:
	.cfi_endproc
.LFE676:
	.size	mbedtls_ssl_get_session, .-mbedtls_ssl_get_session
	.section	.text.mbedtls_ssl_handshake_step,"ax",%progbits
	.align	1
	.p2align 2,,3
	.global	mbedtls_ssl_handshake_step
	.syntax unified
	.thumb
	.thumb_func
	.fpu softvfp
	.type	mbedtls_ssl_handshake_step, %function
mbedtls_ssl_handshake_step:
.LFB677:
	.loc 1 6534 0
	.cfi_startproc
	@ args = 0, pretend = 0, frame = 0
	@ frame_needed = 0, uses_anonymous_args = 0
	@ link register save eliminated.
.LVL1421:
	.loc 1 6537 0
	cbz	r0, .L1126
	.loc 1 6537 0 discriminator 1
	ldr	r3, [r0]
	cbz	r3, .L1126
	.loc 1 6542 0
	ldrb	r3, [r3, #112]	@ zero_extendqisi2
	lsls	r3, r3, #31
	bmi	.L1127
	.loc 1 6544 0
	b	mbedtls_ssl_handshake_client_step
.LVL1422:
.L1127:
	.loc 1 6535 0
	ldr	r0, .L1128
.LVL1423:
	.loc 1 6554 0
	bx	lr
.LVL1424:
.L1126:
	.loc 1 6538 0
	ldr	r0, .L1128+4
.LVL1425:
	bx	lr
.L1129:
	.align	2
.L1128:
	.word	-28800
	.word	-28928
	.cfi_endproc
.LFE677:
	.size	mbedtls_ssl_handshake_step, .-mbedtls_ssl_handshake_step
	.section	.text.mbedtls_ssl_handshake,"ax",%progbits
	.align	1
	.p2align 2,,3
	.global	mbedtls_ssl_handshake
	.syntax unified
	.thumb
	.thumb_func
	.fpu softvfp
	.type	mbedtls_ssl_handshake, %function
mbedtls_ssl_handshake:
.LFB678:
	.loc 1 6560 0
	.cfi_startproc
	@ args = 0, pretend = 0, frame = 0
	@ frame_needed = 0, uses_anonymous_args = 0
.LVL1426:
	push	{r4, r5, lr}
	.cfi_def_cfa_offset 12
	.cfi_offset 4, -12
	.cfi_offset 5, -8
	.cfi_offset 14, -4
	sub	sp, sp, #12
	.cfi_def_cfa_offset 24
	.loc 1 6562 0
	cbz	r0, .L1136
	.loc 1 6562 0 discriminator 1
	ldr	r3, [r0]
	mov	r4, r0
	cbz	r3, .L1136
	.loc 1 6564 0
	ldr	r2, .L1142
	movw	r3, #6564
	str	r2, [sp]
	movs	r1, #2
	ldr	r2, .L1142+4
	bl	mbedtls_debug_print_msg
.LVL1427:
	b	.L1132
.LVL1428:
.L1141:
.LBB697:
.LBB698:
.LBB699:
.LBB700:
	.loc 1 6544 0
	mov	r0, r4
	bl	mbedtls_ssl_handshake_client_step
.LVL1429:
.LBE700:
.LBE699:
	.loc 1 6568 0
	mov	r5, r0
	cbnz	r0, .L1133
.L1132:
.LVL1430:
	.loc 1 6565 0
	ldr	r3, [r4, #4]
	cmp	r3, #16
	beq	.L1140
.LBB703:
.LBB701:
	.loc 1 6537 0
	ldr	r3, [r4]
	cbz	r3, .L1137
	.loc 1 6542 0
	ldrb	r3, [r3, #112]	@ zero_extendqisi2
	lsls	r3, r3, #31
	bpl	.L1141
	.loc 1 6535 0
	ldr	r5, .L1142+8
.LVL1431:
.L1133:
.LBE701:
.LBE703:
	.loc 1 6572 0
	ldr	r3, .L1142+12
	mov	r0, r4
	str	r3, [sp]
	ldr	r2, .L1142+4
	movw	r3, #6572
	movs	r1, #2
	bl	mbedtls_debug_print_msg
.LVL1432:
.L1130:
.LBE698:
.LBE697:
	.loc 1 6575 0
	mov	r0, r5
	add	sp, sp, #12
	.cfi_remember_state
	.cfi_def_cfa_offset 12
	@ sp needed
	pop	{r4, r5, pc}
.LVL1433:
.L1140:
	.cfi_restore_state
.LBB706:
.LBB705:
	.loc 1 6565 0
	movs	r5, #0
	b	.L1133
.L1137:
.LBB704:
.LBB702:
	.loc 1 6538 0
	ldr	r5, .L1142+16
	b	.L1133
.LVL1434:
.L1136:
.LBE702:
.LBE704:
.LBE705:
.LBE706:
	.loc 1 6563 0
	ldr	r5, .L1142+16
	b	.L1130
.L1143:
	.align	2
.L1142:
	.word	.LC137
	.word	.LC2
	.word	-28800
	.word	.LC138
	.word	-28928
	.cfi_endproc
.LFE678:
	.size	mbedtls_ssl_handshake, .-mbedtls_ssl_handshake
	.section	.text.mbedtls_ssl_renegotiate,"ax",%progbits
	.align	1
	.p2align 2,,3
	.global	mbedtls_ssl_renegotiate
	.syntax unified
	.thumb
	.thumb_func
	.fpu softvfp
	.type	mbedtls_ssl_renegotiate, %function
mbedtls_ssl_renegotiate:
.LFB680:
	.loc 1 6654 0
	.cfi_startproc
	@ args = 0, pretend = 0, frame = 0
	@ frame_needed = 0, uses_anonymous_args = 0
.LVL1435:
	push	{r4, r5, r6, lr}
	.cfi_def_cfa_offset 16
	.cfi_offset 4, -16
	.cfi_offset 5, -12
	.cfi_offset 6, -8
	.cfi_offset 14, -4
	sub	sp, sp, #8
	.cfi_def_cfa_offset 24
	.loc 1 6657 0
	cmp	r0, #0
	beq	.L1159
	.loc 1 6657 0 discriminator 1
	ldr	r3, [r0]
	mov	r4, r0
	cmp	r3, #0
	beq	.L1159
	.loc 1 6682 0
	ldr	r3, [r0, #8]
	cmp	r3, #1
	beq	.L1146
	.loc 1 6684 0
	ldr	r3, [r0, #4]
	cmp	r3, #16
	bne	.L1159
.LVL1436:
.LBB725:
.LBB726:
	.loc 1 6617 0
	ldr	r2, .L1175
	movw	r3, #6617
	str	r2, [sp]
	movs	r1, #2
	ldr	r2, .L1175+4
	bl	mbedtls_debug_print_msg
.LVL1437:
	.loc 1 6619 0
	mov	r0, r4
	bl	ssl_handshake_init
.LVL1438:
	mov	r5, r0
	cbz	r0, .L1170
.LVL1439:
.L1147:
.LBE726:
.LBE725:
	.loc 1 6689 0
	ldr	r3, .L1175+8
	str	r5, [sp, #4]
	str	r3, [sp]
	mov	r0, r4
	movw	r3, #6689
	ldr	r2, .L1175+4
	movs	r1, #1
	bl	mbedtls_debug_print_ret
.LVL1440:
.L1144:
	.loc 1 6704 0
	mov	r0, r5
	add	sp, sp, #8
	.cfi_remember_state
	.cfi_def_cfa_offset 16
	@ sp needed
	pop	{r4, r5, r6, pc}
.LVL1441:
.L1170:
	.cfi_restore_state
.LBB755:
.LBB751:
	.loc 1 6636 0
	movs	r2, #1
.LBB727:
.LBB728:
	.loc 1 6562 0
	ldr	r3, [r4]
.LBE728:
.LBE727:
	.loc 1 6635 0
	str	r0, [r4, #4]
	.loc 1 6636 0
	str	r2, [r4, #8]
.LVL1442:
.LBB745:
.LBB741:
	.loc 1 6562 0
	cmp	r3, #0
	beq	.L1160
	.loc 1 6564 0
	ldr	r2, .L1175+12
	movw	r3, #6564
	str	r2, [sp]
	movs	r1, #2
	ldr	r2, .L1175+4
	mov	r0, r4
.LVL1443:
	bl	mbedtls_debug_print_msg
.LVL1444:
	b	.L1149
.LVL1445:
.L1172:
.LBB729:
.LBB730:
.LBB731:
.LBB732:
	.loc 1 6544 0
	mov	r0, r4
	bl	mbedtls_ssl_handshake_client_step
.LVL1446:
.LBE732:
.LBE731:
	.loc 1 6568 0
	mov	r6, r0
	cbnz	r0, .L1150
.L1149:
.LVL1447:
	.loc 1 6565 0
	ldr	r3, [r4, #4]
	cmp	r3, #16
	beq	.L1171
.LBB735:
.LBB733:
	.loc 1 6537 0
	ldr	r3, [r4]
	cmp	r3, #0
	beq	.L1161
	.loc 1 6542 0
	ldrb	r3, [r3, #112]	@ zero_extendqisi2
	lsls	r2, r3, #31
	bpl	.L1172
	.loc 1 6535 0
	ldr	r6, .L1175+16
.LVL1448:
.L1150:
.LBE733:
.LBE735:
	.loc 1 6572 0
	ldr	r2, .L1175+20
	movw	r3, #6572
	str	r2, [sp]
	movs	r1, #2
	ldr	r2, .L1175+4
	mov	r0, r4
	bl	mbedtls_debug_print_msg
.LVL1449:
.L1148:
.LBE730:
.LBE729:
.LBE741:
.LBE745:
	.loc 1 6640 0
	ldr	r3, .L1175+24
	ldr	r2, .L1175+4
	stm	sp, {r3, r6}
	movs	r1, #1
	movw	r3, #6640
	mov	r0, r4
	mov	r5, r6
	bl	mbedtls_debug_print_ret
.LVL1450:
	b	.L1147
.LVL1451:
.L1159:
.LBE751:
.LBE755:
	.loc 1 6658 0
	ldr	r5, .L1175+28
	.loc 1 6704 0
	mov	r0, r5
.LVL1452:
	add	sp, sp, #8
	.cfi_remember_state
	.cfi_def_cfa_offset 16
	@ sp needed
	pop	{r4, r5, r6, pc}
.LVL1453:
.L1171:
	.cfi_restore_state
.LBB756:
.LBB752:
.LBB746:
.LBB742:
.LBB739:
.LBB737:
	.loc 1 6572 0
	ldr	r2, .L1175+20
	mov	r0, r4
	str	r2, [sp]
	movw	r3, #6572
	ldr	r2, .L1175+4
	movs	r1, #2
	bl	mbedtls_debug_print_msg
.LVL1454:
.LBE737:
.LBE739:
.LBE742:
.LBE746:
.LBB747:
.LBB748:
	.loc 1 6644 0
	ldr	r3, .L1175+32
	mov	r0, r4
	str	r3, [sp]
	ldr	r2, .L1175+4
	movw	r3, #6644
	movs	r1, #2
	bl	mbedtls_debug_print_msg
.LVL1455:
.LBE748:
.LBE747:
.LBE752:
.LBE756:
	.loc 1 6704 0
	mov	r0, r5
	add	sp, sp, #8
	.cfi_remember_state
	.cfi_def_cfa_offset 16
	@ sp needed
	pop	{r4, r5, r6, pc}
.LVL1456:
.L1146:
	.cfi_restore_state
.LBB757:
.LBB758:
.LBB759:
.LBB760:
	.loc 1 6564 0
	ldr	r2, .L1175+12
	movw	r3, #6564
	str	r2, [sp]
	movs	r1, #2
	ldr	r2, .L1175+4
	bl	mbedtls_debug_print_msg
.LVL1457:
	b	.L1153
.LVL1458:
.L1174:
.LBB761:
.LBB762:
.LBB763:
.LBB764:
	.loc 1 6544 0
	mov	r0, r4
	bl	mbedtls_ssl_handshake_client_step
.LVL1459:
.LBE764:
.LBE763:
	.loc 1 6568 0
	mov	r5, r0
	cbnz	r0, .L1154
.L1153:
.LVL1460:
	.loc 1 6565 0
	ldr	r3, [r4, #4]
	cmp	r3, #16
	beq	.L1173
.LBB767:
.LBB765:
	.loc 1 6537 0
	ldr	r3, [r4]
	cbz	r3, .L1163
	.loc 1 6542 0
	ldrb	r3, [r3, #112]	@ zero_extendqisi2
	lsls	r3, r3, #31
	bpl	.L1174
	.loc 1 6535 0
	ldr	r5, .L1175+16
.LVL1461:
.L1154:
.LBE765:
.LBE767:
	.loc 1 6572 0
	ldr	r2, .L1175+20
	mov	r0, r4
	str	r2, [sp]
	movw	r3, #6572
	ldr	r2, .L1175+4
	movs	r1, #2
	bl	mbedtls_debug_print_msg
.LVL1462:
.LBE762:
.LBE761:
.LBE760:
.LBE759:
	.loc 1 6697 0
	ldr	r3, .L1175+24
	str	r5, [sp, #4]
	str	r3, [sp]
	mov	r0, r4
	movw	r3, #6697
	ldr	r2, .L1175+4
	movs	r1, #1
	bl	mbedtls_debug_print_ret
.LVL1463:
	b	.L1144
.LVL1464:
.L1173:
.LBB775:
.LBB773:
.LBB771:
.LBB769:
	.loc 1 6572 0
	ldr	r3, .L1175+20
	mov	r0, r4
	str	r3, [sp]
	ldr	r2, .L1175+4
	movw	r3, #6572
	movs	r1, #2
	bl	mbedtls_debug_print_msg
.LVL1465:
	movs	r5, #0
	b	.L1144
.LVL1466:
.L1161:
.LBE769:
.LBE771:
.LBE773:
.LBE775:
.LBE758:
.LBE757:
.LBB778:
.LBB753:
.LBB749:
.LBB743:
.LBB740:
.LBB738:
.LBB736:
.LBB734:
	.loc 1 6538 0
	ldr	r6, .L1175+28
	b	.L1150
.LVL1467:
.L1163:
.LBE734:
.LBE736:
.LBE738:
.LBE740:
.LBE743:
.LBE749:
.LBE753:
.LBE778:
.LBB779:
.LBB777:
.LBB776:
.LBB774:
.LBB772:
.LBB770:
.LBB768:
.LBB766:
	ldr	r5, .L1175+28
	b	.L1154
.LVL1468:
.L1160:
.LBE766:
.LBE768:
.LBE770:
.LBE772:
.LBE774:
.LBE776:
.LBE777:
.LBE779:
.LBB780:
.LBB754:
.LBB750:
.LBB744:
	.loc 1 6563 0
	ldr	r6, .L1175+28
	b	.L1148
.L1176:
	.align	2
.L1175:
	.word	.LC139
	.word	.LC2
	.word	.LC141
	.word	.LC137
	.word	-28800
	.word	.LC138
	.word	.LC140
	.word	-28928
	.word	.LC142
.LBE744:
.LBE750:
.LBE754:
.LBE780:
	.cfi_endproc
.LFE680:
	.size	mbedtls_ssl_renegotiate, .-mbedtls_ssl_renegotiate
	.section	.text.mbedtls_ssl_read,"ax",%progbits
	.align	1
	.p2align 2,,3
	.global	mbedtls_ssl_read
	.syntax unified
	.thumb
	.thumb_func
	.fpu softvfp
	.type	mbedtls_ssl_read, %function
mbedtls_ssl_read:
.LFB682:
	.loc 1 6733 0
	.cfi_startproc
	@ args = 0, pretend = 0, frame = 0
	@ frame_needed = 0, uses_anonymous_args = 0
.LVL1469:
	push	{r4, r5, r6, r7, r8, r9, r10, lr}
	.cfi_def_cfa_offset 32
	.cfi_offset 4, -32
	.cfi_offset 5, -28
	.cfi_offset 6, -24
	.cfi_offset 7, -20
	.cfi_offset 8, -16
	.cfi_offset 9, -12
	.cfi_offset 10, -8
	.cfi_offset 14, -4
	sub	sp, sp, #8
	.cfi_def_cfa_offset 40
	.loc 1 6737 0
	cmp	r0, #0
	beq	.L1180
	.loc 1 6737 0 discriminator 1
	ldr	r3, [r0]
	mov	r4, r0
	cmp	r3, #0
	beq	.L1180
	mov	r7, r2
	.loc 1 6740 0
	ldr	r2, .L1293
.LVL1470:
	movw	r3, #6740
	str	r2, [sp]
	mov	r6, r1
	ldr	r2, .L1293+4
	movs	r1, #2
.LVL1471:
	bl	mbedtls_debug_print_msg
.LVL1472:
.LBB809:
.LBB810:
	.loc 1 6711 0
	ldr	r3, [r4, #4]
	cmp	r3, #16
	beq	.L1181
.LVL1473:
.L1187:
.LBE810:
.LBE809:
.LBB815:
.LBB816:
	.loc 1 6562 0
	ldr	r3, [r4]
	cmp	r3, #0
	beq	.L1276
	.loc 1 6564 0
	ldr	r2, .L1293+8
	movw	r3, #6564
	str	r2, [sp]
	movs	r1, #2
	ldr	r2, .L1293+4
	mov	r0, r4
	bl	mbedtls_debug_print_msg
.LVL1474:
	b	.L1188
.LVL1475:
.L1278:
.LBB817:
.LBB818:
.LBB819:
.LBB820:
	.loc 1 6544 0
	mov	r0, r4
	bl	mbedtls_ssl_handshake_client_step
.LVL1476:
.LBE820:
.LBE819:
	.loc 1 6568 0
	mov	r5, r0
	cmp	r0, #0
	bne	.L1190
.L1188:
.LVL1477:
	.loc 1 6565 0
	ldr	r3, [r4, #4]
	cmp	r3, #16
	beq	.L1277
.LBB823:
.LBB821:
	.loc 1 6537 0
	ldr	r3, [r4]
	cmp	r3, #0
	beq	.L1226
	.loc 1 6542 0
	ldrb	r3, [r3, #112]	@ zero_extendqisi2
	lsls	r5, r3, #31
	bpl	.L1278
	.loc 1 6535 0
	ldr	r5, .L1293+12
.L1189:
.LVL1478:
.LBE821:
.LBE823:
	.loc 1 6572 0
	ldr	r2, .L1293+16
	movw	r3, #6572
	str	r2, [sp]
	movs	r1, #2
	ldr	r2, .L1293+4
	mov	r0, r4
	bl	mbedtls_debug_print_msg
.LVL1479:
.L1182:
.LBE818:
.LBE817:
.LBE816:
.LBE815:
	.loc 1 6774 0
	ldr	r3, .L1293+20
	str	r5, [sp, #4]
	str	r3, [sp]
	mov	r0, r4
	movw	r3, #6774
	ldr	r2, .L1293+4
	movs	r1, #1
	bl	mbedtls_debug_print_ret
.LVL1480:
.L1177:
	.loc 1 6983 0
	mov	r0, r5
	add	sp, sp, #8
	.cfi_remember_state
	.cfi_def_cfa_offset 32
	@ sp needed
	pop	{r4, r5, r6, r7, r8, r9, r10, pc}
.LVL1481:
.L1181:
	.cfi_restore_state
.LBB832:
.LBB813:
	.loc 1 6711 0
	ldr	r3, [r4, #8]
	cmp	r3, #3
	beq	.L1184
	.loc 1 6713 0
	ldr	r5, [r4]
	ldrb	r3, [r5, #113]	@ zero_extendqisi2
	.loc 1 6712 0
	lsls	r3, r3, #26
	bpl	.L1184
	.loc 1 6718 0
	adds	r5, r5, #96
	mov	r1, r5
	movs	r2, #8
	ldr	r0, [r4, #92]
	bl	memcmp
.LVL1482:
	cmp	r0, #0
	ble	.L1279
.L1185:
.LVL1483:
.LBB811:
.LBB812:
	.loc 1 6724 0
	ldr	r2, .L1293+24
	movw	r3, #6724
	str	r2, [sp]
	movs	r1, #1
	ldr	r2, .L1293+4
	mov	r0, r4
	bl	mbedtls_debug_print_msg
.LVL1484:
	.loc 1 6725 0
	mov	r0, r4
	bl	mbedtls_ssl_renegotiate
.LVL1485:
.LBE812:
.LBE811:
.LBE813:
.LBE832:
	.loc 1 6758 0
	mov	r5, r0
	cbz	r0, .L1186
	.loc 1 6760 0
	ldr	r3, .L1293+28
	str	r0, [sp, #4]
	str	r3, [sp]
	mov	r0, r4
	movw	r3, #6760
	ldr	r2, .L1293+4
	movs	r1, #1
	bl	mbedtls_debug_print_ret
.LVL1486:
	.loc 1 6983 0
	mov	r0, r5
	add	sp, sp, #8
	.cfi_remember_state
	.cfi_def_cfa_offset 32
	@ sp needed
	pop	{r4, r5, r6, r7, r8, r9, r10, pc}
.LVL1487:
.L1186:
	.cfi_restore_state
	.loc 1 6765 0
	ldr	r3, [r4, #4]
	cmp	r3, #16
	bne	.L1187
.L1184:
	.loc 1 6734 0
	mov	r8, #0
.L1224:
.LVL1488:
	.loc 1 6779 0
	ldr	r1, [r4, #112]
	cbz	r1, .L1280
.L1193:
	.loc 1 6967 0
	ldr	r5, [r4, #120]
	.loc 1 6970 0
	mov	r0, r6
	.loc 1 6967 0
	cmp	r5, r7
	it	cs
	movcs	r5, r7
.LVL1489:
	.loc 1 6970 0
	mov	r2, r5
	bl	memcpy
.LVL1490:
	.loc 1 6971 0
	ldr	r3, [r4, #120]
	subs	r3, r3, r5
	str	r3, [r4, #120]
	.loc 1 6973 0
	cbz	r3, .L1222
	.loc 1 6978 0
	ldr	r3, [r4, #112]
	add	r3, r3, r5
.L1222:
	.loc 1 6980 0
	ldr	r2, .L1293+32
	str	r3, [r4, #112]
	mov	r0, r4
	str	r2, [sp]
	movw	r3, #6980
	ldr	r2, .L1293+4
	movs	r1, #2
	bl	mbedtls_debug_print_msg
.LVL1491:
	.loc 1 6983 0
	mov	r0, r5
	add	sp, sp, #8
	.cfi_remember_state
	.cfi_def_cfa_offset 32
	@ sp needed
	pop	{r4, r5, r6, r7, r8, r9, r10, pc}
.LVL1492:
.L1280:
	.cfi_restore_state
	.loc 1 6782 0
	ldr	r3, [r4, #84]
	cbz	r3, .L1195
	.loc 1 6783 0 discriminator 1
	ldr	r0, [r4, #76]
	blx	r3
.LVL1493:
	.loc 1 6782 0 discriminator 1
	adds	r0, r0, #1
	beq	.L1281
.L1195:
	.loc 1 6788 0
	cmp	r8, #0
	beq	.L1282
.L1197:
	.loc 1 6800 0
	ldr	r3, [r4, #120]
	cmp	r3, #0
	bne	.L1199
	.loc 1 6801 0 discriminator 1
	ldr	r3, [r4, #116]
	.loc 1 6800 0 discriminator 1
	cmp	r3, #23
	beq	.L1283
.L1200:
	.loc 1 6817 0
	cmp	r3, #22
	beq	.L1284
	.loc 1 6914 0
	ldr	r2, [r4, #8]
	cmp	r2, #3
	beq	.L1285
.L1219:
	.loc 1 6930 0
	cmp	r3, #21
	beq	.L1286
	.loc 1 6936 0
	cmp	r3, #23
	bne	.L1287
	.loc 1 6946 0
	ldr	r3, [r4, #4]
	.loc 1 6942 0
	ldr	r1, [r4, #108]
	.loc 1 6946 0
	cmp	r3, #16
	.loc 1 6942 0
	str	r1, [r4, #112]
	.loc 1 6946 0
	bne	.L1193
.LVL1494:
.LBB833:
.LBB834:
	.loc 1 107 0
	ldr	r3, [r4, #80]
	cmp	r3, #0
	beq	.L1193
	.loc 1 110 0
	movs	r5, #0
	ldr	r3, .L1293+36
	ldr	r2, .L1293+4
	stm	sp, {r3, r5}
	movs	r1, #3
	movs	r3, #110
	mov	r0, r4
	bl	mbedtls_debug_print_msg
.LVL1495:
	.loc 1 111 0
	mov	r1, r5
	mov	r2, r5
	ldr	r3, [r4, #80]
	ldr	r0, [r4, #76]
	blx	r3
.LVL1496:
	ldr	r1, [r4, #112]
	b	.L1193
.LVL1497:
.L1282:
.LBE834:
.LBE833:
	.loc 1 6790 0
	mov	r0, r4
	bl	mbedtls_ssl_read_record
.LVL1498:
	mov	r5, r0
	cmp	r0, #0
	beq	.L1197
	.loc 1 6792 0
	cmn	r0, #29312
	beq	.L1202
	.loc 1 6795 0
	ldr	r3, .L1293+40
	str	r0, [sp, #4]
	str	r3, [sp]
	mov	r0, r4
.LVL1499:
	movw	r3, #6795
	ldr	r2, .L1293+4
	movs	r1, #1
	bl	mbedtls_debug_print_ret
.LVL1500:
	.loc 1 6796 0
	b	.L1177
.LVL1501:
.L1277:
.LBB835:
.LBB829:
.LBB827:
.LBB825:
	.loc 1 6572 0
	ldr	r2, .L1293+16
	movw	r3, #6572
	str	r2, [sp]
	movs	r1, #2
	ldr	r2, .L1293+4
	mov	r0, r4
	bl	mbedtls_debug_print_msg
.LVL1502:
	b	.L1184
.LVL1503:
.L1190:
	ldr	r2, .L1293+16
	movw	r3, #6572
	str	r2, [sp]
	movs	r1, #2
	ldr	r2, .L1293+4
	mov	r0, r4
.LVL1504:
	bl	mbedtls_debug_print_msg
.LVL1505:
.LBE825:
.LBE827:
.LBE829:
.LBE835:
	.loc 1 6768 0
	cmn	r5, #27392
	.loc 1 6770 0
	it	eq
	moveq	r8, #1
	.loc 1 6768 0
	beq	.L1224
	b	.L1182
.LVL1506:
.L1199:
	ldr	r3, [r4, #116]
	b	.L1200
.LVL1507:
.L1279:
.LBB836:
.LBB814:
	.loc 1 6719 0
	mov	r1, r5
	movs	r2, #8
	ldr	r0, [r4, #144]
	bl	memcmp
.LVL1508:
	.loc 1 6718 0
	cmp	r0, #0
	bgt	.L1185
	b	.L1184
.LVL1509:
.L1281:
.LBE814:
.LBE836:
.LBB837:
.LBB838:
	.loc 1 107 0
	ldr	r3, [r4, #80]
	cmp	r3, #0
	beq	.L1195
.LBE838:
.LBE837:
	.loc 1 6785 0
	ldr	r3, [r4]
.LBB841:
.LBB839:
	.loc 1 110 0
	ldr	r2, .L1293+36
.LBE839:
.LBE841:
	.loc 1 6785 0
	ldr	r5, [r3, #88]
.LBB842:
.LBB840:
	.loc 1 110 0
	movs	r1, #3
	movs	r3, #110
	stm	sp, {r2, r5}
.LVL1510:
	mov	r0, r4
	ldr	r2, .L1293+4
	bl	mbedtls_debug_print_msg
.LVL1511:
	.loc 1 111 0
	mov	r2, r5
	lsrs	r1, r5, #2
	ldr	r3, [r4, #80]
	ldr	r0, [r4, #76]
	blx	r3
.LVL1512:
.LBE840:
.LBE842:
	.loc 1 6788 0
	cmp	r8, #0
	bne	.L1197
	b	.L1282
.LVL1513:
.L1285:
	.loc 1 6917 0
	ldr	r2, [r4]
	ldr	r1, [r2, #92]
	cmp	r1, #0
	blt	.L1219
	.loc 1 6919 0
	ldr	r2, [r4, #12]
	adds	r2, r2, #1
	cmp	r1, r2
	str	r2, [r4, #12]
	bge	.L1219
	.loc 1 6921 0
	ldr	r3, .L1293+44
	mov	r0, r4
	str	r3, [sp]
	ldr	r2, .L1293+4
	movw	r3, #6922
	movs	r1, #1
	bl	mbedtls_debug_print_msg
.LVL1514:
	.loc 1 6923 0
	ldr	r5, .L1293+48
	b	.L1177
.LVL1515:
.L1226:
.LBB843:
.LBB830:
.LBB828:
.LBB826:
.LBB824:
.LBB822:
	.loc 1 6538 0
	ldr	r5, .L1293+52
	b	.L1189
.LVL1516:
.L1180:
.LBE822:
.LBE824:
.LBE826:
.LBE828:
.LBE830:
.LBE843:
	.loc 1 6738 0
	ldr	r5, .L1293+52
	b	.L1177
.L1294:
	.align	2
.L1293:
	.word	.LC143
	.word	.LC2
	.word	.LC137
	.word	-28800
	.word	.LC138
	.word	.LC140
	.word	.LC144
	.word	.LC145
	.word	.LC153
	.word	.LC135
	.word	.LC108
	.word	.LC150
	.word	-30464
	.word	-28928
.LVL1517:
.L1284:
	.loc 1 6819 0
	ldr	r2, .L1295
	movw	r3, #6819
	str	r2, [sp]
	movs	r1, #1
	ldr	r2, .L1295+4
	mov	r0, r4
	bl	mbedtls_debug_print_msg
.LVL1518:
	.loc 1 6822 0
	ldr	r3, [r4]
	.loc 1 6823 0
	ldr	r1, [r4, #108]
	.loc 1 6822 0
	ldrb	r2, [r3, #112]	@ zero_extendqisi2
	ldrb	r1, [r1]	@ zero_extendqisi2
	lsls	r0, r2, #31
	bmi	.L1204
	.loc 1 6822 0 is_stmt 0 discriminator 1
	cmp	r1, #0
	bne	.L1205
.LVL1519:
	.loc 1 6823 0 is_stmt 1
	ldr	r1, [r4, #128]
	cmp	r1, #4
	bne	.L1205
.LVL1520:
.L1206:
	.loc 1 6850 0
	ldrb	r3, [r3, #113]	@ zero_extendqisi2
	lsls	r1, r3, #26
	bpl	.L1207
	.loc 1 6850 0 is_stmt 0 discriminator 1
	ldr	r3, [r4, #188]
	cbnz	r3, .L1208
	.loc 1 6851 0 is_stmt 1
	tst	r2, #48
	beq	.L1207
.L1208:
.LVL1521:
.LBB844:
.LBB845:
	.loc 1 6617 0
	ldr	r2, .L1295+8
	movw	r3, #6617
	str	r2, [sp]
	movs	r1, #2
	ldr	r2, .L1295+4
	mov	r0, r4
	bl	mbedtls_debug_print_msg
.LVL1522:
	.loc 1 6619 0
	mov	r0, r4
	bl	ssl_handshake_init
.LVL1523:
	mov	r5, r0
	cmp	r0, #0
	beq	.L1288
.LVL1524:
.L1212:
.LBE845:
.LBE844:
	.loc 1 6898 0
	cmn	r5, #27392
	bne	.L1289
.L1270:
	ldr	r3, [r4, #116]
	b	.L1219
.LVL1525:
.L1202:
	.loc 1 6793 0
	movs	r5, #0
	b	.L1177
.LVL1526:
.L1283:
	.loc 1 6806 0
	mov	r0, r4
	bl	mbedtls_ssl_read_record
.LVL1527:
	mov	r5, r0
	cmp	r0, #0
	beq	.L1199
	.loc 1 6808 0
	cmn	r0, #29312
	beq	.L1202
	.loc 1 6811 0
	ldr	r3, .L1295+12
	str	r0, [sp, #4]
	str	r3, [sp]
	mov	r0, r4
.LVL1528:
	movw	r3, #6811
	ldr	r2, .L1295+4
	movs	r1, #1
	bl	mbedtls_debug_print_ret
.LVL1529:
	.loc 1 6812 0
	b	.L1177
.LVL1530:
.L1207:
	.loc 1 6855 0
	ldr	r2, .L1295+16
	movw	r3, #6855
	str	r2, [sp]
	movs	r1, #3
	ldr	r2, .L1295+4
	mov	r0, r4
	bl	mbedtls_debug_print_msg
.LVL1531:
	.loc 1 6870 0
	ldr	r3, [r4, #20]
	cmp	r3, #0
	ble	.L1209
.LVL1532:
.LBB870:
.LBB871:
	.loc 1 4185 0
	ldr	r3, [r4]
	cmp	r3, #0
	beq	.L1180
	.loc 1 4188 0
	ldr	r2, .L1295+20
	movw	r3, #4188
	str	r2, [sp]
	movs	r1, #2
	ldr	r2, .L1295+4
	mov	r0, r4
	bl	mbedtls_debug_print_msg
.LVL1533:
	.loc 1 4191 0
	mov	r9, #2
	.loc 1 4190 0
	movs	r1, #21
	.loc 1 4192 0
	mov	r10, #1
	.loc 1 4193 0
	movs	r2, #100
	.loc 1 4192 0
	ldr	r3, [r4, #160]
	.loc 1 4190 0
	str	r1, [r4, #164]
	.loc 1 4191 0
	str	r9, [r4, #168]
	.loc 1 4192 0
	strb	r10, [r3]
	.loc 1 4193 0
	ldr	r3, [r4, #160]
	.loc 1 4195 0
	mov	r0, r4
	.loc 1 4193 0
	strb	r2, [r3, #1]
	.loc 1 4195 0
	bl	mbedtls_ssl_write_record
.LVL1534:
	mov	r5, r0
	cbnz	r0, .L1290
.LVL1535:
.LBB872:
.LBB873:
	.loc 1 4201 0
	ldr	r3, .L1295+24
	mov	r1, r9
	str	r3, [sp]
	ldr	r2, .L1295+4
	movw	r3, #4201
	mov	r0, r4
.LVL1536:
	bl	mbedtls_debug_print_msg
.LVL1537:
.L1211:
.LBE873:
.LBE872:
.LBE871:
.LBE870:
	.loc 1 6911 0
	cmp	r8, #0
	bne	.L1270
	.loc 1 6912 0
	ldr	r5, .L1295+28
	b	.L1177
.L1204:
	.loc 1 6836 0 discriminator 1
	cmp	r1, #1
	beq	.L1206
	.loc 1 6839 0
	ldr	r3, .L1295+32
	mov	r0, r4
	str	r3, [sp]
	ldr	r2, .L1295+4
	movw	r3, #6839
	movs	r1, #1
	bl	mbedtls_debug_print_msg
.LVL1538:
	.loc 1 6846 0
	ldr	r5, .L1295+36
	b	.L1177
.LVL1539:
.L1276:
.LBB875:
.LBB831:
	.loc 1 6563 0
	ldr	r5, .L1295+40
	b	.L1182
.LVL1540:
.L1287:
.LBE831:
.LBE875:
	.loc 1 6938 0
	ldr	r3, .L1295+44
	mov	r0, r4
	str	r3, [sp]
	ldr	r2, .L1295+4
	movw	r3, #6938
	movs	r1, #1
	bl	mbedtls_debug_print_msg
.LVL1541:
	.loc 1 6939 0
	ldr	r5, .L1295+36
	b	.L1177
.LVL1542:
.L1290:
.LBB876:
.LBB874:
	.loc 1 4197 0
	ldr	r3, .L1295+48
	str	r0, [sp, #4]
	str	r3, [sp]
	mov	r1, r10
	mov	r0, r4
.LVL1543:
	movw	r3, #4197
	ldr	r2, .L1295+4
	bl	mbedtls_debug_print_ret
.LVL1544:
	b	.L1177
.LVL1545:
.L1288:
.LBE874:
.LBE876:
.LBB877:
.LBB868:
	.loc 1 6636 0
	movs	r2, #1
.LBB846:
.LBB847:
	.loc 1 6562 0
	ldr	r3, [r4]
.LBE847:
.LBE846:
	.loc 1 6635 0
	str	r0, [r4, #4]
	.loc 1 6636 0
	str	r2, [r4, #8]
.LVL1546:
.LBB863:
.LBB860:
	.loc 1 6562 0
	cmp	r3, #0
	beq	.L1228
	.loc 1 6564 0
	ldr	r2, .L1295+52
	movw	r3, #6564
	str	r2, [sp]
	movs	r1, #2
	ldr	r2, .L1295+4
	mov	r0, r4
.LVL1547:
	bl	mbedtls_debug_print_msg
.LVL1548:
	b	.L1214
.LVL1549:
.L1292:
.LBB848:
.LBB849:
.LBB850:
.LBB851:
	.loc 1 6544 0
	mov	r0, r4
	bl	mbedtls_ssl_handshake_client_step
.LVL1550:
.LBE851:
.LBE850:
	.loc 1 6568 0
	mov	r5, r0
	cbnz	r0, .L1215
.L1214:
.LVL1551:
	.loc 1 6565 0
	ldr	r3, [r4, #4]
	cmp	r3, #16
	beq	.L1291
.LBB854:
.LBB852:
	.loc 1 6537 0
	ldr	r3, [r4]
	cmp	r3, #0
	beq	.L1229
	.loc 1 6542 0
	ldrb	r3, [r3, #112]	@ zero_extendqisi2
	lsls	r3, r3, #31
	bpl	.L1292
	.loc 1 6535 0
	ldr	r5, .L1295+56
.LVL1552:
.L1215:
.LBE852:
.LBE854:
	.loc 1 6572 0
	ldr	r2, .L1295+60
	movw	r3, #6572
	str	r2, [sp]
	movs	r1, #2
	ldr	r2, .L1295+4
	mov	r0, r4
	bl	mbedtls_debug_print_msg
.LVL1553:
.L1213:
.LBE849:
.LBE848:
.LBE860:
.LBE863:
	.loc 1 6640 0
	ldr	r3, .L1295+64
	ldr	r2, .L1295+4
	stm	sp, {r3, r5}
	movs	r1, #1
	movw	r3, #6640
	mov	r0, r4
	bl	mbedtls_debug_print_ret
.LVL1554:
	b	.L1212
.LVL1555:
.L1291:
.LBB864:
.LBB861:
.LBB858:
.LBB856:
	.loc 1 6572 0
	ldr	r2, .L1295+60
	mov	r0, r4
	str	r2, [sp]
	movw	r3, #6572
	ldr	r2, .L1295+4
	movs	r1, #2
	bl	mbedtls_debug_print_msg
.LVL1556:
.LBE856:
.LBE858:
.LBE861:
.LBE864:
.LBB865:
.LBB866:
	.loc 1 6644 0
	ldr	r2, .L1295+68
	movw	r3, #6644
	str	r2, [sp]
	movs	r1, #2
	ldr	r2, .L1295+4
	mov	r0, r4
	bl	mbedtls_debug_print_msg
.LVL1557:
.LBE866:
.LBE865:
.LBE868:
.LBE877:
	b	.L1211
.LVL1558:
.L1289:
	.loc 1 6904 0
	ldr	r3, .L1295+72
	str	r5, [sp, #4]
	str	r3, [sp]
	mov	r0, r4
	movw	r3, #6904
	ldr	r2, .L1295+4
	movs	r1, #1
	bl	mbedtls_debug_print_ret
.LVL1559:
	.loc 1 6905 0
	b	.L1177
.L1286:
	.loc 1 6932 0
	ldr	r3, .L1295+76
	mov	r0, r4
	str	r3, [sp]
	ldr	r2, .L1295+4
	movw	r3, #6932
	movs	r1, #2
	bl	mbedtls_debug_print_msg
.LVL1560:
	.loc 1 6933 0
	ldr	r5, .L1295+28
	b	.L1177
.L1205:
	.loc 1 6826 0
	ldr	r3, .L1295+80
	mov	r0, r4
	str	r3, [sp]
	ldr	r2, .L1295+4
	movw	r3, #6826
	movs	r1, #1
	bl	mbedtls_debug_print_msg
.LVL1561:
	.loc 1 6833 0
	ldr	r5, .L1295+36
	b	.L1177
.LVL1562:
.L1229:
.LBB878:
.LBB869:
.LBB867:
.LBB862:
.LBB859:
.LBB857:
.LBB855:
.LBB853:
	.loc 1 6538 0
	ldr	r5, .L1295+40
	b	.L1215
.LVL1563:
.L1228:
.LBE853:
.LBE855:
.LBE857:
.LBE859:
	.loc 1 6563 0
	ldr	r5, .L1295+40
	b	.L1213
.LVL1564:
.L1209:
.LBE862:
.LBE867:
.LBE869:
.LBE878:
	.loc 1 6883 0
	ldr	r3, .L1295+84
	mov	r0, r4
	str	r3, [sp]
	ldr	r2, .L1295+4
	movw	r3, #6883
	movs	r1, #1
	bl	mbedtls_debug_print_msg
.LVL1565:
	.loc 1 6884 0
	ldr	r5, .L1295+88
	b	.L1177
.L1296:
	.align	2
.L1295:
	.word	.LC146
	.word	.LC2
	.word	.LC139
	.word	.LC108
	.word	.LC149
	.word	.LC85
	.word	.LC87
	.word	-26880
	.word	.LC148
	.word	-30464
	.word	-28928
	.word	.LC152
	.word	.LC86
	.word	.LC137
	.word	-28800
	.word	.LC138
	.word	.LC140
	.word	.LC142
	.word	.LC141
	.word	.LC151
	.word	.LC147
	.word	.LC18
	.word	-27648
	.cfi_endproc
.LFE682:
	.size	mbedtls_ssl_read, .-mbedtls_ssl_read
	.section	.text.mbedtls_ssl_write,"ax",%progbits
	.align	1
	.p2align 2,,3
	.global	mbedtls_ssl_write
	.syntax unified
	.thumb
	.thumb_func
	.fpu softvfp
	.type	mbedtls_ssl_write, %function
mbedtls_ssl_write:
.LFB685:
	.loc 1 7078 0
	.cfi_startproc
	@ args = 0, pretend = 0, frame = 0
	@ frame_needed = 0, uses_anonymous_args = 0
.LVL1566:
	push	{r4, r5, r6, r7, r8, r9, lr}
	.cfi_def_cfa_offset 28
	.cfi_offset 4, -28
	.cfi_offset 5, -24
	.cfi_offset 6, -20
	.cfi_offset 7, -16
	.cfi_offset 8, -12
	.cfi_offset 9, -8
	.cfi_offset 14, -4
	mov	r4, r0
	.loc 1 7081 0
	ldr	r3, .L1383
	.loc 1 7078 0
	sub	sp, sp, #12
	.cfi_def_cfa_offset 40
	.loc 1 7078 0
	mov	r7, r1
	mov	r6, r2
	.loc 1 7081 0
	str	r3, [sp]
	ldr	r2, .L1383+4
.LVL1567:
	movw	r3, #7081
	movs	r1, #2
.LVL1568:
	bl	mbedtls_debug_print_msg
.LVL1569:
	.loc 1 7083 0
	cmp	r4, #0
	beq	.L1326
	.loc 1 7083 0 discriminator 1
	ldr	r5, [r4]
	cmp	r5, #0
	beq	.L1326
.LVL1570:
.LBB905:
.LBB906:
	.loc 1 6711 0
	ldr	r3, [r4, #4]
	cmp	r3, #16
	beq	.L1375
.LVL1571:
.L1299:
.LBE906:
.LBE905:
.LBB911:
.LBB912:
	.loc 1 6564 0
	ldr	r2, .L1383+8
	movw	r3, #6564
	str	r2, [sp]
	movs	r1, #2
	ldr	r2, .L1383+4
	mov	r0, r4
	bl	mbedtls_debug_print_msg
.LVL1572:
	b	.L1306
.LVL1573:
.L1377:
.LBB913:
.LBB914:
.LBB915:
.LBB916:
	.loc 1 6544 0
	mov	r0, r4
	bl	mbedtls_ssl_handshake_client_step
.LVL1574:
.LBE916:
.LBE915:
	.loc 1 6568 0
	mov	r5, r0
	cbnz	r0, .L1307
.L1306:
.LVL1575:
	.loc 1 6565 0
	ldr	r3, [r4, #4]
	cmp	r3, #16
	beq	.L1376
.LBB919:
.LBB917:
	.loc 1 6537 0
	ldr	r3, [r4]
	cmp	r3, #0
	beq	.L1328
	.loc 1 6542 0
	ldrb	r3, [r3, #112]	@ zero_extendqisi2
	lsls	r3, r3, #31
	bpl	.L1377
	.loc 1 6535 0
	ldr	r5, .L1383+12
.LVL1576:
.L1307:
.LBE917:
.LBE919:
	.loc 1 6572 0
	ldr	r2, .L1383+16
	movw	r3, #6572
	str	r2, [sp]
	movs	r1, #2
	ldr	r2, .L1383+4
	mov	r0, r4
	bl	mbedtls_debug_print_msg
.LVL1577:
.L1305:
.LBE914:
.LBE913:
.LBE912:
.LBE911:
	.loc 1 7098 0
	ldr	r3, .L1383+20
	str	r5, [sp, #4]
	str	r3, [sp]
	mov	r0, r4
	movw	r3, #7098
	ldr	r2, .L1383+4
	movs	r1, #1
	bl	mbedtls_debug_print_ret
.LVL1578:
.L1297:
	.loc 1 7112 0
	mov	r0, r5
	add	sp, sp, #12
	.cfi_remember_state
	.cfi_def_cfa_offset 28
	@ sp needed
	pop	{r4, r5, r6, r7, r8, r9, pc}
.LVL1579:
.L1375:
	.cfi_restore_state
.LBB928:
.LBB909:
	.loc 1 6711 0
	ldr	r3, [r4, #8]
	ldrb	r8, [r5, #113]	@ zero_extendqisi2
	cmp	r3, #3
	beq	.L1301
	.loc 1 6712 0
	tst	r8, #32
	beq	.L1301
	.loc 1 6718 0
	add	r9, r5, #96
	mov	r1, r9
	movs	r2, #8
	ldr	r0, [r4, #92]
	bl	memcmp
.LVL1580:
	cmp	r0, #0
	ble	.L1378
.L1302:
.LVL1581:
.LBB907:
.LBB908:
	.loc 1 6724 0
	ldr	r2, .L1383+24
	movw	r3, #6724
	str	r2, [sp]
	movs	r1, #1
	ldr	r2, .L1383+4
	mov	r0, r4
	bl	mbedtls_debug_print_msg
.LVL1582:
	.loc 1 6725 0
	mov	r0, r4
	bl	mbedtls_ssl_renegotiate
.LVL1583:
.LBE908:
.LBE907:
.LBE909:
.LBE928:
	.loc 1 7087 0
	mov	r5, r0
	cmp	r0, #0
	beq	.L1303
	.loc 1 7089 0
	ldr	r3, .L1383+28
	str	r0, [sp, #4]
	str	r3, [sp]
	mov	r0, r4
	movw	r3, #7089
	ldr	r2, .L1383+4
	movs	r1, #1
	bl	mbedtls_debug_print_ret
.LVL1584:
	.loc 1 7112 0
	mov	r0, r5
	add	sp, sp, #12
	.cfi_remember_state
	.cfi_def_cfa_offset 28
	@ sp needed
	pop	{r4, r5, r6, r7, r8, r9, pc}
.LVL1585:
.L1376:
	.cfi_restore_state
.LBB929:
.LBB925:
.LBB923:
.LBB921:
	.loc 1 6572 0
	ldr	r2, .L1383+16
	movw	r3, #6572
	str	r2, [sp]
	movs	r1, #2
	ldr	r2, .L1383+4
	mov	r0, r4
	bl	mbedtls_debug_print_msg
.LVL1586:
.L1373:
	ldr	r5, [r4]
	ldrb	r8, [r5, #113]	@ zero_extendqisi2
.L1301:
.LVL1587:
.LBE921:
.LBE923:
.LBE925:
.LBE929:
.LBB930:
.LBB931:
	.loc 1 7049 0
	tst	r8, #16
	beq	.L1310
	.loc 1 7050 0
	cmp	r6, #1
	bls	.L1310
	.loc 1 7051 0
	ldr	r3, [r4, #20]
	cmp	r3, #1
	ble	.L1379
.L1310:
.LVL1588:
.LBB932:
.LBB933:
.LBB934:
.LBB935:
	.loc 1 6489 0
	ldrh	r3, [r5, #112]
	ldr	r1, .L1383+32
	.loc 1 6494 0
	ldr	r0, [r4, #44]
	.loc 1 6489 0
	ubfx	r3, r3, #7, #3
	ldr	r2, [r1, r3, lsl #2]
.LVL1589:
	.loc 1 6494 0
	cbz	r0, .L1312
	.loc 1 6495 0
	ldrb	r3, [r0, #112]	@ zero_extendqisi2
	ldr	r3, [r1, r3, lsl #2]
	cmp	r2, r3
	it	cs
	movcs	r2, r3
.LVL1590:
.L1312:
.LBE935:
.LBE934:
	.loc 1 7012 0
	ldr	r3, [r4, #172]
	cmp	r6, r2
	it	cs
	movcs	r6, r2
.LVL1591:
	cbz	r3, .L1313
	.loc 1 7014 0
	mov	r0, r4
	bl	mbedtls_ssl_flush_output
.LVL1592:
	mov	r5, r0
	cbnz	r0, .L1380
.L1314:
	.loc 1 7033 0
	mov	r5, r6
.LVL1593:
.L1315:
.LBE933:
.LBE932:
.LBE931:
.LBE930:
	.loc 1 7109 0
	ldr	r3, .L1383+36
	mov	r0, r4
	str	r3, [sp]
	ldr	r2, .L1383+4
	movw	r3, #7109
	movs	r1, #2
	bl	mbedtls_debug_print_msg
.LVL1594:
	.loc 1 7112 0
	mov	r0, r5
	add	sp, sp, #12
	.cfi_remember_state
	.cfi_def_cfa_offset 28
	@ sp needed
	pop	{r4, r5, r6, r7, r8, r9, pc}
.LVL1595:
.L1313:
	.cfi_restore_state
.LBB964:
.LBB960:
.LBB937:
.LBB936:
	.loc 1 7023 0
	movs	r3, #23
	.loc 1 7024 0
	mov	r1, r7
	.loc 1 7023 0
	str	r3, [r4, #164]
	.loc 1 7024 0
	mov	r2, r6
	.loc 1 7022 0
	str	r6, [r4, #168]
	.loc 1 7024 0
	ldr	r0, [r4, #160]
	bl	memcpy
.LVL1596:
	.loc 1 7026 0
	mov	r0, r4
	bl	mbedtls_ssl_write_record
.LVL1597:
	mov	r5, r0
	cmp	r0, #0
	beq	.L1314
	.loc 1 7028 0
	ldr	r3, .L1383+40
	ldr	r2, .L1383+4
	stm	sp, {r3, r5}
	movs	r1, #1
	movw	r3, #7028
	mov	r0, r4
.LVL1598:
	bl	mbedtls_debug_print_ret
.LVL1599:
	b	.L1315
.LVL1600:
.L1380:
	.loc 1 7016 0
	ldr	r3, .L1383+44
	ldr	r2, .L1383+4
	stm	sp, {r3, r5}
	movs	r1, #1
	movw	r3, #7016
	mov	r0, r4
.LVL1601:
	bl	mbedtls_debug_print_ret
.LVL1602:
	b	.L1315
.LVL1603:
.L1379:
.LBE936:
.LBE937:
	.loc 1 7053 0
	ldr	r3, [r4, #64]
.LVL1604:
.LBB938:
.LBB939:
	.loc 2 359 0
	cmn	r3, #80
	beq	.L1310
	.loc 2 359 0
	ldr	r3, [r3, #80]
.LVL1605:
	.loc 2 359 0
	cmp	r3, #0
	beq	.L1310
.LVL1606:
.LBE939:
.LBE938:
	.loc 1 7052 0
	ldrb	r3, [r3, #1]	@ zero_extendqisi2
	cmp	r3, #2
	bne	.L1310
	.loc 1 7059 0
	ldrsb	r3, [r4, #176]
	cbz	r3, .L1371
	ldr	r8, .L1383+32
.L1316:
.LBB940:
.LBB941:
.LBB942:
.LBB943:
	.loc 1 6489 0
	ldrh	r3, [r5, #112]
	.loc 1 6494 0
	ldr	r2, [r4, #44]
	.loc 1 6489 0
	ubfx	r3, r3, #7, #3
	ldr	r3, [r8, r3, lsl #2]
.LBE943:
.LBE942:
.LBE941:
.LBE940:
	.loc 1 7066 0
	subs	r6, r6, #1
.LVL1607:
.LBB949:
.LBB946:
.LBB945:
.LBB944:
	.loc 1 6494 0
	cbz	r2, .L1321
	.loc 1 6495 0
	ldrb	r2, [r2, #112]	@ zero_extendqisi2
	ldr	r2, [r8, r2, lsl #2]
	cmp	r3, r2
	it	cs
	movcs	r3, r2
.LVL1608:
.L1321:
.LBE944:
.LBE945:
	.loc 1 7012 0
	ldr	r2, [r4, #172]
	cmp	r6, r3
	it	cs
	movcs	r6, r3
.LVL1609:
	cmp	r2, #0
	beq	.L1322
	.loc 1 7014 0
	mov	r0, r4
	bl	mbedtls_ssl_flush_output
.LVL1610:
	mov	r5, r0
	cbnz	r0, .L1381
.L1323:
	.loc 1 7033 0
	mov	r5, r6
.LVL1611:
.L1324:
.LBE946:
.LBE949:
	.loc 1 7066 0
	cmp	r5, #0
	ble	.L1315
	.loc 1 7068 0
	movs	r3, #0
	.loc 1 7070 0
	adds	r5, r5, #1
	.loc 1 7068 0
	strb	r3, [r4, #176]
	b	.L1315
.LVL1612:
.L1378:
.LBE960:
.LBE964:
.LBB965:
.LBB910:
	.loc 1 6719 0
	mov	r1, r9
	movs	r2, #8
	ldr	r0, [r4, #144]
	bl	memcmp
.LVL1613:
	.loc 1 6718 0
	cmp	r0, #0
	bgt	.L1302
	b	.L1301
.LVL1614:
.L1371:
.LBE910:
.LBE965:
.LBB966:
.LBB961:
.LBB950:
.LBB951:
.LBB952:
.LBB953:
	.loc 1 6489 0
	ldrh	r3, [r5, #112]
	ldr	r8, .L1383+32
	.loc 1 6494 0
	ldr	r2, [r4, #44]
	.loc 1 6489 0
	ubfx	r3, r3, #7, #3
	ldr	r3, [r8, r3, lsl #2]
.LVL1615:
	.loc 1 6494 0
	cbz	r2, .L1317
	.loc 1 6495 0
	ldrb	r2, [r2, #112]	@ zero_extendqisi2
	ldr	r2, [r8, r2, lsl #2]
	cmp	r3, r2
	it	cs
	movcs	r3, r2
.LVL1616:
.L1317:
.LBE953:
.LBE952:
	.loc 1 7012 0
	ldr	r2, [r4, #172]
	.loc 1 6996 0
	adds	r9, r3, #0
	it	ne
	movne	r9, #1
.LVL1617:
	.loc 1 7012 0
	cmp	r2, #0
	beq	.L1318
	.loc 1 7014 0
	mov	r0, r4
	bl	mbedtls_ssl_flush_output
.LVL1618:
	mov	r5, r0
	cbnz	r0, .L1382
.L1319:
	.loc 1 7033 0
	mov	r5, r9
.LVL1619:
.L1320:
.LBE951:
.LBE950:
	.loc 1 7061 0
	cmp	r5, #0
	ble	.L1315
	.loc 1 7063 0
	movs	r3, #1
	ldr	r5, [r4]
	strb	r3, [r4, #176]
	b	.L1316
.LVL1620:
.L1381:
.LBB956:
.LBB947:
	.loc 1 7016 0
	ldr	r3, .L1383+44
	ldr	r2, .L1383+4
	stm	sp, {r3, r5}
	movs	r1, #1
	movw	r3, #7016
	mov	r0, r4
.LVL1621:
	bl	mbedtls_debug_print_ret
.LVL1622:
	b	.L1324
.LVL1623:
.L1382:
.LBE947:
.LBE956:
.LBB957:
.LBB954:
	ldr	r3, .L1383+44
	ldr	r2, .L1383+4
	stm	sp, {r3, r5}
	movs	r1, #1
	movw	r3, #7016
	mov	r0, r4
.LVL1624:
	bl	mbedtls_debug_print_ret
.LVL1625:
	b	.L1320
.LVL1626:
.L1328:
.LBE954:
.LBE957:
.LBE961:
.LBE966:
.LBB967:
.LBB926:
.LBB924:
.LBB922:
.LBB920:
.LBB918:
	.loc 1 6538 0
	ldr	r5, .L1383+48
	b	.L1307
.LVL1627:
.L1322:
.LBE918:
.LBE920:
.LBE922:
.LBE924:
.LBE926:
.LBE967:
.LBB968:
.LBB962:
.LBB958:
.LBB948:
	.loc 1 7023 0
	movs	r3, #23
	.loc 1 7024 0
	adds	r1, r7, #1
	.loc 1 7023 0
	str	r3, [r4, #164]
	.loc 1 7024 0
	mov	r2, r6
	.loc 1 7022 0
	str	r6, [r4, #168]
	.loc 1 7024 0
	ldr	r0, [r4, #160]
	bl	memcpy
.LVL1628:
	.loc 1 7026 0
	mov	r0, r4
	bl	mbedtls_ssl_write_record
.LVL1629:
	mov	r5, r0
	cmp	r0, #0
	beq	.L1323
	.loc 1 7028 0
	ldr	r3, .L1383+40
	ldr	r2, .L1383+4
	stm	sp, {r3, r5}
	movs	r1, #1
	movw	r3, #7028
	mov	r0, r4
.LVL1630:
	bl	mbedtls_debug_print_ret
.LVL1631:
	b	.L1324
.LVL1632:
.L1326:
.LBE948:
.LBE958:
.LBE962:
.LBE968:
	.loc 1 7084 0
	ldr	r5, .L1383+48
	b	.L1297
.L1384:
	.align	2
.L1383:
	.word	.LC154
	.word	.LC2
	.word	.LC137
	.word	-28800
	.word	.LC138
	.word	.LC140
	.word	.LC144
	.word	.LC145
	.word	.LANCHOR0
	.word	.LC155
	.word	.LC86
	.word	.LC73
	.word	-28928
.LVL1633:
.L1318:
.LBB969:
.LBB963:
.LBB959:
.LBB955:
	.loc 1 7023 0
	movs	r3, #23
	.loc 1 7024 0
	mov	r2, r9
	.loc 1 7023 0
	str	r3, [r4, #164]
	.loc 1 7024 0
	mov	r1, r7
	.loc 1 7022 0
	str	r9, [r4, #168]
	.loc 1 7024 0
	ldr	r0, [r4, #160]
	bl	memcpy
.LVL1634:
	.loc 1 7026 0
	mov	r0, r4
	bl	mbedtls_ssl_write_record
.LVL1635:
	mov	r5, r0
	cmp	r0, #0
	beq	.L1319
	.loc 1 7028 0
	ldr	r3, .L1385
	ldr	r2, .L1385+4
	stm	sp, {r3, r5}
	movs	r1, #1
	movw	r3, #7028
	mov	r0, r4
.LVL1636:
	bl	mbedtls_debug_print_ret
.LVL1637:
	b	.L1320
.LVL1638:
.L1303:
.LBE955:
.LBE959:
.LBE963:
.LBE969:
	.loc 1 7094 0
	ldr	r3, [r4, #4]
	cmp	r3, #16
	beq	.L1373
.LVL1639:
.LBB970:
.LBB927:
	.loc 1 6562 0
	ldr	r3, [r4]
	cmp	r3, #0
	bne	.L1299
	.loc 1 6563 0
	ldr	r5, .L1385+8
	b	.L1305
.L1386:
	.align	2
.L1385:
	.word	.LC86
	.word	.LC2
	.word	-28928
.LBE927:
.LBE970:
	.cfi_endproc
.LFE685:
	.size	mbedtls_ssl_write, .-mbedtls_ssl_write
	.section	.text.mbedtls_ssl_close_notify,"ax",%progbits
	.align	1
	.p2align 2,,3
	.global	mbedtls_ssl_close_notify
	.syntax unified
	.thumb
	.thumb_func
	.fpu softvfp
	.type	mbedtls_ssl_close_notify, %function
mbedtls_ssl_close_notify:
.LFB686:
	.loc 1 7118 0
	.cfi_startproc
	@ args = 0, pretend = 0, frame = 0
	@ frame_needed = 0, uses_anonymous_args = 0
.LVL1640:
	push	{r4, r5, r6, r7, lr}
	.cfi_def_cfa_offset 20
	.cfi_offset 4, -20
	.cfi_offset 5, -16
	.cfi_offset 6, -12
	.cfi_offset 7, -8
	.cfi_offset 14, -4
	sub	sp, sp, #12
	.cfi_def_cfa_offset 32
	.loc 1 7121 0
	cmp	r0, #0
	beq	.L1394
	.loc 1 7121 0 discriminator 1
	ldr	r3, [r0]
	mov	r4, r0
	cmp	r3, #0
	beq	.L1394
	.loc 1 7124 0
	ldr	r2, .L1400
	movw	r3, #7124
	str	r2, [sp]
	movs	r1, #2
	ldr	r2, .L1400+4
	bl	mbedtls_debug_print_msg
.LVL1641:
	.loc 1 7126 0
	ldr	r5, [r4, #172]
	cmp	r5, #0
	bne	.L1397
	.loc 1 7129 0
	ldr	r3, [r4, #4]
	cmp	r3, #16
	beq	.L1398
.L1390:
	.loc 1 7140 0
	ldr	r3, .L1400+8
	mov	r0, r4
	str	r3, [sp]
	ldr	r2, .L1400+4
	movw	r3, #7140
	movs	r1, #2
	bl	mbedtls_debug_print_msg
.LVL1642:
	.loc 1 7142 0
	movs	r5, #0
.LVL1643:
.L1387:
	.loc 1 7143 0
	mov	r0, r5
	add	sp, sp, #12
	.cfi_remember_state
	.cfi_def_cfa_offset 20
	@ sp needed
	pop	{r4, r5, r6, r7, pc}
.LVL1644:
.L1398:
	.cfi_restore_state
.LBB975:
.LBB976:
	.loc 1 4185 0
	ldr	r3, [r4]
	cmp	r3, #0
	beq	.L1395
	.loc 1 4188 0
	ldr	r2, .L1400+12
	movw	r3, #4188
	str	r2, [sp]
	movs	r1, #2
	ldr	r2, .L1400+4
	mov	r0, r4
	bl	mbedtls_debug_print_msg
.LVL1645:
	.loc 1 4191 0
	movs	r6, #2
	.loc 1 4190 0
	movs	r2, #21
	.loc 1 4192 0
	movs	r7, #1
	ldr	r3, [r4, #160]
	.loc 1 4190 0
	str	r2, [r4, #164]
	.loc 1 4191 0
	str	r6, [r4, #168]
	.loc 1 4192 0
	strb	r7, [r3]
	.loc 1 4193 0
	ldr	r3, [r4, #160]
	.loc 1 4195 0
	mov	r0, r4
	.loc 1 4193 0
	strb	r5, [r3, #1]
	.loc 1 4195 0
	bl	mbedtls_ssl_write_record
.LVL1646:
	mov	r5, r0
	cbnz	r0, .L1399
.LVL1647:
.LBB977:
.LBB978:
	.loc 1 4201 0
	ldr	r3, .L1400+16
	mov	r1, r6
	str	r3, [sp]
	ldr	r2, .L1400+4
	movw	r3, #4201
	mov	r0, r4
.LVL1648:
	bl	mbedtls_debug_print_msg
.LVL1649:
	b	.L1390
.L1397:
.LBE978:
.LBE977:
.LBE976:
.LBE975:
	.loc 1 7127 0
	mov	r0, r4
	.loc 1 7143 0
	add	sp, sp, #12
	.cfi_remember_state
	.cfi_def_cfa_offset 20
	@ sp needed
	pop	{r4, r5, r6, r7, lr}
	.cfi_restore 14
	.cfi_restore 7
	.cfi_restore 6
	.cfi_restore 5
	.cfi_restore 4
	.cfi_def_cfa_offset 0
.LVL1650:
	.loc 1 7127 0
	b	mbedtls_ssl_flush_output
.LVL1651:
.L1399:
	.cfi_restore_state
.LBB981:
.LBB979:
	.loc 1 4197 0
	ldr	r3, .L1400+20
	str	r0, [sp, #4]
	str	r3, [sp]
	mov	r1, r7
	movw	r3, #4197
	ldr	r2, .L1400+4
	mov	r0, r4
.LVL1652:
	bl	mbedtls_debug_print_ret
.LVL1653:
.L1391:
.LBE979:
.LBE981:
	.loc 1 7135 0
	ldr	r3, .L1400+24
	str	r5, [sp, #4]
	str	r3, [sp]
	mov	r0, r4
	movw	r3, #7135
	ldr	r2, .L1400+4
	movs	r1, #1
	bl	mbedtls_debug_print_ret
.LVL1654:
	.loc 1 7136 0
	b	.L1387
.LVL1655:
.L1394:
	.loc 1 7122 0
	ldr	r5, .L1400+28
	b	.L1387
.LVL1656:
.L1395:
.LBB982:
.LBB980:
	.loc 1 4186 0
	ldr	r5, .L1400+28
	b	.L1391
.L1401:
	.align	2
.L1400:
	.word	.LC156
	.word	.LC2
	.word	.LC157
	.word	.LC85
	.word	.LC87
	.word	.LC86
	.word	.LC158
	.word	-28928
.LBE980:
.LBE982:
	.cfi_endproc
.LFE686:
	.size	mbedtls_ssl_close_notify, .-mbedtls_ssl_close_notify
	.section	.text.mbedtls_ssl_transform_free,"ax",%progbits
	.align	1
	.p2align 2,,3
	.global	mbedtls_ssl_transform_free
	.syntax unified
	.thumb
	.thumb_func
	.fpu softvfp
	.type	mbedtls_ssl_transform_free, %function
mbedtls_ssl_transform_free:
.LFB687:
	.loc 1 7146 0
	.cfi_startproc
	@ args = 0, pretend = 0, frame = 0
	@ frame_needed = 0, uses_anonymous_args = 0
.LVL1657:
	.loc 1 7147 0
