	.arch armv8-m.main
	.arch_extension dsp
	.eabi_attribute 20, 1
	.eabi_attribute 21, 1
	.eabi_attribute 23, 3
	.eabi_attribute 24, 1
	.eabi_attribute 25, 1
	.eabi_attribute 26, 1
	.eabi_attribute 30, 2
	.eabi_attribute 34, 1
	.eabi_attribute 18, 4
	.file	"ssl_ticket.c"
	.text
.Ltext0:
	.cfi_sections	.debug_frame
	.section	.text.mbedtls_ssl_ticket_init,"ax",%progbits
	.align	1
	.p2align 2,,3
	.global	mbedtls_ssl_ticket_init
	.syntax unified
	.thumb
	.thumb_func
	.fpu softvfp
	.type	mbedtls_ssl_ticket_init, %function
mbedtls_ssl_ticket_init:
.LFB11:
	.file 1 "../../../component/common/network/ssl/mbedtls-2.4.0/library/ssl_ticket.c"
	.loc 1 51 0
	.cfi_startproc
	@ args = 0, pretend = 0, frame = 0
	@ frame_needed = 0, uses_anonymous_args = 0
	@ link register save eliminated.
.LVL0:
	.loc 1 52 0
	movs	r2, #160
	movs	r1, #0
	b	memset
.LVL1:
	.cfi_endproc
.LFE11:
	.size	mbedtls_ssl_ticket_init, .-mbedtls_ssl_ticket_init
	.section	.text.mbedtls_ssl_ticket_setup,"ax",%progbits
	.align	1
	.p2align 2,,3
	.global	mbedtls_ssl_ticket_setup
	.syntax unified
	.thumb
	.thumb_func
	.fpu softvfp
	.type	mbedtls_ssl_ticket_setup, %function
mbedtls_ssl_ticket_setup:
.LFB14:
	.loc 1 126 0
	.cfi_startproc
	@ args = 4, pretend = 0, frame = 32
	@ frame_needed = 0, uses_anonymous_args = 0
.LVL2:
	push	{r4, r5, r6, r7, lr}
	.cfi_def_cfa_offset 20
	.cfi_offset 4, -20
	.cfi_offset 5, -16
	.cfi_offset 6, -12
	.cfi_offset 7, -8
	.cfi_offset 14, -4
	mov	r4, r0
	sub	sp, sp, #36
	.cfi_def_cfa_offset 56
	.loc 1 126 0
	ldr	r5, [sp, #56]
	.loc 1 130 0
	str	r1, [r0, #152]
	.loc 1 131 0
	str	r2, [r0, #156]
	.loc 1 135 0
	mov	r0, r3
.LVL3:
	.loc 1 133 0
	str	r5, [r4, #148]
	.loc 1 135 0
	bl	mbedtls_cipher_info_from_type
.LVL4:
	.loc 1 136 0
	cmp	r0, #0
	beq	.L13
	.loc 1 139 0
	ldrb	r3, [r0, #1]	@ zero_extendqisi2
	mov	r5, r0
	cmp	r3, #6
	beq	.L4
	.loc 1 139 0 is_stmt 0 discriminator 1
	cmp	r3, #8
	bne	.L13
.L4:
	.loc 1 145 0 is_stmt 1
	ldr	r3, [r5, #4]
	cmp	r3, #256
	bhi	.L13
	.loc 1 148 0
	add	r6, r4, #8
	mov	r0, r6
.LVL5:
	mov	r1, r5
	bl	mbedtls_cipher_setup
.LVL6:
	cbz	r0, .L23
.LVL7:
.L2:
	.loc 1 161 0
	add	sp, sp, #36
	.cfi_remember_state
	.cfi_def_cfa_offset 20
	@ sp needed
	pop	{r4, r5, r6, r7, pc}
.LVL8:
.L23:
	.cfi_restore_state
	.loc 1 149 0 discriminator 1
	add	r7, r4, #80
	.loc 1 148 0 discriminator 1
	mov	r1, r5
	mov	r0, r7
.LVL9:
	bl	mbedtls_cipher_setup
.LVL10:
	cmp	r0, #0
	bne	.L2
.LVL11:
.LBB26:
.LBB27:
	.loc 1 75 0
	ldr	r3, [r4, #152]
	movs	r2, #4
	mov	r1, r4
	ldr	r0, [r4, #156]
.LVL12:
	blx	r3
.LVL13:
	cmp	r0, #0
	bne	.L2
	.loc 1 78 0
	mov	r1, sp
	ldr	r3, [r4, #152]
	movs	r2, #32
	ldr	r0, [r4, #156]
.LVL14:
	blx	r3
.LVL15:
	cmp	r0, #0
	bne	.L2
.LVL16:
.LBB28:
.LBB29:
	.file 2 "../../../component/common/network/ssl/mbedtls-2.4.0/include/mbedtls/cipher.h"
	.loc 2 427 0
	ldr	r2, [r4, #8]
	.loc 2 427 0
	cbz	r2, .L6
	.loc 2 430 0
	ldr	r2, [r2, #4]
.L6:
.LVL17:
.LBE29:
.LBE28:
	.loc 1 82 0
	movs	r3, #1
	mov	r0, r6
.LVL18:
	mov	r1, sp
	bl	mbedtls_cipher_setkey
.LVL19:
.LBB30:
.LBB31:
	.loc 1 44 0
	mov	r3, sp
	movs	r2, #0
.LVL20:
.L7:
	strb	r2, [r3]
	add	r1, sp, #32
	adds	r3, r3, #1
.LVL21:
	cmp	r3, r1
	bne	.L7
.LVL22:
.LBE31:
.LBE30:
.LBE27:
.LBE26:
	.loc 1 154 0
	cmp	r0, #0
	bne	.L2
.LVL23:
.LBB32:
.LBB33:
	.loc 1 75 0
	ldr	r3, [r4, #152]
	movs	r2, #4
	add	r1, r4, #72
	ldr	r0, [r4, #156]
	blx	r3
.LVL24:
	cmp	r0, #0
	bne	.L2
	.loc 1 78 0
	ldr	r3, [r4, #152]
	movs	r2, #32
	mov	r1, sp
	ldr	r0, [r4, #156]
.LVL25:
	blx	r3
.LVL26:
	cmp	r0, #0
	bne	.L2
.LVL27:
.LBB34:
.LBB35:
	.loc 2 427 0
	ldr	r3, [r4, #80]
	.loc 2 427 0
	cbz	r3, .L15
	.loc 2 430 0
	ldr	r2, [r3, #4]
.L9:
.LVL28:
.LBE35:
.LBE34:
	.loc 1 82 0
	movs	r3, #1
	mov	r0, r7
.LVL29:
	mov	r1, sp
	bl	mbedtls_cipher_setkey
.LVL30:
.LBB37:
.LBB38:
	.loc 1 44 0
	mov	r3, sp
	movs	r2, #0
.LVL31:
.L10:
	strb	r2, [r3]
	add	r1, sp, #32
	adds	r3, r3, #1
.LVL32:
	cmp	r3, r1
	bne	.L10
	b	.L2
.LVL33:
.L13:
.LBE38:
.LBE37:
.LBE33:
.LBE32:
	.loc 1 137 0
	ldr	r0, .L24
.LVL34:
	.loc 1 161 0
	add	sp, sp, #36
	.cfi_remember_state
	.cfi_def_cfa_offset 20
	@ sp needed
	pop	{r4, r5, r6, r7, pc}
.LVL35:
.L15:
	.cfi_restore_state
.LBB41:
.LBB40:
.LBB39:
.LBB36:
	.loc 2 427 0
	mov	r2, r0
	b	.L9
.L25:
	.align	2
.L24:
	.word	-28928
.LBE36:
.LBE39:
.LBE40:
.LBE41:
	.cfi_endproc
.LFE14:
	.size	mbedtls_ssl_ticket_setup, .-mbedtls_ssl_ticket_setup
	.section	.text.mbedtls_ssl_ticket_write,"ax",%progbits
	.align	1
	.p2align 2,,3
	.global	mbedtls_ssl_ticket_write
	.syntax unified
	.thumb
	.thumb_func
	.fpu softvfp
	.type	mbedtls_ssl_ticket_write, %function
mbedtls_ssl_ticket_write:
.LFB17:
	.loc 1 297 0
	.cfi_startproc
	@ args = 8, pretend = 0, frame = 8
	@ frame_needed = 0, uses_anonymous_args = 0
.LVL36:
	push	{r4, r5, r6, r7, r8, r9, r10, fp, lr}
	.cfi_def_cfa_offset 36
	.cfi_offset 4, -36
	.cfi_offset 5, -32
	.cfi_offset 6, -28
	.cfi_offset 7, -24
	.cfi_offset 8, -20
	.cfi_offset 9, -16
	.cfi_offset 10, -12
	.cfi_offset 11, -8
	.cfi_offset 14, -4
	.loc 1 308 0
	movs	r4, #0
	.loc 1 297 0
	sub	sp, sp, #44
	.cfi_def_cfa_offset 80
	.loc 1 308 0
	ldr	r5, [sp, #80]
	str	r4, [r5]
	.loc 1 310 0
	cmp	r0, #0
	beq	.L33
	.loc 1 310 0 discriminator 1
	ldr	r4, [r0, #152]
	cmp	r4, #0
	beq	.L33
	.loc 1 315 0
	subs	r4, r3, r2
	cmp	r4, #33
	ble	.L29
.LVL37:
	mov	r4, r0
	mov	r5, r2
	.loc 1 326 0
	ldrb	r0, [r0, #144]	@ zero_extendqisi2
.LVL38:
	add	r9, r2, #4
.LVL39:
	mov	r7, r3
	.loc 1 328 0
	ldr	r2, [sp, #84]
.LVL40:
	ldr	r3, [r4, #148]
.LVL41:
	add	r0, r0, r0, lsl #3
.LVL42:
	str	r3, [r2]
.LVL43:
	lsl	r10, r0, #3
	.loc 1 330 0
	ldr	r3, [r4, r10]	@ unaligned
	mov	r8, r1
	str	r3, [r5]	@ unaligned
	.loc 1 332 0
	movs	r2, #12
	ldr	r3, [r4, #152]
	ldr	r0, [r4, #156]
	mov	r1, r9
.LVL44:
	blx	r3
.LVL45:
	mov	r6, r0
	cbz	r0, .L40
.LVL46:
.L26:
	.loc 1 368 0
	mov	r0, r6
	add	sp, sp, #44
	.cfi_remember_state
	.cfi_def_cfa_offset 36
	@ sp needed
	pop	{r4, r5, r6, r7, r8, r9, r10, fp, pc}
.LVL47:
.L40:
	.cfi_restore_state
	.loc 1 304 0
	add	fp, r5, #18
	.loc 1 337 0
	sub	r7, r7, fp
.LVL48:
.LBB44:
.LBB45:
	.loc 1 179 0
	cmp	r7, #123
	bls	.L29
	.loc 1 182 0
	movs	r2, #124
	mov	r1, r8
	mov	r0, fp
.LVL49:
	bl	memcpy
.LVL50:
	.loc 1 187 0
	ldr	r1, [r8, #92]
	.loc 1 184 0
	sub	r2, r7, #124
.LVL51:
	.loc 1 187 0
	cmp	r1, #0
	beq	.L34
	.loc 1 190 0
	ldr	r7, [r1, #4]
.LVL52:
	adds	r1, r7, #3
.LVL53:
.L30:
	.loc 1 192 0
	cmp	r2, r1
	bcc	.L29
.LVL54:
	.loc 1 196 0
	lsrs	r2, r7, #8
.LVL55:
	.loc 1 195 0
	lsrs	r1, r7, #16
	.loc 1 197 0
	strb	r7, [r5, #144]
	.loc 1 195 0
	strb	r1, [r5, #142]
.LVL56:
	.loc 1 196 0
	strb	r2, [r5, #143]
	.loc 1 199 0
	ldr	r2, [r8, #92]
	.loc 1 197 0
	add	r8, r5, #145
.LVL57:
	.loc 1 199 0
	cbz	r2, .L31
	.loc 1 200 0
	ldr	r1, [r2, #8]
	mov	r0, r8
	mov	r2, r7
	bl	memcpy
.LVL58:
.L31:
	.loc 1 202 0
	add	r2, r8, r7
.LVL59:
	.loc 1 205 0
	sub	r7, r2, fp
.LVL60:
.LBE45:
.LBE44:
	.loc 1 337 0
	cmp	r7, #65536
	bcs	.L26
	.loc 1 347 0
	mov	lr, #16
	movs	r6, #18
	add	r0, r10, #8
	.loc 1 343 0
	strb	r7, [r5, #17]
.LVL61:
	.loc 1 347 0
	add	r0, r0, r4
	str	r2, [sp, #20]
	add	r4, sp, #36
.LVL62:
	.loc 1 342 0
	lsrs	r2, r7, #8
.LVL63:
	.loc 1 347 0
	str	r6, [sp]
	str	fp, [sp, #12]
	str	r7, [sp, #8]
	str	fp, [sp, #4]
	str	lr, [sp, #24]
	mov	r1, r9
	.loc 1 342 0
	strb	r2, [r5, #16]
.LVL64:
	.loc 1 347 0
	mov	r3, r5
	str	r4, [sp, #16]
	movs	r2, #12
	bl	mbedtls_cipher_auth_encrypt
.LVL65:
	mov	r6, r0
	cmp	r0, #0
	bne	.L26
	.loc 1 353 0
	ldr	r3, [sp, #36]
	cmp	r3, r7
	bne	.L35
	.loc 1 359 0
	ldr	r2, [sp, #80]
	adds	r3, r3, #34
	str	r3, [r2]
	b	.L26
.LVL66:
.L29:
	.loc 1 316 0
	ldr	r6, .L41
	.loc 1 368 0
	mov	r0, r6
	add	sp, sp, #44
	.cfi_remember_state
	.cfi_def_cfa_offset 36
	@ sp needed
	pop	{r4, r5, r6, r7, r8, r9, r10, fp, pc}
.LVL67:
.L35:
	.cfi_restore_state
	.loc 1 355 0
	ldr	r6, .L41+4
.LVL68:
	b	.L26
.LVL69:
.L34:
.LBB47:
.LBB46:
	.loc 1 187 0
	movs	r1, #3
	.loc 1 188 0
	mov	r7, r6
.LVL70:
	b	.L30
.LVL71:
.L33:
.LBE46:
.LBE47:
	.loc 1 311 0
	ldr	r6, .L41+8
	b	.L26
.L42:
	.align	2
.L41:
	.word	-27136
	.word	-27648
	.word	-28928
	.cfi_endproc
.LFE17:
	.size	mbedtls_ssl_ticket_write, .-mbedtls_ssl_ticket_write
	.section	.text.mbedtls_ssl_ticket_parse,"ax",%progbits
	.align	1
	.p2align 2,,3
	.global	mbedtls_ssl_ticket_parse
	.syntax unified
	.thumb
	.thumb_func
	.fpu softvfp
	.type	mbedtls_ssl_ticket_parse, %function
mbedtls_ssl_ticket_parse:
.LFB19:
	.loc 1 399 0
	.cfi_startproc
	@ args = 0, pretend = 0, frame = 8
	@ frame_needed = 0, uses_anonymous_args = 0
.LVL72:
	push	{r4, r5, r6, r7, r8, r9, r10, lr}
	.cfi_def_cfa_offset 32
	.cfi_offset 4, -32
	.cfi_offset 5, -28
	.cfi_offset 6, -24
	.cfi_offset 7, -20
	.cfi_offset 8, -16
	.cfi_offset 9, -12
	.cfi_offset 10, -8
	.cfi_offset 14, -4
	sub	sp, sp, #40
	.cfi_def_cfa_offset 72
	.loc 1 410 0
	cmp	r0, #0
	beq	.L46
	.loc 1 410 0 discriminator 1
	ldr	r4, [r0, #152]
	cmp	r4, #0
	beq	.L46
	.loc 1 414 0
	cmp	r3, #33
	bls	.L46
.LVL73:
	.loc 1 425 0
	ldrb	r4, [r2, #16]	@ zero_extendqisi2
	ldrb	r6, [r2, #17]	@ zero_extendqisi2
	add	r7, r2, #18
.LVL74:
	orr	r6, r6, r4, lsl #8
.LVL75:
	.loc 1 428 0
	add	r4, r6, #34
	cmp	r3, r4
	.loc 1 426 0
	add	r8, r7, r6
.LVL76:
	.loc 1 428 0
	bne	.L46
.LVL77:
	mov	r5, r2
	add	r9, r2, #4
.LVL78:
	mov	r4, r0
	mov	r10, r1
.LBB53:
.LBB54:
	.loc 1 380 0
	movs	r2, #4
.LVL79:
	mov	r1, r0
.LVL80:
	mov	r0, r5
.LVL81:
	bl	memcmp
.LVL82:
	cbz	r0, .L51
.LVL83:
	movs	r2, #4
	add	r1, r4, #72
	mov	r0, r5
	bl	memcmp
.LVL84:
	cmp	r0, #0
	beq	.L63
.LBE54:
.LBE53:
	.loc 1 439 0
	ldr	r4, .L64
.LVL85:
.L43:
	.loc 1 484 0
	mov	r0, r4
	add	sp, sp, #40
	.cfi_remember_state
	.cfi_def_cfa_offset 32
	@ sp needed
	pop	{r4, r5, r6, r7, r8, r9, r10, pc}
.LVL86:
.L48:
	.cfi_restore_state
	.loc 1 453 0
	ldr	r3, [sp, #36]
	cmp	r6, r3
	bne	.L54
.LVL87:
.LBB57:
.LBB58:
	.loc 1 222 0
	add	r3, r5, #142
	cmp	r8, r3
	bcc	.L46
	.loc 1 225 0
	mov	r1, r7
	movs	r2, #124
	mov	r0, r10
.LVL88:
	.loc 1 229 0
	add	r6, r5, #145
.LVL89:
	.loc 1 225 0
	bl	memcpy
.LVL90:
	.loc 1 229 0
	cmp	r8, r6
	bcc	.L46
	.loc 1 232 0
	ldrb	r2, [r5, #143]	@ zero_extendqisi2
	ldrb	r3, [r5, #142]	@ zero_extendqisi2
	lsls	r2, r2, #8
	ldrb	r5, [r5, #144]	@ zero_extendqisi2
.LVL91:
	orr	r2, r2, r3, lsl #16
.LVL92:
	.loc 1 235 0
	orrs	r5, r2, r5
.LVL93:
	bne	.L49
	.loc 1 237 0
	mov	r7, r6
.LVL94:
	str	r4, [r10, #92]
.LVL95:
.L50:
	.loc 1 266 0
	cmp	r8, r7
	beq	.L43
.LVL96:
.L46:
.LBE58:
.LBE57:
	.loc 1 411 0
	ldr	r4, .L64+4
	.loc 1 484 0
	mov	r0, r4
	add	sp, sp, #40
	.cfi_remember_state
	.cfi_def_cfa_offset 32
	@ sp needed
	pop	{r4, r5, r6, r7, r8, r9, r10, pc}
.LVL97:
.L51:
	.cfi_restore_state
.LBB63:
.LBB55:
	.loc 1 380 0
	movs	r0, #8
.LVL98:
.L47:
.LBE55:
.LBE63:
	.loc 1 444 0
	mov	ip, #16
	movs	r2, #18
	add	r3, sp, #36
	add	r0, r0, r4
	str	r2, [sp]
	str	r3, [sp, #16]
	str	r8, [sp, #20]
	str	r7, [sp, #12]
	str	r6, [sp, #8]
	str	r7, [sp, #4]
	mov	r1, r9
	str	ip, [sp, #24]
	mov	r3, r5
	movs	r2, #12
	bl	mbedtls_cipher_auth_decrypt
.LVL99:
	mov	r4, r0
.LVL100:
	cmp	r0, #0
	beq	.L48
	.loc 1 449 0
	ldr	r3, .L64+8
	cmn	r0, #25344
	it	eq
	moveq	r4, r3
	.loc 1 484 0
	mov	r0, r4
.LVL101:
	add	sp, sp, #40
	.cfi_remember_state
	.cfi_def_cfa_offset 32
	@ sp needed
	pop	{r4, r5, r6, r7, r8, r9, r10, pc}
.LVL102:
.L49:
	.cfi_restore_state
.LBB64:
.LBB61:
.LBB59:
	.loc 1 243 0
	adds	r7, r6, r5
.LVL103:
	cmp	r8, r7
	bcc	.L46
	.loc 1 246 0
	ldr	r3, .L64+12
	mov	r1, #308
	ldr	r3, [r3]
	movs	r0, #1
	blx	r3
.LVL104:
	str	r0, [r10, #92]
	.loc 1 248 0
	cbz	r0, .L55
	.loc 1 251 0
	bl	mbedtls_x509_crt_init
.LVL105:
	.loc 1 253 0
	mov	r2, r5
	mov	r1, r6
	ldr	r0, [r10, #92]
	bl	mbedtls_x509_crt_parse_der
.LVL106:
	mov	r5, r0
.LVL107:
	cmp	r0, #0
	beq	.L50
	.loc 1 256 0
	ldr	r0, [r10, #92]
.LVL108:
	bl	mbedtls_x509_crt_free
.LVL109:
	.loc 1 257 0
	ldr	r3, .L64+16
	ldr	r0, [r10, #92]
	ldr	r3, [r3]
	blx	r3
.LVL110:
	.loc 1 258 0
	str	r4, [r10, #92]
	mov	r4, r5
.LVL111:
	b	.L43
.LVL112:
.L54:
.LBE59:
.LBE61:
.LBE64:
	.loc 1 455 0
	ldr	r4, .L64+20
	b	.L43
.LVL113:
.L63:
.LBB65:
.LBB56:
	.loc 1 380 0
	movs	r0, #80
	b	.L47
.LVL114:
.L55:
.LBE56:
.LBE65:
.LBB66:
.LBB62:
.LBB60:
	.loc 1 249 0
	ldr	r4, .L64+24
.LVL115:
	b	.L43
.L65:
	.align	2
.L64:
	.word	-28032
	.word	-28928
	.word	-29056
	.word	mbedtls_calloc
	.word	mbedtls_free
	.word	-27648
	.word	-32512
.LBE60:
.LBE62:
.LBE66:
	.cfi_endproc
.LFE19:
	.size	mbedtls_ssl_ticket_parse, .-mbedtls_ssl_ticket_parse
	.section	.text.mbedtls_ssl_ticket_free,"ax",%progbits
	.align	1
	.p2align 2,,3
	.global	mbedtls_ssl_ticket_free
	.syntax unified
	.thumb
	.thumb_func
	.fpu softvfp
	.type	mbedtls_ssl_ticket_free, %function
mbedtls_ssl_ticket_free:
.LFB20:
	.loc 1 490 0
	.cfi_startproc
	@ args = 0, pretend = 0, frame = 0
	@ frame_needed = 0, uses_anonymous_args = 0
.LVL116:
	push	{r4, lr}
	.cfi_def_cfa_offset 8
	.cfi_offset 4, -8
	.cfi_offset 14, -4
	.loc 1 490 0
	mov	r4, r0
	.loc 1 491 0
	adds	r0, r0, #8
.LVL117:
	bl	mbedtls_cipher_free
.LVL118:
	.loc 1 492 0
	add	r0, r4, #80
	bl	mbedtls_cipher_free
.LVL119:
.LBB67:
.LBB68:
	.loc 1 44 0
	mov	r3, r4
	movs	r1, #0
	add	r2, r4, #160
.LVL120:
.L67:
	strb	r1, [r3]
	adds	r3, r3, #1
.LVL121:
	cmp	r3, r2
	bne	.L67
.LBE68:
.LBE67:
	.loc 1 499 0
	pop	{r4, pc}
	.cfi_endproc
.LFE20:
	.size	mbedtls_ssl_ticket_free, .-mbedtls_ssl_ticket_free
	.text
.Letext0:
	.file 3 "/cygdrive/d/PUYA/HE3/sdk-ameba-v7.1d/tools/arm-none-eabi-gcc/asdk/cygwin/newlib/arm-none-eabi/include/machine/_default_types.h"
	.file 4 "/cygdrive/d/PUYA/HE3/sdk-ameba-v7.1d/tools/arm-none-eabi-gcc/asdk/cygwin/newlib/lib/gcc/arm-none-eabi/6.5.0/include/stddef.h"
	.file 5 "/cygdrive/d/PUYA/HE3/sdk-ameba-v7.1d/tools/arm-none-eabi-gcc/asdk/cygwin/newlib/arm-none-eabi/include/sys/lock.h"
	.file 6 "/cygdrive/d/PUYA/HE3/sdk-ameba-v7.1d/tools/arm-none-eabi-gcc/asdk/cygwin/newlib/arm-none-eabi/include/sys/_types.h"
	.file 7 "/cygdrive/d/PUYA/HE3/sdk-ameba-v7.1d/tools/arm-none-eabi-gcc/asdk/cygwin/newlib/arm-none-eabi/include/sys/reent.h"
	.file 8 "/cygdrive/d/PUYA/HE3/sdk-ameba-v7.1d/tools/arm-none-eabi-gcc/asdk/cygwin/newlib/arm-none-eabi/include/sys/_stdint.h"
	.file 9 "/cygdrive/d/PUYA/HE3/sdk-ameba-v7.1d/tools/arm-none-eabi-gcc/asdk/cygwin/newlib/arm-none-eabi/include/time.h"
	.file 10 "../../../component/common/network/ssl/ssl_ram_map/rom/rom_ssl_ram_map.h"
	.file 11 "/cygdrive/d/PUYA/HE3/sdk-ameba-v7.1d/tools/arm-none-eabi-gcc/asdk/cygwin/newlib/arm-none-eabi/include/stdlib.h"
	.file 12 "../../../component/common/network/ssl/mbedtls-2.4.0/include/mbedtls/platform.h"
	.file 13 "../../../component/common/network/ssl/mbedtls-2.4.0/include/mbedtls/md.h"
	.file 14 "../../../component/common/network/ssl/mbedtls-2.4.0/include/mbedtls/pk.h"
	.file 15 "../../../component/common/network/ssl/mbedtls-2.4.0/include/mbedtls/asn1.h"
	.file 16 "../../../component/common/network/ssl/mbedtls-2.4.0/include/mbedtls/x509.h"
	.file 17 "../../../component/common/network/ssl/mbedtls-2.4.0/include/mbedtls/x509_crt.h"
	.file 18 "../../../component/common/network/ssl/mbedtls-2.4.0/include/mbedtls/ssl.h"
	.file 19 "../../../component/common/network/ssl/mbedtls-2.4.0/include/mbedtls/ssl_ticket.h"
	.file 20 "/cygdrive/d/PUYA/HE3/sdk-ameba-v7.1d/tools/arm-none-eabi-gcc/asdk/cygwin/newlib/arm-none-eabi/include/string.h"