	.arch armv8-m.main
	.arch_extension dsp
	.eabi_attribute 20, 1
	.eabi_attribute 21, 1
	.eabi_attribute 23, 3
	.eabi_attribute 24, 1
	.eabi_attribute 25, 1
	.eabi_attribute 26, 1
	.eabi_attribute 30, 2
	.eabi_attribute 34, 1
	.eabi_attribute 18, 4
	.file	"x509.c"
	.text
.Ltext0:
	.cfi_sections	.debug_frame
	.section	.text.mbedtls_x509_get_serial,"ax",%progbits
	.align	1
	.p2align 2,,3
	.global	mbedtls_x509_get_serial
	.syntax unified
	.thumb
	.thumb_func
	.fpu softvfp
	.type	mbedtls_x509_get_serial, %function
mbedtls_x509_get_serial:
.LFB10:
	.file 1 "../../../component/common/network/ssl/mbedtls-2.4.0/library/x509.c"
	.loc 1 90 0
	.cfi_startproc
	@ args = 0, pretend = 0, frame = 0
	@ frame_needed = 0, uses_anonymous_args = 0
.LVL0:
	.loc 1 93 0
	ldr	r3, [r0]
	.loc 1 90 0
	push	{r4, r5, r6, lr}
	.cfi_def_cfa_offset 16
	.cfi_offset 4, -16
	.cfi_offset 5, -12
	.cfi_offset 6, -8
	.cfi_offset 14, -4
	.loc 1 93 0
	subs	r6, r1, r3
	cmp	r6, #0
	ble	.L4
	.loc 1 97 0
	ldrb	r6, [r3]	@ zero_extendqisi2
	and	r6, r6, #127
	cmp	r6, #2
	bne	.L5
	.loc 1 102 0
	adds	r6, r3, #1
	str	r6, [r0]
	ldrb	r3, [r3]	@ zero_extendqisi2
	mov	r5, r2
	str	r3, [r2], #4
.LVL1:
	mov	r4, r0
	.loc 1 104 0
	bl	mbedtls_asn1_get_len
.LVL2:
	cbnz	r0, .L8
	.loc 1 107 0
	ldr	r3, [r4]
	.loc 1 108 0
	ldr	r2, [r5, #4]
	.loc 1 107 0
	str	r3, [r5, #8]
	.loc 1 108 0
	ldr	r3, [r4]
	add	r3, r3, r2
	str	r3, [r4]
	.loc 1 110 0
	pop	{r4, r5, r6, pc}
.LVL3:
.L8:
	.loc 1 105 0
	sub	r0, r0, #8832
.LVL4:
	pop	{r4, r5, r6, pc}
.LVL5:
.L5:
	.loc 1 99 0
	ldr	r0, .L9
.LVL6:
	.loc 1 111 0
	pop	{r4, r5, r6, pc}
.LVL7:
.L4:
	.loc 1 94 0
	ldr	r0, .L9+4
.LVL8:
	pop	{r4, r5, r6, pc}
.L10:
	.align	2
.L9:
	.word	-8930
	.word	-8928
	.cfi_endproc
.LFE10:
	.size	mbedtls_x509_get_serial, .-mbedtls_x509_get_serial
	.section	.text.mbedtls_x509_get_alg_null,"ax",%progbits
	.align	1
	.p2align 2,,3
	.global	mbedtls_x509_get_alg_null
	.syntax unified
	.thumb
	.thumb_func
	.fpu softvfp
	.type	mbedtls_x509_get_alg_null, %function
mbedtls_x509_get_alg_null:
.LFB11:
	.loc 1 121 0
	.cfi_startproc
	@ args = 0, pretend = 0, frame = 0
	@ frame_needed = 0, uses_anonymous_args = 0
.LVL9:
	push	{r3, lr}
	.cfi_def_cfa_offset 8
	.cfi_offset 3, -8
	.cfi_offset 14, -4
	.loc 1 124 0
	bl	mbedtls_asn1_get_alg_null
.LVL10:
	cbz	r0, .L11
	.loc 1 125 0
	sub	r0, r0, #8960
.LVL11:
.L11:
	.loc 1 128 0
	pop	{r3, pc}
	.cfi_endproc
.LFE11:
	.size	mbedtls_x509_get_alg_null, .-mbedtls_x509_get_alg_null
	.section	.text.mbedtls_x509_get_alg,"ax",%progbits
	.align	1
	.p2align 2,,3
	.global	mbedtls_x509_get_alg
	.syntax unified
	.thumb
	.thumb_func
	.fpu softvfp
	.type	mbedtls_x509_get_alg, %function
mbedtls_x509_get_alg:
.LFB12:
	.loc 1 135 0
	.cfi_startproc
	@ args = 0, pretend = 0, frame = 0
	@ frame_needed = 0, uses_anonymous_args = 0
.LVL12:
	push	{r3, lr}
	.cfi_def_cfa_offset 8
	.cfi_offset 3, -8
	.cfi_offset 14, -4
	.loc 1 138 0
	bl	mbedtls_asn1_get_alg
.LVL13:
	cbz	r0, .L17
	.loc 1 139 0
	sub	r0, r0, #8960
.LVL14:
.L17:
	.loc 1 142 0
	pop	{r3, pc}
	.cfi_endproc
.LFE12:
	.size	mbedtls_x509_get_alg, .-mbedtls_x509_get_alg
	.section	.text.mbedtls_x509_get_name,"ax",%progbits
	.align	1
	.p2align 2,,3
	.global	mbedtls_x509_get_name
	.syntax unified
	.thumb
	.thumb_func
	.fpu softvfp
	.type	mbedtls_x509_get_name, %function
mbedtls_x509_get_name:
.LFB14:
	.loc 1 432 0
	.cfi_startproc
	@ args = 0, pretend = 0, frame = 8
	@ frame_needed = 0, uses_anonymous_args = 0
.LVL15:
	push	{r4, r5, r6, r7, r8, r9, lr}
	.cfi_def_cfa_offset 28
	.cfi_offset 4, -28
	.cfi_offset 5, -24
	.cfi_offset 6, -20
	.cfi_offset 7, -16
	.cfi_offset 8, -12
	.cfi_offset 9, -8
	.cfi_offset 14, -4
	mov	r5, r0
	mov	r8, r1
	mov	r4, r2
.LBB28:
.LBB29:
	.loc 1 388 0
	ldr	r9, .L50+16
.LBE29:
.LBE28:
	.loc 1 460 0
	ldr	r7, .L50
	.loc 1 432 0
	sub	sp, sp, #12
	.cfi_def_cfa_offset 40
.LVL16:
.L37:
	.loc 1 443 0
	movs	r3, #49
	mov	r2, sp
	mov	r1, r8
	mov	r0, r5
	bl	mbedtls_asn1_get_tag
.LVL17:
	cmp	r0, #0
	bne	.L47
	.loc 1 447 0
	ldr	r6, [r5]
	ldr	r3, [sp]
	add	r6, r6, r3
.LVL18:
.L35:
.LBB35:
.LBB30:
	.loc 1 365 0
	movs	r3, #48
	add	r2, sp, #4
	mov	r1, r6
	mov	r0, r5
	bl	mbedtls_asn1_get_tag
.LVL19:
	cbnz	r0, .L45
	.loc 1 369 0
	ldr	r3, [r5]
	subs	r2, r6, r3
	cmp	r2, #0
	ble	.L30
.LVL20:
	.loc 1 374 0
	mov	r2, r4
	ldrb	r1, [r3]	@ zero_extendqisi2
	.loc 1 376 0
	mov	r0, r5
.LVL21:
	.loc 1 374 0
	str	r1, [r2], #4
	.loc 1 376 0
	movs	r3, #6
	mov	r1, r6
	bl	mbedtls_asn1_get_tag
.LVL22:
	cbnz	r0, .L45
	.loc 1 379 0
	ldr	r3, [r5]
	.loc 1 380 0
	ldr	r2, [r4, #4]
	.loc 1 379 0
	str	r3, [r4, #8]
	.loc 1 380 0
	ldr	r1, [r5]
	adds	r3, r1, r2
	.loc 1 382 0
	subs	r0, r6, r3
.LVL23:
	cmp	r0, #0
	.loc 1 380 0
	str	r3, [r5]
	.loc 1 382 0
	ble	.L30
	.loc 1 386 0
	ldrb	r0, [r1, r2]	@ zero_extendqisi2
	.loc 1 388 0
	cmp	r0, #30
	bls	.L48
.L31:
.LVL24:
	.loc 1 390 0
	ldr	r0, .L50+4
.LVL25:
.L23:
.LBE30:
.LBE35:
	.loc 1 481 0
	add	sp, sp, #12
	.cfi_remember_state
	.cfi_def_cfa_offset 28
	@ sp needed
	pop	{r4, r5, r6, r7, r8, r9, pc}
.LVL26:
.L45:
	.cfi_restore_state
.LBB36:
.LBB31:
	.loc 1 397 0
	sub	r0, r0, #9088
.LBE31:
.LBE36:
	.loc 1 451 0
	cmp	r0, #0
	bne	.L23
	ldr	r3, [r5]
	.loc 1 454 0
	cmp	r6, r3
	beq	.L34
.L49:
	.loc 1 458 0
	movs	r0, #1
	.loc 1 460 0
	ldr	r3, [r7]
	.loc 1 458 0
	strb	r0, [r4, #28]
	.loc 1 460 0
	movs	r1, #32
	blx	r3
.LVL27:
	str	r0, [r4, #24]
	.loc 1 462 0
	mov	r4, r0
.LVL28:
	cmp	r0, #0
	bne	.L35
.L36:
	.loc 1 463 0
	ldr	r0, .L50+8
	.loc 1 481 0
	add	sp, sp, #12
	.cfi_remember_state
	.cfi_def_cfa_offset 28
	@ sp needed
	pop	{r4, r5, r6, r7, r8, r9, pc}
.LVL29:
.L48:
	.cfi_restore_state
.LBB37:
.LBB32:
	.loc 1 388 0
	lsr	r0, r9, r0
	lsls	r0, r0, #31
	bpl	.L31
.LVL30:
	.loc 1 394 0
	adds	r3, r3, #1
	str	r3, [r5]
	ldrb	r3, [r1, r2]	@ zero_extendqisi2
	.loc 1 396 0
	mov	r0, r5
	add	r2, r4, #16
	.loc 1 394 0
	str	r3, [r4, #12]
	.loc 1 396 0
	mov	r1, r6
	bl	mbedtls_asn1_get_len
.LVL31:
	cmp	r0, #0
	bne	.L45
	.loc 1 399 0
	ldr	r3, [r5]
	.loc 1 400 0
	ldr	r2, [r4, #16]
	.loc 1 399 0
	str	r3, [r4, #20]
	.loc 1 400 0
	ldr	r3, [r5]
	add	r3, r3, r2
.LBE32:
.LBE37:
	.loc 1 454 0
	cmp	r6, r3
.LBB38:
.LBB33:
	.loc 1 400 0
	str	r3, [r5]
	.loc 1 402 0
	str	r0, [r4, #24]
.LVL32:
.LBE33:
.LBE38:
	.loc 1 454 0
	bne	.L49
.LVL33:
.L34:
	.loc 1 471 0
	cmp	r8, r6
	beq	.L38
	.loc 1 474 0
	ldr	r3, [r7]
	movs	r1, #32
	movs	r0, #1
	blx	r3
.LVL34:
	str	r0, [r4, #24]
	.loc 1 476 0
	mov	r4, r0
.LVL35:
	cmp	r0, #0
	bne	.L37
	b	.L36
.LVL36:
.L30:
.LBB39:
.LBB34:
	.loc 1 370 0
	ldr	r0, .L50+12
.LBE34:
.LBE39:
	.loc 1 481 0
	add	sp, sp, #12
	.cfi_remember_state
	.cfi_def_cfa_offset 28
	@ sp needed
	pop	{r4, r5, r6, r7, r8, r9, pc}
.LVL37:
.L47:
	.cfi_restore_state
	.loc 1 445 0
	sub	r0, r0, #9088
.LVL38:
	b	.L23
.LVL39:
.L38:
	.loc 1 472 0
	movs	r0, #0
	b	.L23
.L51:
	.align	2
.L50:
	.word	mbedtls_calloc
	.word	-9186
	.word	-10368
	.word	-9184
	.word	1347948552
	.cfi_endproc
.LFE14:
	.size	mbedtls_x509_get_name, .-mbedtls_x509_get_name
	.section	.text.mbedtls_x509_get_time,"ax",%progbits
	.align	1
	.p2align 2,,3
	.global	mbedtls_x509_get_time
	.syntax unified
	.thumb
	.thumb_func
	.fpu softvfp
	.type	mbedtls_x509_get_time, %function
mbedtls_x509_get_time:
.LFB17:
	.loc 1 527 0
	.cfi_startproc
	@ args = 0, pretend = 0, frame = 8
	@ frame_needed = 0, uses_anonymous_args = 0
.LVL40:
	push	{r4, r5, r6, r7, r8, r9, lr}
	.cfi_def_cfa_offset 28
	.cfi_offset 4, -28
	.cfi_offset 5, -24
	.cfi_offset 6, -20
	.cfi_offset 7, -16
	.cfi_offset 8, -12
	.cfi_offset 9, -8
	.cfi_offset 14, -4
	.loc 1 532 0
	ldr	r3, [r0]
	.loc 1 527 0
	sub	sp, sp, #12
	.cfi_def_cfa_offset 40
	.loc 1 532 0
	subs	r6, r1, r3
	cmp	r6, #0
	ble	.L78
	mov	r4, r2
	.loc 1 536 0
	ldrb	r2, [r3]	@ zero_extendqisi2
.LVL41:
	mov	r5, r0
	.loc 1 538 0
	cmp	r2, #23
	beq	.L88
	.loc 1 563 0
	cmp	r2, #24
	bne	.L80
	.loc 1 565 0
	adds	r3, r3, #1
	str	r3, [r0]
	.loc 1 566 0
	add	r2, sp, #4
.LVL42:
	bl	mbedtls_asn1_get_len
.LVL43:
	.loc 1 568 0
	cmp	r0, #0
	bne	.L87
.LVL44:
	ldr	r3, [r5]
.LBB68:
.LBB69:
	.loc 1 484 0
	str	r0, [r4]
.LVL45:
	.loc 1 486 0
	ldrb	r2, [r3]	@ zero_extendqisi2
	subs	r2, r2, #48
	cmp	r2, #9
	bhi	.L56
	.loc 1 488 0
	adds	r2, r3, #1
	str	r2, [r5]
	ldrb	r2, [r3]	@ zero_extendqisi2
	subs	r2, r2, #48
	str	r2, [r4]
	.loc 1 486 0
	ldrb	r1, [r3, #1]	@ zero_extendqisi2
	subs	r1, r1, #48
	cmp	r1, #9
	bhi	.L56
	.loc 1 487 0
	add	r2, r2, r2, lsl #2
	lsls	r1, r2, #1
	.loc 1 488 0
	adds	r2, r3, #2
	.loc 1 487 0
	str	r1, [r4]
	.loc 1 488 0
	str	r2, [r5]
	ldrb	r2, [r3, #1]	@ zero_extendqisi2
	subs	r2, r2, #48
	add	r2, r2, r1
	str	r2, [r4]
	.loc 1 486 0
	ldrb	r1, [r3, #2]	@ zero_extendqisi2
	subs	r1, r1, #48
	cmp	r1, #9
	bhi	.L56
	.loc 1 487 0
	add	r2, r2, r2, lsl #2
	lsls	r2, r2, #1
	.loc 1 488 0
	adds	r1, r3, #3
	.loc 1 487 0
	str	r2, [r4]
	.loc 1 488 0
	str	r1, [r5]
	ldrb	r1, [r3, #2]	@ zero_extendqisi2
	subs	r1, r1, #48
	add	r2, r2, r1
	str	r2, [r4]
	.loc 1 486 0
	ldrb	r1, [r3, #3]	@ zero_extendqisi2
	subs	r1, r1, #48
	cmp	r1, #9
	bhi	.L56
	.loc 1 487 0
	add	r2, r2, r2, lsl #2
	lsls	r2, r2, #1
	.loc 1 488 0
	adds	r1, r3, #4
	.loc 1 487 0
	str	r2, [r4]
	.loc 1 488 0
	str	r1, [r5]
	ldrb	r1, [r3, #3]	@ zero_extendqisi2
.LBE69:
.LBE68:
.LBB71:
.LBB72:
	.loc 1 484 0
	str	r0, [r4, #4]
.LBE72:
.LBE71:
.LBB76:
.LBB70:
	.loc 1 488 0
	subs	r1, r1, #48
	add	r2, r2, r1
	str	r2, [r4]
.LVL46:
.LBE70:
.LBE76:
.LBB77:
.LBB73:
	.loc 1 486 0
	ldrb	r1, [r3, #4]	@ zero_extendqisi2
	subs	r1, r1, #48
	cmp	r1, #9
	bhi	.L56
	.loc 1 488 0
	adds	r1, r3, #5
	str	r1, [r5]
	ldrb	r1, [r3, #4]	@ zero_extendqisi2
	subs	r1, r1, #48
	str	r1, [r4, #4]
.LVL47:
	.loc 1 486 0
	ldrb	r0, [r3, #5]	@ zero_extendqisi2
	subs	r0, r0, #48
	cmp	r0, #9
	bhi	.L56
.LBE73:
.LBE77:
.LBB78:
.LBB79:
	.loc 1 484 0
	movs	r7, #0
.LBE79:
.LBE78:
.LBB83:
.LBB74:
	.loc 1 487 0
	add	r1, r1, r1, lsl #2
	lsls	r1, r1, #1
	.loc 1 488 0
	adds	r0, r3, #6
	.loc 1 487 0
	str	r1, [r4, #4]
	.loc 1 488 0
	str	r0, [r5]
	ldrb	r0, [r3, #5]	@ zero_extendqisi2
.LBE74:
.LBE83:
.LBB84:
.LBB80:
	.loc 1 484 0
	str	r7, [r4, #8]
.LBE80:
.LBE84:
.LBB85:
.LBB75:
	.loc 1 488 0
	subs	r0, r0, #48
	add	r1, r1, r0
	str	r1, [r4, #4]
.LVL48:
.LBE75:
.LBE85:
.LBB86:
.LBB81:
	.loc 1 486 0
	ldrb	r0, [r3, #6]	@ zero_extendqisi2
	subs	r0, r0, #48
	cmp	r0, #9
	bhi	.L56
	.loc 1 488 0
	adds	r0, r3, #7
	str	r0, [r5]
	ldrb	r0, [r3, #6]	@ zero_extendqisi2
	subs	r0, r0, #48
	str	r0, [r4, #8]
.LVL49:
	.loc 1 486 0
	ldrb	r6, [r3, #7]	@ zero_extendqisi2
	subs	r6, r6, #48
	cmp	r6, #9
	bhi	.L56
	.loc 1 487 0
	add	r0, r0, r0, lsl #2
	lsls	r0, r0, #1
	.loc 1 488 0
	add	r6, r3, #8
	.loc 1 487 0
	str	r0, [r4, #8]
	.loc 1 488 0
	str	r6, [r5]
	ldrb	r6, [r3, #7]	@ zero_extendqisi2
.LBE81:
.LBE86:
.LBB87:
.LBB88:
	.loc 1 484 0
	str	r7, [r4, #12]
.LBE88:
.LBE87:
.LBB91:
.LBB82:
	.loc 1 488 0
	subs	r6, r6, #48
	add	r0, r0, r6
	str	r0, [r4, #8]
.LVL50:
.LBE82:
.LBE91:
.LBB92:
.LBB89:
	.loc 1 486 0
	ldrb	r6, [r3, #8]	@ zero_extendqisi2
	subs	r6, r6, #48
	cmp	r6, #9
	bhi	.L56
	.loc 1 488 0
	add	r6, r3, #9
	str	r6, [r5]
	ldrb	r6, [r3, #8]	@ zero_extendqisi2
	subs	r6, r6, #48
	str	r6, [r4, #12]
.LVL51:
	.loc 1 486 0
	ldrb	ip, [r3, #9]	@ zero_extendqisi2
	sub	ip, ip, #48
	cmp	ip, #9
	bhi	.L56
	.loc 1 487 0
	add	r6, r6, r6, lsl #2
	lsls	r6, r6, #1
	.loc 1 488 0
	add	ip, r3, #10
	.loc 1 487 0
	str	r6, [r4, #12]
	.loc 1 488 0
	str	ip, [r5]
	ldrb	ip, [r3, #9]	@ zero_extendqisi2
.LBE89:
.LBE92:
.LBB93:
.LBB94:
	.loc 1 484 0
	str	r7, [r4, #16]
.LBE94:
.LBE93:
.LBB98:
.LBB90:
	.loc 1 488 0
	sub	ip, ip, #48
	add	ip, ip, r6
	str	ip, [r4, #12]
.LVL52:
.LBE90:
.LBE98:
.LBB99:
.LBB95:
	.loc 1 486 0
	ldrb	r6, [r3, #10]	@ zero_extendqisi2
	subs	r6, r6, #48
	cmp	r6, #9
	bhi	.L56
	.loc 1 488 0
	add	r6, r3, #11
	str	r6, [r5]
	ldrb	r6, [r3, #10]	@ zero_extendqisi2
	subs	r6, r6, #48
	str	r6, [r4, #16]
.LVL53:
	.loc 1 486 0
	ldrb	lr, [r3, #11]	@ zero_extendqisi2
	sub	lr, lr, #48
	cmp	lr, #9
	bhi	.L56
	.loc 1 487 0
	add	r6, r6, r6, lsl #2
	lsls	r6, r6, #1
	.loc 1 488 0
	add	lr, r3, #12
	.loc 1 487 0
	str	r6, [r4, #16]
	.loc 1 488 0
	str	lr, [r5]
	ldrb	lr, [r3, #11]	@ zero_extendqisi2
.LBE95:
.LBE99:
	.loc 1 576 0
	ldr	r8, [sp, #4]
.LBB100:
.LBB96:
	.loc 1 488 0
	sub	lr, lr, #48
	add	r6, r6, lr
.LBE96:
.LBE100:
	.loc 1 576 0
	cmp	r8, #12
.LBB101:
.LBB97:
	.loc 1 488 0
	str	r6, [r4, #16]
.LVL54:
.LBE97:
.LBE101:
	.loc 1 576 0
	bhi	.L77
.L71:
.LVL55:
.LBB102:
.LBB103:
	.loc 1 497 0
	movw	r3, #9999
	cmp	r2, r3
	bhi	.L56
	.loc 1 498 0
	cmp	ip, #23
	bhi	.L56
	.loc 1 499 0
	cmp	r6, #59
	bhi	.L56
	.loc 1 500 0
	ldr	r3, [r4, #20]
	cmp	r3, #59
	bhi	.L56
	cmp	r1, #12
	bhi	.L56
	movs	r3, #1
	movw	r4, #5546
.LVL56:
	lsl	r1, r3, r1
	tst	r1, r4
	bne	.L72
	tst	r1, #2640
	bne	.L73
	lsls	r1, r1, #29
	bpl	.L56
	.loc 1 511 0
	cmp	r0, #0
	ble	.L56
	tst	r2, #3
	ite	ne
	movne	r3, #28
	moveq	r3, #29
	cmp	r3, r0
	bge	.L65
.LVL57:
.L56:
.LBE103:
.LBE102:
	.loc 1 533 0
	ldr	r0, .L89
	.loc 1 588 0
	add	sp, sp, #12
	.cfi_remember_state
	.cfi_def_cfa_offset 28
	@ sp needed
	pop	{r4, r5, r6, r7, r8, r9, pc}
.LVL58:
.L87:
	.cfi_restore_state
	.loc 1 569 0
	sub	r0, r0, #9216
.LVL59:
.L52:
	.loc 1 588 0
	add	sp, sp, #12
	.cfi_remember_state
	.cfi_def_cfa_offset 28
	@ sp needed
	pop	{r4, r5, r6, r7, r8, r9, pc}
.LVL60:
.L80:
	.cfi_restore_state
	.loc 1 586 0
	ldr	r0, .L89+4
.LVL61:
	.loc 1 588 0
	add	sp, sp, #12
	.cfi_remember_state
	.cfi_def_cfa_offset 28
	@ sp needed
	pop	{r4, r5, r6, r7, r8, r9, pc}
.LVL62:
.L88:
	.cfi_restore_state
	.loc 1 540 0
	adds	r3, r3, #1
	str	r3, [r0]
	.loc 1 541 0
	add	r2, sp, #4
.LVL63:
	bl	mbedtls_asn1_get_len
.LVL64:
	.loc 1 543 0
	cmp	r0, #0
	bne	.L87
.LVL65:
	ldr	r3, [r5]
.LBB105:
.LBB106:
	.loc 1 484 0
	str	r0, [r4]
	.loc 1 486 0
	ldrb	r2, [r3]	@ zero_extendqisi2
	subs	r2, r2, #48
	cmp	r2, #9
	bhi	.L56
	.loc 1 488 0
	adds	r2, r3, #1
	str	r2, [r5]
	ldrb	r2, [r3]	@ zero_extendqisi2
	subs	r2, r2, #48
	str	r2, [r4]
.LVL66:
	.loc 1 486 0
	ldrb	r1, [r3, #1]	@ zero_extendqisi2
	subs	r1, r1, #48
	cmp	r1, #9
	bhi	.L56
	.loc 1 487 0
	add	r2, r2, r2, lsl #2
	lsls	r2, r2, #1
	.loc 1 488 0
	adds	r1, r3, #2
	.loc 1 487 0
	str	r2, [r4]
	.loc 1 488 0
	str	r1, [r5]
	ldrb	r1, [r3, #1]	@ zero_extendqisi2
.LBE106:
.LBE105:
.LBB108:
.LBB109:
	.loc 1 484 0
	str	r0, [r4, #4]
.LBE109:
.LBE108:
.LBB112:
.LBB107:
	.loc 1 488 0
	subs	r1, r1, #48
	add	r2, r2, r1
	str	r2, [r4]
.LVL67:
.LBE107:
.LBE112:
.LBB113:
.LBB110:
	.loc 1 486 0
	ldrb	r1, [r3, #2]	@ zero_extendqisi2
	subs	r1, r1, #48
	cmp	r1, #9
	bhi	.L56
	.loc 1 488 0
	adds	r1, r3, #3
	str	r1, [r5]
	ldrb	r1, [r3, #2]	@ zero_extendqisi2
	subs	r1, r1, #48
	str	r1, [r4, #4]
.LVL68:
	.loc 1 486 0
	ldrb	r6, [r3, #3]	@ zero_extendqisi2
	subs	r6, r6, #48
	cmp	r6, #9
	bhi	.L56
	.loc 1 487 0
	add	r1, r1, r1, lsl #2
	lsls	r1, r1, #1
	.loc 1 488 0
	adds	r6, r3, #4
	.loc 1 487 0
	str	r1, [r4, #4]
	.loc 1 488 0
	str	r6, [r5]
	ldrb	r6, [r3, #3]	@ zero_extendqisi2
.LBE110:
.LBE113:
.LBB114:
.LBB115:
	.loc 1 484 0
	str	r0, [r4, #8]
.LBE115:
.LBE114:
.LBB118:
.LBB111:
	.loc 1 488 0
	subs	r6, r6, #48
	add	r1, r1, r6
	str	r1, [r4, #4]
.LVL69:
.LBE111:
.LBE118:
.LBB119:
.LBB116:
	.loc 1 486 0
	ldrb	r6, [r3, #4]	@ zero_extendqisi2
	subs	r6, r6, #48
	cmp	r6, #9
	bhi	.L56
	.loc 1 488 0
	adds	r6, r3, #5
	str	r6, [r5]
	ldrb	r6, [r3, #4]	@ zero_extendqisi2
	subs	r6, r6, #48
	str	r6, [r4, #8]
.LVL70:
	.loc 1 486 0
	ldrb	r7, [r3, #5]	@ zero_extendqisi2
	subs	r7, r7, #48
	cmp	r7, #9
	bhi	.L56
	.loc 1 487 0
	add	r6, r6, r6, lsl #2
	lsls	r6, r6, #1
	.loc 1 488 0
	adds	r7, r3, #6
	.loc 1 487 0
	str	r6, [r4, #8]
	.loc 1 488 0
	str	r7, [r5]
	ldrb	r7, [r3, #5]	@ zero_extendqisi2
.LBE116:
.LBE119:
.LBB120:
.LBB121:
	.loc 1 484 0
	str	r0, [r4, #12]
.LBE121:
.LBE120:
.LBB125:
.LBB117:
	.loc 1 488 0
	subs	r7, r7, #48
	add	r6, r6, r7
	str	r6, [r4, #8]
.LVL71:
.LBE117:
.LBE125:
.LBB126:
.LBB122:
	.loc 1 486 0
	ldrb	r7, [r3, #6]	@ zero_extendqisi2
	subs	r7, r7, #48
	cmp	r7, #9
	bhi	.L56
	.loc 1 488 0
	adds	r7, r3, #7
	str	r7, [r5]
	ldrb	r7, [r3, #6]	@ zero_extendqisi2
	subs	r7, r7, #48
	str	r7, [r4, #12]
.LVL72:
	.loc 1 486 0
	ldrb	ip, [r3, #7]	@ zero_extendqisi2
	sub	ip, ip, #48
	cmp	ip, #9
	bhi	.L56
.LBE122:
.LBE126:
.LBB127:
.LBB128:
	.loc 1 484 0
	mov	ip, #0
.LBE128:
.LBE127:
.LBB133:
.LBB123:
	.loc 1 487 0
	add	r7, r7, r7, lsl #2
	lsls	r7, r7, #1
	.loc 1 488 0
	add	lr, r3, #8
	.loc 1 487 0
	str	r7, [r4, #12]
	.loc 1 488 0
	str	lr, [r5]
	ldrb	lr, [r3, #7]	@ zero_extendqisi2
.LBE123:
.LBE133:
.LBB134:
.LBB129:
	.loc 1 484 0
	str	ip, [r4, #16]
.LBE129:
.LBE134:
.LBB135:
.LBB124:
	.loc 1 488 0
	sub	lr, lr, #48
	add	lr, lr, r7
	str	lr, [r4, #12]
.LVL73:
.LBE124:
.LBE135:
.LBB136:
.LBB130:
	.loc 1 486 0
	ldrb	r7, [r3, #8]	@ zero_extendqisi2
	subs	r7, r7, #48
	cmp	r7, #9
	bhi	.L56
	.loc 1 488 0
	add	r7, r3, #9
	str	r7, [r5]
	ldrb	r7, [r3, #8]	@ zero_extendqisi2
	subs	r7, r7, #48
	str	r7, [r4, #16]
.LVL74:
	.loc 1 486 0
	ldrb	r8, [r3, #9]	@ zero_extendqisi2
	sub	r8, r8, #48
	cmp	r8, #9
	bhi	.L56
	.loc 1 487 0
	add	r7, r7, r7, lsl #2
	lsls	r7, r7, #1
	.loc 1 488 0
	add	r8, r3, #10
	.loc 1 487 0
	str	r7, [r4, #16]
	.loc 1 488 0
	str	r8, [r5]
	ldrb	r8, [r3, #9]	@ zero_extendqisi2
.LBE130:
.LBE136:
	.loc 1 551 0
	ldr	r9, [sp, #4]
.LBB137:
.LBB131:
	.loc 1 488 0
	sub	r8, r8, #48
	add	r7, r7, r8
.LBE131:
.LBE137:
	.loc 1 551 0
	cmp	r9, #10
.LBB138:
.LBB132:
	.loc 1 488 0
	str	r7, [r4, #16]
.LVL75:
.LBE132:
.LBE138:
	.loc 1 551 0
	bls	.L60
.LVL76:
.LBB139:
.LBB140:
	.loc 1 484 0
	str	ip, [r4, #20]
	.loc 1 486 0
	ldrb	ip, [r3, #10]	@ zero_extendqisi2
	sub	ip, ip, #48
	cmp	ip, #9
	bhi	.L56
	.loc 1 488 0
	add	ip, r3, #11
	str	ip, [r5]
	ldrb	ip, [r3, #10]	@ zero_extendqisi2
	sub	ip, ip, #48
	str	ip, [r4, #20]
.LVL77:
	.loc 1 486 0
	ldrb	r8, [r3, #11]	@ zero_extendqisi2
	sub	r8, r8, #48
	cmp	r8, #9
	bhi	.L56
	.loc 1 487 0
	add	ip, ip, ip, lsl #2
	lsl	ip, ip, #1
	.loc 1 488 0
	add	r8, r3, #12
	.loc 1 487 0
	str	ip, [r4, #20]
	.loc 1 488 0
	str	r8, [r5]
	ldrb	r8, [r3, #11]	@ zero_extendqisi2
.LBE140:
.LBE139:
	.loc 1 553 0
	cmp	r9, #12
.LBB142:
.LBB141:
	.loc 1 488 0
	sub	r8, r8, #48
	add	ip, ip, r8
	str	ip, [r4, #20]
.LVL78:
.LBE141:
.LBE142:
	.loc 1 553 0
	bls	.L60
	.loc 1 553 0 is_stmt 0 discriminator 1
	add	ip, r3, #13
	str	ip, [r5]
	ldrb	r3, [r3, #12]	@ zero_extendqisi2
	cmp	r3, #90
	bne	.L56
.L60:
	.loc 1 556 0 is_stmt 1
	cmp	r2, #49
	it	le
	movle	r0, #100
	add	r2, r2, r0
	.loc 1 557 0
	addw	r3, r2, #1900
.LBB143:
.LBB144:
	.loc 1 498 0
	cmp	lr, #23
.LBE144:
.LBE143:
	.loc 1 557 0
	str	r3, [r4]
.LVL79:
.LBB147:
.LBB145:
	.loc 1 498 0
	bhi	.L56
	.loc 1 499 0
	cmp	r7, #59
	bhi	.L56
	.loc 1 500 0
	ldr	r2, [r4, #20]
	cmp	r2, #59
	bhi	.L56
	cmp	r1, #12
	bhi	.L56
	movs	r2, #1
	movw	r0, #5546
	lsl	r1, r2, r1
	tst	r1, r0
	bne	.L62
	tst	r1, #2640
	bne	.L63
	lsls	r0, r1, #29
	bpl	.L56
	.loc 1 511 0
	cmp	r6, #0
	ble	.L56
	tst	r3, #3
	ite	ne
	movne	r3, #28
	moveq	r3, #29
	cmp	r3, r6
	blt	.L56
.LVL80:
.L65:
.LBE145:
.LBE147:
	.loc 1 561 0
	movs	r0, #0
	b	.L52
.LVL81:
.L77:
.LBB148:
.LBB149:
	.loc 1 484 0
	str	r7, [r4, #20]
	.loc 1 486 0
	ldrb	r7, [r3, #12]	@ zero_extendqisi2
	subs	r7, r7, #48
	cmp	r7, #9
	bhi	.L56
	.loc 1 488 0
	add	r7, r3, #13
	str	r7, [r5]
	ldrb	r7, [r3, #12]	@ zero_extendqisi2
	subs	r7, r7, #48
	str	r7, [r4, #20]
.LVL82:
	.loc 1 486 0
	ldrb	lr, [r3, #13]	@ zero_extendqisi2
	sub	lr, lr, #48
	cmp	lr, #9
	bhi	.L56
	.loc 1 487 0
	add	r7, r7, r7, lsl #2
	lsls	r7, r7, #1
	.loc 1 488 0
	add	lr, r3, #14
	.loc 1 487 0
	str	r7, [r4, #20]
	.loc 1 488 0
	str	lr, [r5]
	ldrb	lr, [r3, #13]	@ zero_extendqisi2
.LBE149:
.LBE148:
	.loc 1 578 0
	cmp	r8, #14
.LBB151:
.LBB150:
	.loc 1 488 0
	sub	lr, lr, #48
	add	r7, r7, lr
	str	r7, [r4, #20]
.LVL83:
.LBE150:
.LBE151:
	.loc 1 578 0
	bls	.L71
	.loc 1 578 0 is_stmt 0 discriminator 1
	add	r7, r3, #15
	str	r7, [r5]
	ldrb	r3, [r3, #14]	@ zero_extendqisi2
	cmp	r3, #90
	beq	.L71
	b	.L56
.LVL84:
.L78:
	.loc 1 533 0 is_stmt 1
	ldr	r0, .L89+8
.LVL85:
	b	.L52
.LVL86:
.L72:
.LBB152:
.LBB104:
	.loc 1 505 0
	subs	r0, r0, #1
	cmp	r0, #30
	bls	.L65
	b	.L56
.L73:
	.loc 1 508 0
	subs	r0, r0, #1
	cmp	r0, #29
	bls	.L65
	b	.L56
.LVL87:
.L62:
.LBE104:
.LBE152:
.LBB153:
.LBB146:
	.loc 1 505 0
	subs	r6, r6, #1
	cmp	r6, #30
	bls	.L65
	b	.L56
.L63:
	.loc 1 508 0
	subs	r6, r6, #1
	cmp	r6, #29
	bls	.L65
	b	.L56
.L90:
	.align	2
.L89:
	.word	-9216
	.word	-9314
	.word	-9312
.LBE146:
.LBE153:
	.cfi_endproc
.LFE17:
	.size	mbedtls_x509_get_time, .-mbedtls_x509_get_time
	.section	.text.mbedtls_x509_get_sig,"ax",%progbits
	.align	1
	.p2align 2,,3
	.global	mbedtls_x509_get_sig
	.syntax unified
	.thumb
	.thumb_func
	.fpu softvfp
	.type	mbedtls_x509_get_sig, %function
mbedtls_x509_get_sig:
.LFB18:
	.loc 1 591 0
	.cfi_startproc
	@ args = 0, pretend = 0, frame = 8
	@ frame_needed = 0, uses_anonymous_args = 0
.LVL88:
	push	{r4, r5, r6, lr}
	.cfi_def_cfa_offset 16
	.cfi_offset 4, -16
	.cfi_offset 5, -12
	.cfi_offset 6, -8
	.cfi_offset 14, -4
	.loc 1 596 0
	ldr	r6, [r0]
	.loc 1 591 0
	sub	sp, sp, #8
	.cfi_def_cfa_offset 24
	.loc 1 596 0
	subs	r4, r1, r6
	cmp	r4, #0
	ble	.L94
	mov	r5, r2
	.loc 1 602 0
	add	r2, sp, #4
.LVL89:
	mov	r4, r0
	.loc 1 600 0
	ldrb	r6, [r6]	@ zero_extendqisi2
.LVL90:
	.loc 1 602 0
	bl	mbedtls_asn1_get_bitstring_null
.LVL91:
	cbnz	r0, .L96
	.loc 1 607 0
	ldr	r3, [r4]
	.loc 1 606 0
	ldr	r2, [sp, #4]
	.loc 1 607 0
	str	r3, [r5, #8]
	.loc 1 609 0
	ldr	r3, [r4]
	.loc 1 600 0
	str	r6, [r5]
	.loc 1 609 0
	add	r3, r3, r2
	.loc 1 606 0
	str	r2, [r5, #4]
	.loc 1 609 0
	str	r3, [r4]
.LVL92:
.L91:
	.loc 1 612 0
	add	sp, sp, #8
	.cfi_remember_state
	.cfi_def_cfa_offset 16
	@ sp needed
	pop	{r4, r5, r6, pc}
.LVL93:
.L96:
	.cfi_restore_state
	.loc 1 603 0
	sub	r0, r0, #9344
.LVL94:
	.loc 1 612 0
	add	sp, sp, #8
	.cfi_remember_state
	.cfi_def_cfa_offset 16
	@ sp needed
	pop	{r4, r5, r6, pc}
.LVL95:
.L94:
	.cfi_restore_state
	.loc 1 597 0
	ldr	r0, .L97
.LVL96:
	b	.L91
.L98:
	.align	2
.L97:
	.word	-9440
	.cfi_endproc
.LFE18:
	.size	mbedtls_x509_get_sig, .-mbedtls_x509_get_sig
	.section	.text.mbedtls_x509_get_sig_alg,"ax",%progbits
	.align	1
	.p2align 2,,3
	.global	mbedtls_x509_get_sig_alg
	.syntax unified
	.thumb
	.thumb_func
	.fpu softvfp
	.type	mbedtls_x509_get_sig_alg, %function
mbedtls_x509_get_sig_alg:
.LFB19:
	.loc 1 620 0
	.cfi_startproc
	@ args = 4, pretend = 0, frame = 0
	@ frame_needed = 0, uses_anonymous_args = 0
.LVL97:
	push	{r3, r4, r5, lr}
	.cfi_def_cfa_offset 16
	.cfi_offset 3, -16
	.cfi_offset 4, -12
	.cfi_offset 5, -8
	.cfi_offset 14, -4
	.loc 1 620 0
	ldr	r4, [sp, #16]
	.loc 1 623 0
	ldr	r4, [r4]
	cbnz	r4, .L103
	mov	r5, r2
	mov	r4, r1
	.loc 1 626 0
	mov	r2, r3
.LVL98:
	mov	r1, r5
.LVL99:
	bl	mbedtls_oid_get_sig_alg
.LVL100:
	cbnz	r0, .L110
	.loc 1 654 0
	ldr	r3, [r4]
	cmp	r3, #5
	beq	.L102
	.loc 1 654 0 is_stmt 0 discriminator 1
	cbnz	r3, .L104
.L102:
	.loc 1 654 0 discriminator 3
	ldr	r2, [r4, #4]
	.loc 1 656 0 is_stmt 1 discriminator 3
	ldr	r3, .L111
	cmp	r2, #0
	it	ne
	movne	r0, r3
.LVL101:
	pop	{r3, r4, r5, pc}
.LVL102:
.L110:
	.loc 1 627 0
	sub	r0, r0, #9728
.LVL103:
	pop	{r3, r4, r5, pc}
.LVL104:
.L103:
	.loc 1 624 0
	ldr	r0, .L111+4
.LVL105:
	pop	{r3, r4, r5, pc}
.LVL106:
.L104:
	.loc 1 656 0
	ldr	r0, .L111
.LVL107:
	.loc 1 660 0
	pop	{r3, r4, r5, pc}
.LVL108:
.L112:
	.align	2
.L111:
	.word	-8960
	.word	-10240
	.cfi_endproc
.LFE19:
	.size	mbedtls_x509_get_sig_alg, .-mbedtls_x509_get_sig_alg
	.section	.text.mbedtls_x509_get_ext,"ax",%progbits
	.align	1
	.p2align 2,,3
	.global	mbedtls_x509_get_ext
	.syntax unified
	.thumb
	.thumb_func
	.fpu softvfp
	.type	mbedtls_x509_get_ext, %function
mbedtls_x509_get_ext:
.LFB20:
	.loc 1 668 0
	.cfi_startproc
	@ args = 0, pretend = 0, frame = 8
	@ frame_needed = 0, uses_anonymous_args = 0
.LVL109:
	push	{r4, r5, r6, lr}
	.cfi_def_cfa_offset 16
	.cfi_offset 4, -16
	.cfi_offset 5, -12
	.cfi_offset 6, -8
	.cfi_offset 14, -4
	.loc 1 672 0
	ldr	r5, [r0]
	.loc 1 668 0
	sub	sp, sp, #8
	.cfi_def_cfa_offset 24
	.loc 1 672 0
	cmp	r5, r1
	beq	.L114
	.loc 1 675 0
	ldrb	r5, [r5]	@ zero_extendqisi2
	mov	r4, r2
	.loc 1 677 0
	orr	r3, r3, #160
.LVL110:
	.loc 1 675 0
	str	r5, [r2], #4
.LVL111:
	mov	r6, r0
	.loc 1 677 0
	bl	mbedtls_asn1_get_tag
.LVL112:
	cbz	r0, .L119
.LVL113:
.L113:
	.loc 1 701 0
	add	sp, sp, #8
	.cfi_remember_state
	.cfi_def_cfa_offset 16
	@ sp needed
	pop	{r4, r5, r6, pc}
.LVL114:
.L119:
	.cfi_restore_state
	.loc 1 681 0
	ldr	r3, [r6]
	.loc 1 682 0
	ldr	r2, [r4, #4]
	.loc 1 681 0
	str	r3, [r4, #8]
	.loc 1 682 0
	ldr	r4, [r6]
.LVL115:
	.loc 1 692 0
	movs	r3, #48
	.loc 1 682 0
	add	r4, r4, r2
.LVL116:
	.loc 1 692 0
	mov	r1, r4
	add	r2, sp, #4
	mov	r0, r6
.LVL117:
	bl	mbedtls_asn1_get_tag
.LVL118:
	cbnz	r0, .L120
	.loc 1 696 0
	ldr	r3, [r6]
	ldr	r2, [sp, #4]
	add	r3, r3, r2
	cmp	r4, r3
	bne	.L117
.LVL119:
.L114:
	.loc 1 700 0
	movs	r0, #0
	.loc 1 701 0
	add	sp, sp, #8
	.cfi_remember_state
	.cfi_def_cfa_offset 16
	@ sp needed
	pop	{r4, r5, r6, pc}
.LVL120:
.L120:
	.cfi_restore_state
	.loc 1 694 0
	sub	r0, r0, #9472
.LVL121:
	.loc 1 701 0
	add	sp, sp, #8
	.cfi_remember_state
	.cfi_def_cfa_offset 16
	@ sp needed
	pop	{r4, r5, r6, pc}
.LVL122:
.L117:
	.cfi_restore_state
	.loc 1 697 0
	ldr	r0, .L121
.LVL123:
	b	.L113
.L122:
	.align	2
.L121:
	.word	-9574
	.cfi_endproc
.LFE20:
	.size	mbedtls_x509_get_ext, .-mbedtls_x509_get_ext
	.section	.text.mbedtls_x509_dn_gets,"ax",%progbits
	.align	1
	.p2align 2,,3
	.global	mbedtls_x509_dn_gets
	.syntax unified
	.thumb
	.thumb_func
	.fpu softvfp
	.type	mbedtls_x509_dn_gets, %function
mbedtls_x509_dn_gets:
.LFB21:
	.loc 1 708 0
	.cfi_startproc
	@ args = 0, pretend = 0, frame = 264
	@ frame_needed = 0, uses_anonymous_args = 0
.LVL124:
	push	{r4, r5, r6, r7, r8, r9, r10, lr}
	.cfi_def_cfa_offset 32
	.cfi_offset 4, -32
	.cfi_offset 5, -28
	.cfi_offset 6, -24
	.cfi_offset 7, -20
	.cfi_offset 8, -16
	.cfi_offset 9, -12
	.cfi_offset 10, -8
	.cfi_offset 14, -4
	.loc 1 713 0
	movs	r4, #0
	.loc 1 708 0
	mov	r8, r2
	sub	sp, sp, #264
	.cfi_def_cfa_offset 296
	.loc 1 716 0
	add	r7, sp, #8
	.loc 1 708 0
	mov	r6, r0
	mov	r10, r1
	.loc 1 716 0
	mov	r0, r7
.LVL125:
	mov	r1, r4
.LVL126:
	mov	r2, #256
.LVL127:
	.loc 1 713 0
	str	r4, [sp, #4]
	.loc 1 716 0
	bl	memset
.LVL128:
	.loc 1 722 0
	cmp	r8, #0
	beq	.L140
	mov	r3, r4
	mov	r5, r10
	mov	r4, r8
	.loc 1 755 0
	ldr	r9, .L155+20
.LVL129:
.L139:
	.loc 1 724 0
	ldr	r2, [r4, #8]
	cmp	r2, #0
	beq	.L151
	.loc 1 730 0
	cmp	r8, r4
	beq	.L127
	.loc 1 732 0
	ldr	r0, .L155
	ldr	r2, .L155+4
	mov	r1, r5
	cmp	r3, #0
	it	eq
	moveq	r2, r0
	mov	r0, r6
	bl	snprintf
.LVL130:
	.loc 1 733 0
	cmp	r0, #0
	blt	.L131
	.loc 1 733 0 is_stmt 0 discriminator 2
	cmp	r0, r5
	bcs	.L131
	.loc 1 733 0 discriminator 4
	subs	r5, r5, r0
.LVL131:
	add	r6, r6, r0
.LVL132:
.L127:
	.loc 1 736 0 is_stmt 1
	add	r1, sp, #4
	mov	r0, r4
	bl	mbedtls_oid_get_attr_short_name
.LVL133:
	.loc 1 738 0
	cmp	r0, #0
	bne	.L132
	.loc 1 739 0
	ldr	r3, [sp, #4]
	ldr	r2, .L155+8
	mov	r1, r5
	mov	r0, r6
.LVL134:
	bl	snprintf
.LVL135:
	.loc 1 742 0
	cmp	r0, #0
	blt	.L131
.L153:
	.loc 1 742 0 is_stmt 0 discriminator 2
	cmp	r5, r0
	bls	.L131
	.loc 1 744 0 is_stmt 1 discriminator 4
	ldr	ip, [r4, #16]
	.loc 1 742 0 discriminator 4
	subs	r5, r5, r0
.LVL136:
	add	r6, r6, r0
.LVL137:
	.loc 1 744 0 discriminator 4
	cmp	ip, #0
	beq	.L135
	.loc 1 744 0 is_stmt 0
	mov	ip, #0
	add	r2, sp, #7
	b	.L136
.LVL138:
.L152:
	.loc 1 750 0 is_stmt 1 discriminator 1
	add	r1, r3, #127
	cmp	r3, #127
	uxtb	r1, r1
	beq	.L143
	.loc 1 750 0 is_stmt 0 discriminator 2
	cmp	r1, #31
	it	cc
	movcc	r3, #63
.LVL139:
	strb	r3, [r2, #1]!
.LVL140:
	.loc 1 744 0 is_stmt 1 discriminator 2
	ldr	r3, [r4, #16]
	add	ip, ip, #1
.LVL141:
	cmp	r3, ip
	bls	.L135
.L138:
	.loc 1 746 0
	cmp	ip, #255
	beq	.L135
.LVL142:
.L136:
	.loc 1 749 0
	ldr	r3, [r4, #20]
	ldrb	r3, [r3, ip]	@ zero_extendqisi2
.LVL143:
	.loc 1 750 0
	cmp	r3, #31
	bhi	.L152
.L143:
	.loc 1 751 0
	movs	r3, #63
.LVL144:
	strb	r3, [r2, #1]!
.LVL145:
	.loc 1 744 0
	ldr	r3, [r4, #16]
	add	ip, ip, #1
.LVL146:
	cmp	r3, ip
	bhi	.L138
.LVL147:
.L135:
	.loc 1 754 0
	mov	lr, #0
	.loc 1 755 0
	mov	r3, r7
	mov	r2, r9
	mov	r1, r5
	mov	r0, r6
.LVL148:
	.loc 1 754 0
	strb	lr, [r7, ip]
	.loc 1 755 0
	bl	snprintf
.LVL149:
	.loc 1 756 0
	cmp	r0, #0
	blt	.L131
	.loc 1 756 0 is_stmt 0 discriminator 2
	cmp	r5, r0
	bls	.L131
	.loc 1 758 0 is_stmt 1 discriminator 4
	ldrb	r3, [r4, #28]	@ zero_extendqisi2
	.loc 1 759 0 discriminator 4
	ldr	r4, [r4, #24]
.LVL150:
	.loc 1 756 0 discriminator 4
	subs	r5, r5, r0
.LVL151:
	add	r6, r6, r0
.LVL152:
	.loc 1 722 0 discriminator 4
	cmp	r4, #0
	bne	.L139
.LVL153:
.L154:
	sub	r0, r10, r5
	.loc 1 763 0
	add	sp, sp, #264
	.cfi_remember_state
	.cfi_def_cfa_offset 32
	@ sp needed
	pop	{r4, r5, r6, r7, r8, r9, r10, pc}
.LVL154:
.L132:
	.cfi_restore_state
	.loc 1 741 0
	ldr	r2, .L155+12
	mov	r1, r5
	mov	r0, r6
.LVL155:
	bl	snprintf
.LVL156:
	.loc 1 742 0
	cmp	r0, #0
	bge	.L153
.L131:
	.loc 1 733 0
	ldr	r0, .L155+16
.LVL157:
.L123:
	.loc 1 763 0
	add	sp, sp, #264
	.cfi_remember_state
	.cfi_def_cfa_offset 32
	@ sp needed
	pop	{r4, r5, r6, r7, r8, r9, r10, pc}
.LVL158:
.L151:
	.cfi_restore_state
	.loc 1 726 0
	ldr	r4, [r4, #24]
.LVL159:
	.loc 1 722 0
	cmp	r4, #0
	bne	.L139
	b	.L154
.LVL160:
.L140:
	mov	r0, r8
	.loc 1 762 0
	b	.L123
.L156:
	.align	2
.L155:
	.word	.LC1
	.word	.LC0
	.word	.LC2
	.word	.LC3
	.word	-10624
	.word	.LC4
	.cfi_endproc
.LFE21:
	.size	mbedtls_x509_dn_gets, .-mbedtls_x509_dn_gets
	.section	.text.mbedtls_x509_serial_gets,"ax",%progbits
	.align	1
	.p2align 2,,3
	.global	mbedtls_x509_serial_gets
	.syntax unified
	.thumb
	.thumb_func
	.fpu softvfp
	.type	mbedtls_x509_serial_gets, %function
mbedtls_x509_serial_gets:
.LFB22:
	.loc 1 770 0
	.cfi_startproc
	@ args = 0, pretend = 0, frame = 8
	@ frame_needed = 0, uses_anonymous_args = 0
.LVL161:
	push	{r4, r5, r6, r7, r8, r9, r10, fp, lr}
	.cfi_def_cfa_offset 36
	.cfi_offset 4, -36
	.cfi_offset 5, -32
	.cfi_offset 6, -28
	.cfi_offset 7, -24
	.cfi_offset 8, -20
	.cfi_offset 9, -16
	.cfi_offset 10, -12
	.cfi_offset 11, -8
	.cfi_offset 14, -4
	.loc 1 778 0
	ldr	r7, [r2, #4]
	.loc 1 770 0
	sub	sp, sp, #20
	.cfi_def_cfa_offset 56
	.loc 1 779 0
	cmp	r7, #32
	.loc 1 770 0
	mov	r8, r2
	mov	r6, r0
	str	r1, [sp, #12]
.LVL162:
	.loc 1 779 0
	bhi	.L172
.LVL163:
	mov	r4, r1
	.loc 1 781 0
	cmp	r7, #0
	beq	.L173
	cmp	r7, #1
	bne	.L158
	.loc 1 787 0
	ldr	r3, [r2, #8]
	.loc 1 786 0
	ldr	r2, .L182
.LVL164:
	ldrb	r3, [r3]	@ zero_extendqisi2
	str	r2, [sp]
	ldr	r2, .L182+4
	bl	snprintf
.LVL165:
	.loc 1 788 0
	subs	r5, r0, #0
	blt	.L170
	cmp	r5, r4
	bcs	.L170
	add	r6, r6, r5
.LVL166:
	subs	r5, r4, r5
.LVL167:
.L162:
	.loc 1 791 0
	ldr	r3, [r8, #4]
	cmp	r3, r7
	beq	.L159
	.loc 1 793 0
	mov	r0, r6
	ldr	r2, .L182+8
	mov	r1, r5
	bl	snprintf
.LVL168:
	.loc 1 794 0
	cmp	r0, #0
	blt	.L170
	.loc 1 794 0 is_stmt 0 discriminator 2
	cmp	r0, r5
	bcs	.L170
	.loc 1 794 0 discriminator 4
	subs	r5, r5, r0
.LVL169:
.L159:
	.loc 1 797 0 is_stmt 1
	ldr	r3, [sp, #12]
	subs	r0, r3, r5
	.loc 1 798 0
	add	sp, sp, #20
	.cfi_remember_state
	.cfi_def_cfa_offset 36
	@ sp needed
	pop	{r4, r5, r6, r7, r8, r9, r10, fp, pc}
.LVL170:
.L172:
	.cfi_restore_state
	.loc 1 779 0
	movs	r7, #28
.LVL171:
.L158:
	ldr	r5, [sp, #12]
	movs	r4, #0
	.loc 1 786 0
	ldr	r10, .L182+4
	ldr	r9, .L182+16
	ldr	fp, .L182
	b	.L171
.LVL172:
.L167:
	.loc 1 788 0 discriminator 2
	cmp	r0, r5
	add	r6, r6, r0
	bcs	.L170
	.loc 1 788 0 is_stmt 0 discriminator 4
	subs	r5, r5, r0
.LVL173:
.L165:
	.loc 1 781 0 is_stmt 1 discriminator 2
	adds	r4, r4, #1
.LVL174:
	cmp	r4, r7
	bcs	.L162
.LVL175:
.L171:
	.loc 1 787 0
	subs	r2, r7, #1
	.loc 1 783 0
	ldr	r3, [r8, #8]
	cbz	r4, .L163
	.loc 1 786 0
	cmp	r2, r4
	ite	ls
	movls	r2, fp
	movhi	r2, r9
	ldrb	r3, [r3, r4]	@ zero_extendqisi2
.LVL176:
.L164:
	.loc 1 786 0 is_stmt 0 discriminator 4
	str	r2, [sp]
	mov	r1, r5
	mov	r2, r10
	mov	r0, r6
	bl	snprintf
.LVL177:
	.loc 1 788 0 is_stmt 1 discriminator 4
	cmp	r0, #0
	bge	.L167
.LVL178:
.L170:
	.loc 1 788 0 is_stmt 0
	ldr	r0, .L182+12
.LVL179:
	.loc 1 798 0 is_stmt 1
	add	sp, sp, #20
	.cfi_remember_state
	.cfi_def_cfa_offset 36
	@ sp needed
	pop	{r4, r5, r6, r7, r8, r9, r10, fp, pc}
.LVL180:
.L173:
	.cfi_restore_state
	mov	r5, r1
	b	.L159
.LVL181:
.L163:
	.loc 1 783 0 discriminator 2
	ldrb	r3, [r3]	@ zero_extendqisi2
	cmp	r3, #0
	beq	.L165
	.loc 1 786 0
	mov	r2, r9
	b	.L164
.L183:
	.align	2
.L182:
	.word	.LC6
	.word	.LC7
	.word	.LC8
	.word	-10624
	.word	.LC5
	.cfi_endproc
.LFE22:
	.size	mbedtls_x509_serial_gets, .-mbedtls_x509_serial_gets
	.section	.text.mbedtls_x509_sig_alg_gets,"ax",%progbits
	.align	1
	.p2align 2,,3
	.global	mbedtls_x509_sig_alg_gets
	.syntax unified
	.thumb
	.thumb_func
	.fpu softvfp
	.type	mbedtls_x509_sig_alg_gets, %function
mbedtls_x509_sig_alg_gets:
.LFB23:
	.loc 1 806 0
	.cfi_startproc
	@ args = 8, pretend = 0, frame = 8
	@ frame_needed = 0, uses_anonymous_args = 0
.LVL182:
	push	{r4, r5, lr}
	.cfi_def_cfa_offset 12
	.cfi_offset 4, -12
	.cfi_offset 5, -8
	.cfi_offset 14, -4
	.loc 1 810 0
	movs	r4, #0
	.loc 1 806 0
	sub	sp, sp, #12
	.cfi_def_cfa_offset 24
	.loc 1 810 0
	add	r3, sp, #8
.LVL183:
	str	r4, [r3, #-4]!
	.loc 1 806 0
	mov	r5, r0
.LVL184:
	mov	r4, r1
.LVL185:
	.loc 1 812 0
	mov	r0, r2
.LVL186:
	mov	r1, r3
.LVL187:
	bl	mbedtls_oid_get_sig_alg_desc
.LVL188:
	.loc 1 813 0
	cbz	r0, .L185
	.loc 1 814 0
	mov	r0, r5
.LVL189:
	ldr	r2, .L191
	mov	r1, r4
	bl	snprintf
.LVL190:
.L186:
	.loc 1 817 0
	cmp	r0, #0
	blt	.L188
	.loc 1 817 0 is_stmt 0 discriminator 2
	ldr	r3, .L191+4
	cmp	r4, r0
	it	ls
	movls	r0, r3
.LVL191:
.L184:
	.loc 1 843 0 is_stmt 1
	add	sp, sp, #12
	.cfi_remember_state
	.cfi_def_cfa_offset 12
	@ sp needed
	pop	{r4, r5, pc}
.LVL192:
.L185:
	.cfi_restore_state
	.loc 1 816 0
	mov	r0, r5
.LVL193:
	ldr	r3, [sp, #4]
	ldr	r2, .L191+8
	mov	r1, r4
	bl	snprintf
.LVL194:
	b	.L186
.L188:
	.loc 1 817 0
	ldr	r0, .L191+4
.LVL195:
	b	.L184
.L192:
	.align	2
.L191:
	.word	.LC9
	.word	-10624
	.word	.LC4
	.cfi_endproc
.LFE23:
	.size	mbedtls_x509_sig_alg_gets, .-mbedtls_x509_sig_alg_gets
	.section	.text.mbedtls_x509_key_size_helper,"ax",%progbits
	.align	1
	.p2align 2,,3
	.global	mbedtls_x509_key_size_helper
	.syntax unified
	.thumb
	.thumb_func
	.fpu softvfp
	.type	mbedtls_x509_key_size_helper, %function
mbedtls_x509_key_size_helper:
.LFB24:
	.loc 1 849 0
	.cfi_startproc
	@ args = 0, pretend = 0, frame = 0
	@ frame_needed = 0, uses_anonymous_args = 0
.LVL196:
	.loc 1 854 0
	mov	r3, r2
	.loc 1 849 0
	push	{r4, lr}
	.cfi_def_cfa_offset 8
	.cfi_offset 4, -8
	.cfi_offset 14, -4
	.loc 1 854 0
	ldr	r2, .L198
.LVL197:
	.loc 1 849 0
	mov	r4, r1
.LVL198:
	.loc 1 854 0
	bl	snprintf
.LVL199:
	.loc 1 855 0
	subs	r3, r0, #0
	ldr	r0, .L198+4
.LVL200:
	blt	.L195
	.loc 1 857 0 discriminator 2
	cmp	r4, r3
	it	hi
	movhi	r0, #0
	pop	{r4, pc}
.LVL201:
.L195:
	.loc 1 858 0
	pop	{r4, pc}
.LVL202:
.L199:
	.align	2
.L198:
	.word	.LC10
	.word	-10624
	.cfi_endproc
.LFE24:
	.size	mbedtls_x509_key_size_helper, .-mbedtls_x509_key_size_helper
	.section	.text.mbedtls_x509_time_is_past,"ax",%progbits
	.align	1
	.p2align 2,,3
	.global	mbedtls_x509_time_is_past
	.syntax unified
	.thumb
	.thumb_func
	.fpu softvfp
	.type	mbedtls_x509_time_is_past, %function
mbedtls_x509_time_is_past:
.LFB28:
	.cfi_startproc
	@ args = 0, pretend = 0, frame = 0
	@ frame_needed = 0, uses_anonymous_args = 0
	@ link register save eliminated.
	movs	r0, #0
	bx	lr
	.cfi_endproc
.LFE28:
	.size	mbedtls_x509_time_is_past, .-mbedtls_x509_time_is_past
	.section	.text.mbedtls_x509_time_is_future,"ax",%progbits
	.align	1
	.p2align 2,,3
	.global	mbedtls_x509_time_is_future
	.syntax unified
	.thumb
	.thumb_func
	.fpu softvfp
	.type	mbedtls_x509_time_is_future, %function
mbedtls_x509_time_is_future:
.LFB26:
	.loc 1 987 0
	.cfi_startproc
	@ args = 0, pretend = 0, frame = 0
	@ frame_needed = 0, uses_anonymous_args = 0
	@ link register save eliminated.
.LVL203:
	.loc 1 990 0
	movs	r0, #0
.LVL204:
	bx	lr
	.cfi_endproc
.LFE26:
	.size	mbedtls_x509_time_is_future, .-mbedtls_x509_time_is_future
	.section	.rodata.mbedtls_x509_dn_gets.str1.4,"aMS",%progbits,1
	.align	2
.LC0:
	.ascii	" + \000"
.LC1:
	.ascii	", \000"
	.space	1
.LC2:
	.ascii	"%s=\000"
.LC3:
	.ascii	"??=\000"
.LC4:
	.ascii	"%s\000"
	.section	.rodata.mbedtls_x509_key_size_helper.str1.4,"aMS",%progbits,1
	.align	2
.LC10:
	.ascii	"%s key size\000"
	.section	.rodata.mbedtls_x509_serial_gets.str1.4,"aMS",%progbits,1
	.align	2
.LC5:
	.ascii	":\000"
	.space	2
.LC6:
	.ascii	"\000"
	.space	3
.LC7:
	.ascii	"%02X%s\000"
	.space	1
.LC8:
	.ascii	"....\000"
	.section	.rodata.mbedtls_x509_sig_alg_gets.str1.4,"aMS",%progbits,1
	.align	2
.LC9:
	.ascii	"???\000"
	.text
.Letext0:
	.file 2 "/cygdrive/d/PUYA/HE3/sdk-ameba-v7.1d/tools/arm-none-eabi-gcc/asdk/cygwin/newlib/arm-none-eabi/include/machine/_default_types.h"
	.file 3 "/cygdrive/d/PUYA/HE3/sdk-ameba-v7.1d/tools/arm-none-eabi-gcc/asdk/cygwin/newlib/lib/gcc/arm-none-eabi/6.5.0/include/stddef.h"
	.file 4 "/cygdrive/d/PUYA/HE3/sdk-ameba-v7.1d/tools/arm-none-eabi-gcc/asdk/cygwin/newlib/arm-none-eabi/include/sys/lock.h"
	.file 5 "/cygdrive/d/PUYA/HE3/sdk-ameba-v7.1d/tools/arm-none-eabi-gcc/asdk/cygwin/newlib/arm-none-eabi/include/sys/_types.h"
	.file 6 "/cygdrive/d/PUYA/HE3/sdk-ameba-v7.1d/tools/arm-none-eabi-gcc/asdk/cygwin/newlib/arm-none-eabi/include/sys/reent.h"
	.file 7 "/cygdrive/d/PUYA/HE3/sdk-ameba-v7.1d/tools/arm-none-eabi-gcc/asdk/cygwin/newlib/arm-none-eabi/include/sys/_stdint.h"
	.file 8 "/cygdrive/d/PUYA/HE3/sdk-ameba-v7.1d/tools/arm-none-eabi-gcc/asdk/cygwin/newlib/arm-none-eabi/include/time.h"
	.file 9 "../../../component/common/network/ssl/ssl_ram_map/rom/rom_ssl_ram_map.h"
	.file 10 "/cygdrive/d/PUYA/HE3/sdk-ameba-v7.1d/tools/arm-none-eabi-gcc/asdk/cygwin/newlib/arm-none-eabi/include/stdlib.h"
	.file 11 "../../../component/common/network/ssl/mbedtls-2.4.0/include/mbedtls/asn1.h"
	.file 12 "../../../component/common/network/ssl/mbedtls-2.4.0/include/mbedtls/md.h"
	.file 13 "../../../component/common/network/ssl/mbedtls-2.4.0/include/mbedtls/pk.h"
	.file 14 "../../../component/common/network/ssl/mbedtls-2.4.0/include/mbedtls/x509.h"
	.file 15 "../../../component/common/network/ssl/mbedtls-2.4.0/include/mbedtls/platform.h"
	.file 16 "/cygdrive/d/PUYA/HE3/sdk-ameba-v7.1d/tools/arm-none-eabi-gcc/asdk/cygwin/newlib/arm-none-eabi/include/stdio.h"
	.file 17 "../../../component/common/network/ssl/mbedtls-2.4.0/include/mbedtls/oid.h"