	.arch armv8-m.main
	.arch_extension dsp
	.eabi_attribute 20, 1
	.eabi_attribute 21, 1
	.eabi_attribute 23, 3
	.eabi_attribute 24, 1
	.eabi_attribute 25, 1
	.eabi_attribute 26, 1
	.eabi_attribute 30, 2
	.eabi_attribute 34, 1
	.eabi_attribute 18, 4
	.file	"xml.c"
	.text
.Ltext0:
	.cfi_sections	.debug_frame
	.section	.text._xml_new_element,"ax",%progbits
	.align	1
	.p2align 2,,3
	.syntax unified
	.thumb
	.thumb_func
	.fpu softvfp
	.type	_xml_new_element, %function
_xml_new_element:
.LFB157:
	.file 1 "../../../component/common/utilities/xml.c"
	.loc 1 542 0
	.cfi_startproc
	@ args = 0, pretend = 0, frame = 0
	@ frame_needed = 0, uses_anonymous_args = 0
.LVL0:
	push	{r4, r5, r6, r7, r8, lr}
	.cfi_def_cfa_offset 24
	.cfi_offset 4, -24
	.cfi_offset 5, -20
	.cfi_offset 6, -16
	.cfi_offset 7, -12
	.cfi_offset 8, -8
	.cfi_offset 14, -4
	.loc 1 542 0
	mov	r7, r0
.LBB388:
.LBB389:
.LBB390:
.LBB391:
	.loc 1 51 0
	movs	r0, #36
.LVL1:
.LBE391:
.LBE390:
.LBE389:
.LBE388:
	.loc 1 542 0
	mov	r8, r1
	mov	r5, r3
	mov	r6, r2
.LBB397:
.LBB396:
.LBB394:
.LBB392:
	.loc 1 51 0
	bl	pvPortMalloc
.LVL2:
.LBE392:
.LBE394:
	.loc 1 536 0
	movs	r1, #0
	movs	r2, #36
.LBB395:
.LBB393:
	.loc 1 51 0
	mov	r4, r0
.LVL3:
.LBE393:
.LBE395:
	.loc 1 536 0
	bl	memset
.LVL4:
.LBE396:
.LBE397:
	.loc 1 546 0
	mov	r0, r8
	bl	strlen
.LVL5:
.LBB398:
.LBB399:
	.loc 1 51 0
	adds	r0, r0, #1
.LVL6:
	bl	pvPortMalloc
.LVL7:
.LBE399:
.LBE398:
	.loc 1 547 0
	mov	r1, r8
	.loc 1 546 0
	str	r0, [r4]
	.loc 1 547 0
	bl	strcpy
.LVL8:
	.loc 1 549 0
	cbz	r7, .L2
	.loc 1 550 0
	mov	r0, r7
	bl	strlen
.LVL9:
.LBB400:
.LBB401:
	.loc 1 51 0
	adds	r0, r0, #1
.LVL10:
	bl	pvPortMalloc
.LVL11:
.LBE401:
.LBE400:
	.loc 1 551 0
	mov	r1, r7
	.loc 1 550 0
	str	r0, [r4, #8]
	.loc 1 551 0
	bl	strcpy
.LVL12:
.L2:
	.loc 1 554 0
	cbz	r6, .L3
	.loc 1 555 0
	mov	r0, r6
	bl	strlen
.LVL13:
.LBB402:
.LBB403:
	.loc 1 51 0
	adds	r0, r0, #1
.LVL14:
	bl	pvPortMalloc
.LVL15:
.LBE403:
.LBE402:
	.loc 1 556 0
	mov	r1, r6
	.loc 1 555 0
	str	r0, [r4, #12]
	.loc 1 556 0
	bl	strcpy
.LVL16:
.L3:
	.loc 1 559 0
	cbz	r5, .L4
	.loc 1 560 0
	mov	r0, r5
	bl	strlen
.LVL17:
.LBB404:
.LBB405:
	.loc 1 51 0
	adds	r0, r0, #1
.LVL18:
	bl	pvPortMalloc
.LVL19:
.LBE405:
.LBE404:
	.loc 1 561 0
	mov	r1, r5
	.loc 1 560 0
	str	r0, [r4, #16]
	.loc 1 561 0
	bl	strcpy
.LVL20:
.L4:
	.loc 1 565 0
	mov	r0, r4
	pop	{r4, r5, r6, r7, r8, pc}
	.cfi_endproc
.LFE157:
	.size	_xml_new_element, .-_xml_new_element
	.section	.text._xml_path_count,"ax",%progbits
	.align	1
	.p2align 2,,3
	.syntax unified
	.thumb
	.thumb_func
	.fpu softvfp
	.type	_xml_path_count, %function
_xml_path_count:
.LFB173:
	.loc 1 811 0
	.cfi_startproc
	@ args = 0, pretend = 0, frame = 0
	@ frame_needed = 0, uses_anonymous_args = 0
.LVL21:
	push	{r3, r4, r5, r6, r7, r8, r9, r10, fp, lr}
	.cfi_def_cfa_offset 40
	.cfi_offset 3, -40
	.cfi_offset 4, -36
	.cfi_offset 5, -32
	.cfi_offset 6, -28
	.cfi_offset 7, -24
	.cfi_offset 8, -20
	.cfi_offset 9, -16
	.cfi_offset 10, -12
	.cfi_offset 11, -8
	.cfi_offset 14, -4
.LBB427:
.LBB428:
	.loc 1 606 0
	ldr	r3, [r0]
	cbz	r3, .L16
	.loc 1 606 0
	ldr	r9, [r0, #4]
	cmp	r9, #0
	beq	.L54
.L16:
	pop	{r3, r4, r5, r6, r7, r8, r9, r10, fp, pc}
.L54:
.LVL22:
	mov	r5, r1
	mov	r6, r0
.LBE428:
.LBE427:
.LBB429:
	.loc 1 815 0
	movs	r1, #47
.LVL23:
	mov	r0, r5
.LVL24:
	mov	r8, r2
	bl	strchr
.LVL25:
	cmp	r0, #0
	beq	.L55
.LVL26:
.LBB430:
	.loc 1 820 0
	adds	r4, r0, #1
.LVL27:
	.loc 1 821 0
	movs	r1, #58
	mov	r0, r4
	bl	strchr
.LVL28:
	.loc 1 823 0
	movs	r1, #47
	.loc 1 821 0
	mov	fp, r0
.LVL29:
	.loc 1 823 0
	mov	r0, r4
.LVL30:
	bl	strchr
.LVL31:
	mov	r7, r0
	cmp	r0, #0
	beq	.L19
	.loc 1 824 0
	cmp	fp, #0
	beq	.L20
	.loc 1 824 0 is_stmt 0 discriminator 1
	cmp	fp, r0
	bcc	.L56
.L20:
.LVL32:
	.loc 1 837 0 is_stmt 1
	sub	r9, r7, r4
.LVL33:
.LBB431:
.LBB432:
	.loc 1 51 0
	add	r0, r9, #1
.LVL34:
	bl	pvPortMalloc
.LVL35:
.LBE432:
.LBE431:
	.loc 1 839 0
	mov	r1, r4
	mov	r2, r9
.LBB434:
.LBB433:
	.loc 1 51 0
	mov	r5, r0
.LVL36:
.LBE433:
.LBE434:
	.loc 1 839 0
	bl	memcpy
.LVL37:
	.loc 1 840 0
	movs	r3, #0
	strb	r3, [r5, r9]
.LVL38:
	.loc 1 849 0
	ldr	r0, [r6]
	mov	r1, r5
	bl	strcmp
.LVL39:
	cbnz	r0, .L24
	.loc 1 843 0
	ldr	r10, [r6, #8]
.LVL40:
	.loc 1 854 0
	cmp	r10, #0
	bne	.L24
.LBB435:
	.loc 1 855 0
	ldr	r4, [r6, #24]
.LVL41:
	.loc 1 857 0
	cbz	r4, .L24
.LVL42:
.L26:
	.loc 1 858 0
	mov	r0, r4
	mov	r2, r8
	mov	r1, r7
	bl	_xml_path_count
.LVL43:
	.loc 1 859 0
	ldr	r4, [r4, #32]
.LVL44:
	.loc 1 857 0
	cmp	r4, #0
	bne	.L26
.LVL45:
.LBE435:
	.loc 1 898 0
	cmp	r10, #0
	beq	.L24
.LVL46:
.L35:
.LBB436:
.LBB437:
	.loc 1 56 0
	mov	r0, r10
	bl	vPortFree
.LVL47:
.L24:
.LBE437:
.LBE436:
.LBB438:
.LBB439:
	mov	r0, r5
.LBE439:
.LBE438:
.LBE430:
.LBE429:
	.loc 1 902 0
	pop	{r3, r4, r5, r6, r7, r8, r9, r10, fp, lr}
	.cfi_remember_state
	.cfi_restore 14
	.cfi_restore 11
	.cfi_restore 10
	.cfi_restore 9
	.cfi_restore 8
	.cfi_restore 7
	.cfi_restore 6
	.cfi_restore 5
	.cfi_restore 4
	.cfi_restore 3
	.cfi_def_cfa_offset 0
.LVL48:
.LBB455:
.LBB453:
.LBB441:
.LBB440:
	.loc 1 56 0
	b	vPortFree
.LVL49:
.L56:
	.cfi_restore_state
.LBE440:
.LBE441:
	.loc 1 825 0
	sub	r5, fp, r4
.LVL50:
.LBB442:
.LBB443:
	.loc 1 51 0
	adds	r0, r5, #1
.LVL51:
	bl	pvPortMalloc
.LVL52:
	mov	r10, r0
.LVL53:
.LBE443:
.LBE442:
	.loc 1 830 0
	add	fp, fp, #1
.LVL54:
	.loc 1 827 0
	mov	r2, r5
	mov	r1, r4
	.loc 1 830 0
	sub	r4, r7, fp
.LVL55:
	.loc 1 827 0
	bl	memcpy
.LVL56:
	.loc 1 828 0
	strb	r9, [r10, r5]
.LBB444:
.LBB445:
	.loc 1 51 0
	adds	r0, r4, #1
.LVL57:
	bl	pvPortMalloc
.LVL58:
	mov	r5, r0
.LVL59:
.LBE445:
.LBE444:
	.loc 1 832 0
	mov	r2, r4
	mov	r1, fp
	bl	memcpy
.LVL60:
	.loc 1 833 0
	strb	r9, [r5, r4]
.LVL61:
	.loc 1 844 0
	ldr	r0, [r6, #8]
	cmp	r0, #0
	beq	.L35
	.loc 1 844 0 is_stmt 0 discriminator 1
	mov	r1, r10
	bl	strcmp
.LVL62:
	.loc 1 849 0 is_stmt 1 discriminator 1
	mov	r1, r5
	.loc 1 844 0 discriminator 1
	mov	r4, r0
.LVL63:
	.loc 1 849 0 discriminator 1
	ldr	r0, [r6]
.LVL64:
	bl	strcmp
.LVL65:
	cmp	r0, #0
	bne	.L35
.LVL66:
	.loc 1 854 0
	cmp	r4, #0
	bne	.L35
.LBB446:
	.loc 1 855 0
	ldr	r4, [r6, #24]
.LVL67:
	.loc 1 857 0
	cmp	r4, #0
	bne	.L26
	b	.L35
.LVL68:
.L19:
.LBE446:
	.loc 1 864 0
	cmp	fp, #0
	beq	.L28
	.loc 1 865 0
	sub	r9, fp, r4
.LVL69:
.LBB447:
.LBB448:
	.loc 1 51 0
	add	r0, r9, #1
.LVL70:
	bl	pvPortMalloc
.LVL71:
	mov	r10, r0
.LVL72:
.LBE448:
.LBE447:
	.loc 1 867 0
	mov	r1, r4
	mov	r2, r9
	bl	memcpy
.LVL73:
	.loc 1 870 0
	mov	r0, r5
	.loc 1 868 0
	strb	r7, [r10, r9]
	.loc 1 870 0
	bl	strlen
.LVL74:
	add	fp, fp, #1
.LVL75:
	sub	r5, fp, r5
.LVL76:
	subs	r4, r0, r5
.LVL77:
.LBB449:
.LBB450:
	.loc 1 51 0
	adds	r0, r4, #1
.LVL78:
	bl	pvPortMalloc
.LVL79:
	mov	r5, r0
.LVL80:
.LBE450:
.LBE449:
	.loc 1 872 0
	mov	r2, r4
	mov	r1, fp
	bl	memcpy
.LVL81:
	.loc 1 873 0
	strb	r7, [r5, r4]
.LVL82:
	.loc 1 884 0
	ldr	r0, [r6, #8]
	cmp	r0, #0
	beq	.L35
	.loc 1 884 0 is_stmt 0 discriminator 1
	mov	r1, r10
	bl	strcmp
.LVL83:
	.loc 1 889 0 is_stmt 1 discriminator 1
	mov	r1, r5
	.loc 1 884 0 discriminator 1
	mov	r4, r0
.LVL84:
	.loc 1 889 0 discriminator 1
	ldr	r0, [r6]
.LVL85:
	bl	strcmp
.LVL86:
	cmp	r0, #0
	bne	.L35
.LVL87:
	.loc 1 894 0
	cmp	r4, #0
	bne	.L35
.LVL88:
.L33:
	.loc 1 895 0
	ldr	r3, [r8]
	adds	r3, r3, #1
	str	r3, [r8]
.LVL89:
	.loc 1 898 0
	cmp	r10, #0
	bne	.L35
	b	.L24
.LVL90:
.L55:
.LBE453:
	pop	{r3, r4, r5, r6, r7, r8, r9, r10, fp, pc}
.LVL91:
.L28:
.LBB454:
	.loc 1 877 0
	mov	r0, r5
.LVL92:
	bl	strlen
.LVL93:
	subs	r1, r4, r5
	subs	r7, r0, r1
.LVL94:
.LBB451:
.LBB452:
	.loc 1 51 0
	adds	r0, r7, #1
.LVL95:
	bl	pvPortMalloc
.LVL96:
	mov	r5, r0
.LVL97:
.LBE452:
.LBE451:
	.loc 1 879 0
	mov	r1, r4
	mov	r2, r7
	bl	memcpy
.LVL98:
	.loc 1 880 0
	strb	fp, [r5, r7]
.LVL99:
	.loc 1 889 0
	ldr	r0, [r6]
	mov	r1, r5
	.loc 1 883 0
	ldr	r10, [r6, #8]
.LVL100:
	.loc 1 889 0
	bl	strcmp
.LVL101:
	cmp	r0, #0
	bne	.L24
.LVL102:
	.loc 1 894 0
	cmp	r10, #0
	beq	.L33
	b	.L24
.LBE454:
.LBE455:
	.cfi_endproc
.LFE173:
	.size	_xml_path_count, .-_xml_path_count
	.section	.text._xml_find_path,"ax",%progbits
	.align	1
	.p2align 2,,3
	.syntax unified
	.thumb
	.thumb_func
	.fpu softvfp
	.type	_xml_find_path, %function
_xml_find_path:
.LFB175:
	.loc 1 914 0
	.cfi_startproc
	@ args = 0, pretend = 0, frame = 8
	@ frame_needed = 0, uses_anonymous_args = 0
.LVL103:
.LBB456:
.LBB457:
	.loc 1 606 0
	ldr	r3, [r0]
	cmp	r3, #0
	beq	.L94
.LBE457:
.LBE456:
	.loc 1 914 0
	push	{r4, r5, r6, r7, r8, r9, r10, fp, lr}
	.cfi_def_cfa_offset 36
	.cfi_offset 4, -36
	.cfi_offset 5, -32
	.cfi_offset 6, -28
	.cfi_offset 7, -24
	.cfi_offset 8, -20
	.cfi_offset 9, -16
	.cfi_offset 10, -12
	.cfi_offset 11, -8
	.cfi_offset 14, -4
.LBB460:
.LBB458:
	.loc 1 606 0
	ldr	r9, [r0, #4]
.LBE458:
.LBE460:
	.loc 1 914 0
	sub	sp, sp, #12
	.cfi_def_cfa_offset 48
.LBB461:
.LBB459:
	.loc 1 606 0
	cmp	r9, #0
	beq	.L100
.LVL104:
.L57:
.LBE459:
.LBE461:
	.loc 1 1007 0
	add	sp, sp, #12
	.cfi_remember_state
	.cfi_def_cfa_offset 36
	@ sp needed
	pop	{r4, r5, r6, r7, r8, r9, r10, fp, pc}
.LVL105:
.L100:
	.cfi_restore_state
	mov	fp, r1
	mov	r4, r0
.LBB462:
	.loc 1 918 0
	movs	r1, #47
.LVL106:
	mov	r0, fp
.LVL107:
	mov	r7, r2
	bl	strchr
.LVL108:
	cmp	r0, #0
	beq	.L57
.LVL109:
.LBB463:
	.loc 1 923 0
	adds	r5, r0, #1
.LVL110:
	.loc 1 924 0
	movs	r1, #58
	mov	r0, r5
	bl	strchr
.LVL111:
	.loc 1 926 0
	movs	r1, #47
	.loc 1 924 0
	mov	r10, r0
.LVL112:
	.loc 1 926 0
	mov	r0, r5
.LVL113:
	bl	strchr
.LVL114:
	mov	r6, r0
	cmp	r0, #0
	beq	.L60
	.loc 1 927 0
	cmp	r10, #0
	beq	.L61
	.loc 1 927 0 is_stmt 0 discriminator 1
	cmp	r10, r0
	bcc	.L101
.L61:
.LVL115:
	.loc 1 940 0 is_stmt 1
	sub	r8, r6, r5
.LVL116:
.LBB464:
.LBB465:
	.loc 1 51 0
	add	r0, r8, #1
.LVL117:
	bl	pvPortMalloc
.LVL118:
.LBE465:
.LBE464:
	.loc 1 942 0
	mov	r1, r5
	mov	r2, r8
.LBB467:
.LBB466:
	.loc 1 51 0
	mov	r9, r0
.LVL119:
.LBE466:
.LBE467:
	.loc 1 942 0
	bl	memcpy
.LVL120:
	.loc 1 943 0
	movs	r3, #0
	strb	r3, [r9, r8]
.LVL121:
	.loc 1 952 0
	ldr	r0, [r4]
	mov	r1, r9
	bl	strcmp
.LVL122:
	cmp	r0, #0
	bne	.L98
	.loc 1 946 0
	ldr	r8, [r4, #8]
.LVL123:
	.loc 1 957 0
	cmp	r8, #0
	bne	.L98
.LBB468:
	.loc 1 958 0
	ldr	r4, [r4, #24]
.LVL124:
	.loc 1 960 0
	mov	r5, r9
.LVL125:
	cmp	r4, #0
	beq	.L98
.LVL126:
.L67:
	.loc 1 961 0
	mov	r0, r4
	mov	r2, r7
	mov	r1, r6
	bl	_xml_find_path
.LVL127:
	.loc 1 962 0
	ldr	r4, [r4, #32]
.LVL128:
	.loc 1 960 0
	cmp	r4, #0
	bne	.L67
.LVL129:
.LBE468:
	.loc 1 1003 0
	cmp	r8, #0
	beq	.L65
.LVL130:
.L76:
.LBB469:
.LBB470:
	.loc 1 56 0
	mov	r0, r8
	bl	vPortFree
.LVL131:
.L65:
.LBE470:
.LBE469:
.LBB471:
.LBB472:
	mov	r0, r5
.LBE472:
.LBE471:
.LBE463:
.LBE462:
	.loc 1 1007 0
	add	sp, sp, #12
	.cfi_remember_state
	.cfi_def_cfa_offset 36
	@ sp needed
	pop	{r4, r5, r6, r7, r8, r9, r10, fp, lr}
	.cfi_restore 14
	.cfi_restore 11
	.cfi_restore 10
	.cfi_restore 9
	.cfi_restore 8
	.cfi_restore 7
	.cfi_restore 6
	.cfi_restore 5
	.cfi_restore 4
	.cfi_def_cfa_offset 0
.LVL132:
.LBB493:
.LBB491:
.LBB476:
.LBB473:
	.loc 1 56 0
	b	vPortFree
.LVL133:
.L101:
	.cfi_restore_state
.LBE473:
.LBE476:
	.loc 1 928 0
	sub	r3, r10, r5
.LVL134:
.LBB477:
.LBB478:
	.loc 1 51 0
	adds	r0, r3, #1
.LVL135:
	str	r3, [sp, #4]
	bl	pvPortMalloc
.LVL136:
	mov	r8, r0
.LVL137:
.LBE478:
.LBE477:
	.loc 1 930 0
	ldr	r3, [sp, #4]
	mov	r1, r5
	mov	r2, r3
	bl	memcpy
.LVL138:
	.loc 1 933 0
	add	r10, r10, #1
.LVL139:
	.loc 1 931 0
	ldr	r3, [sp, #4]
	.loc 1 933 0
	sub	fp, r6, r10
.LVL140:
	.loc 1 931 0
	strb	r9, [r8, r3]
.LBB479:
.LBB480:
	.loc 1 51 0
	add	r0, fp, #1
.LVL141:
	bl	pvPortMalloc
.LVL142:
	mov	r5, r0
.LVL143:
.LBE480:
.LBE479:
	.loc 1 935 0
	mov	r2, fp
	mov	r1, r10
	bl	memcpy
.LVL144:
	.loc 1 936 0
	strb	r9, [r5, fp]
.LVL145:
	.loc 1 947 0
	ldr	r0, [r4, #8]
	cmp	r0, #0
	beq	.L76
	.loc 1 947 0 is_stmt 0 discriminator 1
	mov	r1, r8
	bl	strcmp
.LVL146:
	.loc 1 952 0 is_stmt 1 discriminator 1
	mov	r1, r5
	.loc 1 947 0 discriminator 1
	mov	r9, r0
.LVL147:
	.loc 1 952 0 discriminator 1
	ldr	r0, [r4]
.LVL148:
	bl	strcmp
.LVL149:
	cmp	r0, #0
	bne	.L76
.LVL150:
	.loc 1 957 0
	cmp	r9, #0
	bne	.L76
.LBB481:
	.loc 1 958 0
	ldr	r4, [r4, #24]
.LVL151:
	.loc 1 960 0
	cmp	r4, #0
	bne	.L67
	b	.L76
.LVL152:
.L69:
.LBE481:
	.loc 1 980 0
	mov	r0, fp
.LVL153:
	bl	strlen
.LVL154:
	sub	r6, r5, fp
.LVL155:
	subs	r6, r0, r6
.LVL156:
.LBB482:
.LBB483:
	.loc 1 51 0
	adds	r0, r6, #1
.LVL157:
	bl	pvPortMalloc
.LVL158:
	mov	r9, r0
.LVL159:
.LBE483:
.LBE482:
	.loc 1 982 0
	mov	r1, r5
	mov	r2, r6
	bl	memcpy
.LVL160:
	.loc 1 983 0
	strb	r10, [r9, r6]
.LVL161:
	.loc 1 992 0
	ldr	r0, [r4]
	mov	r1, r9
	.loc 1 986 0
	ldr	r8, [r4, #8]
.LVL162:
	.loc 1 992 0
	bl	strcmp
.LVL163:
	cbnz	r0, .L98
.LVL164:
	.loc 1 997 0
	mov	r5, r9
.LVL165:
	cmp	r8, #0
	beq	.L74
.LVL166:
.L98:
.LBB484:
	.loc 1 960 0
	mov	r5, r9
.LVL167:
.LBE484:
.LBB485:
.LBB474:
	.loc 1 56 0
	mov	r0, r5
.LBE474:
.LBE485:
.LBE491:
.LBE493:
	.loc 1 1007 0
	add	sp, sp, #12
	.cfi_remember_state
	.cfi_def_cfa_offset 36
	@ sp needed
	pop	{r4, r5, r6, r7, r8, r9, r10, fp, lr}
	.cfi_restore 4
	.cfi_restore 5
	.cfi_restore 6
	.cfi_restore 7
	.cfi_restore 8
	.cfi_restore 9
	.cfi_restore 10
	.cfi_restore 11
	.cfi_restore 14
	.cfi_def_cfa_offset 0
.LVL168:
.LBB494:
.LBB492:
.LBB486:
.LBB475:
	.loc 1 56 0
	b	vPortFree
.LVL169:
.L60:
	.cfi_restore_state
.LBE475:
.LBE486:
	.loc 1 967 0
	cmp	r10, #0
	beq	.L69
	.loc 1 968 0
	sub	r9, r10, r5
.LVL170:
.LBB487:
.LBB488:
	.loc 1 51 0
	add	r0, r9, #1
.LVL171:
	bl	pvPortMalloc
.LVL172:
	mov	r8, r0
.LVL173:
.LBE488:
.LBE487:
	.loc 1 970 0
	mov	r1, r5
	mov	r2, r9
	bl	memcpy
.LVL174:
	.loc 1 973 0
	mov	r0, fp
	.loc 1 971 0
	strb	r6, [r8, r9]
	.loc 1 973 0
	bl	strlen
.LVL175:
	add	r10, r10, #1
.LVL176:
	sub	fp, r10, fp
.LVL177:
	sub	fp, r0, fp
.LVL178:
.LBB489:
.LBB490:
	.loc 1 51 0
	add	r0, fp, #1
.LVL179:
	bl	pvPortMalloc
.LVL180:
	mov	r5, r0
.LVL181:
.LBE490:
.LBE489:
	.loc 1 975 0
	mov	r2, fp
	mov	r1, r10
	bl	memcpy
.LVL182:
	.loc 1 976 0
	strb	r6, [r5, fp]
.LVL183:
	.loc 1 987 0
	ldr	r0, [r4, #8]
	cmp	r0, #0
	beq	.L76
	.loc 1 987 0 is_stmt 0 discriminator 1
	mov	r1, r8
	bl	strcmp
.LVL184:
	.loc 1 992 0 is_stmt 1 discriminator 1
	mov	r1, r5
	.loc 1 987 0 discriminator 1
	mov	r6, r0
.LVL185:
	.loc 1 992 0 discriminator 1
	ldr	r0, [r4]
.LVL186:
	bl	strcmp
.LVL187:
	cmp	r0, #0
	bne	.L76
.LVL188:
	.loc 1 997 0
	cmp	r6, #0
	bne	.L76
.LVL189:
.L74:
	.loc 1 998 0
	ldr	r3, [r7]
	ldr	r1, [r7, #4]
	.loc 1 999 0
	adds	r2, r3, #1
	.loc 1 998 0
	str	r4, [r1, r3, lsl #2]
	.loc 1 999 0
	str	r2, [r7]
.LVL190:
	.loc 1 1003 0
	cmp	r8, #0
	bne	.L76
	b	.L65
.LVL191:
.L94:
	.cfi_def_cfa_offset 0
	.cfi_restore 4
	.cfi_restore 5
	.cfi_restore 6
	.cfi_restore 7
	.cfi_restore 8
	.cfi_restore 9
	.cfi_restore 10
	.cfi_restore 11
	.cfi_restore 14
	bx	lr
.LBE492:
.LBE494:
	.cfi_endproc
.LFE175:
	.size	_xml_find_path, .-_xml_find_path
	.section	.text._xml_dump_tree,"ax",%progbits
	.align	1
	.p2align 2,,3
	.syntax unified
	.thumb
	.thumb_func
	.fpu softvfp
	.type	_xml_dump_tree, %function
_xml_dump_tree:
.LFB179:
	.loc 1 1093 0
	.cfi_startproc
	@ args = 0, pretend = 0, frame = 24
	@ frame_needed = 0, uses_anonymous_args = 0
.LVL192:
	push	{r4, r5, r6, r7, r8, r9, r10, fp, lr}
	.cfi_def_cfa_offset 36
	.cfi_offset 4, -36
	.cfi_offset 5, -32
	.cfi_offset 6, -28
	.cfi_offset 7, -24
	.cfi_offset 8, -20
	.cfi_offset 9, -16
	.cfi_offset 10, -12
	.cfi_offset 11, -8
	.cfi_offset 14, -4
	mov	r8, r0
	sub	sp, sp, #28
	.cfi_def_cfa_offset 64
	.loc 1 1093 0
	mov	r6, r1
	mov	r9, r3
	.loc 1 1094 0
	mov	r7, r2
	cbz	r2, .L127
.LBB504:
.LBB505:
	.loc 1 616 0 discriminator 1
	ldr	r3, [r8]
.LVL193:
.LBE505:
.LBE504:
	.loc 1 1094 0 discriminator 1
	add	r10, r2, #1
.LVL194:
.LBB509:
.LBB506:
	.loc 1 616 0 discriminator 1
	cbz	r3, .L144
.L104:
.LVL195:
.LBE506:
.LBE509:
.LBB510:
.LBB511:
	.loc 1 606 0
	ldr	r3, [r8, #4]
	cbz	r3, .L145
.LVL196:
.L102:
.LBE511:
.LBE510:
	.loc 1 1174 0
	add	sp, sp, #28
	.cfi_remember_state
	.cfi_def_cfa_offset 36
	@ sp needed
	pop	{r4, r5, r6, r7, r8, r9, r10, fp, pc}
.LVL197:
.L127:
	.cfi_restore_state
.LBB512:
.LBB507:
	.loc 1 616 0
	ldr	r3, [r8]
.LVL198:
.LBE507:
.LBE512:
	.loc 1 1094 0
	mov	r10, r2
.LVL199:
.LBB513:
.LBB508:
	.loc 1 616 0
	cmp	r3, #0
	bne	.L104
.L144:
	.loc 1 616 0
	ldr	r1, [r8, #4]
.LVL200:
	cmp	r1, #0
	beq	.L102
.LVL201:
.LBE508:
.LBE513:
	.loc 1 1097 0
	mov	r0, r6
.LVL202:
	bl	strcat
.LVL203:
	.loc 1 1174 0
	add	sp, sp, #28
	.cfi_remember_state
	.cfi_def_cfa_offset 36
	@ sp needed
	pop	{r4, r5, r6, r7, r8, r9, r10, fp, pc}
.LVL204:
.L145:
	.cfi_restore_state
.LBB514:
	.loc 1 1103 0
	ldr	r3, [r8, #8]
	.loc 1 1100 0
	ldr	r4, [r8, #24]
.LVL205:
	.loc 1 1103 0
	cmp	r3, #0
	beq	.L146
	.loc 1 1103 0 is_stmt 0 discriminator 1
	ldr	r3, [r8, #16]
	.loc 1 1104 0 is_stmt 1 discriminator 1
	mov	r0, r6
.LVL206:
	.loc 1 1103 0 discriminator 1
	cmp	r3, #0
	beq	.L108
.LVL207:
	.loc 1 1104 0
	bl	strlen
.LVL208:
	mov	r3, r0
	ldr	r2, .L150
	adds	r0, r0, #1
	ldrh	r2, [r2]	@ unaligned
	.loc 1 1105 0
	add	r0, r0, r6
	.loc 1 1104 0
	strh	r2, [r6, r3]	@ unaligned
	.loc 1 1105 0
	ldr	r1, [r8, #8]
	bl	stpcpy
.LVL209:
	mov	r3, r0
	.loc 1 1106 0
	ldr	r2, .L150+4
	.loc 1 1110 0
	ldr	r1, .L150+8
	.loc 1 1106 0
	ldrh	r2, [r2]	@ unaligned
	.loc 1 1110 0
	str	r1, [sp, #4]
	.loc 1 1106 0
	strh	r2, [r3]	@ unaligned
	.loc 1 1107 0
	adds	r0, r0, #1
	.loc 1 1110 0
	mov	r5, r1
	.loc 1 1107 0
	ldr	r1, [r8]
	bl	stpcpy
.LVL210:
	.loc 1 1108 0
	ldr	r2, .L150+12
	.loc 1 1107 0
	mov	r3, r0
	.loc 1 1108 0
	ldrh	r2, [r2]	@ unaligned
	.loc 1 1109 0
	adds	r0, r0, #1
.L140:
	.loc 1 1122 0
	strh	r2, [r3]	@ unaligned
	.loc 1 1123 0
	ldr	r1, [r8, #16]
	bl	stpcpy
.LVL211:
	.loc 1 1124 0
	ldrh	r3, [r5]	@ unaligned
	strh	r3, [r0]	@ unaligned
.L109:
	.loc 1 1132 0
	cbnz	r4, .L118
	b	.L111
.LVL212:
.L148:
.LBB515:
.LBB516:
	.loc 1 606 0
	movs	r5, #0
.LVL213:
.L113:
.LBE516:
.LBE515:
	.loc 1 1145 0
	mov	r0, r4
	mov	r3, r9
	mov	r2, r10
	mov	r1, r6
	bl	_xml_dump_tree
.LVL214:
	.loc 1 1146 0
	ldr	r4, [r4, #32]
.LVL215:
	.loc 1 1132 0
	cbz	r4, .L147
.L118:
.LVL216:
.LBB519:
.LBB517:
	.loc 1 606 0
	ldr	r5, [r4]
	cmp	r5, #0
	beq	.L113
	.loc 1 606 0
	ldr	r5, [r4, #4]
	cmp	r5, #0
	bne	.L148
.LVL217:
.LBE517:
.LBE519:
	.loc 1 1133 0
	cbnz	r7, .L126
.L141:
.LBB520:
.LBB518:
	.loc 1 607 0
	movs	r5, #1
	b	.L113
.L147:
.LBE518:
.LBE520:
	.loc 1 1149 0
	cbz	r5, .L111
	.loc 1 1149 0 is_stmt 0 discriminator 1
	cmp	r7, #0
	bne	.L149
.LVL218:
.L111:
	.loc 1 1161 0 is_stmt 1
	ldr	r3, [r8, #8]
	.loc 1 1162 0
	mov	r0, r6
	.loc 1 1161 0
	cmp	r3, #0
	beq	.L123
.LVL219:
	.loc 1 1162 0
	bl	strlen
.LVL220:
	ldr	r3, .L150+16
	adds	r2, r6, r0
	ldrh	r1, [r3]	@ unaligned
	ldrb	r3, [r3, #2]	@ zero_extendqisi2
	strh	r1, [r6, r0]	@ unaligned
	strb	r3, [r2, #2]
	adds	r0, r0, #2
	.loc 1 1163 0
	ldr	r1, [r8, #8]
	add	r0, r0, r6
	bl	stpcpy
.LVL221:
	mov	r3, r0
	.loc 1 1164 0
	ldr	r2, .L150+4
	.loc 1 1165 0
	adds	r0, r0, #1
	.loc 1 1164 0
	ldrh	r2, [r2]	@ unaligned
	strh	r2, [r3]	@ unaligned
	.loc 1 1165 0
	ldr	r1, [r8]
	bl	stpcpy
.LVL222:
	.loc 1 1166 0
	ldr	r3, [sp, #4]
	ldrh	r3, [r3]	@ unaligned
	strh	r3, [r0]	@ unaligned
.LBE514:
	.loc 1 1174 0
	add	sp, sp, #28
	.cfi_remember_state
	.cfi_def_cfa_offset 36
	@ sp needed
	pop	{r4, r5, r6, r7, r8, r9, r10, fp, pc}
.LVL223:
.L126:
	.cfi_restore_state
.LBB523:
.LBB521:
	.loc 1 1137 0
	mov	r0, r6
	bl	strlen
.LVL224:
	.loc 1 1138 0
	mov	r3, #538976288
	.loc 1 1137 0
	ldr	r2, .L150+20
	.loc 1 1138 0
	add	fp, sp, #12
	.loc 1 1137 0
	ldrh	r2, [r2]	@ unaligned
	.loc 1 1138 0
	str	r3, [sp, #12]
	.loc 1 1137 0
	strh	r2, [r6, r0]	@ unaligned
	.loc 1 1138 0
	str	r3, [fp, #4]
	str	r3, [fp, #7]	@ unaligned
	.loc 1 1139 0
	add	r3, sp, #24
	add	r3, r3, r9
	.loc 1 1141 0
	cmp	r7, #0
	.loc 1 1139 0
	strb	r5, [r3, #-12]
.LVL225:
	.loc 1 1141 0
	ble	.L141
.LVL226:
.L116:
	.loc 1 1141 0 is_stmt 0 discriminator 3
	adds	r5, r5, #1
.LVL227:
	.loc 1 1142 0 is_stmt 1 discriminator 3
	mov	r1, fp
	mov	r0, r6
	bl	strcat
.LVL228:
	.loc 1 1141 0 discriminator 3
	cmp	r7, r5
	bne	.L116
	b	.L141
.LVL229:
.L149:
.LBE521:
.LBB522:
	.loc 1 1153 0
	mov	r0, r6
	bl	strlen
.LVL230:
	.loc 1 1154 0
	mov	r3, #538976288
	.loc 1 1153 0
	ldr	r2, .L150+20
	.loc 1 1155 0
	add	r1, sp, #24
	.loc 1 1153 0
	ldrh	r2, [r2]	@ unaligned
	.loc 1 1154 0
	add	r5, sp, #12
	.loc 1 1155 0
	add	r9, r9, r1
.LVL231:
	.loc 1 1157 0
	cmp	r7, #1
	.loc 1 1154 0
	str	r3, [sp, #12]
	.loc 1 1153 0
	strh	r2, [r6, r0]	@ unaligned
	.loc 1 1154 0
	str	r3, [r5, #4]
	str	r3, [r5, #7]	@ unaligned
	.loc 1 1155 0
	strb	r4, [r9, #-12]
.LVL232:
	.loc 1 1157 0
	ble	.L111
	subs	r7, r7, #1
.LVL233:
.L121:
	.loc 1 1157 0 is_stmt 0 discriminator 3
	adds	r4, r4, #1
.LVL234:
	.loc 1 1158 0 is_stmt 1 discriminator 3
	mov	r1, r5
	mov	r0, r6
	bl	strcat
.LVL235:
	.loc 1 1157 0 discriminator 3
	cmp	r7, r4
	bne	.L121
	b	.L111
.LVL236:
.L108:
.LBE522:
	.loc 1 1113 0
	bl	strlen
.LVL237:
	mov	r3, r0
	ldr	r2, .L150
	adds	r0, r0, #1
	ldrh	r2, [r2]	@ unaligned
	.loc 1 1114 0
	add	r0, r0, r6
	.loc 1 1113 0
	strh	r2, [r6, r3]	@ unaligned
	.loc 1 1114 0
	ldr	r1, [r8, #8]
	bl	stpcpy
.LVL238:
	mov	r3, r0
	.loc 1 1115 0
	ldr	r2, .L150+4
	.loc 1 1117 0
	ldr	r1, .L150+8
	.loc 1 1115 0
	ldrh	r2, [r2]	@ unaligned
	.loc 1 1117 0
	str	r1, [sp, #4]
	mov	r5, r1
	.loc 1 1115 0
	strh	r2, [r3]	@ unaligned
	.loc 1 1116 0
	adds	r0, r0, #1
	ldr	r1, [r8]
	bl	stpcpy
.LVL239:
	.loc 1 1117 0
	ldrh	r3, [r5]	@ unaligned
	strh	r3, [r0]	@ unaligned
	b	.L109
.LVL240:
.L123:
	.loc 1 1169 0
	bl	strlen
.LVL241:
	ldr	r3, .L150+16
	adds	r2, r6, r0
	ldrh	r1, [r3]	@ unaligned
	ldrb	r3, [r3, #2]	@ zero_extendqisi2
	strh	r1, [r6, r0]	@ unaligned
	strb	r3, [r2, #2]
	adds	r0, r0, #2
	.loc 1 1170 0
	ldr	r1, [r8]
	add	r0, r0, r6
	bl	stpcpy
.LVL242:
	.loc 1 1171 0
	ldr	r3, [sp, #4]
	ldrh	r3, [r3]	@ unaligned
	strh	r3, [r0]	@ unaligned
.LBE523:
	.loc 1 1174 0
	add	sp, sp, #28
	.cfi_remember_state
	.cfi_def_cfa_offset 36
	@ sp needed
	pop	{r4, r5, r6, r7, r8, r9, r10, fp, pc}
.LVL243:
.L146:
	.cfi_restore_state
.LBB524:
	.loc 1 1119 0
	ldr	r3, [r8, #16]
	.loc 1 1120 0
	mov	r0, r6
.LVL244:
	.loc 1 1119 0
	cbz	r3, .L112
.LVL245:
	.loc 1 1120 0
	bl	strlen
.LVL246:
	mov	r3, r0
	ldr	r2, .L150
	adds	r0, r0, #1
	ldrh	r2, [r2]	@ unaligned
	.loc 1 1121 0
	add	r0, r0, r6
	.loc 1 1120 0
	strh	r2, [r6, r3]	@ unaligned
	.loc 1 1121 0
	ldr	r1, [r8]
	bl	stpcpy
.LVL247:
	.loc 1 1124 0
	ldr	r1, .L150+8
	.loc 1 1122 0
	ldr	r2, .L150+12
	.loc 1 1121 0
	mov	r3, r0
	.loc 1 1122 0
	ldrh	r2, [r2]	@ unaligned
	.loc 1 1123 0
	adds	r0, r0, #1
	.loc 1 1124 0
	mov	r5, r1
	str	r1, [sp, #4]
	b	.L140
.LVL248:
.L112:
	.loc 1 1127 0
	bl	strlen
.LVL249:
	mov	r3, r0
	ldr	r2, .L150
	adds	r0, r0, #1
	ldrh	r2, [r2]	@ unaligned
	.loc 1 1128 0
	add	r0, r0, r6
	.loc 1 1127 0
	strh	r2, [r6, r3]	@ unaligned
	.loc 1 1128 0
	ldr	r1, [r8]
	bl	stpcpy
.LVL250:
	.loc 1 1129 0
	ldr	r3, .L150+8
	str	r3, [sp, #4]
	ldrh	r3, [r3]	@ unaligned
	strh	r3, [r0]	@ unaligned
	b	.L109
.L151:
	.align	2
.L150:
	.word	.LC0
	.word	.LC1
	.word	.LC3
	.word	.LC2
	.word	.LC5
	.word	.LC4
.LBE524:
	.cfi_endproc
.LFE179:
	.size	_xml_dump_tree, .-_xml_dump_tree
	.section	.text._xml_element_count,"ax",%progbits
	.align	1
	.p2align 2,,3
	.syntax unified
	.thumb
	.thumb_func
	.fpu softvfp
	.type	_xml_element_count, %function
_xml_element_count:
.LFB169:
	.loc 1 750 0
	.cfi_startproc
	@ args = 0, pretend = 0, frame = 16
	@ frame_needed = 0, uses_anonymous_args = 0
.LVL251:
	mov	r3, r0
.LVL252:
.LBB571:
.LBB572:
	.loc 1 606 0
	ldr	r0, [r0]
.LVL253:
	cbz	r0, .L244
.LBE572:
.LBE571:
	.loc 1 750 0
	push	{r4, r5, r6, r7, r8, r9, r10, fp, lr}
	.cfi_def_cfa_offset 36
	.cfi_offset 4, -36
	.cfi_offset 5, -32
	.cfi_offset 6, -28
	.cfi_offset 7, -24
	.cfi_offset 8, -20
	.cfi_offset 9, -16
	.cfi_offset 10, -12
	.cfi_offset 11, -8
	.cfi_offset 14, -4
.LBB575:
.LBB573:
	.loc 1 606 0
	ldr	r4, [r3, #4]
.LBE573:
.LBE575:
	.loc 1 750 0
	sub	sp, sp, #20
	.cfi_def_cfa_offset 56
.LBB576:
.LBB574:
	.loc 1 606 0
	cbz	r4, .L256
.LVL254:
.L152:
.LBE574:
.LBE576:
	.loc 1 763 0
	add	sp, sp, #20
	.cfi_def_cfa_offset 36
	@ sp needed
	pop	{r4, r5, r6, r7, r8, r9, r10, fp, pc}
.LVL255:
.L244:
	.cfi_def_cfa_offset 0
	.cfi_restore 4
	.cfi_restore 5
	.cfi_restore 6
	.cfi_restore 7
	.cfi_restore 8
	.cfi_restore 9
	.cfi_restore 10
	.cfi_restore 11
	.cfi_restore 14
	bx	lr
.L256:
	.cfi_def_cfa_offset 56
	.cfi_offset 4, -36
	.cfi_offset 5, -32
	.cfi_offset 6, -28
	.cfi_offset 7, -24
	.cfi_offset 8, -20
	.cfi_offset 9, -16
	.cfi_offset 10, -12
	.cfi_offset 11, -8
	.cfi_offset 14, -4
.LVL256:
.LBB577:
	.loc 1 752 0
	ldr	r3, [r3, #24]
.LVL257:
	mov	r6, r1
	mov	r5, r2
	str	r3, [sp, #8]
.LVL258:
	.loc 1 754 0
	bl	strcmp
.LVL259:
	cbnz	r0, .L190
	.loc 1 755 0
	ldr	r3, [r5]
	adds	r3, r3, #1
	str	r3, [r5]
.L190:
	.loc 1 758 0
	ldr	r3, [sp, #8]
	cmp	r3, #0
	beq	.L152
.LVL260:
.L157:
.LBB578:
.LBB579:
.LBB580:
	.loc 1 606 0
	ldr	r0, [r3]
	cbz	r0, .L159
	.loc 1 606 0
	ldr	r3, [r3, #4]
	cbz	r3, .L257
.LVL261:
.L159:
.LBE580:
.LBE579:
.LBE578:
	.loc 1 760 0
	ldr	r3, [sp, #8]
	ldr	r3, [r3, #32]
	str	r3, [sp, #8]
.LVL262:
	.loc 1 758 0
	cmp	r3, #0
	bne	.L157
	b	.L152
.LVL263:
.L257:
.LBB612:
.LBB581:
	.loc 1 752 0
	ldr	r3, [sp, #8]
	.loc 1 754 0
	mov	r1, r6
	.loc 1 752 0
	ldr	r3, [r3, #24]
	str	r3, [sp, #12]
.LVL264:
	.loc 1 754 0
	bl	strcmp
.LVL265:
	cbnz	r0, .L192
	.loc 1 755 0
	ldr	r3, [r5]
	adds	r3, r3, #1
	str	r3, [r5]
.L192:
	.loc 1 758 0
	ldr	r3, [sp, #12]
	cmp	r3, #0
	beq	.L159
.LVL266:
.L161:
.LBB582:
.LBB583:
.LBB584:
	.loc 1 606 0
	ldr	r0, [r3]
	cbz	r0, .L163
	.loc 1 606 0
	ldr	r3, [r3, #4]
	cbz	r3, .L258
.LVL267:
.L163:
.LBE584:
.LBE583:
.LBE582:
	.loc 1 760 0
	ldr	r3, [sp, #12]
	ldr	r3, [r3, #32]
	str	r3, [sp, #12]
.LVL268:
	.loc 1 758 0
	cmp	r3, #0
	bne	.L161
	b	.L159
.LVL269:
.L258:
.LBB611:
.LBB585:
	.loc 1 752 0
	ldr	r3, [sp, #12]
	.loc 1 754 0
	mov	r1, r6
	.loc 1 752 0
	ldr	r9, [r3, #24]
.LVL270:
	.loc 1 754 0
	bl	strcmp
.LVL271:
	cbnz	r0, .L194
	.loc 1 755 0
	ldr	r3, [r5]
	adds	r3, r3, #1
	str	r3, [r5]
.L194:
	.loc 1 758 0
	cmp	r9, #0
	beq	.L163
.L165:
.LVL272:
.LBB586:
.LBB587:
.LBB588:
	.loc 1 606 0
	ldr	r0, [r9]
	cbz	r0, .L167
	.loc 1 606 0
	ldr	r3, [r9, #4]
	cbz	r3, .L259
.LVL273:
.L167:
.LBE588:
.LBE587:
.LBE586:
	.loc 1 760 0
	ldr	r9, [r9, #32]
.LVL274:
	.loc 1 758 0
	cmp	r9, #0
	bne	.L165
	b	.L163
.LVL275:
.L259:
.LBB610:
.LBB589:
	.loc 1 754 0
	mov	r1, r6
	.loc 1 752 0
	ldr	r10, [r9, #24]
.LVL276:
	.loc 1 754 0
	bl	strcmp
.LVL277:
	cbnz	r0, .L196
	.loc 1 755 0
	ldr	r3, [r5]
	adds	r3, r3, #1
	str	r3, [r5]
.L196:
	.loc 1 758 0
	cmp	r10, #0
	bne	.L169
	b	.L167
.LVL278:
.L171:
	.loc 1 760 0
	ldr	r10, [r10, #32]
.LVL279:
	.loc 1 758 0
	cmp	r10, #0
	beq	.L167
.L169:
.LVL280:
.LBB590:
.LBB591:
.LBB592:
	.loc 1 606 0
	ldr	r0, [r10]
	cmp	r0, #0
	beq	.L171
	.loc 1 606 0
	ldr	r3, [r10, #4]
	cmp	r3, #0
	bne	.L171
.LVL281:
.LBE592:
.LBE591:
.LBB593:
	.loc 1 754 0
	mov	r1, r6
	.loc 1 752 0
	ldr	fp, [r10, #24]
.LVL282:
	.loc 1 754 0
	bl	strcmp
.LVL283:
	cbnz	r0, .L198
	.loc 1 755 0
	ldr	r3, [r5]
	adds	r3, r3, #1
	str	r3, [r5]
.L198:
	.loc 1 758 0
	cmp	fp, #0
	bne	.L173
	b	.L171
.LVL284:
.L175:
	.loc 1 760 0
	ldr	fp, [fp, #32]
.LVL285:
	.loc 1 758 0
	cmp	fp, #0
	beq	.L171
.L173:
.LVL286:
.LBB594:
.LBB595:
.LBB596:
	.loc 1 606 0
	ldr	r0, [fp]
	cmp	r0, #0
	beq	.L175
	.loc 1 606 0
	ldr	r3, [fp, #4]
	cmp	r3, #0
	bne	.L175
.LVL287:
.LBE596:
.LBE595:
.LBB597:
	.loc 1 754 0
	mov	r1, r6
	.loc 1 752 0
	ldr	r8, [fp, #24]
.LVL288:
	.loc 1 754 0
	bl	strcmp
.LVL289:
	cbnz	r0, .L200
	.loc 1 755 0
	ldr	r3, [r5]
	adds	r3, r3, #1
	str	r3, [r5]
.L200:
	.loc 1 758 0
	cmp	r8, #0
	bne	.L177
	b	.L175
.LVL290:
.L179:
	.loc 1 760 0
	ldr	r8, [r8, #32]
.LVL291:
	.loc 1 758 0
	cmp	r8, #0
	beq	.L175
.L177:
.LVL292:
.LBB598:
.LBB599:
.LBB600:
	.loc 1 606 0
	ldr	r0, [r8]
	cmp	r0, #0
	beq	.L179
	.loc 1 606 0
	ldr	r3, [r8, #4]
	cmp	r3, #0
	bne	.L179
.LVL293:
.LBE600:
.LBE599:
.LBB601:
	.loc 1 752 0
	ldr	r3, [r8, #24]
	.loc 1 754 0
	mov	r1, r6
	.loc 1 752 0
	str	r3, [sp, #4]
.LVL294:
	.loc 1 754 0
	bl	strcmp
.LVL295:
	cbnz	r0, .L202
	.loc 1 755 0
	ldr	r3, [r5]
	adds	r3, r3, #1
	str	r3, [r5]
.L202:
	.loc 1 758 0
	ldr	r3, [sp, #4]
	cbnz	r3, .L181
	b	.L179
.LVL296:
.L183:
	.loc 1 760 0
	ldr	r3, [sp, #4]
	ldr	r3, [r3, #32]
	str	r3, [sp, #4]
.LVL297:
	.loc 1 758 0
	cmp	r3, #0
	beq	.L179
.L181:
.LVL298:
.LBB602:
.LBB603:
.LBB604:
	.loc 1 606 0
	ldr	r0, [r3]
	cmp	r0, #0
	beq	.L183
	.loc 1 606 0
	ldr	r3, [r3, #4]
	cmp	r3, #0
	bne	.L183
.LVL299:
.LBE604:
.LBE603:
.LBB605:
	.loc 1 752 0
	ldr	r3, [sp, #4]
	.loc 1 754 0
	mov	r1, r6
	.loc 1 752 0
	ldr	r4, [r3, #24]
.LVL300:
	.loc 1 754 0
	bl	strcmp
.LVL301:
	cbnz	r0, .L204
	.loc 1 755 0
	ldr	r3, [r5]
	adds	r3, r3, #1
	str	r3, [r5]
.L204:
	.loc 1 758 0
	cbnz	r4, .L185
	b	.L183
.LVL302:
.L187:
	.loc 1 760 0
	ldr	r4, [r4, #32]
.LVL303:
	.loc 1 758 0
	cmp	r4, #0
	beq	.L183
.L185:
.LVL304:
.LBB606:
.LBB607:
.LBB608:
	.loc 1 606 0
	ldr	r0, [r4]
	cmp	r0, #0
	beq	.L187
	.loc 1 606 0
	ldr	r3, [r4, #4]
	cmp	r3, #0
	bne	.L187
.LVL305:
.LBE608:
.LBE607:
.LBB609:
	.loc 1 754 0
	mov	r1, r6
	.loc 1 752 0
	ldr	r7, [r4, #24]
.LVL306:
	.loc 1 754 0
	bl	strcmp
.LVL307:
	cbnz	r0, .L206
	.loc 1 755 0
	ldr	r3, [r5]
	adds	r3, r3, #1
	str	r3, [r5]
.L206:
	.loc 1 758 0
	cmp	r7, #0
	beq	.L187
.L188:
	.loc 1 759 0
	mov	r0, r7
	mov	r2, r5
	mov	r1, r6
	bl	_xml_element_count
.LVL308:
	.loc 1 760 0
	ldr	r7, [r7, #32]
.LVL309:
	.loc 1 758 0
	cmp	r7, #0
	bne	.L188
	b	.L187
.LBE609:
.LBE606:
.LBE605:
.LBE602:
.LBE601:
.LBE598:
.LBE597:
.LBE594:
.LBE593:
.LBE590:
.LBE589:
.LBE610:
.LBE585:
.LBE611:
.LBE581:
.LBE612:
.LBE577:
	.cfi_endproc
.LFE169:
	.size	_xml_element_count, .-_xml_element_count
	.section	.text._xml_find_element,"ax",%progbits
	.align	1
	.p2align 2,,3
	.syntax unified
	.thumb
	.thumb_func
	.fpu softvfp
	.type	_xml_find_element, %function
_xml_find_element:
.LFB171:
	.loc 1 775 0
	.cfi_startproc
	@ args = 0, pretend = 0, frame = 16
	@ frame_needed = 0, uses_anonymous_args = 0
.LVL310:
	push	{r4, r5, r6, r7, r8, r9, r10, fp, lr}
	.cfi_def_cfa_offset 36
	.cfi_offset 4, -36
	.cfi_offset 5, -32
	.cfi_offset 6, -28
	.cfi_offset 7, -24
	.cfi_offset 8, -20
	.cfi_offset 9, -16
	.cfi_offset 10, -12
	.cfi_offset 11, -8
	.cfi_offset 14, -4
	mov	r5, r0
.LVL311:
.LBB659:
.LBB660:
	.loc 1 606 0
	ldr	r0, [r0]
.LVL312:
.LBE660:
.LBE659:
	.loc 1 775 0
	sub	sp, sp, #20
	.cfi_def_cfa_offset 56
.LBB662:
.LBB661:
	.loc 1 606 0
	cbz	r0, .L260
	.loc 1 606 0
	ldr	r4, [r5, #4]
	cbz	r4, .L361
.LVL313:
.L260:
.LBE661:
.LBE662:
	.loc 1 789 0
	add	sp, sp, #20
	.cfi_remember_state
	.cfi_def_cfa_offset 36
	@ sp needed
	pop	{r4, r5, r6, r7, r8, r9, r10, fp, pc}
.LVL314:
.L361:
	.cfi_restore_state
.LBB663:
	.loc 1 777 0
	ldr	r3, [r5, #24]
	mov	r6, r1
	mov	r4, r2
	str	r3, [sp, #8]
.LVL315:
	.loc 1 779 0
	bl	strcmp
.LVL316:
	cbnz	r0, .L298
	.loc 1 780 0
	ldr	r3, [r4]
	ldr	r1, [r4, #4]
	.loc 1 781 0
	adds	r2, r3, #1
	.loc 1 780 0
	str	r5, [r1, r3, lsl #2]
	.loc 1 781 0
	str	r2, [r4]
.L298:
	.loc 1 784 0
	ldr	r3, [sp, #8]
	cmp	r3, #0
	beq	.L260
.LVL317:
.L265:
.LBB664:
.LBB665:
.LBB666:
	.loc 1 606 0
	ldr	r0, [r3]
	cbz	r0, .L267
	.loc 1 606 0
	ldr	r3, [r3, #4]
	cbz	r3, .L362
.LVL318:
.L267:
.LBE666:
.LBE665:
.LBE664:
	.loc 1 786 0
	ldr	r3, [sp, #8]
	ldr	r3, [r3, #32]
	str	r3, [sp, #8]
.LVL319:
	.loc 1 784 0
	cmp	r3, #0
	bne	.L265
	b	.L260
.LVL320:
.L362:
.LBB698:
.LBB667:
	.loc 1 777 0
	ldr	r3, [sp, #8]
	.loc 1 779 0
	mov	r1, r6
	.loc 1 777 0
	ldr	r3, [r3, #24]
	str	r3, [sp, #12]
.LVL321:
	.loc 1 779 0
	bl	strcmp
.LVL322:
	cbnz	r0, .L300
	.loc 1 780 0
	ldr	r3, [r4]
	ldr	r1, [r4, #4]
	ldr	r0, [sp, #8]
	.loc 1 781 0
	adds	r2, r3, #1
	.loc 1 780 0
	str	r0, [r1, r3, lsl #2]
	.loc 1 781 0
	str	r2, [r4]
.L300:
	.loc 1 784 0
	ldr	r3, [sp, #12]
	cmp	r3, #0
	beq	.L267
.LVL323:
.L269:
.LBB668:
.LBB669:
.LBB670:
	.loc 1 606 0
	ldr	r0, [r3]
	cbz	r0, .L271
	.loc 1 606 0
	ldr	r3, [r3, #4]
	cbz	r3, .L363
.LVL324:
.L271:
.LBE670:
.LBE669:
.LBE668:
	.loc 1 786 0
	ldr	r3, [sp, #12]
	ldr	r3, [r3, #32]
	str	r3, [sp, #12]
.LVL325:
	.loc 1 784 0
	cmp	r3, #0
	bne	.L269
	b	.L267
.LVL326:
.L363:
.LBB697:
.LBB671:
	.loc 1 777 0
	ldr	r3, [sp, #12]
	.loc 1 779 0
	mov	r1, r6
	.loc 1 777 0
	ldr	r9, [r3, #24]
.LVL327:
	.loc 1 779 0
	bl	strcmp
.LVL328:
	cbnz	r0, .L302
	.loc 1 780 0
	ldr	r3, [r4]
	ldr	r1, [r4, #4]
	ldr	r0, [sp, #12]
	.loc 1 781 0
	adds	r2, r3, #1
	.loc 1 780 0
	str	r0, [r1, r3, lsl #2]
	.loc 1 781 0
	str	r2, [r4]
.L302:
	.loc 1 784 0
	cmp	r9, #0
	beq	.L271
.L273:
.LVL329:
.LBB672:
.LBB673:
.LBB674:
	.loc 1 606 0
	ldr	r0, [r9]
	cbz	r0, .L275
	.loc 1 606 0
	ldr	r3, [r9, #4]
	cbz	r3, .L364
.LVL330:
.L275:
.LBE674:
.LBE673:
.LBE672:
	.loc 1 786 0
	ldr	r9, [r9, #32]
.LVL331:
	.loc 1 784 0
	cmp	r9, #0
	bne	.L273
	b	.L271
.LVL332:
.L364:
.LBB696:
.LBB675:
	.loc 1 779 0
	mov	r1, r6
	.loc 1 777 0
	ldr	r10, [r9, #24]
.LVL333:
	.loc 1 779 0
	bl	strcmp
.LVL334:
	cbnz	r0, .L304
	.loc 1 780 0
	ldr	r3, [r4]
	ldr	r1, [r4, #4]
	.loc 1 781 0
	adds	r2, r3, #1
	.loc 1 780 0
	str	r9, [r1, r3, lsl #2]
	.loc 1 781 0
	str	r2, [r4]
.L304:
	.loc 1 784 0
	cmp	r10, #0
	bne	.L277
	b	.L275
.LVL335:
.L279:
	.loc 1 786 0
	ldr	r10, [r10, #32]
.LVL336:
	.loc 1 784 0
	cmp	r10, #0
	beq	.L275
.L277:
.LVL337:
.LBB676:
.LBB677:
.LBB678:
	.loc 1 606 0
	ldr	r0, [r10]
	cmp	r0, #0
	beq	.L279
	.loc 1 606 0
	ldr	r3, [r10, #4]
	cmp	r3, #0
	bne	.L279
.LVL338:
.LBE678:
.LBE677:
.LBB679:
	.loc 1 779 0
	mov	r1, r6
	.loc 1 777 0
	ldr	fp, [r10, #24]
.LVL339:
	.loc 1 779 0
	bl	strcmp
.LVL340:
	cbnz	r0, .L306
	.loc 1 780 0
	ldr	r3, [r4]
	ldr	r1, [r4, #4]
	.loc 1 781 0
	adds	r2, r3, #1
	.loc 1 780 0
	str	r10, [r1, r3, lsl #2]
	.loc 1 781 0
	str	r2, [r4]
.L306:
	.loc 1 784 0
	cmp	fp, #0
	bne	.L281
	b	.L279
.LVL341:
.L283:
	.loc 1 786 0
	ldr	fp, [fp, #32]
.LVL342:
	.loc 1 784 0
	cmp	fp, #0
	beq	.L279
.L281:
.LVL343:
.LBB680:
.LBB681:
.LBB682:
	.loc 1 606 0
	ldr	r0, [fp]
	cmp	r0, #0
	beq	.L283
	.loc 1 606 0
	ldr	r3, [fp, #4]
	cmp	r3, #0
	bne	.L283
.LVL344:
.LBE682:
.LBE681:
.LBB683:
	.loc 1 779 0
	mov	r1, r6
	.loc 1 777 0
	ldr	r8, [fp, #24]
.LVL345:
	.loc 1 779 0
	bl	strcmp
.LVL346:
	cbnz	r0, .L308
	.loc 1 780 0
	ldr	r3, [r4]
	ldr	r1, [r4, #4]
	.loc 1 781 0
	adds	r2, r3, #1
	.loc 1 780 0
	str	fp, [r1, r3, lsl #2]
	.loc 1 781 0
	str	r2, [r4]
.L308:
	.loc 1 784 0
	cmp	r8, #0
	bne	.L285
	b	.L283
.LVL347:
.L287:
	.loc 1 786 0
	ldr	r8, [r8, #32]
.LVL348:
	.loc 1 784 0
	cmp	r8, #0
	beq	.L283
.L285:
.LVL349:
.LBB684:
.LBB685:
.LBB686:
	.loc 1 606 0
	ldr	r0, [r8]
	cmp	r0, #0
	beq	.L287
	.loc 1 606 0
	ldr	r3, [r8, #4]
	cmp	r3, #0
	bne	.L287
.LVL350:
.LBE686:
.LBE685:
.LBB687:
	.loc 1 777 0
	ldr	r3, [r8, #24]
	.loc 1 779 0
	mov	r1, r6
	.loc 1 777 0
	str	r3, [sp, #4]
.LVL351:
	.loc 1 779 0
	bl	strcmp
.LVL352:
	cbnz	r0, .L310
	.loc 1 780 0
	ldr	r3, [r4]
	ldr	r1, [r4, #4]
	.loc 1 781 0
	adds	r2, r3, #1
	.loc 1 780 0
	str	r8, [r1, r3, lsl #2]
	.loc 1 781 0
	str	r2, [r4]
.L310:
	.loc 1 784 0
	ldr	r3, [sp, #4]
	cbnz	r3, .L289
	b	.L287
.LVL353:
.L291:
	.loc 1 786 0
	ldr	r3, [sp, #4]
	ldr	r3, [r3, #32]
	str	r3, [sp, #4]
.LVL354:
	.loc 1 784 0
	cmp	r3, #0
	beq	.L287
.L289:
.LVL355:
.LBB688:
.LBB689:
.LBB690:
	.loc 1 606 0
	ldr	r0, [r3]
	cmp	r0, #0
	beq	.L291
	.loc 1 606 0
	ldr	r3, [r3, #4]
	cmp	r3, #0
	bne	.L291
.LVL356:
.LBE690:
.LBE689:
.LBB691:
	.loc 1 777 0
	ldr	r3, [sp, #4]
	.loc 1 779 0
	mov	r1, r6
	.loc 1 777 0
	ldr	r5, [r3, #24]
.LVL357:
	.loc 1 779 0
	bl	strcmp
.LVL358:
	cbnz	r0, .L312
	.loc 1 780 0
	ldr	r3, [r4]
	ldr	r1, [r4, #4]
	ldr	r0, [sp, #4]
	.loc 1 781 0
	adds	r2, r3, #1
	.loc 1 780 0
	str	r0, [r1, r3, lsl #2]
	.loc 1 781 0
	str	r2, [r4]
.L312:
	.loc 1 784 0
	cbnz	r5, .L293
	b	.L291
.LVL359:
.L295:
	.loc 1 786 0
	ldr	r5, [r5, #32]
.LVL360:
	.loc 1 784 0
	cmp	r5, #0
	beq	.L291
.L293:
.LVL361:
.LBB692:
.LBB693:
.LBB694:
	.loc 1 606 0
	ldr	r0, [r5]
	cmp	r0, #0
	beq	.L295
	.loc 1 606 0
	ldr	r3, [r5, #4]
	cmp	r3, #0
	bne	.L295
.LVL362:
.LBE694:
.LBE693:
.LBB695:
	.loc 1 779 0
	mov	r1, r6
	.loc 1 777 0
	ldr	r7, [r5, #24]
.LVL363:
	.loc 1 779 0
	bl	strcmp
.LVL364:
	cbnz	r0, .L314
	.loc 1 780 0
	ldr	r3, [r4]
	ldr	r1, [r4, #4]
	.loc 1 781 0
	adds	r2, r3, #1
	.loc 1 780 0
	str	r5, [r1, r3, lsl #2]
	.loc 1 781 0
	str	r2, [r4]
.L314:
	.loc 1 784 0
	cmp	r7, #0
	beq	.L295
.L296:
	.loc 1 785 0
	mov	r0, r7
	mov	r2, r4
	mov	r1, r6
	bl	_xml_find_element
.LVL365:
	.loc 1 786 0
	ldr	r7, [r7, #32]
.LVL366:
	.loc 1 784 0
	cmp	r7, #0
	bne	.L296
	b	.L295
.LBE695:
.LBE692:
.LBE691:
.LBE688:
.LBE687:
.LBE684:
.LBE683:
.LBE680:
.LBE679:
.LBE676:
.LBE675:
.LBE696:
.LBE671:
.LBE697:
.LBE667:
.LBE698:
.LBE663:
	.cfi_endproc
.LFE171:
	.size	_xml_find_element, .-_xml_find_element
	.section	.text._xml_copy_tree,"ax",%progbits
	.align	1
	.p2align 2,,3
	.syntax unified
	.thumb
	.thumb_func
	.fpu softvfp
	.type	_xml_copy_tree, %function
_xml_copy_tree:
.LFB162:
	.loc 1 623 0
	.cfi_startproc
	@ args = 0, pretend = 0, frame = 32
	@ frame_needed = 0, uses_anonymous_args = 0
.LVL367:
	push	{r4, r5, r6, r7, r8, r9, r10, fp, lr}
	.cfi_def_cfa_offset 36
	.cfi_offset 4, -36
	.cfi_offset 5, -32
	.cfi_offset 6, -28
	.cfi_offset 7, -24
	.cfi_offset 8, -20
	.cfi_offset 9, -16
	.cfi_offset 10, -12
	.cfi_offset 11, -8
	.cfi_offset 14, -4
.LBB874:
.LBB875:
	.loc 1 616 0
	ldr	r4, [r0]
.LBE875:
.LBE874:
	.loc 1 623 0
	sub	sp, sp, #36
	.cfi_def_cfa_offset 72
	.loc 1 623 0
	str	r1, [sp, #28]
.LBB878:
.LBB876:
	.loc 1 616 0
	cmp	r4, #0
	beq	.L560
.LVL368:
.LBE876:
.LBE878:
.LBB879:
.LBB880:
	.loc 1 606 0
	ldr	r3, [r0, #4]
	cbz	r3, .L561
.LVL369:
.L365:
.LBE880:
.LBE879:
	.loc 1 642 0
	add	sp, sp, #36
	.cfi_remember_state
	.cfi_def_cfa_offset 36
	@ sp needed
	pop	{r4, r5, r6, r7, r8, r9, r10, fp, pc}
.LVL370:
.L561:
	.cfi_restore_state
.LBB881:
	.loc 1 630 0
	ldr	r3, [r0, #24]
	.loc 1 632 0
	adds	r0, r0, #8
.LVL371:
	.loc 1 630 0
	str	r3, [sp, #16]
	mov	r5, r3
.LVL372:
	.loc 1 632 0
	ldm	r0, {r0, r2, r3}
.LVL373:
	mov	r1, r4
.LVL374:
	bl	_xml_new_element
.LVL375:
	str	r0, [sp, #24]
.LVL376:
	.loc 1 634 0
	cbnz	r5, .L425
	b	.L431
.LVL377:
.L371:
.LBB882:
.LBB883:
.LBB884:
.LBB885:
	.loc 1 606 0
	ldr	r3, [r3, #4]
.LVL378:
	cmp	r3, #0
	beq	.L562
.LVL379:
.L373:
.LBE885:
.LBE884:
.LBE883:
.LBE882:
	.loc 1 636 0
	ldr	r3, [sp, #16]
	ldr	r3, [r3, #32]
	str	r3, [sp, #16]
.LVL380:
	.loc 1 634 0
	cmp	r3, #0
	beq	.L431
.LVL381:
.L425:
.LBB1089:
.LBB1086:
.LBB886:
.LBB887:
	.loc 1 616 0
	ldr	r3, [sp, #16]
	ldr	r4, [r3]
	cmp	r4, #0
	bne	.L371
	.loc 1 616 0
	ldr	r5, [r3, #4]
	cmp	r5, #0
	beq	.L373
.LVL382:
.LBE887:
.LBE886:
.LBB888:
.LBB889:
	.loc 1 594 0
	mov	r0, r5
	bl	strlen
.LVL383:
.LBB890:
.LBB891:
	.loc 1 51 0
	adds	r0, r0, #1
.LVL384:
	bl	pvPortMalloc
.LVL385:
.LBE891:
.LBE890:
	.loc 1 595 0
	mov	r1, r5
.LBB893:
.LBB892:
	.loc 1 51 0
	mov	r6, r0
.LBE892:
.LBE893:
	.loc 1 595 0
	bl	strcpy
.LVL386:
.LBB894:
.LBB895:
.LBB896:
.LBB897:
	.loc 1 51 0
	movs	r0, #36
	bl	pvPortMalloc
.LVL387:
	mov	r5, r0
.LVL388:
.LBE897:
.LBE896:
	.loc 1 536 0
	mov	r1, r4
	movs	r2, #36
	bl	memset
.LVL389:
.LBE895:
.LBE894:
	.loc 1 597 0
	str	r5, [sp, #12]
	str	r6, [r5, #4]
.LVL390:
.L432:
.LBE889:
.LBE888:
.LBB898:
.LBB899:
.LBB900:
	.loc 1 606 0
	ldr	r2, [sp, #24]
	ldr	r3, [r2]
	cmp	r3, #0
	beq	.L373
	.loc 1 606 0
	ldr	r3, [r2, #4]
	cmp	r3, #0
	bne	.L373
.LVL391:
	mov	r3, r2
.LBE900:
.LBE899:
.LBB901:
.LBB902:
	.loc 1 704 0
	ldr	r2, [r2, #24]
	cbnz	r2, .L423
	b	.L563
.LVL392:
.L469:
.LBB903:
	.loc 1 707 0
	mov	r2, r3
.LVL393:
.L423:
	ldr	r3, [r2, #32]
	cmp	r3, #0
	bne	.L469
	.loc 1 710 0
	ldr	r3, [sp, #12]
	str	r3, [r2, #32]
	.loc 1 711 0
	str	r2, [r3, #28]
.LVL394:
.L424:
.LBE903:
	.loc 1 717 0
	mov	r2, r3
	ldr	r3, [sp, #24]
	str	r3, [r2, #20]
.LVL395:
.LBE902:
.LBE901:
.LBE898:
.LBE1086:
.LBE1089:
	.loc 1 636 0
	ldr	r3, [sp, #16]
	ldr	r3, [r3, #32]
	str	r3, [sp, #16]
.LVL396:
	.loc 1 634 0
	cmp	r3, #0
	bne	.L425
.LVL397:
.L431:
.LBE881:
	.loc 1 640 0
	ldr	r3, [sp, #24]
	cmp	r3, #0
	beq	.L365
.LVL398:
.L429:
.LBB1092:
.LBB1093:
.LBB1094:
	.loc 1 606 0
	ldr	r2, [sp, #28]
	ldr	r3, [r2]
	cmp	r3, #0
	beq	.L365
	.loc 1 606 0
	ldr	r3, [r2, #4]
	cmp	r3, #0
	bne	.L365
.LVL399:
	mov	r3, r2
.LBE1094:
.LBE1093:
.LBB1095:
.LBB1096:
	.loc 1 704 0
	ldr	r2, [r2, #24]
	cbnz	r2, .L427
	b	.L564
.LVL400:
.L470:
.LBB1097:
	.loc 1 707 0
	mov	r2, r3
.LVL401:
.L427:
	ldr	r3, [r2, #32]
	cmp	r3, #0
	bne	.L470
	.loc 1 710 0
	ldr	r3, [sp, #24]
	str	r3, [r2, #32]
	.loc 1 711 0
	str	r2, [r3, #28]
.LVL402:
.L428:
.LBE1097:
	.loc 1 717 0
	mov	r2, r3
	ldr	r3, [sp, #28]
	str	r3, [r2, #20]
.LBE1096:
.LBE1095:
.LBE1092:
	.loc 1 642 0
	add	sp, sp, #36
	.cfi_remember_state
	.cfi_def_cfa_offset 36
	@ sp needed
	pop	{r4, r5, r6, r7, r8, r9, r10, fp, pc}
.LVL403:
.L562:
	.cfi_restore_state
.LBB1100:
.LBB1090:
.LBB1087:
.LBB906:
	.loc 1 630 0
	ldr	r0, [sp, #16]
	.loc 1 632 0
	mov	r1, r4
	.loc 1 630 0
	ldr	r3, [r0, #24]
	.loc 1 632 0
	ldr	r2, [r0, #12]
	.loc 1 630 0
	str	r3, [sp, #8]
	mov	r5, r3
.LVL404:
	.loc 1 632 0
	ldr	r3, [r0, #16]
.LVL405:
	ldr	r0, [r0, #8]
	bl	_xml_new_element
.LVL406:
	str	r0, [sp, #12]
.LVL407:
	.loc 1 634 0
	cbnz	r5, .L421
	b	.L434
.LVL408:
.L376:
.LBB907:
.LBB908:
.LBB909:
.LBB910:
	.loc 1 606 0
	ldr	r3, [r3, #4]
.LVL409:
	cmp	r3, #0
	beq	.L565
.LVL410:
.L378:
.LBE910:
.LBE909:
.LBE908:
.LBE907:
	.loc 1 636 0
	ldr	r3, [sp, #8]
	ldr	r3, [r3, #32]
	str	r3, [sp, #8]
.LVL411:
	.loc 1 634 0
	cmp	r3, #0
	beq	.L434
.LVL412:
.L421:
.LBB1082:
.LBB1080:
.LBB911:
.LBB912:
	.loc 1 616 0
	ldr	r3, [sp, #8]
	ldr	r4, [r3]
	cmp	r4, #0
	bne	.L376
	.loc 1 616 0
	ldr	r5, [r3, #4]
	cmp	r5, #0
	beq	.L378
.LVL413:
.LBE912:
.LBE911:
.LBB913:
.LBB914:
	.loc 1 594 0
	mov	r0, r5
	bl	strlen
.LVL414:
.LBB915:
.LBB916:
	.loc 1 51 0
	adds	r0, r0, #1
.LVL415:
	bl	pvPortMalloc
.LVL416:
.LBE916:
.LBE915:
	.loc 1 595 0
	mov	r1, r5
.LBB918:
.LBB917:
	.loc 1 51 0
	mov	r6, r0
.LBE917:
.LBE918:
	.loc 1 595 0
	bl	strcpy
.LVL417:
.LBB919:
.LBB920:
.LBB921:
.LBB922:
	.loc 1 51 0
	movs	r0, #36
	bl	pvPortMalloc
.LVL418:
	mov	r5, r0
.LVL419:
.LBE922:
.LBE921:
	.loc 1 536 0
	mov	r1, r4
	movs	r2, #36
	bl	memset
.LVL420:
.LBE920:
.LBE919:
	.loc 1 597 0
	str	r5, [sp, #4]
	str	r6, [r5, #4]
.LVL421:
.L435:
.LBE914:
.LBE913:
.LBB923:
.LBB924:
.LBB925:
	.loc 1 606 0
	ldr	r2, [sp, #12]
	ldr	r3, [r2]
	cmp	r3, #0
	beq	.L378
	.loc 1 606 0
	ldr	r3, [r2, #4]
	cmp	r3, #0
	bne	.L378
.LVL422:
	mov	r3, r2
.LBE925:
.LBE924:
.LBB926:
.LBB927:
	.loc 1 704 0
	ldr	r2, [r2, #24]
	cbnz	r2, .L419
	b	.L566
.LVL423:
.L468:
.LBB928:
	.loc 1 707 0
	mov	r2, r3
.LVL424:
.L419:
	ldr	r3, [r2, #32]
	cmp	r3, #0
	bne	.L468
	.loc 1 710 0
	ldr	r3, [sp, #4]
	str	r3, [r2, #32]
	.loc 1 711 0
	str	r2, [r3, #28]
.LVL425:
.L420:
.LBE928:
	.loc 1 717 0
	mov	r2, r3
	ldr	r3, [sp, #12]
	str	r3, [r2, #20]
.LVL426:
.LBE927:
.LBE926:
.LBE923:
.LBE1080:
.LBE1082:
	.loc 1 636 0
	ldr	r3, [sp, #8]
	ldr	r3, [r3, #32]
	str	r3, [sp, #8]
.LVL427:
	.loc 1 634 0
	cmp	r3, #0
	bne	.L421
.LVL428:
.L434:
.LBE906:
	.loc 1 640 0
	ldr	r3, [sp, #12]
	cmp	r3, #0
	bne	.L432
	b	.L373
.LVL429:
.L565:
.LBB1084:
.LBB1083:
.LBB1081:
.LBB931:
	.loc 1 630 0
	ldr	r0, [sp, #8]
	.loc 1 632 0
	mov	r1, r4
	.loc 1 630 0
	ldr	r3, [r0, #24]
	.loc 1 632 0
	ldr	r2, [r0, #12]
	.loc 1 630 0
	str	r3, [sp]
	mov	r5, r3
.LVL430:
	.loc 1 632 0
	ldr	r3, [r0, #16]
.LVL431:
	ldr	r0, [r0, #8]
	bl	_xml_new_element
.LVL432:
	str	r0, [sp, #4]
.LVL433:
	.loc 1 634 0
	cbnz	r5, .L417
	b	.L437
.LVL434:
.L381:
.LBB932:
.LBB933:
.LBB934:
.LBB935:
	.loc 1 606 0
	ldr	r3, [r3, #4]
.LVL435:
	cmp	r3, #0
	beq	.L567
.LVL436:
.L383:
.LBE935:
.LBE934:
.LBE933:
.LBE932:
	.loc 1 636 0
	ldr	r3, [sp]
	ldr	r3, [r3, #32]
	str	r3, [sp]
.LVL437:
	.loc 1 634 0
	cmp	r3, #0
	beq	.L437
.LVL438:
.L417:
.LBB1076:
.LBB1074:
.LBB936:
.LBB937:
	.loc 1 616 0
	ldr	r3, [sp]
	ldr	r4, [r3]
	cmp	r4, #0
	bne	.L381
	.loc 1 616 0
	ldr	r5, [r3, #4]
	cmp	r5, #0
	beq	.L383
.LVL439:
.LBE937:
.LBE936:
.LBB938:
.LBB939:
	.loc 1 594 0
	mov	r0, r5
	bl	strlen
.LVL440:
.LBB940:
.LBB941:
	.loc 1 51 0
	adds	r0, r0, #1
.LVL441:
	bl	pvPortMalloc
.LVL442:
.LBE941:
.LBE940:
	.loc 1 595 0
	mov	r1, r5
.LBB943:
.LBB942:
	.loc 1 51 0
	mov	r6, r0
.LBE942:
.LBE943:
	.loc 1 595 0
	bl	strcpy
.LVL443:
.LBB944:
.LBB945:
.LBB946:
.LBB947:
	.loc 1 51 0
	movs	r0, #36
	bl	pvPortMalloc
.LVL444:
	mov	r5, r0
.LVL445:
.LBE947:
.LBE946:
.LBE945:
.LBE944:
	.loc 1 597 0
	mov	fp, r5
.LBB949:
.LBB948:
	.loc 1 536 0
	mov	r1, r4
	movs	r2, #36
	bl	memset
.LVL446:
.LBE948:
.LBE949:
	.loc 1 597 0
	str	r6, [r5, #4]
.LVL447:
.L438:
.LBE939:
.LBE938:
.LBB950:
.LBB951:
.LBB952:
	.loc 1 606 0
	ldr	r2, [sp, #4]
	ldr	r3, [r2]
	cmp	r3, #0
	beq	.L383
	.loc 1 606 0
	ldr	r3, [r2, #4]
	cmp	r3, #0
	bne	.L383
.LVL448:
	mov	r3, r2
.LBE952:
.LBE951:
.LBB953:
.LBB954:
	.loc 1 704 0
	ldr	r2, [r2, #24]
	cbnz	r2, .L415
	b	.L568
.LVL449:
.L467:
.LBB955:
	.loc 1 707 0
	mov	r2, r3
.LVL450:
.L415:
	ldr	r3, [r2, #32]
	cmp	r3, #0
	bne	.L467
	ldr	r3, [sp, #4]
	.loc 1 710 0
	str	fp, [r2, #32]
	.loc 1 711 0
	str	r2, [fp, #28]
.LVL451:
.L416:
.LBE955:
	.loc 1 717 0
	str	r3, [fp, #20]
.LVL452:
.LBE954:
.LBE953:
.LBE950:
.LBE1074:
.LBE1076:
	.loc 1 636 0
	ldr	r3, [sp]
	ldr	r3, [r3, #32]
	str	r3, [sp]
.LVL453:
	.loc 1 634 0
	cmp	r3, #0
	bne	.L417
.LVL454:
.L437:
.LBE931:
	.loc 1 640 0
	ldr	r3, [sp, #4]
	cmp	r3, #0
	bne	.L435
	b	.L378
.LVL455:
.L567:
.LBB1078:
.LBB1077:
.LBB1075:
.LBB958:
	.loc 1 630 0
	ldr	r2, [sp]
	.loc 1 632 0
	mov	r1, r4
	mov	r4, r2
	.loc 1 630 0
	ldr	r10, [r2, #24]
.LVL456:
	.loc 1 632 0
	ldr	r3, [r2, #16]
	ldr	r0, [r4, #8]
	ldr	r2, [r2, #12]
	bl	_xml_new_element
.LVL457:
	mov	fp, r0
.LVL458:
	.loc 1 634 0
	cmp	r10, #0
	bne	.L413
	b	.L440
.LVL459:
.L386:
.LBB959:
.LBB960:
.LBB961:
.LBB962:
	.loc 1 606 0
	ldr	r3, [r10, #4]
	cmp	r3, #0
	beq	.L569
.LVL460:
.L388:
.LBE962:
.LBE961:
.LBE960:
.LBE959:
	.loc 1 636 0
	ldr	r10, [r10, #32]
.LVL461:
	.loc 1 634 0
	cmp	r10, #0
	beq	.L440
.L413:
.LVL462:
.LBB1069:
.LBB1066:
.LBB963:
.LBB964:
	.loc 1 616 0
	ldr	r4, [r10]
	cmp	r4, #0
	bne	.L386
	.loc 1 616 0
	ldr	r5, [r10, #4]
	cmp	r5, #0
	beq	.L388
.LVL463:
.LBE964:
.LBE963:
.LBB965:
.LBB966:
	.loc 1 594 0
	mov	r0, r5
	bl	strlen
.LVL464:
.LBB967:
.LBB968:
	.loc 1 51 0
	adds	r0, r0, #1
.LVL465:
	bl	pvPortMalloc
.LVL466:
.LBE968:
.LBE967:
	.loc 1 595 0
	mov	r1, r5
.LBB970:
.LBB969:
	.loc 1 51 0
	mov	r6, r0
.LBE969:
.LBE970:
	.loc 1 595 0
	bl	strcpy
.LVL467:
.LBB971:
.LBB972:
.LBB973:
.LBB974:
	.loc 1 51 0
	movs	r0, #36
	bl	pvPortMalloc
.LVL468:
	mov	r5, r0
.LVL469:
.LBE974:
.LBE973:
.LBE972:
.LBE971:
	.loc 1 597 0
	mov	r8, r5
.LBB976:
.LBB975:
	.loc 1 536 0
	mov	r1, r4
	movs	r2, #36
	bl	memset
.LVL470:
.LBE975:
.LBE976:
	.loc 1 597 0
	str	r6, [r5, #4]
.LVL471:
.L441:
.LBE966:
.LBE965:
.LBB977:
.LBB978:
.LBB979:
	.loc 1 606 0
	ldr	r3, [fp]
	cmp	r3, #0
	beq	.L388
	.loc 1 606 0
	ldr	r3, [fp, #4]
	cmp	r3, #0
	bne	.L388
.LVL472:
.LBE979:
.LBE978:
.LBB980:
.LBB981:
	.loc 1 704 0
	ldr	r2, [fp, #24]
	cbnz	r2, .L411
	b	.L570
.LVL473:
.L466:
.LBB982:
	.loc 1 707 0
	mov	r2, r3
.LVL474:
.L411:
	ldr	r3, [r2, #32]
	cmp	r3, #0
	bne	.L466
	.loc 1 710 0
	str	r8, [r2, #32]
	.loc 1 711 0
	str	r2, [r8, #28]
.LVL475:
.L412:
.LBE982:
.LBE981:
.LBE980:
.LBE977:
.LBE1066:
.LBE1069:
	.loc 1 636 0
	ldr	r10, [r10, #32]
.LBB1070:
.LBB1067:
.LBB987:
.LBB985:
.LBB983:
	.loc 1 717 0
	str	fp, [r8, #20]
.LVL476:
.LBE983:
.LBE985:
.LBE987:
.LBE1067:
.LBE1070:
	.loc 1 634 0
	cmp	r10, #0
	bne	.L413
.LVL477:
.L440:
.LBE958:
	.loc 1 640 0
	cmp	fp, #0
	bne	.L438
	b	.L383
.LVL478:
.L569:
.LBB1072:
.LBB1071:
.LBB1068:
.LBB988:
	.loc 1 632 0
	add	r0, r10, #8
	mov	r1, r4
	ldm	r0, {r0, r2, r3}
	.loc 1 630 0
	ldr	r7, [r10, #24]
.LVL479:
	.loc 1 632 0
	bl	_xml_new_element
.LVL480:
	mov	r8, r0
.LVL481:
	.loc 1 634 0
	cmp	r7, #0
	beq	.L443
	str	r10, [sp, #20]
	b	.L409
.LVL482:
.L391:
.LBB989:
.LBB990:
.LBB991:
.LBB992:
	.loc 1 606 0
	ldr	r3, [r7, #4]
	cmp	r3, #0
	beq	.L571
.LVL483:
.L393:
.LBE992:
.LBE991:
.LBE990:
.LBE989:
	.loc 1 636 0
	ldr	r7, [r7, #32]
.LVL484:
	.loc 1 634 0
	cmp	r7, #0
	beq	.L572
.L409:
.LVL485:
.LBB1061:
.LBB1058:
.LBB993:
.LBB994:
	.loc 1 616 0
	ldr	r5, [r7]
	cmp	r5, #0
	bne	.L391
	.loc 1 616 0
	ldr	r4, [r7, #4]
	cmp	r4, #0
	beq	.L393
.LVL486:
.LBE994:
.LBE993:
.LBB995:
.LBB996:
	.loc 1 594 0
	mov	r0, r4
	bl	strlen
.LVL487:
.LBB997:
.LBB998:
	.loc 1 51 0
	adds	r0, r0, #1
.LVL488:
	bl	pvPortMalloc
.LVL489:
.LBE998:
.LBE997:
	.loc 1 595 0
	mov	r1, r4
.LBB1000:
.LBB999:
	.loc 1 51 0
	mov	r9, r0
.LBE999:
.LBE1000:
	.loc 1 595 0
	bl	strcpy
.LVL490:
.LBB1001:
.LBB1002:
.LBB1003:
.LBB1004:
	.loc 1 51 0
	movs	r0, #36
	bl	pvPortMalloc
.LVL491:
	mov	r4, r0
.LVL492:
.LBE1004:
.LBE1003:
.LBE1002:
.LBE1001:
	.loc 1 597 0
	mov	r6, r4
.LBB1006:
.LBB1005:
	.loc 1 536 0
	mov	r1, r5
	movs	r2, #36
	bl	memset
.LVL493:
.LBE1005:
.LBE1006:
	.loc 1 597 0
	str	r9, [r4, #4]
.LVL494:
.L444:
.LBE996:
.LBE995:
.LBB1007:
.LBB1008:
.LBB1009:
	.loc 1 606 0
	ldr	r3, [r8]
	cmp	r3, #0
	beq	.L393
	.loc 1 606 0
	ldr	r3, [r8, #4]
	cmp	r3, #0
	bne	.L393
.LVL495:
.LBE1009:
.LBE1008:
.LBB1010:
.LBB1011:
	.loc 1 704 0
	ldr	r2, [r8, #24]
	cbnz	r2, .L407
	b	.L573
.LVL496:
.L465:
.LBB1012:
	.loc 1 707 0
	mov	r2, r3
.LVL497:
.L407:
	ldr	r3, [r2, #32]
	cmp	r3, #0
	bne	.L465
	.loc 1 710 0
	str	r6, [r2, #32]
	.loc 1 711 0
	str	r2, [r6, #28]
.LVL498:
.L408:
.LBE1012:
.LBE1011:
.LBE1010:
.LBE1007:
.LBE1058:
.LBE1061:
	.loc 1 636 0
	ldr	r7, [r7, #32]
.LVL499:
.LBB1062:
.LBB1059:
.LBB1017:
.LBB1015:
.LBB1013:
	.loc 1 717 0
	str	r8, [r6, #20]
.LVL500:
.LBE1013:
.LBE1015:
.LBE1017:
.LBE1059:
.LBE1062:
	.loc 1 634 0
	cmp	r7, #0
	bne	.L409
.LVL501:
.L572:
	ldr	r10, [sp, #20]
.LVL502:
.L443:
.LBE988:
	.loc 1 640 0
	cmp	r8, #0
	bne	.L441
	b	.L388
.LVL503:
.L571:
.LBB1064:
.LBB1063:
.LBB1060:
.LBB1018:
	.loc 1 632 0
	add	r0, r7, #8
	mov	r1, r5
	ldm	r0, {r0, r2, r3}
	.loc 1 630 0
	ldr	r4, [r7, #24]
.LVL504:
	.loc 1 632 0
	bl	_xml_new_element
.LVL505:
	mov	r6, r0
.LVL506:
	.loc 1 634 0
	cmp	r4, #0
	beq	.L446
	mov	r9, r7
	mov	r7, r6
.LVL507:
	b	.L405
.LVL508:
.L396:
.LBB1019:
.LBB1020:
.LBB1021:
.LBB1022:
	.loc 1 606 0
	ldr	r3, [r4, #4]
	cmp	r3, #0
	beq	.L574
.LVL509:
.L398:
.LBE1022:
.LBE1021:
.LBE1020:
.LBE1019:
	.loc 1 636 0
	ldr	r4, [r4, #32]
.LVL510:
	.loc 1 634 0
	cmp	r4, #0
	beq	.L575
.L405:
.LVL511:
.LBB1053:
.LBB1050:
.LBB1023:
.LBB1024:
	.loc 1 616 0
	ldr	r6, [r4]
	cmp	r6, #0
	bne	.L396
	.loc 1 616 0
	ldr	r5, [r4, #4]
	cmp	r5, #0
	beq	.L398
.LVL512:
.LBE1024:
.LBE1023:
.LBB1025:
.LBB1026:
	.loc 1 594 0
	mov	r0, r5
	bl	strlen
.LVL513:
.LBB1027:
.LBB1028:
	.loc 1 51 0
	adds	r0, r0, #1
.LVL514:
	bl	pvPortMalloc
.LVL515:
.LBE1028:
.LBE1027:
	.loc 1 595 0
	mov	r1, r5
.LBB1030:
.LBB1029:
	.loc 1 51 0
	mov	r10, r0
.LBE1029:
.LBE1030:
	.loc 1 595 0
	bl	strcpy
.LVL516:
.LBB1031:
.LBB1032:
.LBB1033:
.LBB1034:
	.loc 1 51 0
	movs	r0, #36
	bl	pvPortMalloc
.LVL517:
	mov	r5, r0
.LVL518:
.LBE1034:
.LBE1033:
	.loc 1 536 0
	mov	r1, r6
.LBE1032:
.LBE1031:
	.loc 1 597 0
	mov	r6, r5
.LBB1036:
.LBB1035:
	.loc 1 536 0
	movs	r2, #36
	bl	memset
.LVL519:
.LBE1035:
.LBE1036:
	.loc 1 597 0
	str	r10, [r5, #4]
.LVL520:
.L447:
.LBE1026:
.LBE1025:
.LBB1037:
.LBB1038:
.LBB1039:
	.loc 1 606 0
	ldr	r3, [r7]
	cmp	r3, #0
	beq	.L398
	.loc 1 606 0
	ldr	r3, [r7, #4]
	cmp	r3, #0
	bne	.L398
.LVL521:
.LBE1039:
.LBE1038:
.LBB1040:
.LBB1041:
	.loc 1 704 0
	ldr	r2, [r7, #24]
	cbnz	r2, .L403
	b	.L576
.LVL522:
.L464:
.LBB1042:
	.loc 1 707 0
	mov	r2, r3
.LVL523:
.L403:
	ldr	r3, [r2, #32]
	cmp	r3, #0
	bne	.L464
	.loc 1 710 0
	str	r6, [r2, #32]
	.loc 1 711 0
	str	r2, [r6, #28]
.LVL524:
.L404:
.LBE1042:
.LBE1041:
.LBE1040:
.LBE1037:
.LBE1050:
.LBE1053:
	.loc 1 636 0
	ldr	r4, [r4, #32]
.LVL525:
.LBB1054:
.LBB1051:
.LBB1047:
.LBB1045:
.LBB1043:
	.loc 1 717 0
	str	r7, [r6, #20]
.LVL526:
.LBE1043:
.LBE1045:
.LBE1047:
.LBE1051:
.LBE1054:
	.loc 1 634 0
	cmp	r4, #0
	bne	.L405
.LVL527:
.L575:
	mov	r6, r7
	mov	r7, r9
.LVL528:
.L446:
.LBE1018:
	.loc 1 640 0
	cmp	r6, #0
	bne	.L444
	b	.L393
.LVL529:
.L574:
.LBB1056:
.LBB1055:
.LBB1052:
.LBB1048:
	.loc 1 632 0
	add	r0, r4, #8
	mov	r1, r6
	ldm	r0, {r0, r2, r3}
	.loc 1 630 0
	ldr	r5, [r4, #24]
.LVL530:
	.loc 1 632 0
	bl	_xml_new_element
.LVL531:
	mov	r6, r0
.LVL532:
	.loc 1 634 0
	cbz	r5, .L449
.LVL533:
.L401:
	.loc 1 635 0
	mov	r0, r5
	mov	r1, r6
	bl	_xml_copy_tree
.LVL534:
	.loc 1 636 0
	ldr	r5, [r5, #32]
.LVL535:
	.loc 1 634 0
	cmp	r5, #0
	bne	.L401
.L449:
.LBE1048:
	.loc 1 640 0
	cmp	r6, #0
	bne	.L447
	b	.L398
.LVL536:
.L576:
.LBB1049:
.LBB1046:
.LBB1044:
	.loc 1 714 0
	str	r6, [r7, #24]
	b	.L404
.LVL537:
.L573:
.LBE1044:
.LBE1046:
.LBE1049:
.LBE1052:
.LBE1055:
.LBE1056:
.LBB1057:
.LBB1016:
.LBB1014:
	str	r6, [r8, #24]
	b	.L408
.LVL538:
.L570:
.LBE1014:
.LBE1016:
.LBE1057:
.LBE1060:
.LBE1063:
.LBE1064:
.LBB1065:
.LBB986:
.LBB984:
	str	r8, [fp, #24]
	b	.L412
.LVL539:
.L568:
.LBE984:
.LBE986:
.LBE1065:
.LBE1068:
.LBE1071:
.LBE1072:
.LBB1073:
.LBB957:
.LBB956:
	str	fp, [r3, #24]
	b	.L416
.LVL540:
.L566:
.LBE956:
.LBE957:
.LBE1073:
.LBE1075:
.LBE1077:
.LBE1078:
.LBB1079:
.LBB930:
.LBB929:
	mov	r2, r3
	ldr	r3, [sp, #4]
.LVL541:
	str	r3, [r2, #24]
	b	.L420
.LVL542:
.L560:
.LBE929:
.LBE930:
.LBE1079:
.LBE1081:
.LBE1083:
.LBE1084:
.LBE1087:
.LBE1090:
.LBE1100:
.LBB1101:
.LBB877:
	.loc 1 616 0
	ldr	r5, [r0, #4]
	cmp	r5, #0
	beq	.L365
.LVL543:
.LBE877:
.LBE1101:
.LBB1102:
.LBB1103:
	.loc 1 594 0
	mov	r0, r5
.LVL544:
	bl	strlen
.LVL545:
.LBB1104:
.LBB1105:
	.loc 1 51 0
	adds	r0, r0, #1
.LVL546:
	bl	pvPortMalloc
.LVL547:
.LBE1105:
.LBE1104:
	.loc 1 595 0
	mov	r1, r5
.LBB1107:
.LBB1106:
	.loc 1 51 0
	mov	r6, r0
.LBE1106:
.LBE1107:
	.loc 1 595 0
	bl	strcpy
.LVL548:
.LBB1108:
.LBB1109:
.LBB1110:
.LBB1111:
	.loc 1 51 0
	movs	r0, #36
	bl	pvPortMalloc
.LVL549:
	mov	r5, r0
.LVL550:
.LBE1111:
.LBE1110:
	.loc 1 536 0
	mov	r1, r4
	movs	r2, #36
	bl	memset
.LVL551:
.LBE1109:
.LBE1108:
	.loc 1 597 0
	str	r5, [sp, #24]
	str	r6, [r5, #4]
.LVL552:
	b	.L429
.LVL553:
.L563:
.LBE1103:
.LBE1102:
.LBB1112:
.LBB1091:
.LBB1088:
.LBB1085:
.LBB905:
.LBB904:
	.loc 1 714 0
	mov	r2, r3
	ldr	r3, [sp, #12]
.LVL554:
	str	r3, [r2, #24]
	b	.L424
.LVL555:
.L564:
.LBE904:
.LBE905:
.LBE1085:
.LBE1088:
.LBE1091:
.LBE1112:
.LBB1113:
.LBB1099:
.LBB1098:
	mov	r2, r3
	ldr	r3, [sp, #24]
.LVL556:
	str	r3, [r2, #24]
	b	.L428
.LBE1098:
.LBE1099:
.LBE1113:
	.cfi_endproc
.LFE162:
	.size	_xml_copy_tree, .-_xml_copy_tree
	.section	.text.xml_tree_size,"ax",%progbits
	.align	1
	.p2align 2,,3
	.syntax unified
	.thumb
	.thumb_func
	.fpu softvfp
	.type	xml_tree_size, %function
xml_tree_size:
.LFB178:
	.loc 1 1037 0
	.cfi_startproc
	@ args = 0, pretend = 0, frame = 88
	@ frame_needed = 0, uses_anonymous_args = 0
.LVL557:
	push	{r4, r5, r6, r7, r8, r9, r10, fp, lr}
	.cfi_def_cfa_offset 36
	.cfi_offset 4, -36
	.cfi_offset 5, -32
	.cfi_offset 6, -28
	.cfi_offset 7, -24
	.cfi_offset 8, -20
	.cfi_offset 9, -16
	.cfi_offset 10, -12
	.cfi_offset 11, -8
	.cfi_offset 14, -4
	sub	sp, sp, #92
	.cfi_def_cfa_offset 128
	.loc 1 1039 0
	cbz	r1, .L652
.LVL558:
.LBB1155:
.LBB1156:
	.loc 1 616 0 discriminator 1
	ldr	r4, [r0]
.LBE1156:
.LBE1155:
	.loc 1 1039 0 discriminator 1
	adds	r3, r1, #1
	str	r3, [sp, #44]
.LVL559:
.LBB1160:
.LBB1157:
	.loc 1 616 0 discriminator 1
	cbz	r4, .L702
.L579:
.LVL560:
.LBE1157:
.LBE1160:
.LBB1161:
.LBB1162:
	.loc 1 606 0
	ldr	r3, [r0, #4]
	cbz	r3, .L582
.LBE1162:
.LBE1161:
	.loc 1 1038 0
	movs	r0, #0
.LVL561:
.L577:
	.loc 1 1090 0
	add	sp, sp, #92
	.cfi_remember_state
	.cfi_def_cfa_offset 36
	@ sp needed
	pop	{r4, r5, r6, r7, r8, r9, r10, fp, pc}
.LVL562:
.L652:
	.cfi_restore_state
.LBB1163:
.LBB1158:
	.loc 1 616 0
	ldr	r4, [r0]
.LBE1158:
.LBE1163:
	.loc 1 1039 0
	str	r1, [sp, #44]
.LVL563:
.LBB1164:
.LBB1159:
	.loc 1 616 0
	cmp	r4, #0
	bne	.L579
.LVL564:
.L702:
	.loc 1 616 0
	ldr	r0, [r0, #4]
.LVL565:
	cmp	r0, #0
	beq	.L577
.LVL566:
.LBE1159:
.LBE1164:
	.loc 1 1090 0
	add	sp, sp, #92
	.cfi_remember_state
	.cfi_def_cfa_offset 36
	@ sp needed
	pop	{r4, r5, r6, r7, r8, r9, r10, fp, lr}
	.cfi_restore 14
	.cfi_restore 11
	.cfi_restore 10
	.cfi_restore 9
	.cfi_restore 8
	.cfi_restore 7
	.cfi_restore 6
	.cfi_restore 5
	.cfi_restore 4
	.cfi_def_cfa_offset 0
	.loc 1 1042 0
	b	strlen
.LVL567:
.L582:
	.cfi_restore_state
	mov	fp, r2
.LBB1165:
	.loc 1 1049 0
	ldr	r3, [r0, #8]
	.loc 1 1046 0
	ldr	r2, [r0, #24]
.LVL568:
	str	r1, [sp, #68]
	.loc 1 1049 0
	str	r3, [sp, #76]
	.loc 1 1046 0
	str	r2, [sp, #20]
.LVL569:
	.loc 1 1049 0
	cmp	r3, #0
	beq	.L703
	.loc 1 1049 0 is_stmt 0 discriminator 1
	ldr	r6, [r0, #16]
	mov	r0, r3
.LVL570:
	cmp	r6, #0
	beq	.L583
	.loc 1 1051 0 is_stmt 1
	bl	strlen
.LVL571:
	mov	r5, r0
	mov	r0, r4
	bl	strlen
.LVL572:
	mov	r4, r0
	str	r0, [sp, #72]
	mov	r0, r6
	bl	strlen
.LVL573:
	adds	r3, r5, r4
	adds	r3, r3, #4
	add	r3, r3, r0
	str	r3, [sp, #36]
.LVL574:
.L584:
	.loc 1 1064 0
	ldr	r3, [sp, #20]
.LVL575:
	cmp	r3, #0
	beq	.L586
	ldr	r5, [sp, #44]
	mov	r3, r5
	cmp	r5, #0
.LBB1166:
.LBB1167:
	.loc 1 1039 0
	add	r3, r3, #1
	it	eq
	moveq	r3, #0
	cmp	r3, #0
	mov	r0, r3
	str	r3, [sp, #24]
.LBB1168:
.LBB1169:
.LBB1170:
	add	r3, r3, #1
	it	eq
	moveq	r3, #0
	mov	r4, r3
	cmp	r3, #0
	str	r3, [sp, #16]
.LBB1171:
.LBB1172:
.LBB1173:
	add	r3, r3, #1
	it	ne
	movne	r9, r3
.LBE1173:
.LBE1172:
.LBE1171:
.LBE1170:
.LBE1169:
	.loc 1 1076 0
	add	r3, r5, #-1
	mul	r3, fp, r3
	str	r3, [sp, #84]
.LBE1168:
.LBE1167:
.LBE1166:
	.loc 1 1067 0
	ldr	r3, [sp, #68]
	it	eq
	moveq	r9, #0
	mul	r3, fp, r3
	str	r3, [sp, #80]
.LBB1263:
.LBB1256:
.LBB1248:
	mul	r3, fp, r5
	str	r3, [sp, #60]
	mov	r3, fp
.LBB1235:
.LBB1226:
.LBB1216:
.LBB1202:
.LBB1192:
.LBB1174:
	.loc 1 1076 0
	subs	r1, r4, #1
.LBE1174:
.LBE1192:
.LBE1202:
	subs	r2, r0, #1
.LBB1203:
.LBB1193:
.LBB1181:
	mul	r1, fp, r1
.LBE1181:
.LBE1193:
.LBE1203:
	mul	r2, fp, r2
.LBB1204:
.LBB1194:
.LBB1182:
	str	r1, [sp, #48]
.LBE1182:
.LBE1194:
.LBE1204:
	str	r2, [sp, #64]
.LBB1205:
.LBB1195:
.LBB1183:
	.loc 1 1067 0
	mul	r1, r4, fp
.LBE1183:
.LBE1195:
.LBE1205:
	mul	r2, r0, fp
.LBB1206:
.LBB1196:
.LBB1184:
	str	r1, [sp, #28]
.LBE1184:
.LBE1196:
.LBE1206:
.LBE1216:
.LBE1226:
.LBE1235:
	mov	fp, r9
.LVL576:
.LBB1236:
.LBB1227:
.LBB1217:
	str	r2, [sp, #40]
.LBE1217:
.LBE1227:
.LBE1236:
	mov	r9, r3
	ldr	r3, [sp, #20]
.LVL577:
	b	.L631
.LVL578:
.L588:
.LBE1248:
.LBE1256:
.LBE1263:
.LBB1264:
.LBB1265:
	.loc 1 606 0
	ldr	r3, [r3, #4]
	cbz	r3, .L591
	movs	r4, #0
.LBE1265:
.LBE1264:
.LBB1267:
.LBB1257:
	.loc 1 1038 0
	mov	r0, r4
	ldr	r3, [sp, #20]
.LVL579:
.L590:
.LBE1257:
.LBE1267:
	.loc 1 1070 0
	ldr	r2, [sp, #36]
	.loc 1 1071 0
	ldr	r3, [r3, #32]
	.loc 1 1070 0
	add	r2, r2, r0
	.loc 1 1071 0
	str	r3, [sp, #20]
.LVL580:
	.loc 1 1070 0
	str	r2, [sp, #36]
.LVL581:
	.loc 1 1064 0
	cmp	r3, #0
	beq	.L704
.LVL582:
.L631:
.LBB1268:
.LBB1266:
	.loc 1 606 0
	ldr	r4, [r3]
	cmp	r4, #0
	bne	.L588
	ldr	r0, [r3, #4]
.LVL583:
.LBE1266:
.LBE1268:
.LBB1269:
.LBB1258:
.LBB1249:
.LBB1250:
	.loc 1 616 0
	cmp	r0, #0
	beq	.L705
.LVL584:
.LBE1250:
.LBE1249:
	.loc 1 1042 0
	bl	strlen
.LVL585:
	ldr	r3, [sp, #20]
	b	.L590
.LVL586:
.L591:
.LBE1258:
.LBE1269:
	.loc 1 1065 0
	ldr	r3, [sp, #68]
	cbz	r3, .L592
	.loc 1 1066 0
	ldr	r3, [sp, #36]
	.loc 1 1067 0
	ldr	r2, [sp, #80]
	.loc 1 1066 0
	adds	r3, r3, #1
.LVL587:
	.loc 1 1067 0
	add	r3, r3, r2
.LVL588:
	str	r3, [sp, #36]
.LVL589:
.L592:
.LBB1270:
.LBB1259:
.LBB1252:
	.loc 1 1049 0
	ldr	r2, [sp, #20]
	ldr	r3, [r2, #8]
	.loc 1 1046 0
	ldr	r2, [r2, #24]
	.loc 1 1049 0
	str	r3, [sp, #52]
	.loc 1 1046 0
	str	r2, [sp, #4]
.LVL590:
	.loc 1 1049 0
	cmp	r3, #0
	beq	.L706
	ldr	r3, [sp, #20]
	.loc 1 1051 0
	ldr	r0, [sp, #52]
	.loc 1 1049 0
	ldr	r6, [r3, #16]
	cmp	r6, #0
	beq	.L593
	.loc 1 1051 0
	bl	strlen
.LVL591:
	mov	r5, r0
	mov	r0, r4
	bl	strlen
.LVL592:
	mov	r4, r0
	str	r0, [sp, #56]
	mov	r0, r6
	bl	strlen
.LVL593:
	adds	r3, r5, r4
	adds	r3, r3, #4
	add	r3, r3, r0
	str	r3, [sp, #8]
.LVL594:
.L594:
	.loc 1 1064 0
	ldr	r3, [sp, #4]
.LVL595:
	cbnz	r3, .L627
	b	.L642
.LVL596:
.L597:
.LBB1237:
.LBB1238:
	.loc 1 606 0
	ldr	r3, [r3, #4]
	cbz	r3, .L600
	movs	r4, #0
.LBE1238:
.LBE1237:
.LBB1240:
.LBB1228:
	.loc 1 1038 0
	mov	r0, r4
	ldr	r3, [sp, #4]
.LVL597:
.L599:
.LBE1228:
.LBE1240:
	.loc 1 1070 0
	ldr	r2, [sp, #8]
	.loc 1 1071 0
	ldr	r3, [r3, #32]
	.loc 1 1070 0
	add	r2, r2, r0
	.loc 1 1071 0
	str	r3, [sp, #4]
.LVL598:
	.loc 1 1070 0
	str	r2, [sp, #8]
.LVL599:
	.loc 1 1064 0
	cmp	r3, #0
	beq	.L707
.LVL600:
.L627:
.LBB1241:
.LBB1239:
	.loc 1 606 0
	ldr	r4, [r3]
	cmp	r4, #0
	bne	.L597
	ldr	r0, [r3, #4]
.LVL601:
.LBE1239:
.LBE1241:
.LBB1242:
.LBB1229:
.LBB1218:
.LBB1219:
	.loc 1 616 0
	cmp	r0, #0
	beq	.L708
.LVL602:
.LBE1219:
.LBE1218:
	.loc 1 1042 0
	bl	strlen
.LVL603:
	ldr	r3, [sp, #4]
	b	.L599
.LVL604:
.L600:
.LBE1229:
.LBE1242:
	.loc 1 1065 0
	ldr	r3, [sp, #44]
	cbz	r3, .L601
	.loc 1 1066 0
	ldr	r3, [sp, #8]
	.loc 1 1067 0
	ldr	r2, [sp, #60]
	.loc 1 1066 0
	adds	r3, r3, #1
.LVL605:
	.loc 1 1067 0
	add	r3, r3, r2
.LVL606:
	str	r3, [sp, #8]
.LVL607:
.L601:
.LBB1243:
.LBB1230:
.LBB1221:
	.loc 1 1049 0
	ldr	r2, [sp, #4]
	ldr	r3, [r2, #8]
	.loc 1 1046 0
	ldr	r6, [r2, #24]
.LVL608:
	.loc 1 1049 0
	str	r3, [sp, #12]
	cmp	r3, #0
	beq	.L709
	ldr	r7, [r2, #16]
	.loc 1 1051 0
	ldr	r0, [sp, #12]
	.loc 1 1049 0
	cmp	r7, #0
	beq	.L602
	.loc 1 1051 0
	bl	strlen
.LVL609:
	mov	r8, r0
	mov	r0, r4
	bl	strlen
.LVL610:
	mov	r4, r0
	str	r0, [sp, #32]
	mov	r0, r7
	bl	strlen
.LVL611:
	add	r8, r8, r4
	add	r8, r8, #4
	add	r8, r8, r0
.LVL612:
.L603:
	.loc 1 1064 0
	cbnz	r6, .L623
	b	.L646
.LVL613:
.L606:
.LBB1207:
.LBB1208:
	.loc 1 606 0
	ldr	r3, [r6, #4]
	cbz	r3, .L609
	movs	r7, #0
.LBE1208:
.LBE1207:
.LBB1210:
.LBB1197:
	.loc 1 1038 0
	mov	r0, r7
.LVL614:
.L608:
.LBE1197:
.LBE1210:
	.loc 1 1071 0
	ldr	r6, [r6, #32]
.LVL615:
	.loc 1 1070 0
	add	r8, r8, r0
.LVL616:
	.loc 1 1064 0
	cbz	r6, .L710
.L623:
.LVL617:
.LBB1211:
.LBB1209:
	.loc 1 606 0
	ldr	r7, [r6]
	cmp	r7, #0
	bne	.L606
	ldr	r0, [r6, #4]
.LVL618:
.LBE1209:
.LBE1211:
.LBB1212:
.LBB1198:
.LBB1185:
.LBB1186:
	.loc 1 616 0
	cmp	r0, #0
	beq	.L711
.LVL619:
.LBE1186:
.LBE1185:
	.loc 1 1042 0
	bl	strlen
.LVL620:
.LBE1198:
.LBE1212:
	.loc 1 1071 0
	ldr	r6, [r6, #32]
.LVL621:
	.loc 1 1070 0
	add	r8, r8, r0
.LVL622:
	.loc 1 1064 0
	cmp	r6, #0
	bne	.L623
.LVL623:
.L710:
	.loc 1 1074 0
	cbz	r7, .L624
	ldr	r3, [sp, #24]
	cbz	r3, .L624
	.loc 1 1076 0
	ldr	r3, [sp, #64]
	.loc 1 1075 0
	add	r8, r8, #1
.LVL624:
	.loc 1 1076 0
	add	r8, r8, r3
.LVL625:
.L624:
	.loc 1 1079 0
	ldr	r3, [sp, #12]
	cmp	r3, #0
	beq	.L625
.L646:
	.loc 1 1081 0
	ldr	r0, [sp, #12]
	bl	strlen
.LVL626:
	ldr	r3, [sp, #32]
	adds	r3, r3, #4
	add	r0, r0, r3
.LVL627:
.L626:
	.loc 1 1086 0
	movs	r4, #1
	add	r0, r0, r8
.LVL628:
	ldr	r3, [sp, #4]
	b	.L599
.LVL629:
.L609:
	.loc 1 1065 0
	ldr	r3, [sp, #24]
	cbz	r3, .L610
	.loc 1 1067 0
	ldr	r3, [sp, #40]
	.loc 1 1066 0
	add	r8, r8, #1
.LVL630:
	.loc 1 1067 0
	add	r8, r8, r3
.LVL631:
.L610:
.LBB1213:
.LBB1199:
.LBB1188:
	.loc 1 1049 0
	ldr	r3, [r6, #8]
	.loc 1 1046 0
	ldr	r4, [r6, #24]
.LVL632:
	.loc 1 1049 0
	str	r3, [sp]
	cmp	r3, #0
	beq	.L712
	ldr	r10, [r6, #16]
	mov	r0, r3
	cmp	r10, #0
	beq	.L611
	.loc 1 1051 0
	bl	strlen
.LVL633:
	mov	r5, r0
	mov	r0, r7
	bl	strlen
.LVL634:
	mov	r7, r0
	mov	r0, r10
	bl	strlen
.LVL635:
	adds	r3, r5, r7
	adds	r3, r3, #4
	add	r10, r3, r0
.LVL636:
.L612:
	.loc 1 1064 0
	cbz	r4, .L650
.L649:
	ldr	r3, [sp, #16]
	cbnz	r3, .L619
.LVL637:
.L616:
	.loc 1 1070 0
	mov	r0, r4
	mov	r2, r9
	movs	r1, #0
	bl	xml_tree_size
.LVL638:
	.loc 1 1071 0
	ldr	r4, [r4, #32]
.LVL639:
	.loc 1 1070 0
	add	r10, r10, r0
.LVL640:
	.loc 1 1064 0
	cmp	r4, #0
	bne	.L616
.LVL641:
.L617:
	.loc 1 1079 0
	ldr	r3, [sp]
	cbz	r3, .L621
.L650:
	.loc 1 1081 0
	ldr	r0, [sp]
	bl	strlen
.LVL642:
	adds	r7, r7, #4
	add	r0, r0, r7
.LVL643:
.L622:
	.loc 1 1086 0
	movs	r7, #1
	add	r0, r0, r10
.LVL644:
	b	.L608
.LVL645:
.L654:
.LBB1175:
.LBB1176:
	.loc 1 606 0
	movs	r5, #0
.LVL646:
.L618:
.LBE1176:
.LBE1175:
	.loc 1 1070 0
	mov	r0, r4
	mov	r2, r9
	mov	r1, fp
	bl	xml_tree_size
.LVL647:
	.loc 1 1071 0
	ldr	r4, [r4, #32]
.LVL648:
	.loc 1 1070 0
	add	r10, r10, r0
.LVL649:
	.loc 1 1064 0
	cbz	r4, .L713
.L619:
.LVL650:
.LBB1179:
.LBB1177:
	.loc 1 606 0
	ldr	r5, [r4]
	cmp	r5, #0
	beq	.L618
	.loc 1 606 0
	ldr	r3, [r4, #4]
	cmp	r3, #0
	bne	.L654
.LVL651:
.LBE1177:
.LBE1179:
	.loc 1 1067 0
	ldr	r3, [sp, #28]
	.loc 1 1066 0
	add	r10, r10, #1
.LVL652:
	.loc 1 1067 0
	add	r10, r10, r3
.LVL653:
.LBB1180:
.LBB1178:
	.loc 1 607 0
	movs	r5, #1
	b	.L618
.L713:
.LBE1178:
.LBE1180:
	.loc 1 1074 0
	cmp	r5, #0
	beq	.L617
	.loc 1 1076 0
	ldr	r2, [sp, #48]
	.loc 1 1075 0
	add	r3, r10, #1
.LVL654:
	.loc 1 1076 0
	add	r10, r3, r2
.LVL655:
	.loc 1 1079 0
	ldr	r3, [sp]
	cmp	r3, #0
	bne	.L650
.L621:
	.loc 1 1084 0
	adds	r0, r7, #3
.LVL656:
	b	.L622
.LVL657:
.L611:
	.loc 1 1054 0
	bl	strlen
.LVL658:
	mov	r5, r0
	mov	r0, r7
	bl	strlen
.LVL659:
	adds	r3, r5, r0
	mov	r7, r0
	add	r10, r3, #3
.LVL660:
	b	.L612
.LVL661:
.L707:
.LBE1188:
.LBE1199:
.LBE1213:
.LBE1221:
.LBE1230:
.LBE1243:
	.loc 1 1074 0
	cbz	r4, .L628
	ldr	r3, [sp, #44]
.LVL662:
	cbz	r3, .L628
	.loc 1 1075 0
	mov	r3, r2
	.loc 1 1076 0
	ldr	r2, [sp, #84]
.LVL663:
	.loc 1 1075 0
	adds	r3, r3, #1
.LVL664:
	.loc 1 1076 0
	add	r3, r3, r2
.LVL665:
	str	r3, [sp, #8]
.LVL666:
.L628:
	.loc 1 1079 0
	ldr	r3, [sp, #52]
	cmp	r3, #0
	beq	.L629
.L642:
	.loc 1 1081 0
	ldr	r0, [sp, #52]
	bl	strlen
.LVL667:
	ldr	r3, [sp, #56]
	adds	r3, r3, #4
	add	r0, r0, r3
.LVL668:
.L630:
	.loc 1 1086 0
	ldr	r3, [sp, #8]
	movs	r4, #1
	add	r0, r0, r3
.LVL669:
	ldr	r3, [sp, #20]
	b	.L590
.LVL670:
.L602:
.LBB1244:
.LBB1231:
.LBB1222:
	.loc 1 1054 0
	bl	strlen
.LVL671:
	mov	r5, r0
	mov	r0, r4
	bl	strlen
.LVL672:
	add	r5, r5, r0
	str	r0, [sp, #32]
	add	r8, r5, #3
.LVL673:
	b	.L603
.LVL674:
.L711:
.LBB1214:
.LBB1200:
.LBB1189:
.LBB1187:
	.loc 1 616 0
	mov	r7, r0
	b	.L608
.LVL675:
.L712:
.LBE1187:
.LBE1189:
.LBB1190:
	.loc 1 1055 0
	ldr	r5, [r6, #16]
	.loc 1 1057 0
	mov	r0, r7
	.loc 1 1055 0
	cmp	r5, #0
	beq	.L613
	.loc 1 1057 0
	bl	strlen
.LVL676:
	mov	r7, r0
	mov	r0, r5
	bl	strlen
.LVL677:
	add	r0, r0, r7
	add	r10, r0, #3
.LVL678:
	.loc 1 1064 0
	cmp	r4, #0
	bne	.L649
.L701:
	.loc 1 1084 0
	adds	r0, r7, #3
.LVL679:
	b	.L622
.LVL680:
.L709:
.LBE1190:
.LBE1200:
.LBE1214:
	.loc 1 1055 0
	ldr	r5, [r2, #16]
	.loc 1 1057 0
	mov	r0, r4
	.loc 1 1055 0
	cmp	r5, #0
	beq	.L604
	.loc 1 1057 0
	bl	strlen
.LVL681:
	mov	r4, r0
	str	r0, [sp, #32]
	mov	r0, r5
	bl	strlen
.LVL682:
	add	r0, r0, r4
	add	r8, r0, #3
.LVL683:
	.loc 1 1064 0
	cmp	r6, #0
	bne	.L623
.LVL684:
.L625:
	.loc 1 1084 0
	ldr	r0, [sp, #32]
	adds	r0, r0, #3
.LVL685:
	b	.L626
.LVL686:
.L704:
.LBE1222:
.LBE1231:
.LBE1244:
.LBE1252:
.LBE1259:
.LBE1270:
	.loc 1 1074 0
	cbz	r4, .L586
	.loc 1 1074 0 is_stmt 0 discriminator 1
	ldr	r2, [sp, #68]
.LVL687:
	cbz	r2, .L586
	.loc 1 1075 0 is_stmt 1
	ldr	r3, [sp, #36]
.LVL688:
	.loc 1 1076 0
	subs	r2, r2, #1
	.loc 1 1075 0
	adds	r3, r3, #1
.LVL689:
	.loc 1 1076 0
	mla	r3, r9, r2, r3
.LVL690:
	str	r3, [sp, #36]
.LVL691:
.L586:
	.loc 1 1079 0
	ldr	r3, [sp, #76]
	cmp	r3, #0
	beq	.L632
	.loc 1 1081 0
	mov	r0, r3
	bl	strlen
.LVL692:
	ldr	r3, [sp, #72]
	adds	r3, r3, #4
	add	r0, r0, r3
.LVL693:
.L633:
	.loc 1 1086 0
	ldr	r3, [sp, #36]
	add	r3, r3, r0
	mov	r0, r3
.LVL694:
.LBE1165:
	.loc 1 1090 0
	add	sp, sp, #92
	.cfi_remember_state
	.cfi_def_cfa_offset 36
	@ sp needed
	pop	{r4, r5, r6, r7, r8, r9, r10, fp, pc}
.LVL695:
.L593:
	.cfi_restore_state
.LBB1274:
.LBB1271:
.LBB1260:
.LBB1253:
	.loc 1 1054 0
	bl	strlen
.LVL696:
	mov	r5, r0
	mov	r0, r4
	bl	strlen
.LVL697:
	add	r5, r5, r0
	adds	r3, r5, #3
	str	r0, [sp, #56]
	str	r3, [sp, #8]
.LVL698:
	b	.L594
.LVL699:
.L708:
.LBB1245:
.LBB1232:
.LBB1223:
.LBB1220:
	.loc 1 616 0
	mov	r4, r0
	b	.L599
.LVL700:
.L706:
.LBE1220:
.LBE1223:
.LBE1232:
.LBE1245:
	.loc 1 1055 0
	ldr	r3, [sp, #20]
	.loc 1 1057 0
	mov	r0, r4
	.loc 1 1055 0
	ldr	r5, [r3, #16]
	cmp	r5, #0
	beq	.L595
	.loc 1 1057 0
	bl	strlen
.LVL701:
	mov	r4, r0
	str	r0, [sp, #56]
	mov	r0, r5
	bl	strlen
.LVL702:
	add	r0, r0, r4
	adds	r3, r0, #3
	str	r3, [sp, #8]
.LVL703:
.L596:
	.loc 1 1064 0
	ldr	r3, [sp, #4]
.LVL704:
	cmp	r3, #0
	bne	.L627
.LVL705:
.L629:
	.loc 1 1084 0
	ldr	r0, [sp, #56]
	adds	r0, r0, #3
.LVL706:
	b	.L630
.LVL707:
.L613:
.LBB1246:
.LBB1233:
.LBB1224:
.LBB1215:
.LBB1201:
.LBB1191:
	.loc 1 1060 0
	bl	strlen
.LVL708:
	mov	r7, r0
	add	r10, r0, #2
.LVL709:
	.loc 1 1064 0
	cmp	r4, #0
	beq	.L701
	b	.L649
.LVL710:
.L583:
.LBE1191:
.LBE1201:
.LBE1215:
.LBE1224:
.LBE1233:
.LBE1246:
.LBE1253:
.LBE1260:
.LBE1271:
	.loc 1 1054 0
	bl	strlen
.LVL711:
	mov	r5, r0
	mov	r0, r4
	bl	strlen
.LVL712:
	add	r5, r5, r0
	adds	r3, r5, #3
	str	r0, [sp, #72]
	str	r3, [sp, #36]
.LVL713:
	b	.L584
.LVL714:
.L705:
.LBB1272:
.LBB1261:
.LBB1254:
.LBB1251:
	.loc 1 616 0
	mov	r4, r0
	b	.L590
.LVL715:
.L632:
.LBE1251:
.LBE1254:
.LBE1261:
.LBE1272:
	.loc 1 1084 0
	ldr	r0, [sp, #72]
	adds	r0, r0, #3
.LVL716:
	b	.L633
.LVL717:
.L703:
	.loc 1 1055 0
	ldr	r5, [r0, #16]
	.loc 1 1057 0
	mov	r0, r4
.LVL718:
	.loc 1 1055 0
	cbz	r5, .L587
	.loc 1 1057 0
	bl	strlen
.LVL719:
	mov	r4, r0
	str	r0, [sp, #72]
	mov	r0, r5
	bl	strlen
.LVL720:
	add	r0, r0, r4
	adds	r3, r0, #3
	str	r3, [sp, #36]
.LVL721:
	b	.L584
.LVL722:
.L604:
.LBB1273:
.LBB1262:
.LBB1255:
.LBB1247:
.LBB1234:
.LBB1225:
	.loc 1 1060 0
	bl	strlen
.LVL723:
	str	r0, [sp, #32]
	add	r8, r0, #2
.LVL724:
	.loc 1 1064 0
	cmp	r6, #0
	beq	.L625
	b	.L623
.LVL725:
.L595:
.LBE1225:
.LBE1234:
.LBE1247:
	.loc 1 1060 0
	bl	strlen
.LVL726:
	mov	r3, r0
	adds	r3, r3, #2
	str	r0, [sp, #56]
	str	r3, [sp, #8]
.LVL727:
	b	.L596
.LVL728:
.L587:
.LBE1255:
.LBE1262:
.LBE1273:
	bl	strlen
.LVL729:
	mov	r3, r0
	adds	r3, r3, #2
	str	r0, [sp, #72]
	str	r3, [sp, #36]
.LVL730:
	b	.L584
.LBE1274:
	.cfi_endproc
.LFE178:
	.size	xml_tree_size, .-xml_tree_size
	.section	.text._parse_tag,"ax",%progbits
	.align	1
	.p2align 2,,3
	.syntax unified
	.thumb
	.thumb_func
	.fpu softvfp
	.type	_parse_tag, %function
_parse_tag:
.LFB150:
	.loc 1 99 0
	.cfi_startproc
	@ args = 4, pretend = 0, frame = 8
	@ frame_needed = 0, uses_anonymous_args = 0
.LVL731:
	push	{r4, r5, r6, r7, r8, r9, r10, fp, lr}
	.cfi_def_cfa_offset 36
	.cfi_offset 4, -36
	.cfi_offset 5, -32
	.cfi_offset 6, -28
	.cfi_offset 7, -24
	.cfi_offset 8, -20
	.cfi_offset 9, -16
	.cfi_offset 10, -12
	.cfi_offset 11, -8
	.cfi_offset 14, -4
	mov	r4, r1
	sub	sp, sp, #12
	.cfi_def_cfa_offset 48
	.loc 1 104 0
	movs	r1, #58
.LVL732:
	.loc 1 99 0
	mov	r7, r2
	mov	r8, r3
	mov	r5, r0
	.loc 1 104 0
	bl	strchr
.LVL733:
	.loc 1 99 0
	ldr	r6, [sp, #48]
	.loc 1 106 0
	cmp	r0, #0
	beq	.L715
	mov	r9, r0
.LBB1358:
	.loc 1 107 0
	movs	r1, #32
	mov	r0, r5
.LVL734:
	bl	strchr
.LVL735:
	.loc 1 109 0
	cbz	r0, .L716
	.loc 1 111 0
	cmp	r9, r0
	bcs	.L715
.L716:
.LVL736:
.LBE1358:
.LBB1359:
.LBB1360:
	.loc 1 65 0
	subs	r0, r9, r5
.LVL737:
	beq	.L720
.LVL738:
	.loc 1 68 0
	cmp	r5, r9
	bcs	.L921
	.loc 1 69 0
	ldrb	r3, [r5]	@ zero_extendqisi2
	cmp	r3, #32
	it	eq
	addeq	r3, r5, #1
	beq	.L718
	b	.L1003
.LVL739:
.L719:
	ldrb	r2, [fp]	@ zero_extendqisi2
	cmp	r2, #32
	bne	.L869
.LVL740:
.L718:
	.loc 1 68 0
	cmp	r9, r3
	mov	fp, r3
.LVL741:
	add	r3, r3, #1
.LVL742:
	bne	.L719
.L866:
	.loc 1 71 0
	cmp	r9, fp
	beq	.L889
.L869:
	.loc 1 74 0
	subs	r0, r0, #1
.LVL743:
	add	r10, r5, r0
.LVL744:
	cmp	r10, fp
	bcc	.L726
	.loc 1 75 0
	ldrb	r3, [r5, r0]	@ zero_extendqisi2
	cmp	r3, #32
	bne	.L722
	add	r3, r10, #-1
	add	r1, fp, #-1
	b	.L724
.L725:
	ldrb	r2, [r10]	@ zero_extendqisi2
	cmp	r2, #32
	bne	.L722
.L724:
.LVL745:
	.loc 1 74 0
	cmp	r1, r3
	mov	r10, r3
.LVL746:
	add	r3, r3, #-1
.LVL747:
	bne	.L725
.L726:
	.loc 1 84 0
	add	r10, r10, #1
.LVL748:
	sub	r10, r10, fp
.LVL749:
.LBB1361:
.LBB1362:
	.loc 1 51 0
	add	r0, r10, #1
.LVL750:
	bl	pvPortMalloc
.LVL751:
.LBE1362:
.LBE1361:
	.loc 1 86 0
	mov	r2, r10
	mov	r1, fp
	bl	memcpy
.LVL752:
	.loc 1 87 0
	movs	r2, #0
	strb	r2, [r0, r10]
.LVL753:
.L720:
.LBE1360:
.LBE1359:
	.loc 1 116 0
	str	r0, [r4]
	.loc 1 117 0
	bl	strlen
.LVL754:
.LBB1369:
.LBB1370:
	.loc 1 51 0
	adds	r0, r0, #8
.LVL755:
	bl	pvPortMalloc
.LVL756:
	mov	fp, r0
.LBE1370:
.LBE1369:
	.loc 1 118 0
	ldr	r2, [r4]
	ldr	r1, .L1015
	bl	sprintf
.LVL757:
.LBB1371:
.LBB1372:
	.loc 1 28 0
	ldrb	r4, [fp]	@ zero_extendqisi2
.LVL758:
	cmp	r4, #0
	bne	.L1004
.LVL759:
.LBE1372:
.LBE1371:
.LBB1374:
.LBB1375:
	.loc 1 56 0
	mov	r0, fp
	bl	vPortFree
.LVL760:
	mov	r10, r5
.LVL761:
.L886:
.LBE1375:
.LBE1374:
.LBB1377:
	.loc 1 135 0
	add	r4, r9, #1
	mov	r0, r4
	movs	r1, #32
	bl	strchr
.LVL762:
	mov	fp, r0
.LVL763:
.LBB1378:
.LBB1379:
	.loc 1 65 0
	subs	r0, r0, r4
.LVL764:
	beq	.L743
.LVL765:
	.loc 1 68 0
	adds	r1, r4, r0
	cmp	r4, r1
	bcs	.L738
	.loc 1 69 0
	ldrb	r3, [r9, #1]	@ zero_extendqisi2
	cmp	r3, #32
	it	eq
	addeq	r3, r9, #2
	beq	.L741
	b	.L872
.LVL766:
.L742:
	ldrb	r2, [r4]	@ zero_extendqisi2
	cmp	r2, #32
	bne	.L872
.L741:
.LVL767:
	.loc 1 68 0
	cmp	r1, r3
	mov	r4, r3
.LVL768:
	add	r3, r3, #1
.LVL769:
	bne	.L742
.L738:
	.loc 1 71 0
	cmp	r1, r4
	beq	.L890
.L872:
	.loc 1 74 0
	add	r2, r9, r0
.LVL770:
	cmp	r2, r4
	bcc	.L749
	.loc 1 75 0
	ldrb	r3, [r9, r0]	@ zero_extendqisi2
	cmp	r3, #32
	bne	.L745
	subs	r3, r2, #1
	subs	r0, r4, #1
.LVL771:
	b	.L747
.L748:
	ldrb	r1, [r2]	@ zero_extendqisi2
	cmp	r1, #32
	bne	.L745
.L747:
.LVL772:
	.loc 1 74 0
	cmp	r0, r3
	mov	r2, r3
.LVL773:
	add	r3, r3, #-1
.LVL774:
	bne	.L748
.L749:
	.loc 1 84 0
	adds	r2, r2, #1
.LVL775:
	sub	r9, r2, r4
.LVL776:
.LBB1380:
.LBB1381:
	.loc 1 51 0
	add	r0, r9, #1
.LVL777:
	bl	pvPortMalloc
.LVL778:
.LBE1381:
.LBE1380:
	.loc 1 86 0
	mov	r2, r9
	mov	r1, r4
	bl	memcpy
.LVL779:
	.loc 1 87 0
	movs	r2, #0
	strb	r2, [r0, r9]
.LVL780:
.L743:
.LBE1379:
.LBE1378:
	.loc 1 136 0
	str	r0, [r7]
	.loc 1 138 0
	cbz	r6, .L750
	.loc 1 139 0
	mov	r0, r5
	bl	strlen
.LVL781:
	add	r0, r0, r5
	sub	r1, r0, fp
.LVL782:
.LBB1386:
.LBB1387:
	.loc 1 65 0
	cmp	fp, #0
	beq	.L751
	cbz	r1, .L894
.LVL783:
	.loc 1 68 0
	cmp	fp, r0
	bcs	.L892
	.loc 1 69 0
	ldrb	r3, [fp]	@ zero_extendqisi2
	cmp	r3, #32
	it	eq
	addeq	r3, fp, #1
	beq	.L755
	b	.L1005
.LVL784:
.L756:
	ldrb	r2, [r7]	@ zero_extendqisi2
	cmp	r2, #32
	bne	.L873
.LVL785:
.L755:
	.loc 1 68 0
	cmp	r3, r0
	mov	r7, r3
.LVL786:
	add	r3, r3, #1
.LVL787:
	bne	.L756
.L752:
	.loc 1 71 0
	cmp	r0, r7
	bne	.L873
.LVL788:
.L894:
	.loc 1 66 0
	mov	fp, #0
.LVL789:
.L751:
.LBE1387:
.LBE1386:
	.loc 1 139 0
	str	fp, [r6]
.L750:
	.loc 1 141 0
	movs	r1, #61
	mov	r0, r10
	bl	strchr
.LVL790:
	ldrb	r3, [r0, #1]	@ zero_extendqisi2
	.loc 1 146 0
	mov	r0, r10
.LVL791:
.L989:
.LBE1377:
.LBB1400:
	.loc 1 182 0
	cmp	r3, #39
	ite	ne
	movne	r4, #34
	moveq	r4, #39
	.loc 1 187 0
	mov	r1, r4
	bl	strchr
.LVL792:
	adds	r5, r0, #1
.LVL793:
	.loc 1 188 0
	mov	r1, r4
	mov	r0, r5
	bl	strchr
.LVL794:
	.loc 1 189 0
	subs	r4, r0, r5
.LVL795:
.LBB1401:
.LBB1402:
	.loc 1 51 0
	adds	r0, r4, #1
.LVL796:
	bl	pvPortMalloc
.LVL797:
.LBE1402:
.LBE1401:
	.loc 1 191 0
	mov	r2, r4
	mov	r1, r5
	.loc 1 190 0
	str	r0, [r8]
	.loc 1 191 0
	bl	memcpy
.LVL798:
	.loc 1 192 0
	movs	r2, #0
	ldr	r3, [r8]
	strb	r2, [r3, r4]
.LVL799:
.L714:
.LBE1400:
	.loc 1 213 0
	add	sp, sp, #12
	.cfi_remember_state
	.cfi_def_cfa_offset 36
	@ sp needed
	pop	{r4, r5, r6, r7, r8, r9, r10, fp, pc}
.LVL800:
.L715:
	.cfi_restore_state
	.loc 1 123 0
	movs	r3, #0
	str	r3, [r4]
.LVL801:
.LBB1429:
.LBB1430:
	.loc 1 31 0
	ldrb	r10, [r5]	@ zero_extendqisi2
	cmp	r10, #0
	beq	.L737
	mov	r9, r5
	mov	r4, r10
.LVL802:
	b	.L736
.LVL803:
.L732:
	ldrb	r4, [r9, #1]!	@ zero_extendqisi2
.LVL804:
	cmp	r4, #0
	beq	.L737
.LVL805:
.L736:
	.loc 1 32 0
	cmp	r4, #32
	bne	.L732
	mov	r3, r9
	ldr	r2, .L1015+4
.LVL806:
.L733:
	.loc 1 40 0
	ldrb	r1, [r3], #1	@ zero_extendqisi2
.LVL807:
	cmp	r1, r4
	bne	.L732
	.loc 1 37 0
	ldrb	r4, [r2, #1]!	@ zero_extendqisi2
	cmp	r4, #0
	bne	.L733
.LVL808:
.LBE1430:
.LBE1429:
.LBB1431:
	.loc 1 176 0
	movs	r1, #32
	mov	r0, r5
	bl	strchr
.LVL809:
.LBB1403:
.LBB1404:
	.loc 1 65 0
	subs	r1, r0, r5
.LBE1404:
.LBE1403:
	.loc 1 176 0
	mov	fp, r0
.LVL810:
.LBB1413:
.LBB1409:
	.loc 1 65 0
	beq	.L808
.LVL811:
	.loc 1 68 0
	cmp	r5, fp
	bcs	.L902
	.loc 1 69 0
	cmp	r10, #32
	it	eq
	addeq	r3, r5, #1
	beq	.L806
	b	.L1006
.LVL812:
.L807:
	ldrb	r2, [r4]	@ zero_extendqisi2
	cmp	r2, #32
	bne	.L880
.LVL813:
.L806:
	.loc 1 68 0
	cmp	fp, r3
	mov	r4, r3
.LVL814:
	add	r3, r3, #1
.LVL815:
	bne	.L807
.L803:
	.loc 1 71 0
	cmp	fp, r4
	beq	.L904
.L880:
	.loc 1 74 0
	subs	r1, r1, #1
.LVL816:
	adds	r2, r5, r1
.LVL817:
	cmp	r2, r4
	bcc	.L814
	.loc 1 75 0
	ldrb	r3, [r5, r1]	@ zero_extendqisi2
	cmp	r3, #32
	bne	.L810
	subs	r3, r2, #1
	subs	r0, r4, #1
.LVL818:
	b	.L812
.LVL819:
.L813:
	ldrb	r1, [r2]	@ zero_extendqisi2
	cmp	r1, #32
	bne	.L810
.L812:
.LVL820:
	.loc 1 74 0
	cmp	r0, r3
	mov	r2, r3
.LVL821:
	add	r3, r3, #-1
.LVL822:
	bne	.L813
.L814:
	.loc 1 84 0
	adds	r2, r2, #1
.LVL823:
	sub	r10, r2, r4
.LVL824:
.LBB1405:
.LBB1406:
	.loc 1 51 0
	add	r0, r10, #1
.LVL825:
	bl	pvPortMalloc
.LVL826:
.LBE1406:
.LBE1405:
	.loc 1 86 0
	mov	r2, r10
	mov	r1, r4
	bl	memcpy
.LVL827:
	.loc 1 87 0
	movs	r2, #0
	mov	r4, r0
.LVL828:
	strb	r2, [r0, r10]
.LVL829:
.L808:
.LBE1409:
.LBE1413:
	.loc 1 177 0
	str	r4, [r7]
	.loc 1 179 0
	cbz	r6, .L815
	.loc 1 180 0
	mov	r0, r5
	bl	strlen
.LVL830:
	add	r0, r0, r5
	sub	r1, r0, fp
.LVL831:
.LBB1414:
.LBB1415:
	.loc 1 65 0
	cmp	fp, #0
	beq	.L816
	cbz	r1, .L908
.LVL832:
	.loc 1 68 0
	cmp	fp, r0
	bcs	.L906
	.loc 1 69 0
	ldrb	r3, [fp]	@ zero_extendqisi2
	cmp	r3, #32
	it	eq
	addeq	r3, fp, #1
	beq	.L820
	b	.L1007
.LVL833:
.L821:
	ldrb	r2, [r7]	@ zero_extendqisi2
	cmp	r2, #32
	bne	.L881
.LVL834:
.L820:
	.loc 1 68 0
	cmp	r0, r3
	mov	r7, r3
.LVL835:
	add	r3, r3, #1
.LVL836:
	bne	.L821
.L817:
	.loc 1 71 0
	cmp	r0, r7
	bne	.L881
.LVL837:
.L908:
	.loc 1 66 0
	mov	fp, #0
.LVL838:
.L816:
.LBE1415:
.LBE1414:
	.loc 1 180 0
	str	fp, [r6]
.L815:
	.loc 1 182 0
	movs	r1, #61
	mov	r0, r9
	bl	strchr
.LVL839:
	ldrb	r3, [r0, #1]	@ zero_extendqisi2
	.loc 1 187 0
	mov	r0, r9
	b	.L989
.LVL840:
.L737:
.LBE1431:
.LBB1432:
	.loc 1 197 0
	movs	r3, #0
	.loc 1 198 0
	movs	r1, #32
	.loc 1 197 0
	str	r3, [r8]
	.loc 1 198 0
	mov	r0, r5
	bl	strchr
.LVL841:
	.loc 1 200 0
	mov	r8, r0
.LVL842:
	cmp	r0, #0
	beq	.L1008
.LVL843:
.LBB1433:
.LBB1434:
	.loc 1 65 0
	subs	r1, r8, r5
.LVL844:
	beq	.L829
.LVL845:
	.loc 1 68 0
	cmp	r5, r8
	bcs	.L911
	.loc 1 69 0
	ldrb	r3, [r5]	@ zero_extendqisi2
	cmp	r3, #32
	it	eq
	addeq	r3, r5, #1
	beq	.L833
	b	.L1009
.LVL846:
.L834:
	ldrb	r2, [r9]	@ zero_extendqisi2
	cmp	r2, #32
	bne	.L882
.LVL847:
.L833:
	.loc 1 68 0
	cmp	r8, r3
	mov	r9, r3
.LVL848:
	add	r3, r3, #1
.LVL849:
	bne	.L834
.L830:
	.loc 1 71 0
	cmp	r8, r9
	beq	.L913
.L882:
	.loc 1 74 0
	subs	r3, r1, #1
	adds	r2, r5, r3
.LVL850:
	cmp	r2, r9
	bcc	.L840
	.loc 1 75 0
	ldrb	r3, [r5, r3]	@ zero_extendqisi2
	cmp	r3, #32
	bne	.L836
	subs	r3, r2, #1
	add	r0, r9, #-1
.LVL851:
	b	.L838
.LVL852:
.L839:
	ldrb	r1, [r2]	@ zero_extendqisi2
	cmp	r1, #32
	bne	.L836
.L838:
.LVL853:
	.loc 1 74 0
	cmp	r0, r3
	mov	r2, r3
.LVL854:
	add	r3, r3, #-1
.LVL855:
	bne	.L839
.L840:
	.loc 1 84 0
	adds	r2, r2, #1
.LVL856:
	sub	r4, r2, r9
.LVL857:
.LBB1435:
.LBB1436:
	.loc 1 51 0
	adds	r0, r4, #1
.LVL858:
	bl	pvPortMalloc
.LVL859:
	mov	r10, r0
.LVL860:
.LBE1436:
.LBE1435:
	.loc 1 86 0
	mov	r2, r4
	mov	r1, r9
	bl	memcpy
.LVL861:
	.loc 1 87 0
	movs	r2, #0
	mov	r1, r10
	strb	r2, [r10, r4]
.LVL862:
.L829:
.LBE1434:
.LBE1433:
	.loc 1 201 0
	str	r1, [r7]
	.loc 1 203 0
	cmp	r6, #0
	beq	.L714
	.loc 1 204 0
	mov	r0, r5
	bl	strlen
.LVL863:
	add	r0, r0, r5
.LVL864:
.LBB1443:
.LBB1444:
	.loc 1 65 0
	subs	r1, r0, r8
.LVL865:
	beq	.L917
.LVL866:
	.loc 1 68 0
	cmp	r8, r0
	bcs	.L915
	.loc 1 69 0
	ldrb	r3, [r8]	@ zero_extendqisi2
	cmp	r3, #32
	it	eq
	addeq	r3, r8, #1
	beq	.L845
	b	.L1010
.LVL867:
.L846:
	ldrb	r2, [r7]	@ zero_extendqisi2
	cmp	r2, #32
	bne	.L883
.LVL868:
.L845:
	.loc 1 68 0
	cmp	r0, r3
	mov	r7, r3
.LVL869:
	add	r3, r3, #1
.LVL870:
	bne	.L846
.L842:
	.loc 1 71 0
	cmp	r0, r7
	beq	.L917
.L883:
	.loc 1 74 0
	subs	r3, r1, #1
	add	r4, r8, r3
.LVL871:
	cmp	r4, r7
	bcc	.L852
	.loc 1 75 0
	ldrb	r3, [r8, r3]	@ zero_extendqisi2
	cmp	r3, #32
	bne	.L848
	subs	r3, r4, #1
	subs	r1, r7, #1
.LVL872:
	b	.L850
.L1016:
	.align	2
.L1015:
	.word	.LC7
	.word	.LC6
.L851:
	ldrb	r2, [r4]	@ zero_extendqisi2
	cmp	r2, #32
	bne	.L848
.L850:
.LVL873:
	.loc 1 74 0
	cmp	r1, r3
	mov	r4, r3
.LVL874:
	add	r3, r3, #-1
.LVL875:
	bne	.L851
.L852:
	.loc 1 84 0
	adds	r4, r4, #1
.LVL876:
	subs	r4, r4, r7
.LVL877:
.L990:
.LBB1445:
.LBB1446:
	.loc 1 51 0
	adds	r0, r4, #1
.LVL878:
	bl	pvPortMalloc
.LVL879:
	mov	r5, r0
.LVL880:
.LBE1446:
.LBE1445:
	.loc 1 86 0
	mov	r2, r4
	mov	r1, r7
	bl	memcpy
.LVL881:
	.loc 1 87 0
	movs	r2, #0
	mov	r3, r5
	strb	r2, [r5, r4]
.LVL882:
.L841:
.LBE1444:
.LBE1443:
	.loc 1 204 0
	str	r3, [r6]
.LBE1432:
	.loc 1 213 0
	add	sp, sp, #12
	.cfi_remember_state
	.cfi_def_cfa_offset 36
	@ sp needed
	pop	{r4, r5, r6, r7, r8, r9, r10, fp, pc}
.LVL883:
.L1004:
	.cfi_restore_state
.LBB1471:
.LBB1373:
	.loc 1 31 0
	ldrb	r3, [r5]	@ zero_extendqisi2
	cbz	r3, .L727
	mov	r10, r5
	b	.L731
.LVL884:
.L728:
	ldrb	r3, [r10, #1]!	@ zero_extendqisi2
.LVL885:
	cbz	r3, .L727
.LVL886:
.L731:
	.loc 1 32 0
	cmp	r3, r4
	bne	.L728
	mov	r1, r10
	add	r2, fp, #-1
	b	.L730
.LVL887:
.L1011:
	.loc 1 40 0
	ldrb	r0, [r1], #1	@ zero_extendqisi2
.LVL888:
	cmp	r0, r3
	bne	.L728
.LVL889:
.L730:
	.loc 1 37 0
	ldrb	r3, [r2, #1]!	@ zero_extendqisi2
.LVL890:
	cmp	r3, #0
	bne	.L1011
.LVL891:
.LBE1373:
.LBE1471:
.LBB1472:
.LBB1376:
	.loc 1 56 0
	mov	r0, fp
	bl	vPortFree
.LVL892:
	b	.L886
.LVL893:
.L727:
	mov	r0, fp
	bl	vPortFree
.LVL894:
.LBE1376:
.LBE1472:
.LBB1473:
	.loc 1 156 0
	movs	r3, #0
	.loc 1 157 0
	add	r4, r9, #1
	.loc 1 156 0
	str	r3, [r8]
	.loc 1 157 0
	mov	r0, r4
	movs	r1, #32
	bl	strchr
.LVL895:
	.loc 1 159 0
	mov	r8, r0
.LVL896:
	cmp	r0, #0
	beq	.L1012
.LVL897:
.LBB1474:
.LBB1475:
	.loc 1 65 0
	subs	r0, r8, r4
.LVL898:
	beq	.L765
.LVL899:
	.loc 1 68 0
	adds	r1, r4, r0
	cmp	r4, r1
	bcs	.L766
	.loc 1 69 0
	ldrb	r3, [r9, #1]	@ zero_extendqisi2
	cmp	r3, #32
	it	eq
	addeq	r3, r9, #2
	beq	.L769
	b	.L874
.LVL900:
.L770:
	ldrb	r2, [r4]	@ zero_extendqisi2
	cmp	r2, #32
	bne	.L874
.L769:
.LVL901:
	.loc 1 68 0
	cmp	r1, r3
	mov	r4, r3
.LVL902:
	add	r3, r3, #1
.LVL903:
	bne	.L770
.L766:
	.loc 1 71 0
	cmp	r1, r4
	beq	.L897
.L874:
	.loc 1 74 0
	add	r2, r9, r0
.LVL904:
	cmp	r4, r2
	bhi	.L776
	.loc 1 75 0
	ldrb	r3, [r9, r0]	@ zero_extendqisi2
	cmp	r3, #32
	bne	.L772
	subs	r3, r2, #1
	subs	r0, r4, #1
.LVL905:
	b	.L774
.L775:
	ldrb	r1, [r2]	@ zero_extendqisi2
	cmp	r1, #32
	bne	.L772
.L774:
.LVL906:
	.loc 1 74 0
	cmp	r0, r3
	mov	r2, r3
.LVL907:
	add	r3, r3, #-1
.LVL908:
	bne	.L775
.L776:
	.loc 1 84 0
	adds	r2, r2, #1
.LVL909:
	sub	r9, r2, r4
.LVL910:
.LBB1476:
.LBB1477:
	.loc 1 51 0
	add	r0, r9, #1
.LVL911:
	bl	pvPortMalloc
.LVL912:
.LBE1477:
.LBE1476:
	.loc 1 86 0
	mov	r2, r9
	mov	r1, r4
	bl	memcpy
.LVL913:
	.loc 1 87 0
	movs	r2, #0
	strb	r2, [r0, r9]
.LVL914:
.L765:
.LBE1475:
.LBE1474:
	.loc 1 160 0
	str	r0, [r7]
	.loc 1 162 0
	cmp	r6, #0
	beq	.L714
	.loc 1 163 0
	mov	r0, r5
	bl	strlen
.LVL915:
	add	r0, r0, r5
.LVL916:
.LBB1482:
.LBB1483:
	.loc 1 65 0
	subs	r1, r0, r8
.LVL917:
	beq	.L917
.LVL918:
	.loc 1 68 0
	cmp	r8, r0
	bcs	.L899
	.loc 1 69 0
	ldrb	r3, [r8]	@ zero_extendqisi2
	cmp	r3, #32
	it	eq
	addeq	r3, r8, #1
	beq	.L782
	b	.L1013
.LVL919:
.L783:
	ldrb	r2, [r7]	@ zero_extendqisi2
	cmp	r2, #32
	bne	.L875
.LVL920:
.L782:
	.loc 1 68 0
	cmp	r0, r3
	mov	r7, r3
.LVL921:
	add	r3, r3, #1
.LVL922:
	bne	.L783
.L779:
	.loc 1 71 0
	cmp	r0, r7
	beq	.L917
.L875:
	.loc 1 74 0
	subs	r3, r1, #1
	add	r2, r8, r3
.LVL923:
	cmp	r2, r7
	bcc	.L789
	.loc 1 75 0
	ldrb	r3, [r8, r3]	@ zero_extendqisi2
	cmp	r3, #32
	bne	.L785
	subs	r3, r2, #1
	subs	r0, r7, #1
	b	.L787
.LVL924:
.L788:
	ldrb	r1, [r2]	@ zero_extendqisi2
	cmp	r1, #32
	bne	.L785
.L787:
.LVL925:
	.loc 1 74 0
	cmp	r3, r0
	mov	r2, r3
.LVL926:
	add	r3, r3, #-1
.LVL927:
	bne	.L788
.L789:
	.loc 1 84 0
	adds	r2, r2, #1
.LVL928:
	subs	r4, r2, r7
.LVL929:
	b	.L990
.LVL930:
.L772:
.LBE1483:
.LBE1482:
.LBB1489:
.LBB1480:
	.loc 1 77 0
	cmp	r4, r2
	bne	.L776
.LVL931:
.LBB1478:
.LBB1479:
	.loc 1 51 0
	movs	r0, #2
	bl	pvPortMalloc
.LVL932:
.LBE1479:
.LBE1478:
	.loc 1 81 0
	movs	r2, #0
	ldrb	r3, [r4]	@ zero_extendqisi2
	strb	r2, [r0, #1]
	.loc 1 80 0
	strb	r3, [r0]
	b	.L765
.LVL933:
.L797:
.LBE1480:
.LBE1489:
.LBB1490:
.LBB1491:
	.loc 1 77 0
	cmp	r4, r2
	bne	.L801
.LVL934:
.L991:
.LBE1491:
.LBE1490:
.LBE1473:
.LBB1500:
.LBB1452:
.LBB1453:
.LBB1454:
.LBB1455:
	.loc 1 51 0
	movs	r0, #2
	bl	pvPortMalloc
.LVL935:
.LBE1455:
.LBE1454:
	.loc 1 81 0
	movs	r3, #0
	mov	r8, r0
	ldrb	r2, [r4]	@ zero_extendqisi2
	strb	r3, [r0, #1]
.LVL936:
	.loc 1 80 0
	strb	r2, [r0]
.LVL937:
.L790:
.LBE1453:
.LBE1452:
.LBE1500:
.LBB1501:
	.loc 1 166 0
	str	r8, [r7]
	.loc 1 168 0
	cmp	r6, #0
	beq	.L714
.LVL938:
.L917:
.LBE1501:
.LBB1502:
.LBB1461:
.LBB1449:
	.loc 1 66 0
	movs	r3, #0
	b	.L841
.LVL939:
.L722:
.LBE1449:
.LBE1461:
.LBE1502:
.LBB1503:
.LBB1365:
	.loc 1 77 0
	cmp	r10, fp
	bne	.L726
.LVL940:
.LBB1363:
.LBB1364:
	.loc 1 51 0
	movs	r0, #2
.LVL941:
	bl	pvPortMalloc
.LVL942:
.LBE1364:
.LBE1363:
	.loc 1 81 0
	movs	r2, #0
	ldrb	r3, [r10]	@ zero_extendqisi2
	strb	r2, [r0, #1]
	.loc 1 80 0
	strb	r3, [r0]
	b	.L720
.LVL943:
.L836:
.LBE1365:
.LBE1503:
.LBB1504:
.LBB1462:
.LBB1439:
	.loc 1 77 0
	cmp	r9, r2
	bne	.L840
.LVL944:
.LBB1437:
.LBB1438:
	.loc 1 51 0
	movs	r0, #2
	bl	pvPortMalloc
.LVL945:
.LBE1438:
.LBE1437:
	.loc 1 81 0
	movs	r2, #0
	ldrb	r3, [r9]	@ zero_extendqisi2
	mov	r1, r0
	strb	r2, [r0, #1]
	.loc 1 80 0
	strb	r3, [r0]
	b	.L829
.LVL946:
.L785:
.LBE1439:
.LBE1462:
.LBE1504:
.LBB1505:
.LBB1495:
.LBB1486:
	.loc 1 77 0
	cmp	r7, r2
	bne	.L789
.LVL947:
.LBB1484:
.LBB1485:
	.loc 1 51 0
	movs	r0, #2
	bl	pvPortMalloc
.LVL948:
.LBE1485:
.LBE1484:
	.loc 1 81 0
	movs	r2, #0
	ldrb	r1, [r7]	@ zero_extendqisi2
	mov	r3, r0
	.loc 1 80 0
	strb	r1, [r0]
.LVL949:
	.loc 1 81 0
	strb	r2, [r0, #1]
	b	.L841
.LVL950:
.L1005:
.LBE1486:
.LBE1495:
.LBE1505:
.LBB1506:
.LBB1395:
.LBB1392:
	.loc 1 69 0
	mov	r7, fp
.LVL951:
.L873:
	.loc 1 74 0
	subs	r1, r1, #1
.LVL952:
	add	r2, fp, r1
.LVL953:
	cmp	r7, r2
	bhi	.L762
	.loc 1 75 0
	ldrb	r3, [fp, r1]	@ zero_extendqisi2
	cmp	r3, #32
	bne	.L758
	subs	r3, r2, #1
	subs	r0, r7, #1
	b	.L760
.LVL954:
.L761:
	ldrb	r1, [r2]	@ zero_extendqisi2
	cmp	r1, #32
	bne	.L758
.L760:
.LVL955:
	.loc 1 74 0
	cmp	r3, r0
	mov	r2, r3
.LVL956:
	add	r3, r3, #-1
.LVL957:
	bne	.L761
.L762:
	.loc 1 84 0
	adds	r2, r2, #1
.LVL958:
	subs	r4, r2, r7
.LVL959:
.LBB1388:
.LBB1389:
	.loc 1 51 0
	adds	r0, r4, #1
.LVL960:
	bl	pvPortMalloc
.LVL961:
.LBE1389:
.LBE1388:
	.loc 1 86 0
	mov	r2, r4
	mov	r1, r7
	bl	memcpy
.LVL962:
	.loc 1 87 0
	movs	r2, #0
	mov	fp, r0
.LVL963:
	strb	r2, [r0, r4]
	b	.L751
.LVL964:
.L848:
.LBE1392:
.LBE1395:
.LBE1506:
.LBB1507:
.LBB1463:
.LBB1450:
	.loc 1 77 0
	cmp	r4, r7
	bne	.L852
.LVL965:
.LBB1447:
.LBB1448:
	.loc 1 51 0
	movs	r0, #2
.LVL966:
	bl	pvPortMalloc
.LVL967:
.LBE1448:
.LBE1447:
	.loc 1 81 0
	movs	r2, #0
	ldrb	r1, [r4]	@ zero_extendqisi2
	mov	r3, r0
	.loc 1 80 0
	strb	r1, [r0]
.LVL968:
	.loc 1 81 0
	strb	r2, [r0, #1]
	b	.L841
.LVL969:
.L1007:
.LBE1450:
.LBE1463:
.LBE1507:
.LBB1508:
.LBB1423:
.LBB1420:
	.loc 1 69 0
	mov	r7, fp
.LVL970:
.L881:
	.loc 1 74 0
	subs	r1, r1, #1
.LVL971:
	add	r4, fp, r1
.LVL972:
	cmp	r4, r7
	bcc	.L827
	.loc 1 75 0
	ldrb	r3, [fp, r1]	@ zero_extendqisi2
	cmp	r3, #32
	bne	.L823
	subs	r3, r4, #1
	subs	r1, r7, #1
.LVL973:
	b	.L825
.L826:
	ldrb	r2, [r4]	@ zero_extendqisi2
	cmp	r2, #32
	bne	.L823
.L825:
.LVL974:
	.loc 1 74 0
	cmp	r1, r3
	mov	r4, r3
.LVL975:
	add	r3, r3, #-1
.LVL976:
	bne	.L826
.L827:
	.loc 1 84 0
	adds	r4, r4, #1
.LVL977:
	subs	r4, r4, r7
.LVL978:
.LBB1416:
.LBB1417:
	.loc 1 51 0
	adds	r0, r4, #1
.LVL979:
	bl	pvPortMalloc
.LVL980:
.LBE1417:
.LBE1416:
	.loc 1 86 0
	mov	r2, r4
	mov	r1, r7
	bl	memcpy
.LVL981:
	.loc 1 87 0
	movs	r2, #0
	mov	fp, r0
.LVL982:
	strb	r2, [r0, r4]
	b	.L816
.LVL983:
.L1012:
.LBE1420:
.LBE1423:
.LBE1508:
.LBB1509:
	.loc 1 166 0
	mov	r0, r5
.LVL984:
	bl	strlen
.LVL985:
	add	r0, r0, r5
.LVL986:
.LBB1496:
.LBB1494:
	.loc 1 65 0
	subs	r0, r0, r4
.LVL987:
	beq	.L790
.LVL988:
	.loc 1 68 0
	adds	r1, r4, r0
	cmp	r4, r1
	bcs	.L791
	.loc 1 69 0
	ldrb	r3, [r9, #1]	@ zero_extendqisi2
	cmp	r3, #32
	it	eq
	addeq	r3, r9, #2
	beq	.L794
	b	.L876
.LVL989:
.L795:
	ldrb	r2, [r4]	@ zero_extendqisi2
	cmp	r2, #32
	bne	.L876
.L794:
.LVL990:
	.loc 1 68 0
	cmp	r1, r3
	mov	r4, r3
.LVL991:
	add	r3, r3, #1
.LVL992:
	bne	.L795
.L791:
	.loc 1 71 0
	cmp	r1, r4
	beq	.L790
.L876:
	.loc 1 74 0
	add	r2, r9, r0
.LVL993:
	cmp	r2, r4
	bcc	.L801
	.loc 1 75 0
	ldrb	r3, [r9, r0]	@ zero_extendqisi2
	cmp	r3, #32
	bne	.L797
	subs	r3, r2, #1
	subs	r0, r4, #1
.LVL994:
	b	.L799
.L800:
	ldrb	r1, [r2]	@ zero_extendqisi2
	cmp	r1, #32
	bne	.L797
.L799:
.LVL995:
	.loc 1 74 0
	cmp	r0, r3
	mov	r2, r3
.LVL996:
	add	r3, r3, #-1
.LVL997:
	bne	.L800
.L801:
	.loc 1 84 0
	adds	r2, r2, #1
.LVL998:
	subs	r5, r2, r4
.LVL999:
.LBB1492:
.LBB1493:
	.loc 1 51 0
	adds	r0, r5, #1
.LVL1000:
	bl	pvPortMalloc
.LVL1001:
.LBE1493:
.LBE1492:
	.loc 1 86 0
	mov	r2, r5
	mov	r1, r4
	bl	memcpy
.LVL1002:
	.loc 1 87 0
	movs	r2, #0
	mov	r8, r0
.LVL1003:
	strb	r2, [r0, r5]
	b	.L790
.LVL1004:
.L745:
.LBE1494:
.LBE1496:
.LBE1509:
.LBB1510:
.LBB1396:
.LBB1384:
	.loc 1 77 0
	cmp	r2, r4
	bne	.L749
.LBB1382:
.LBB1383:
	.loc 1 51 0
	movs	r0, #2
	str	r2, [sp, #4]
.LVL1005:
	bl	pvPortMalloc
.LVL1006:
.LBE1383:
.LBE1382:
	.loc 1 81 0
	movs	r1, #0
	ldr	r2, [sp, #4]
	ldrb	r3, [r2]	@ zero_extendqisi2
	strb	r1, [r0, #1]
	.loc 1 80 0
	strb	r3, [r0]
	b	.L743
.LVL1007:
.L810:
.LBE1384:
.LBE1396:
.LBE1510:
.LBB1511:
.LBB1424:
.LBB1410:
	.loc 1 77 0
	cmp	r4, r2
	bne	.L814
.LVL1008:
.LBB1407:
.LBB1408:
	.loc 1 51 0
	movs	r0, #2
	bl	pvPortMalloc
.LVL1009:
.LBE1408:
.LBE1407:
	.loc 1 81 0
	movs	r2, #0
	ldrb	r3, [r4]	@ zero_extendqisi2
	strb	r2, [r0, #1]
	.loc 1 80 0
	strb	r3, [r0]
	.loc 1 81 0
	mov	r4, r0
.LVL1010:
	b	.L808
.LVL1011:
.L902:
	.loc 1 68 0
	mov	r4, r5
	b	.L803
.LVL1012:
.L913:
.LBE1410:
.LBE1424:
.LBE1511:
.LBB1512:
.LBB1464:
.LBB1440:
	.loc 1 66 0
	movs	r1, #0
.LVL1013:
	b	.L829
.LVL1014:
.L889:
.LBE1440:
.LBE1464:
.LBE1512:
.LBB1513:
.LBB1366:
	.loc 1 72 0
	movs	r0, #0
.LVL1015:
	b	.L720
.LVL1016:
.L1008:
.LBE1366:
.LBE1513:
.LBB1514:
	.loc 1 207 0
	mov	r0, r5
.LVL1017:
	bl	strlen
.LVL1018:
.LBB1465:
.LBB1458:
	.loc 1 65 0
	cmp	r0, #0
	beq	.L790
.LVL1019:
	.loc 1 68 0
	adds	r1, r5, r0
	cmp	r5, r1
	bcs	.L918
	.loc 1 69 0
	ldrb	r3, [r5]	@ zero_extendqisi2
	cmp	r3, #32
	it	eq
	addeq	r3, r5, #1
	beq	.L857
	b	.L1014
.LVL1020:
.L858:
	ldrb	r2, [r9]	@ zero_extendqisi2
	cmp	r2, #32
	bne	.L884
.LVL1021:
.L857:
	.loc 1 68 0
	cmp	r1, r3
	mov	r9, r3
.LVL1022:
	add	r3, r3, #1
.LVL1023:
	bne	.L858
.L854:
	.loc 1 71 0
	cmp	r1, r9
	beq	.L790
.L884:
	.loc 1 74 0
	subs	r0, r0, #1
.LVL1024:
	adds	r4, r5, r0
.LVL1025:
	cmp	r4, r9
	bcc	.L864
	.loc 1 75 0
	ldrb	r3, [r5, r0]	@ zero_extendqisi2
	cmp	r3, #32
	bne	.L860
	subs	r3, r4, #1
	add	r1, r9, #-1
	b	.L862
.L863:
	ldrb	r2, [r4]	@ zero_extendqisi2
	cmp	r2, #32
	bne	.L860
.L862:
.LVL1026:
	.loc 1 74 0
	cmp	r1, r3
	mov	r4, r3
.LVL1027:
	add	r3, r3, #-1
.LVL1028:
	bne	.L863
.L864:
	.loc 1 84 0
	adds	r4, r4, #1
.LVL1029:
	sub	r4, r4, r9
.LVL1030:
.LBB1456:
.LBB1457:
	.loc 1 51 0
	adds	r0, r4, #1
.LVL1031:
	bl	pvPortMalloc
.LVL1032:
.LBE1457:
.LBE1456:
	.loc 1 86 0
	mov	r2, r4
	mov	r1, r9
	bl	memcpy
.LVL1033:
	.loc 1 87 0
	movs	r2, #0
	mov	r8, r0
.LVL1034:
	strb	r2, [r0, r4]
	b	.L790
.LVL1035:
.L758:
.LBE1458:
.LBE1465:
.LBE1514:
.LBB1515:
.LBB1397:
.LBB1393:
	.loc 1 77 0
	cmp	r7, r2
	bne	.L762
.LVL1036:
.LBB1390:
.LBB1391:
	.loc 1 51 0
	movs	r0, #2
	bl	pvPortMalloc
.LVL1037:
.LBE1391:
.LBE1390:
	.loc 1 81 0
	movs	r3, #0
	ldrb	r2, [r7]	@ zero_extendqisi2
	mov	fp, r0
.LVL1038:
	.loc 1 80 0
	strb	r2, [r0]
	.loc 1 81 0
	strb	r3, [r0, #1]
	b	.L751
.LVL1039:
.L823:
.LBE1393:
.LBE1397:
.LBE1515:
.LBB1516:
.LBB1425:
.LBB1421:
	.loc 1 77 0
	cmp	r4, r7
	bne	.L827
.LVL1040:
.LBB1418:
.LBB1419:
	.loc 1 51 0
	movs	r0, #2
.LVL1041:
	bl	pvPortMalloc
.LVL1042:
.LBE1419:
.LBE1418:
	.loc 1 81 0
	movs	r3, #0
	ldrb	r2, [r4]	@ zero_extendqisi2
	mov	fp, r0
.LVL1043:
	.loc 1 80 0
	strb	r2, [r0]
	.loc 1 81 0
	strb	r3, [r0, #1]
	b	.L816
.LVL1044:
.L921:
.LBE1421:
.LBE1425:
.LBE1516:
.LBB1517:
.LBB1367:
	.loc 1 68 0
	mov	fp, r5
	b	.L866
.LVL1045:
.L860:
.LBE1367:
.LBE1517:
.LBB1518:
.LBB1466:
.LBB1459:
	.loc 1 77 0
	cmp	r4, r9
	bne	.L864
	b	.L991
.LVL1046:
.L1003:
.LBE1459:
.LBE1466:
.LBE1518:
.LBB1519:
.LBB1368:
	.loc 1 69 0
	mov	fp, r5
	b	.L869
.LVL1047:
.L911:
.LBE1368:
.LBE1519:
.LBB1520:
.LBB1467:
.LBB1441:
	.loc 1 68 0
	mov	r9, r5
	b	.L830
.LVL1048:
.L899:
.LBE1441:
.LBE1467:
.LBE1520:
.LBB1521:
.LBB1497:
.LBB1487:
	mov	r7, r8
.LVL1049:
	b	.L779
.LVL1050:
.L1009:
.LBE1487:
.LBE1497:
.LBE1521:
.LBB1522:
.LBB1468:
.LBB1442:
	.loc 1 69 0
	mov	r9, r5
	b	.L882
.LVL1051:
.L1013:
.LBE1442:
.LBE1468:
.LBE1522:
.LBB1523:
.LBB1498:
.LBB1488:
	mov	r7, r8
.LVL1052:
	b	.L875
.LVL1053:
.L1010:
.LBE1488:
.LBE1498:
.LBE1523:
.LBB1524:
.LBB1469:
.LBB1451:
	mov	r7, r8
.LVL1054:
	b	.L883
.LVL1055:
.L915:
	.loc 1 68 0
	mov	r7, r8
.LVL1056:
	b	.L842
.LVL1057:
.L897:
.LBE1451:
.LBE1469:
.LBE1524:
.LBB1525:
.LBB1499:
.LBB1481:
	.loc 1 66 0
	movs	r0, #0
.LVL1058:
	b	.L765
.LVL1059:
.L1006:
.LBE1481:
.LBE1499:
.LBE1525:
.LBB1526:
.LBB1426:
.LBB1411:
	.loc 1 69 0
	mov	r4, r5
	b	.L880
.LVL1060:
.L892:
.LBE1411:
.LBE1426:
.LBE1526:
.LBB1527:
.LBB1398:
.LBB1394:
	.loc 1 68 0
	mov	r7, fp
.LVL1061:
	b	.L752
.LVL1062:
.L906:
.LBE1394:
.LBE1398:
.LBE1527:
.LBB1528:
.LBB1427:
.LBB1422:
	mov	r7, fp
.LVL1063:
	b	.L817
.LVL1064:
.L890:
.LBE1422:
.LBE1427:
.LBE1528:
.LBB1529:
.LBB1399:
.LBB1385:
	.loc 1 72 0
	movs	r0, #0
.LVL1065:
	b	.L743
.LVL1066:
.L904:
.LBE1385:
.LBE1399:
.LBE1529:
.LBB1530:
.LBB1428:
.LBB1412:
	movs	r4, #0
.LVL1067:
	b	.L808
.LVL1068:
.L918:
.LBE1412:
.LBE1428:
.LBE1530:
.LBB1531:
.LBB1470:
.LBB1460:
	.loc 1 68 0
	mov	r9, r5
	b	.L854
.L1014:
	.loc 1 69 0
	mov	r9, r5
	b	.L884
.LBE1460:
.LBE1470:
.LBE1531:
	.cfi_endproc
.LFE150:
	.size	_parse_tag, .-_parse_tag
	.section	.text.xml_strstr,"ax",%progbits
	.align	1
	.p2align 2,,3
	.global	xml_strstr
	.syntax unified
	.thumb
	.thumb_func
	.fpu softvfp
	.type	xml_strstr, %function
xml_strstr:
.LFB146:
	.loc 1 19 0
	.cfi_startproc
	@ args = 0, pretend = 0, frame = 0
	@ frame_needed = 0, uses_anonymous_args = 0
	@ link register save eliminated.
.LVL1069:
	push	{r4, r5, r6}
	.cfi_def_cfa_offset 12
	.cfi_offset 4, -12
	.cfi_offset 5, -8
	.cfi_offset 6, -4
	.loc 1 28 0
	ldrb	r6, [r1]	@ zero_extendqisi2
	cbz	r6, .L1017
	.loc 1 31 0 discriminator 1
	ldrb	r3, [r0]	@ zero_extendqisi2
	cbnz	r3, .L1022
	b	.L1024
.LVL1070:
.L1019:
	.loc 1 31 0 is_stmt 0
	ldrb	r3, [r0, #1]!	@ zero_extendqisi2
.LVL1071:
	cbz	r3, .L1024
.LVL1072:
.L1022:
	.loc 1 32 0 is_stmt 1
	cmp	r6, r3
	bne	.L1019
	mov	r4, r1
	mov	r3, r6
	mov	r2, r0
.L1020:
.LVL1073:
	.loc 1 40 0
	ldrb	r5, [r2], #1	@ zero_extendqisi2
.LVL1074:
	cmp	r5, r3
	bne	.L1019
	.loc 1 37 0
	ldrb	r3, [r4, #1]!	@ zero_extendqisi2
	cmp	r3, #0
	bne	.L1020
.LVL1075:
.L1017:
	.loc 1 47 0
	pop	{r4, r5, r6}
	.cfi_remember_state
	.cfi_restore 6
	.cfi_restore 5
	.cfi_restore 4
	.cfi_def_cfa_offset 0
	bx	lr
.LVL1076:
.L1024:
	.cfi_restore_state
	.loc 1 46 0
	mov	r0, r3
	.loc 1 47 0
	pop	{r4, r5, r6}
	.cfi_restore 4
	.cfi_restore 5
	.cfi_restore 6
	.cfi_def_cfa_offset 0
	bx	lr
	.cfi_endproc
.LFE146:
	.size	xml_strstr, .-xml_strstr
	.section	.text.xml_free,"ax",%progbits
	.align	1
	.p2align 2,,3
	.global	xml_free
	.syntax unified
	.thumb
	.thumb_func
	.fpu softvfp
	.type	xml_free, %function
xml_free:
.LFB148:
	.loc 1 55 0
	.cfi_startproc
	@ args = 0, pretend = 0, frame = 0
	@ frame_needed = 0, uses_anonymous_args = 0
	@ link register save eliminated.
.LVL1077:
	.loc 1 56 0
	b	vPortFree
.LVL1078:
	.cfi_endproc
.LFE148:
	.size	xml_free, .-xml_free
	.section	.text.xml_doc_name,"ax",%progbits
	.align	1
	.p2align 2,,3
	.global	xml_doc_name
	.syntax unified
	.thumb
	.thumb_func
	.fpu softvfp
	.type	xml_doc_name, %function
xml_doc_name:
.LFB152:
	.loc 1 221 0
	.cfi_startproc
	@ args = 4, pretend = 0, frame = 24
	@ frame_needed = 0, uses_anonymous_args = 0
.LVL1079:
	push	{r4, r5, r6, r7, r8, r9, r10, fp, lr}
	.cfi_def_cfa_offset 36
	.cfi_offset 4, -36
	.cfi_offset 5, -32
	.cfi_offset 6, -28
	.cfi_offset 7, -24
	.cfi_offset 8, -20
	.cfi_offset 9, -16
	.cfi_offset 10, -12
	.cfi_offset 11, -8
	.cfi_offset 14, -4
	mov	r5, r0
	sub	sp, sp, #36
	.cfi_def_cfa_offset 72
.LBB1532:
.LBB1533:
	.loc 1 51 0
	adds	r0, r1, #1
.LVL1080:
.LBE1533:
.LBE1532:
	.loc 1 221 0
	mov	r4, r1
.LVL1081:
	mov	fp, r3
	mov	r10, r2
.LBB1535:
.LBB1534:
	.loc 1 51 0
	bl	pvPortMalloc
.LVL1082:
	mov	r6, r0
.LVL1083:
.LBE1534:
.LBE1535:
	.loc 1 227 0
	mov	r1, r5
	mov	r2, r4
	bl	memcpy
.LVL1084:
	.loc 1 228 0
	movs	r3, #0
	.loc 1 232 0
	mov	r5, r6
.LVL1085:
	.loc 1 224 0
	mov	r9, #-1
	.loc 1 228 0
	adds	r7, r6, r4
	strb	r3, [r6, r4]
.LVL1086:
.L1032:
	.loc 1 232 0
	cmp	r5, r7
	bcs	.L1031
	.loc 1 233 0
	mov	r0, r5
	movs	r1, #60
	bl	strchr
.LVL1087:
	cbnz	r0, .L1100
.LVL1088:
.L1031:
.LBB1536:
.LBB1537:
	.loc 1 56 0
	mov	r0, r6
	bl	vPortFree
.LVL1089:
.LBE1537:
.LBE1536:
	.loc 1 305 0
	mov	r0, r9
	add	sp, sp, #36
	.cfi_remember_state
	.cfi_def_cfa_offset 36
	@ sp needed
	pop	{r4, r5, r6, r7, r8, r9, r10, fp, pc}
.LVL1090:
.L1100:
	.cfi_restore_state
	.loc 1 234 0
	adds	r4, r0, #1
.LVL1091:
	.loc 1 236 0
	mov	r0, r4
	movs	r1, #62
	bl	strchr
.LVL1092:
	mov	r5, r7
.LVL1093:
	mov	r8, r0
	cmp	r0, #0
	beq	.L1032
.LBB1538:
	.loc 1 237 0
	movs	r3, #0
	str	r3, [sp, #20]
	.loc 1 237 0
	str	r3, [sp, #24]
	.loc 1 237 0
	str	r3, [sp, #28]
	.loc 1 240 0
	ldrb	r3, [r0, #-1]	@ zero_extendqisi2
	cmp	r3, #47
	beq	.L1101
	.loc 1 255 0
	subs	r3, r0, r4
.LVL1094:
.LBB1539:
.LBB1540:
	.loc 1 51 0
	adds	r0, r3, #1
.LVL1095:
	str	r3, [sp, #12]
	bl	pvPortMalloc
.LVL1096:
.LBE1540:
.LBE1539:
	.loc 1 257 0
	ldr	r3, [sp, #12]
	mov	r1, r4
	mov	r2, r3
.LBB1542:
.LBB1541:
	.loc 1 51 0
	mov	r5, r0
.LVL1097:
.LBE1541:
.LBE1542:
	.loc 1 257 0
	bl	memcpy
.LVL1098:
	.loc 1 258 0
	mov	r2, #0
	ldr	r3, [sp, #12]
.LBB1543:
.LBB1544:
	.loc 1 217 0
	mov	r0, r5
.LBE1544:
.LBE1543:
	.loc 1 258 0
	strb	r2, [r5, r3]
.LVL1099:
.LBB1546:
.LBB1545:
	.loc 1 217 0
	movs	r3, #0
	add	r2, sp, #24
.LVL1100:
	str	r3, [sp]
	add	r1, sp, #20
.LVL1101:
	add	r3, sp, #28
.LVL1102:
	bl	_parse_tag
.LVL1103:
.LBE1545:
.LBE1546:
.LBB1547:
.LBB1548:
	.loc 1 56 0
	mov	r0, r5
	bl	vPortFree
.LVL1104:
.LBE1548:
.LBE1547:
	.loc 1 262 0
	ldr	r0, [sp, #20]
	cmp	r0, #0
	beq	.L1035
	.loc 1 263 0
	bl	strlen
.LVL1105:
	mov	r4, r0
.LVL1106:
	ldr	r0, [sp, #24]
	bl	strlen
.LVL1107:
	add	r0, r0, r4
.LVL1108:
.LBB1549:
.LBB1550:
	.loc 1 51 0
	adds	r0, r0, #5
.LVL1109:
	bl	pvPortMalloc
.LVL1110:
.LBE1550:
.LBE1549:
	.loc 1 264 0
	ldr	r3, [sp, #24]
	ldr	r2, [sp, #20]
	ldr	r1, .L1103
.LBB1552:
.LBB1551:
	.loc 1 51 0
	mov	r5, r0
.LBE1551:
.LBE1552:
	.loc 1 264 0
	bl	sprintf
.LVL1111:
	.loc 1 265 0
	ldr	r0, [sp, #20]
	bl	strlen
.LVL1112:
	mov	r4, r0
	ldr	r0, [sp, #24]
	bl	strlen
.LVL1113:
	add	r0, r0, r4
.LVL1114:
.LBB1553:
.LBB1554:
	.loc 1 51 0
	adds	r0, r0, #5
.LVL1115:
	bl	pvPortMalloc
.LVL1116:
.LBE1554:
.LBE1553:
	.loc 1 266 0
	ldr	r3, [sp, #24]
	ldr	r2, [sp, #20]
	ldr	r1, .L1103+4
.LBB1556:
.LBB1555:
	.loc 1 51 0
	mov	r4, r0
.LBE1555:
.LBE1556:
	.loc 1 263 0
	str	r5, [sp, #12]
.LVL1117:
	.loc 1 266 0
	bl	sprintf
.LVL1118:
.L1036:
.LBB1557:
.LBB1558:
	.loc 1 28 0
	ldr	r3, [sp, #12]
.LBE1558:
.LBE1557:
	.loc 1 275 0
	add	r5, r8, #1
.LVL1119:
.LBB1561:
.LBB1559:
	.loc 1 28 0
	ldrb	lr, [r3]	@ zero_extendqisi2
	cmp	lr, #0
	beq	.L1037
	.loc 1 31 0
	ldrb	ip, [r8, #1]	@ zero_extendqisi2
	cmp	ip, #0
	beq	.L1038
.LBE1559:
.LBE1561:
	.loc 1 275 0
	mov	r8, r5
.LVL1120:
.LBB1562:
.LBB1560:
	.loc 1 31 0
	mov	r3, ip
	b	.L1043
.LVL1121:
.L1039:
	ldrb	r3, [r8, #1]!	@ zero_extendqisi2
.LVL1122:
	cmp	r3, #0
	beq	.L1102
.LVL1123:
.L1043:
	.loc 1 32 0
	cmp	lr, r3
	bne	.L1039
	mov	r2, r8
	mov	r3, lr
	ldr	r0, [sp, #12]
.L1040:
.LVL1124:
	.loc 1 40 0
	ldrb	r1, [r2], #1	@ zero_extendqisi2
.LVL1125:
	cmp	r1, r3
	bne	.L1039
	.loc 1 37 0
	ldrb	r3, [r0, #1]!	@ zero_extendqisi2
	cmp	r3, #0
	bne	.L1040
.LVL1126:
.L1041:
.LBE1560:
.LBE1562:
	.loc 1 280 0
	mov	r5, r7
.LVL1127:
	.loc 1 279 0
	mov	r9, #0
	.loc 1 277 0
	ldr	r2, [sp, #20]
	.loc 1 276 0
	ldr	r1, [sp, #24]
	.loc 1 278 0
	ldr	r3, [sp, #28]
	.loc 1 276 0
	str	r1, [fp]
	.loc 1 277 0
	str	r2, [r10]
	.loc 1 278 0
	ldr	r2, [sp, #72]
	str	r3, [r2]
.LVL1128:
.L1051:
.LBB1563:
.LBB1564:
	.loc 1 56 0
	ldr	r0, [sp, #12]
	bl	vPortFree
.LVL1129:
.LBE1564:
.LBE1563:
.LBB1565:
.LBB1566:
	mov	r0, r4
	bl	vPortFree
.LVL1130:
	b	.L1032
.LVL1131:
.L1037:
.LBE1566:
.LBE1565:
	.loc 1 275 0
	cmp	r5, #0
	bne	.L1041
.LVL1132:
.LBB1567:
.LBB1568:
	.loc 1 28 0
	ldrb	r3, [r4]	@ zero_extendqisi2
.LVL1133:
	cmp	r3, #0
	beq	.L1046
	.loc 1 31 0
	ldrb	ip, [r8, #1]	@ zero_extendqisi2
	cmp	ip, #0
	beq	.L1046
.LVL1134:
.L1055:
.LBE1568:
.LBE1567:
	.loc 1 275 0
	mov	r2, r5
	mov	r1, ip
	b	.L1050
.LVL1135:
.L1047:
.LBB1572:
.LBB1569:
	.loc 1 31 0
	ldrb	r1, [r2, #1]!	@ zero_extendqisi2
.LVL1136:
	cmp	r1, #0
	beq	.L1046
.LVL1137:
.L1050:
	.loc 1 32 0
	cmp	r3, r1
	bne	.L1047
	mov	ip, r4
	mov	r0, r2
	mov	r1, r3
.L1048:
.LVL1138:
	.loc 1 40 0
	ldrb	lr, [r0], #1	@ zero_extendqisi2
.LVL1139:
	cmp	lr, r1
	bne	.L1047
	.loc 1 37 0
	ldrb	r1, [ip, #1]!	@ zero_extendqisi2
	cmp	r1, #0
	bne	.L1048
	b	.L1041
.LVL1140:
.L1101:
.LBE1569:
.LBE1572:
	.loc 1 241 0
	subs	r5, r0, #1
	subs	r5, r5, r4
.LVL1141:
.LBB1573:
.LBB1574:
	.loc 1 51 0
	adds	r0, r5, #1
.LVL1142:
	bl	pvPortMalloc
.LVL1143:
.LBE1574:
.LBE1573:
	.loc 1 243 0
	mov	r2, r5
	mov	r1, r4
.LBB1576:
.LBB1575:
	.loc 1 51 0
	mov	r8, r0
.LVL1144:
.LBE1575:
.LBE1576:
	.loc 1 243 0
	bl	memcpy
.LVL1145:
	.loc 1 244 0
	mov	r3, #0
	strb	r3, [r8, r5]
.LVL1146:
.LBB1577:
.LBB1578:
	.loc 1 217 0
	movs	r3, #0
	add	r2, sp, #24
.LVL1147:
	add	r1, sp, #20
.LVL1148:
	mov	r0, r8
	str	r3, [sp]
	add	r3, sp, #28
.LVL1149:
	bl	_parse_tag
.LVL1150:
.LBE1578:
.LBE1577:
.LBB1579:
.LBB1580:
	.loc 1 56 0
	mov	r0, r8
	bl	vPortFree
.LVL1151:
.LBE1580:
.LBE1579:
	.loc 1 248 0
	ldr	r2, [sp, #20]
	.loc 1 247 0
	ldr	r1, [sp, #24]
	.loc 1 249 0
	ldr	r3, [sp, #28]
	.loc 1 247 0
	str	r1, [fp]
	.loc 1 248 0
	str	r2, [r10]
	.loc 1 249 0
	ldr	r2, [sp, #72]
	.loc 1 250 0
	mov	r9, #0
	mov	r5, r7
.LVL1152:
	.loc 1 249 0
	str	r3, [r2]
.LVL1153:
	b	.L1032
.LVL1154:
.L1035:
	.loc 1 269 0
	ldr	r0, [sp, #24]
	bl	strlen
.LVL1155:
.LBB1581:
.LBB1582:
	.loc 1 51 0
	adds	r0, r0, #4
.LVL1156:
	bl	pvPortMalloc
.LVL1157:
.LBE1582:
.LBE1581:
	.loc 1 270 0
	ldr	r2, [sp, #24]
	ldr	r1, .L1103+8
.LBB1584:
.LBB1583:
	.loc 1 51 0
	mov	r5, r0
.LBE1583:
.LBE1584:
	.loc 1 270 0
	bl	sprintf
.LVL1158:
	.loc 1 271 0
	ldr	r0, [sp, #24]
	bl	strlen
.LVL1159:
.LBB1585:
.LBB1586:
	.loc 1 51 0
	adds	r0, r0, #4
.LVL1160:
	bl	pvPortMalloc
.LVL1161:
.LBE1586:
.LBE1585:
	.loc 1 272 0
	ldr	r2, [sp, #24]
	ldr	r1, .L1103+12
.LBB1588:
.LBB1587:
	.loc 1 51 0
	mov	r4, r0
.LVL1162:
.LBE1587:
.LBE1588:
	.loc 1 269 0
	str	r5, [sp, #12]
.LVL1163:
	.loc 1 272 0
	bl	sprintf
.LVL1164:
	b	.L1036
.LVL1165:
.L1102:
.LBB1589:
.LBB1570:
	.loc 1 28 0
	ldrb	r3, [r4]	@ zero_extendqisi2
	cmp	r3, #0
	bne	.L1055
.L1054:
.LVL1166:
.LBE1570:
.LBE1589:
	.loc 1 275 0
	cmp	r5, #0
	bne	.L1041
.L1046:
.LVL1167:
.LBB1590:
.LBB1591:
	.loc 1 56 0
	ldr	r0, [sp, #24]
	bl	vPortFree
.LVL1168:
.LBE1591:
.LBE1590:
	.loc 1 284 0
	ldr	r0, [sp, #20]
	cbz	r0, .L1052
.LVL1169:
.LBB1592:
.LBB1593:
	.loc 1 56 0 discriminator 1
	bl	vPortFree
.LVL1170:
.L1052:
.LBE1593:
.LBE1592:
	.loc 1 285 0
	ldr	r0, [sp, #28]
	cmp	r0, #0
	beq	.L1051
.LVL1171:
.LBB1594:
.LBB1595:
	.loc 1 56 0 discriminator 1
	bl	vPortFree
.LVL1172:
	b	.L1051
.LVL1173:
.L1038:
.LBE1595:
.LBE1594:
.LBB1596:
.LBB1571:
	.loc 1 28 0
	ldrb	r3, [r4]	@ zero_extendqisi2
.LVL1174:
	cmp	r3, #0
	beq	.L1054
	b	.L1046
.L1104:
	.align	2
.L1103:
	.word	.LC8
	.word	.LC9
	.word	.LC10
	.word	.LC11
.LBE1571:
.LBE1596:
.LBE1538:
	.cfi_endproc
.LFE152:
	.size	xml_doc_name, .-xml_doc_name
	.section	.text._xml_parse_doc,"ax",%progbits
	.align	1
	.p2align 2,,3
	.global	_xml_parse_doc
	.syntax unified
	.thumb
	.thumb_func
	.fpu softvfp
	.type	_xml_parse_doc, %function
_xml_parse_doc:
.LFB153:
	.loc 1 308 0
	.cfi_startproc
	@ args = 0, pretend = 0, frame = 24
	@ frame_needed = 0, uses_anonymous_args = 0
.LVL1175:
	push	{r4, r5, r6, r7, r8, r9, r10, fp, lr}
	.cfi_def_cfa_offset 36
	.cfi_offset 4, -36
	.cfi_offset 5, -32
	.cfi_offset 6, -28
	.cfi_offset 7, -24
	.cfi_offset 8, -20
	.cfi_offset 9, -16
	.cfi_offset 10, -12
	.cfi_offset 11, -8
	.cfi_offset 14, -4
	mov	r5, r0
	sub	sp, sp, #36
	.cfi_def_cfa_offset 72
.LBB1689:
.LBB1690:
	.loc 1 51 0
	adds	r0, r1, #1
.LVL1176:
.LBE1690:
.LBE1689:
	.loc 1 308 0
	mov	r4, r1
.LVL1177:
	mov	r9, r2
.LBB1693:
.LBB1691:
	.loc 1 51 0
	bl	pvPortMalloc
.LVL1178:
	mov	r6, r0
.LBE1691:
.LBE1693:
	.loc 1 312 0
	mov	r2, r4
	mov	r1, r5
.LBB1694:
.LBB1692:
	.loc 1 51 0
	str	r0, [sp, #8]
.LVL1179:
.LBE1692:
.LBE1694:
	.loc 1 312 0
	bl	memcpy
.LVL1180:
	.loc 1 313 0
	movs	r3, #0
	add	fp, r6, r4
	.loc 1 317 0
	cmp	fp, r6
	.loc 1 313 0
	strb	r3, [r6, r4]
.LVL1181:
	.loc 1 317 0
	bls	.L1106
	mov	r5, r6
.LVL1182:
.LBB1695:
	.loc 1 321 0
	movs	r1, #60
	mov	r0, r5
	bl	strchr
.LVL1183:
	cmp	r0, #0
	beq	.L1107
.LVL1184:
.L1254:
	.loc 1 322 0
	adds	r6, r0, #1
.LVL1185:
	.loc 1 324 0
	mov	r0, r6
	movs	r1, #62
	bl	strchr
.LVL1186:
	mov	r8, r0
	cmp	r0, #0
	beq	.L1108
.LBB1696:
	.loc 1 326 0
	movs	r5, #0
.LVL1187:
	str	r5, [sp, #16]
	.loc 1 326 0
	str	r5, [sp, #20]
	.loc 1 326 0
	str	r5, [sp, #24]
	.loc 1 326 0
	str	r5, [sp, #28]
	.loc 1 330 0
	ldrb	r3, [r0, #-1]	@ zero_extendqisi2
	cmp	r3, #47
	beq	.L1251
	.loc 1 351 0
	subs	r7, r0, r6
.LBB1697:
.LBB1698:
	.loc 1 51 0
	adds	r0, r7, #1
.LVL1188:
	bl	pvPortMalloc
.LVL1189:
	mov	r4, r0
.LBE1698:
.LBE1697:
	.loc 1 353 0
	mov	r2, r7
	mov	r1, r6
	bl	memcpy
.LVL1190:
	.loc 1 355 0
	add	r3, sp, #28
	.loc 1 354 0
	strb	r5, [r4, r7]
	.loc 1 355 0
	mov	r0, r4
	str	r3, [sp]
	add	r2, sp, #20
	add	r3, sp, #24
	add	r1, sp, #16
	bl	_parse_tag
.LVL1191:
	.loc 1 357 0
	ldr	r0, [sp, #16]
	.loc 1 350 0
	add	r5, r8, #1
.LVL1192:
	.loc 1 357 0
	cmp	r0, #0
	beq	.L1114
	.loc 1 358 0
	bl	strlen
.LVL1193:
	mov	r6, r0
.LVL1194:
	ldr	r0, [sp, #20]
	bl	strlen
.LVL1195:
	add	r0, r0, r6
.LVL1196:
.LBB1699:
.LBB1700:
	.loc 1 51 0
	adds	r0, r0, #5
.LVL1197:
	bl	pvPortMalloc
.LVL1198:
.LBE1700:
.LBE1699:
	.loc 1 359 0
	ldr	r3, [sp, #20]
	ldr	r2, [sp, #16]
	ldr	r1, .L1260
.LBB1702:
.LBB1701:
	.loc 1 51 0
	mov	r6, r0
.LBE1701:
.LBE1702:
	.loc 1 359 0
	bl	sprintf
.LVL1199:
	.loc 1 360 0
	ldr	r0, [sp, #16]
	bl	strlen
.LVL1200:
	mov	r7, r0
.LVL1201:
	ldr	r0, [sp, #20]
	bl	strlen
.LVL1202:
	add	r0, r0, r7
.LVL1203:
.LBB1703:
.LBB1704:
	.loc 1 51 0
	adds	r0, r0, #5
.LVL1204:
	bl	pvPortMalloc
.LVL1205:
.LBE1704:
.LBE1703:
	.loc 1 361 0
	ldr	r3, [sp, #20]
	ldr	r2, [sp, #16]
	ldr	r1, .L1260+4
.LBB1706:
.LBB1705:
	.loc 1 51 0
	mov	r7, r0
.LBE1705:
.LBE1706:
	.loc 1 361 0
	bl	sprintf
.LVL1206:
.L1115:
.LBB1707:
.LBB1708:
	.loc 1 28 0
	ldrb	r1, [r6]	@ zero_extendqisi2
	cmp	r1, #0
	beq	.L1116
	.loc 1 31 0
	ldrb	lr, [r8, #1]	@ zero_extendqisi2
	cmp	lr, #0
	beq	.L1117
.LBE1708:
.LBE1707:
	.loc 1 350 0
	mov	r8, r5
.LVL1207:
.LBB1710:
.LBB1709:
	.loc 1 31 0
	mov	r3, lr
	b	.L1122
.LVL1208:
.L1118:
	ldrb	r3, [r8, #1]!	@ zero_extendqisi2
.LVL1209:
	cmp	r3, #0
	beq	.L1252
.LVL1210:
.L1122:
	.loc 1 32 0
	cmp	r1, r3
	bne	.L1118
	mov	r0, r6
	mov	r2, r8
	mov	r3, r1
.L1119:
.LVL1211:
	.loc 1 40 0
	ldrb	ip, [r2], #1	@ zero_extendqisi2
.LVL1212:
	cmp	ip, r3
	bne	.L1118
	.loc 1 37 0
	ldrb	r3, [r0, #1]!	@ zero_extendqisi2
	cmp	r3, #0
	bne	.L1119
.LBE1709:
.LBE1710:
	.loc 1 350 0
	mov	r0, r5
	mov	r3, lr
	b	.L1130
.LVL1213:
.L1126:
.LBB1711:
.LBB1712:
	.loc 1 31 0
	ldrb	r3, [r0, #1]!	@ zero_extendqisi2
.LVL1214:
	cbz	r3, .L1131
.LVL1215:
.L1130:
	.loc 1 32 0
	cmp	r1, r3
	bne	.L1126
	mov	ip, r6
	mov	r2, r0
	mov	r3, r1
.L1128:
.LVL1216:
	.loc 1 40 0
	ldrb	lr, [r2], #1	@ zero_extendqisi2
.LVL1217:
	cmp	lr, r3
	bne	.L1126
	.loc 1 37 0
	ldrb	r3, [ip, #1]!	@ zero_extendqisi2
	cmp	r3, #0
	bne	.L1128
.LVL1218:
.L1241:
.LBE1712:
.LBE1711:
.LBB1713:
.LBB1714:
	mov	r10, r0
	sub	r8, r0, r5
.L1124:
.LVL1219:
.LBE1714:
.LBE1713:
	.loc 1 378 0
	add	r0, sp, #16
	ldm	r0, {r0, r1, r2, r3}
	bl	_xml_new_element
.LVL1220:
	mov	r3, r0
.LVL1221:
	.loc 1 380 0
	cmp	r9, #0
	beq	.L1142
.L1257:
.LVL1222:
.LBB1716:
.LBB1717:
.LBB1718:
	.loc 1 606 0
	ldr	r2, [r9]
	cbz	r2, .L1143
	.loc 1 606 0
	ldr	r2, [r9, #4]
	cmp	r2, #0
	beq	.L1253
.LVL1223:
.L1143:
.LBE1718:
.LBE1717:
.LBE1716:
	.loc 1 382 0
	mov	r2, r3
	mov	r1, r8
	mov	r0, r5
.LVL1224:
	bl	_xml_parse_doc
.LVL1225:
	.loc 1 383 0
	mov	r0, r10
	movs	r1, #62
	bl	strchr
.LVL1226:
	adds	r5, r0, #1
.LVL1227:
.L1131:
.LBB1724:
.LBB1725:
	.loc 1 56 0
	mov	r0, r6
	bl	vPortFree
.LVL1228:
.LBE1725:
.LBE1724:
.LBB1726:
.LBB1727:
	mov	r0, r7
	bl	vPortFree
.LVL1229:
	mov	r0, r4
.LVL1230:
.L1110:
.LBE1727:
.LBE1726:
.LBB1728:
.LBB1729:
	bl	vPortFree
.LVL1231:
.LBE1729:
.LBE1728:
.LBB1730:
.LBB1731:
	ldr	r0, [sp, #20]
	bl	vPortFree
.LVL1232:
.LBE1731:
.LBE1730:
	.loc 1 401 0
	ldr	r0, [sp, #16]
	cbz	r0, .L1147
.LVL1233:
.LBB1732:
.LBB1733:
	.loc 1 56 0 discriminator 1
	bl	vPortFree
.LVL1234:
.L1147:
.LBE1733:
.LBE1732:
	.loc 1 402 0
	ldr	r0, [sp, #24]
	cbz	r0, .L1148
.LVL1235:
.LBB1734:
.LBB1735:
	.loc 1 56 0 discriminator 1
	bl	vPortFree
.LVL1236:
.L1148:
.LBE1735:
.LBE1734:
	.loc 1 403 0
	ldr	r0, [sp, #28]
	cbz	r0, .L1149
.LVL1237:
.LBB1736:
.LBB1737:
	.loc 1 56 0 discriminator 1
	bl	vPortFree
.LVL1238:
.L1149:
.LBE1737:
.LBE1736:
.LBE1696:
.LBE1695:
	.loc 1 317 0
	cmp	r5, fp
	bcs	.L1106
.LBB1817:
	.loc 1 321 0
	movs	r1, #60
	mov	r0, r5
	bl	strchr
.LVL1239:
	cmp	r0, #0
	bne	.L1254
.L1107:
	.loc 1 415 0
	cmp	r9, #0
	beq	.L1106
	.loc 1 415 0 is_stmt 0 discriminator 1
	ldr	r4, [r9, #24]
	cmp	r4, #0
	beq	.L1255
.LVL1240:
.L1106:
.LBE1817:
.LBB1818:
.LBB1819:
	.loc 1 56 0 is_stmt 1
	ldr	r0, [sp, #8]
	bl	vPortFree
.LVL1241:
.LBE1819:
.LBE1818:
	.loc 1 427 0
	mov	r0, r9
	add	sp, sp, #36
	.cfi_remember_state
	.cfi_def_cfa_offset 36
	@ sp needed
	pop	{r4, r5, r6, r7, r8, r9, r10, fp, pc}
.LVL1242:
.L1116:
	.cfi_restore_state
.LBB1820:
.LBB1765:
	.loc 1 370 0
	cmp	r5, #0
	beq	.L1256
	.loc 1 378 0
	add	r0, sp, #16
	mov	r8, r1
.LVL1243:
	ldm	r0, {r0, r1, r2, r3}
	bl	_xml_new_element
.LVL1244:
	mov	r10, r5
.LVL1245:
	mov	r3, r0
.LVL1246:
	.loc 1 380 0
	cmp	r9, #0
	bne	.L1257
.L1142:
.LVL1247:
	.loc 1 387 0
	mov	r0, r5
.LVL1248:
	mov	r2, r3
	mov	r1, r8
	str	r3, [sp, #12]
	bl	_xml_parse_doc
.LVL1249:
	.loc 1 378 0
	ldr	r3, [sp, #12]
	.loc 1 387 0
	mov	r5, fp
.LVL1250:
	.loc 1 378 0
	mov	r9, r3
	b	.L1131
.LVL1251:
.L1251:
	.loc 1 332 0
	subs	r7, r0, #1
	subs	r7, r7, r6
.LBB1738:
.LBB1739:
	.loc 1 51 0
	adds	r0, r7, #1
.LVL1252:
	bl	pvPortMalloc
.LVL1253:
	mov	r4, r0
.LBE1739:
.LBE1738:
	.loc 1 334 0
	mov	r2, r7
	mov	r1, r6
	bl	memcpy
.LVL1254:
	.loc 1 336 0
	add	r3, sp, #28
	.loc 1 335 0
	strb	r5, [r4, r7]
	.loc 1 336 0
	mov	r0, r4
	str	r3, [sp]
	add	r2, sp, #20
	add	r3, sp, #24
	add	r1, sp, #16
	bl	_parse_tag
.LVL1255:
	.loc 1 337 0
	add	r0, sp, #16
	ldm	r0, {r0, r1, r2, r3}
	bl	_xml_new_element
.LVL1256:
	.loc 1 331 0
	add	r5, r8, #1
.LVL1257:
	.loc 1 337 0
	mov	r1, r0
.LVL1258:
	.loc 1 339 0
	cmp	r9, #0
	beq	.L1171
.LVL1259:
.LBB1740:
.LBB1741:
.LBB1742:
	.loc 1 606 0
	ldr	r3, [r9]
	cbz	r3, .L1172
	.loc 1 606 0
	ldr	r3, [r9, #4]
	cbz	r3, .L1258
.L1172:
	.loc 1 606 0
	mov	r0, r4
.LVL1260:
	b	.L1110
.LVL1261:
.L1258:
.LBE1742:
.LBE1741:
.LBB1743:
.LBB1744:
	.loc 1 704 0
	ldr	r2, [r9, #24]
	cbnz	r2, .L1112
	.loc 1 714 0
	str	r1, [r9, #24]
	b	.L1113
.LVL1262:
.L1173:
.LBB1745:
	.loc 1 707 0
	mov	r2, r3
.LVL1263:
.L1112:
	ldr	r3, [r2, #32]
	cmp	r3, #0
	bne	.L1173
	.loc 1 710 0
	str	r1, [r2, #32]
	.loc 1 711 0
	str	r2, [r1, #28]
.LVL1264:
.L1113:
.LBE1745:
	.loc 1 717 0
	str	r9, [r1, #20]
	mov	r0, r4
.LVL1265:
	b	.L1110
.LVL1266:
.L1108:
.LBE1744:
.LBE1743:
.LBE1740:
.LBE1765:
	.loc 1 406 0
	cmp	r9, #0
	beq	.L1106
	.loc 1 406 0 is_stmt 0 discriminator 1
	ldr	r4, [r9, #24]
	cmp	r4, #0
	bne	.L1106
	.loc 1 406 0 discriminator 2
	ldrb	r3, [r5]	@ zero_extendqisi2
	cmp	r3, #0
	beq	.L1106
.LVL1267:
.LBB1766:
.LBB1767:
	.loc 1 594 0 is_stmt 1
	mov	r0, r5
.LVL1268:
	bl	strlen
.LVL1269:
.LBB1768:
.LBB1769:
	.loc 1 51 0
	adds	r0, r0, #1
.LVL1270:
	bl	pvPortMalloc
.LVL1271:
.LBE1769:
.LBE1768:
	.loc 1 595 0
	mov	r1, r5
.LBB1771:
.LBB1770:
	.loc 1 51 0
	mov	r6, r0
.LVL1272:
.LBE1770:
.LBE1771:
	.loc 1 595 0
	bl	strcpy
.LVL1273:
.LBB1772:
.LBB1773:
.LBB1774:
.LBB1775:
	.loc 1 51 0
	movs	r0, #36
	bl	pvPortMalloc
.LVL1274:
	mov	r5, r0
.LVL1275:
.LBE1775:
.LBE1774:
	.loc 1 536 0
	mov	r1, r4
	movs	r2, #36
	bl	memset
.LVL1276:
.LBE1773:
.LBE1772:
.LBE1767:
.LBE1766:
.LBB1777:
.LBB1778:
.LBB1779:
	.loc 1 606 0
	ldr	r3, [r9]
.LBE1779:
.LBE1778:
.LBE1777:
.LBB1785:
.LBB1776:
	.loc 1 597 0
	str	r6, [r5, #4]
.LVL1277:
.LBE1776:
.LBE1785:
.LBB1786:
.LBB1781:
.LBB1780:
	.loc 1 606 0
	cmp	r3, #0
	beq	.L1106
	.loc 1 606 0
	ldr	r3, [r9, #4]
	cmp	r3, #0
	bne	.L1106
.LVL1278:
.LBE1780:
.LBE1781:
.LBB1782:
.LBB1783:
	.loc 1 704 0
	ldr	r3, [r9, #24]
	cbnz	r3, .L1153
	b	.L1234
.LVL1279:
.L1176:
.LBB1784:
	.loc 1 707 0
	mov	r3, r2
.LVL1280:
.L1153:
	ldr	r2, [r3, #32]
	cmp	r2, #0
	bne	.L1176
.LVL1281:
.L1242:
.LBE1784:
.LBE1783:
.LBE1782:
.LBE1786:
.LBB1787:
.LBB1788:
.LBB1789:
.LBB1790:
	.loc 1 710 0
	str	r5, [r3, #32]
	.loc 1 711 0
	str	r3, [r5, #28]
.L1158:
.LBE1790:
	.loc 1 717 0
	str	r9, [r5, #20]
	b	.L1106
.LVL1282:
.L1253:
.LBE1789:
.LBE1788:
.LBE1787:
.LBB1800:
.LBB1746:
.LBB1719:
.LBB1720:
	.loc 1 704 0
	ldr	r1, [r9, #24]
	cbnz	r1, .L1145
	b	.L1259
.LVL1283:
.L1175:
.LBB1721:
	.loc 1 707 0
	mov	r1, r2
.LVL1284:
.L1145:
	ldr	r2, [r1, #32]
	cmp	r2, #0
	bne	.L1175
	.loc 1 710 0
	str	r3, [r1, #32]
	.loc 1 711 0
	str	r1, [r3, #28]
.LVL1285:
.L1146:
.LBE1721:
	.loc 1 717 0
	str	r9, [r3, #20]
	b	.L1143
.LVL1286:
.L1114:
.LBE1720:
.LBE1719:
.LBE1746:
	.loc 1 364 0
	ldr	r0, [sp, #20]
	bl	strlen
.LVL1287:
.LBB1747:
.LBB1748:
	.loc 1 51 0
	adds	r0, r0, #4
.LVL1288:
	bl	pvPortMalloc
.LVL1289:
.LBE1748:
.LBE1747:
	.loc 1 365 0
	ldr	r2, [sp, #20]
	ldr	r1, .L1260+8
.LBB1750:
.LBB1749:
	.loc 1 51 0
	mov	r6, r0
.LVL1290:
.LBE1749:
.LBE1750:
	.loc 1 365 0
	bl	sprintf
.LVL1291:
	.loc 1 366 0
	ldr	r0, [sp, #20]
	bl	strlen
.LVL1292:
.LBB1751:
.LBB1752:
	.loc 1 51 0
	adds	r0, r0, #4
.LVL1293:
	bl	pvPortMalloc
.LVL1294:
.LBE1752:
.LBE1751:
	.loc 1 367 0
	ldr	r2, [sp, #20]
	ldr	r1, .L1260+12
.LBB1754:
.LBB1753:
	.loc 1 51 0
	mov	r7, r0
.LVL1295:
.LBE1753:
.LBE1754:
	.loc 1 367 0
	bl	sprintf
.LVL1296:
	b	.L1115
.LVL1297:
.L1252:
.LBB1755:
.LBB1756:
	.loc 1 28 0
	ldrb	ip, [r7]	@ zero_extendqisi2
	cmp	ip, #0
	beq	.L1168
.LVL1298:
.L1169:
.LBE1756:
.LBE1755:
	.loc 1 350 0
	mov	r8, r5
	mov	r3, lr
	b	.L1136
.LVL1299:
.L1132:
.LBB1760:
.LBB1757:
	.loc 1 31 0
	ldrb	r3, [r8, #1]!	@ zero_extendqisi2
.LVL1300:
	cmp	r3, #0
	beq	.L1131
.LVL1301:
.L1136:
	.loc 1 32 0
	cmp	ip, r3
	bne	.L1132
	mov	r0, r7
	mov	r2, r8
	mov	r3, ip
.L1133:
.LVL1302:
	.loc 1 40 0
	ldrb	r1, [r2], #1	@ zero_extendqisi2
.LVL1303:
	cmp	r1, r3
	bne	.L1132
	.loc 1 37 0
	ldrb	r3, [r0, #1]!	@ zero_extendqisi2
	cmp	r3, #0
	bne	.L1133
.LBE1757:
.LBE1760:
	.loc 1 350 0
	mov	r0, r5
	mov	r3, lr
	b	.L1141
.LVL1304:
.L1137:
.LBB1761:
.LBB1715:
	.loc 1 31 0
	ldrb	r3, [r0, #1]!	@ zero_extendqisi2
.LVL1305:
	cmp	r3, #0
	beq	.L1131
.LVL1306:
.L1141:
	.loc 1 32 0
	cmp	ip, r3
	bne	.L1137
	mov	r1, r7
	mov	r2, r0
	mov	r3, ip
.L1139:
.LVL1307:
	.loc 1 40 0
	ldrb	lr, [r2], #1	@ zero_extendqisi2
.LVL1308:
	cmp	lr, r3
	bne	.L1137
	.loc 1 37 0
	ldrb	r3, [r1, #1]!	@ zero_extendqisi2
	cmp	r3, #0
	bne	.L1139
	b	.L1241
.LVL1309:
.L1117:
.LBE1715:
.LBE1761:
.LBB1762:
.LBB1758:
	.loc 1 28 0
	ldrb	r3, [r7]	@ zero_extendqisi2
	cmp	r3, #0
	bne	.L1131
.LVL1310:
.L1168:
.LBE1758:
.LBE1762:
	.loc 1 372 0
	cmp	r5, #0
	beq	.L1131
	mov	r10, r5
	mov	r8, #0
	b	.L1124
.L1261:
	.align	2
.L1260:
	.word	.LC8
	.word	.LC9
	.word	.LC10
	.word	.LC11
.LVL1311:
.L1171:
	mov	r0, r4
.LVL1312:
	.loc 1 337 0
	mov	r9, r1
.LVL1313:
	mov	r5, fp
.LVL1314:
	b	.L1110
.LVL1315:
.L1255:
.LBE1800:
	.loc 1 415 0 discriminator 2
	ldrb	r3, [r5]	@ zero_extendqisi2
	cmp	r3, #0
	beq	.L1106
.LVL1316:
.LBB1801:
.LBB1802:
	.loc 1 594 0
	mov	r0, r5
.LVL1317:
	bl	strlen
.LVL1318:
.LBB1803:
.LBB1804:
	.loc 1 51 0
	adds	r0, r0, #1
.LVL1319:
	bl	pvPortMalloc
.LVL1320:
.LBE1804:
.LBE1803:
	.loc 1 595 0
	mov	r1, r5
.LBB1806:
.LBB1805:
	.loc 1 51 0
	mov	r6, r0
.LBE1805:
.LBE1806:
	.loc 1 595 0
	bl	strcpy
.LVL1321:
.LBB1807:
.LBB1808:
.LBB1809:
.LBB1810:
	.loc 1 51 0
	movs	r0, #36
	bl	pvPortMalloc
.LVL1322:
	mov	r5, r0
.LVL1323:
.LBE1810:
.LBE1809:
	.loc 1 536 0
	mov	r1, r4
	movs	r2, #36
	bl	memset
.LVL1324:
.LBE1808:
.LBE1807:
.LBE1802:
.LBE1801:
.LBB1812:
.LBB1794:
.LBB1795:
	.loc 1 606 0
	ldr	r3, [r9]
.LBE1795:
.LBE1794:
.LBE1812:
.LBB1813:
.LBB1811:
	.loc 1 597 0
	str	r6, [r5, #4]
.LVL1325:
.LBE1811:
.LBE1813:
.LBB1814:
.LBB1797:
.LBB1796:
	.loc 1 606 0
	cmp	r3, #0
	beq	.L1106
	.loc 1 606 0
	ldr	r3, [r9, #4]
	cmp	r3, #0
	bne	.L1106
.LVL1326:
.LBE1796:
.LBE1797:
.LBB1798:
.LBB1792:
	.loc 1 704 0
	ldr	r3, [r9, #24]
	cbnz	r3, .L1157
	b	.L1234
.LVL1327:
.L1177:
.LBB1791:
	.loc 1 707 0
	mov	r3, r2
.LVL1328:
.L1157:
	ldr	r2, [r3, #32]
	cmp	r2, #0
	bne	.L1177
	b	.L1242
.LVL1329:
.L1259:
.LBE1791:
.LBE1792:
.LBE1798:
.LBE1814:
.LBB1815:
.LBB1763:
.LBB1723:
.LBB1722:
	.loc 1 714 0
	str	r3, [r9, #24]
	b	.L1146
.LVL1330:
.L1256:
.LBE1722:
.LBE1723:
.LBE1763:
.LBB1764:
.LBB1759:
	.loc 1 28 0
	ldrb	ip, [r7]	@ zero_extendqisi2
	cmp	ip, #0
	beq	.L1131
	.loc 1 31 0
	ldrb	lr, [r8, #1]	@ zero_extendqisi2
	cmp	lr, #0
	bne	.L1169
	b	.L1131
.LVL1331:
.L1234:
.LBE1759:
.LBE1764:
.LBE1815:
.LBB1816:
.LBB1799:
.LBB1793:
	.loc 1 714 0
	str	r5, [r9, #24]
	b	.L1158
.LBE1793:
.LBE1799:
.LBE1816:
.LBE1820:
	.cfi_endproc
.LFE153:
	.size	_xml_parse_doc, .-_xml_parse_doc
	.section	.text.xml_parse_doc,"ax",%progbits
	.align	1
	.p2align 2,,3
	.global	xml_parse_doc
	.syntax unified
	.thumb
	.thumb_func
	.fpu softvfp
	.type	xml_parse_doc, %function
xml_parse_doc:
.LFB154:
	.loc 1 431 0
	.cfi_startproc
	@ args = 4, pretend = 0, frame = 8
	@ frame_needed = 0, uses_anonymous_args = 0
.LVL1332:
	push	{r4, r5, r6, r7, r8, r9, r10, fp, lr}
	.cfi_def_cfa_offset 36
	.cfi_offset 4, -36
	.cfi_offset 5, -32
	.cfi_offset 6, -28
	.cfi_offset 7, -24
	.cfi_offset 8, -20
	.cfi_offset 9, -16
	.cfi_offset 10, -12
	.cfi_offset 11, -8
	.cfi_offset 14, -4
	mov	r7, r1
.LVL1333:
	sub	sp, sp, #20
	.cfi_def_cfa_offset 56
	.loc 1 431 0
	mov	r8, r0
.LBB1874:
.LBB1875:
	.loc 1 51 0
	adds	r0, r1, #1
.LVL1334:
.LBE1875:
.LBE1874:
	.loc 1 431 0
	mov	r6, r3
	mov	r4, r2
	ldr	r5, [sp, #56]
.LBB1878:
.LBB1876:
	.loc 1 51 0
	bl	pvPortMalloc
.LVL1335:
.LBE1876:
.LBE1878:
	.loc 1 436 0
	mov	r2, r7
	mov	r1, r8
.LBB1879:
.LBB1877:
	.loc 1 51 0
	mov	r9, r0
.LVL1336:
.LBE1877:
.LBE1879:
	.loc 1 436 0
	bl	memcpy
.LVL1337:
	.loc 1 437 0
	movs	r3, #0
	strb	r3, [r9, r7]
	.loc 1 439 0
	cmp	r4, #0
	beq	.L1263
	.loc 1 440 0 discriminator 1
	mov	r0, r4
	.loc 1 439 0 discriminator 1
	cmp	r5, #0
	beq	.L1264
	.loc 1 440 0
	bl	strlen
.LVL1338:
	mov	r8, r0
.LVL1339:
	mov	r0, r6
	bl	strlen
.LVL1340:
	mov	r7, r0
.LVL1341:
	mov	r0, r5
	bl	strlen
.LVL1342:
	add	r0, r0, r7
.LVL1343:
	adds	r0, r0, #14
.LBB1880:
.LBB1881:
	.loc 1 51 0
	add	r0, r0, r8, lsl #1
	bl	pvPortMalloc
.LVL1344:
.LBE1881:
.LBE1880:
	.loc 1 441 0
	mov	r3, r6
	mov	r2, r4
	ldr	r1, .L1345
	stm	sp, {r4, r5}
.LBB1883:
.LBB1882:
	.loc 1 51 0
	mov	r7, r0
.LBE1882:
.LBE1883:
	.loc 1 441 0
	bl	sprintf
.LVL1345:
	.loc 1 442 0
	mov	r0, r4
	bl	strlen
.LVL1346:
	mov	r10, r0
	mov	r0, r6
	bl	strlen
.LVL1347:
	mov	r8, r0
	mov	r0, r5
	bl	strlen
.LVL1348:
	add	r0, r0, r8
.LVL1349:
	adds	r0, r0, #15
.LBB1884:
.LBB1885:
	.loc 1 51 0
	add	r0, r0, r10, lsl #1
	bl	pvPortMalloc
.LVL1350:
.LBE1885:
.LBE1884:
	.loc 1 443 0
	stm	sp, {r4, r5}
	mov	r3, r6
	mov	r2, r4
	ldr	r1, .L1345+4
	.loc 1 442 0
	str	r0, [sp, #8]
	.loc 1 443 0
	bl	sprintf
.LVL1351:
.L1265:
	.loc 1 466 0
	mov	r0, r4
	bl	strlen
.LVL1352:
	mov	r8, r0
	mov	r0, r6
	bl	strlen
.LVL1353:
	add	r0, r0, r8
.LVL1354:
.LBB1886:
.LBB1887:
	.loc 1 51 0
	adds	r0, r0, #5
.LVL1355:
	bl	pvPortMalloc
.LVL1356:
.LBE1887:
.LBE1886:
	.loc 1 467 0
	mov	r3, r6
	mov	r2, r4
	ldr	r1, .L1345+8
.LBB1889:
.LBB1888:
	.loc 1 51 0
	mov	r8, r0
.LBE1888:
.LBE1889:
	.loc 1 467 0
	bl	sprintf
.LVL1357:
.L1292:
.LBB1890:
.LBB1891:
	.loc 1 28 0
	ldrb	lr, [r7]	@ zero_extendqisi2
	cmp	lr, #0
	beq	.L1298
	.loc 1 31 0
	ldrb	r10, [r9]	@ zero_extendqisi2
	cmp	r10, #0
	beq	.L1269
	mov	ip, r9
	mov	r3, r10
	b	.L1273
.LVL1358:
.L1270:
	ldrb	r3, [ip, #1]!	@ zero_extendqisi2
.LVL1359:
	cmp	r3, #0
	beq	.L1340
.LVL1360:
.L1273:
	.loc 1 32 0
	cmp	lr, r3
	bne	.L1270
	mov	r1, r7
	mov	r2, ip
	mov	r3, lr
.L1271:
.LVL1361:
	.loc 1 40 0
	ldrb	r0, [r2], #1	@ zero_extendqisi2
.LVL1362:
	cmp	r0, r3
	bne	.L1270
	.loc 1 37 0
	ldrb	r3, [r1, #1]!	@ zero_extendqisi2
	cmp	r3, #0
	bne	.L1271
.LBE1891:
.LBE1890:
	.loc 1 476 0
	mov	r0, r7
.LBB1894:
.LBB1892:
	.loc 1 37 0
	mov	r10, ip
.LVL1363:
.LBE1892:
.LBE1894:
	.loc 1 476 0
	bl	strlen
.LVL1364:
.LBB1895:
.LBB1896:
	.loc 1 28 0
	ldrb	ip, [r8]	@ zero_extendqisi2
.LBE1896:
.LBE1895:
	.loc 1 476 0
	add	fp, r10, r0
.LVL1365:
.LBB1900:
.LBB1897:
	.loc 1 28 0
	cmp	ip, #0
	beq	.L1293
.L1341:
	.loc 1 31 0
	ldrb	r3, [r10, r0]	@ zero_extendqisi2
	mov	lr, fp
	cbnz	r3, .L1279
	b	.L1337
.LVL1366:
.L1275:
	ldrb	r3, [lr, #1]!	@ zero_extendqisi2
.LVL1367:
	cmp	r3, #0
	beq	.L1337
.LVL1368:
.L1279:
	.loc 1 32 0
	cmp	ip, r3
	bne	.L1275
	mov	r1, r8
	mov	r2, lr
	mov	r3, ip
.L1276:
.LVL1369:
	.loc 1 40 0
	ldrb	r0, [r2], #1	@ zero_extendqisi2
.LVL1370:
	cmp	r0, r3
	bne	.L1275
	.loc 1 37 0
	ldrb	r3, [r1, #1]!	@ zero_extendqisi2
	cmp	r3, #0
	bne	.L1276
.LVL1371:
	sub	r3, lr, fp
	str	r3, [sp, #12]
.LBE1897:
.LBE1900:
.LBB1901:
.LBB1902:
.LBB1903:
	.loc 1 572 0
	cmp	r4, #0
	beq	.L1281
.L1342:
	cmp	r5, #0
	beq	.L1282
	.loc 1 573 0
	mov	r0, r4
	bl	strlen
.LVL1372:
	mov	r10, r0
	mov	r0, r5
	bl	strlen
.LVL1373:
	add	r0, r0, r10
.LVL1374:
.LBB1904:
.LBB1905:
	.loc 1 51 0
	adds	r0, r0, #10
.LVL1375:
	bl	pvPortMalloc
.LVL1376:
.LBE1905:
.LBE1904:
	.loc 1 574 0
	mov	r3, r5
	mov	r2, r4
	ldr	r1, .L1345+12
.LBB1907:
.LBB1906:
	.loc 1 51 0
	mov	r10, r0
.LVL1377:
.LBE1906:
.LBE1907:
	.loc 1 574 0
	bl	sprintf
.LVL1378:
.L1283:
	.loc 1 581 0
	mov	r0, r4
	mov	r2, r5
	mov	r1, r6
	mov	r3, r10
	bl	_xml_new_element
.LVL1379:
	mov	r4, r0
.LVL1380:
	.loc 1 583 0
	cmp	r10, #0
	beq	.L1284
.LVL1381:
.LBB1908:
.LBB1909:
	.loc 1 56 0
	mov	r0, r10
.LVL1382:
	bl	vPortFree
.LVL1383:
.L1284:
.LBE1909:
.LBE1908:
.LBE1903:
.LBE1902:
	.loc 1 482 0
	ldr	r1, [sp, #12]
	mov	r0, fp
	mov	r2, r4
	bl	_xml_parse_doc
.LVL1384:
.L1280:
.LBE1901:
.LBB1918:
.LBB1919:
	.loc 1 56 0
	mov	r0, r7
	bl	vPortFree
.LVL1385:
.LBE1919:
.LBE1918:
.LBB1920:
.LBB1921:
	mov	r0, r8
	bl	vPortFree
.LVL1386:
.LBE1921:
.LBE1920:
.LBB1922:
.LBB1923:
	ldr	r0, [sp, #8]
	bl	vPortFree
.LVL1387:
.LBE1923:
.LBE1922:
.LBB1924:
.LBB1925:
	mov	r0, r9
	bl	vPortFree
.LVL1388:
.LBE1925:
.LBE1924:
	.loc 1 496 0
	mov	r0, r4
	add	sp, sp, #20
	.cfi_remember_state
	.cfi_def_cfa_offset 36
	@ sp needed
	pop	{r4, r5, r6, r7, r8, r9, r10, fp, pc}
.LVL1389:
.L1298:
	.cfi_restore_state
	.loc 1 476 0
	mov	r0, r7
	bl	strlen
.LVL1390:
.LBB1926:
.LBB1893:
	.loc 1 28 0
	mov	r10, r9
.LBE1893:
.LBE1926:
.LBB1927:
.LBB1898:
	ldrb	ip, [r8]	@ zero_extendqisi2
.LBE1898:
.LBE1927:
	.loc 1 476 0
	add	fp, r10, r0
.LVL1391:
.LBB1928:
.LBB1899:
	.loc 1 28 0
	cmp	ip, #0
	bne	.L1341
.L1293:
.LVL1392:
.LBE1899:
.LBE1928:
	.loc 1 478 0
	cmp	fp, #0
	beq	.L1300
	str	ip, [sp, #12]
.LVL1393:
.LBB1929:
.LBB1916:
.LBB1914:
	.loc 1 572 0
	cmp	r4, #0
	bne	.L1342
.L1281:
	.loc 1 576 0
	cmp	r5, #0
	beq	.L1282
	.loc 1 577 0
	mov	r0, r5
	bl	strlen
.LVL1394:
.LBB1910:
.LBB1911:
	.loc 1 51 0
	adds	r0, r0, #9
.LVL1395:
	bl	pvPortMalloc
.LVL1396:
.LBE1911:
.LBE1910:
	.loc 1 578 0
	mov	r2, r5
	ldr	r1, .L1345+16
.LBB1913:
.LBB1912:
	.loc 1 51 0
	mov	r10, r0
.LVL1397:
.LBE1912:
.LBE1913:
	.loc 1 578 0
	bl	sprintf
.LVL1398:
	b	.L1283
.LVL1399:
.L1264:
.LBE1914:
.LBE1916:
.LBE1929:
	.loc 1 447 0
	bl	strlen
.LVL1400:
	mov	r7, r0
.LVL1401:
	mov	r0, r6
	bl	strlen
.LVL1402:
	add	r0, r0, r7
.LVL1403:
.LBB1930:
.LBB1931:
	.loc 1 51 0
	adds	r0, r0, #4
.LVL1404:
	bl	pvPortMalloc
.LVL1405:
.LBE1931:
.LBE1930:
	.loc 1 448 0
	mov	r3, r6
	mov	r2, r4
	ldr	r1, .L1345+20
.LBB1933:
.LBB1932:
	.loc 1 51 0
	mov	r7, r0
.LBE1932:
.LBE1933:
	.loc 1 448 0
	bl	sprintf
.LVL1406:
	.loc 1 449 0
	mov	r0, r4
	bl	strlen
.LVL1407:
	mov	r8, r0
.LVL1408:
	mov	r0, r6
	bl	strlen
.LVL1409:
	add	r0, r0, r8
.LVL1410:
.LBB1934:
.LBB1935:
	.loc 1 51 0
	adds	r0, r0, #5
.LVL1411:
	bl	pvPortMalloc
.LVL1412:
.LBE1935:
.LBE1934:
	.loc 1 450 0
	mov	r3, r6
	mov	r2, r4
	ldr	r1, .L1345+24
	.loc 1 449 0
	str	r0, [sp, #8]
	.loc 1 450 0
	bl	sprintf
.LVL1413:
	b	.L1265
.LVL1414:
.L1263:
	.loc 1 453 0
	mov	r0, r6
	.loc 1 452 0
	cmp	r5, #0
	beq	.L1266
.LVL1415:
	.loc 1 453 0
	bl	strlen
.LVL1416:
	mov	r7, r0
.LVL1417:
	mov	r0, r5
	bl	strlen
.LVL1418:
	add	r0, r0, r7
.LVL1419:
.LBB1936:
.LBB1937:
	.loc 1 51 0
	adds	r0, r0, #12
.LVL1420:
	bl	pvPortMalloc
.LVL1421:
.LBE1937:
.LBE1936:
	.loc 1 454 0
	mov	r3, r5
	mov	r2, r6
	ldr	r1, .L1345+28
.LBB1939:
.LBB1938:
	.loc 1 51 0
	mov	r7, r0
.LBE1938:
.LBE1939:
	.loc 1 454 0
	bl	sprintf
.LVL1422:
	.loc 1 455 0
	mov	r0, r6
	bl	strlen
.LVL1423:
	mov	r8, r0
.LVL1424:
	mov	r0, r5
	bl	strlen
.LVL1425:
	add	r0, r0, r8
.LVL1426:
.LBB1940:
.LBB1941:
	.loc 1 51 0
	adds	r0, r0, #13
.LVL1427:
	bl	pvPortMalloc
.LVL1428:
.LBE1941:
.LBE1940:
	.loc 1 456 0
	mov	r3, r5
	mov	r2, r6
	ldr	r1, .L1345+32
	.loc 1 455 0
	str	r0, [sp, #8]
	.loc 1 456 0
	bl	sprintf
.LVL1429:
.L1267:
	.loc 1 470 0
	mov	r0, r6
	bl	strlen
.LVL1430:
.LBB1942:
.LBB1943:
	.loc 1 51 0
	adds	r0, r0, #4
.LVL1431:
	bl	pvPortMalloc
.LVL1432:
.LBE1943:
.LBE1942:
	.loc 1 471 0
	mov	r2, r6
	ldr	r1, .L1345+36
.LBB1945:
.LBB1944:
	.loc 1 51 0
	mov	r8, r0
.LBE1944:
.LBE1945:
	.loc 1 471 0
	bl	sprintf
.LVL1433:
	b	.L1292
.LVL1434:
.L1337:
	.loc 1 432 0
	mov	r4, r3
.LVL1435:
	b	.L1280
.LVL1436:
.L1340:
.LBB1946:
.LBB1947:
	.loc 1 28 0
	ldr	r3, [sp, #8]
	ldrb	lr, [r3]	@ zero_extendqisi2
	cmp	lr, #0
	beq	.L1287
	mov	ip, r9
	mov	r3, r10
	b	.L1289
.LVL1437:
.L1285:
	.loc 1 31 0
	ldrb	r3, [ip, #1]!	@ zero_extendqisi2
.LVL1438:
	cmp	r3, #0
	beq	.L1343
.LVL1439:
.L1289:
	.loc 1 32 0
	cmp	lr, r3
	bne	.L1285
	mov	r2, ip
	mov	r3, lr
	ldr	r0, [sp, #8]
.L1286:
.LVL1440:
	.loc 1 40 0
	ldrb	r1, [r2], #1	@ zero_extendqisi2
.LVL1441:
	cmp	r1, r3
	bne	.L1285
	.loc 1 37 0
	ldrb	r3, [r0, #1]!	@ zero_extendqisi2
	cmp	r3, #0
	bne	.L1286
.LVL1442:
.L1287:
.LBE1947:
.LBE1946:
.LBB1949:
.LBB1950:
	.loc 1 572 0
	cbz	r4, .L1344
	cmp	r5, #0
	beq	.L1290
	.loc 1 573 0
	mov	r0, r4
	bl	strlen
.LVL1443:
	mov	r10, r0
	mov	r0, r5
	bl	strlen
.LVL1444:
	add	r0, r0, r10
.LVL1445:
.LBB1951:
.LBB1952:
	.loc 1 51 0
	adds	r0, r0, #10
.LVL1446:
	bl	pvPortMalloc
.LVL1447:
.LBE1952:
.LBE1951:
	.loc 1 574 0
	mov	r3, r5
	mov	r2, r4
	ldr	r1, .L1345+12
.LBB1954:
.LBB1953:
	.loc 1 51 0
	mov	r10, r0
.LVL1448:
.LBE1953:
.LBE1954:
	.loc 1 574 0
	bl	sprintf
.LVL1449:
.L1291:
	.loc 1 581 0
	mov	r0, r4
	mov	r2, r5
	mov	r1, r6
	mov	r3, r10
	bl	_xml_new_element
.LVL1450:
	mov	r4, r0
.LVL1451:
	.loc 1 583 0
	cmp	r10, #0
	beq	.L1280
.LVL1452:
.LBB1955:
.LBB1956:
	.loc 1 56 0
	mov	r0, r10
.LVL1453:
	bl	vPortFree
.LVL1454:
	b	.L1280
.LVL1455:
.L1282:
.LBE1956:
.LBE1955:
.LBE1950:
.LBE1949:
.LBB1963:
.LBB1917:
.LBB1915:
	.loc 1 581 0
	movs	r3, #0
	mov	r0, r4
	mov	r1, r6
	mov	r2, r3
	bl	_xml_new_element
.LVL1456:
	mov	r4, r0
.LVL1457:
	b	.L1284
.LVL1458:
.L1269:
.LBE1915:
.LBE1917:
.LBE1963:
.LBB1964:
.LBB1948:
	.loc 1 28 0
	ldr	r3, [sp, #8]
	ldrb	r3, [r3]	@ zero_extendqisi2
	cmp	r3, #0
	beq	.L1287
.LBE1948:
.LBE1964:
	.loc 1 432 0
	mov	r4, r10
.LVL1459:
	b	.L1280
.LVL1460:
.L1344:
.LBB1965:
.LBB1961:
	.loc 1 576 0
	cbz	r5, .L1290
	.loc 1 577 0
	mov	r0, r5
	bl	strlen
.LVL1461:
.LBB1957:
.LBB1958:
	.loc 1 51 0
	adds	r0, r0, #9
.LVL1462:
	bl	pvPortMalloc
.LVL1463:
.LBE1958:
.LBE1957:
	.loc 1 578 0
	mov	r2, r5
	ldr	r1, .L1345+16
.LBB1960:
.LBB1959:
	.loc 1 51 0
	mov	r10, r0
.LVL1464:
.LBE1959:
.LBE1960:
	.loc 1 578 0
	bl	sprintf
.LVL1465:
	b	.L1291
.LVL1466:
.L1266:
.LBE1961:
.LBE1965:
	.loc 1 459 0
	bl	strlen
.LVL1467:
.LBB1966:
.LBB1967:
	.loc 1 51 0
	adds	r0, r0, #3
.LVL1468:
	bl	pvPortMalloc
.LVL1469:
.LBE1967:
.LBE1966:
	.loc 1 460 0
	mov	r2, r6
	ldr	r1, .L1345+40
.LBB1969:
.LBB1968:
	.loc 1 51 0
	mov	r7, r0
.LVL1470:
.LBE1968:
.LBE1969:
	.loc 1 460 0
	bl	sprintf
.LVL1471:
	.loc 1 461 0
	mov	r0, r6
	bl	strlen
.LVL1472:
.LBB1970:
.LBB1971:
	.loc 1 51 0
	adds	r0, r0, #4
.LVL1473:
	bl	pvPortMalloc
.LVL1474:
.LBE1971:
.LBE1970:
	.loc 1 462 0
	mov	r2, r6
	ldr	r1, .L1345+44
	.loc 1 461 0
	str	r0, [sp, #8]
	.loc 1 462 0
	bl	sprintf
.LVL1475:
	b	.L1267
.LVL1476:
.L1290:
.LBB1972:
.LBB1962:
	.loc 1 581 0
	movs	r3, #0
	mov	r0, r4
	mov	r1, r6
	mov	r2, r3
	bl	_xml_new_element
.LVL1477:
	mov	r4, r0
.LVL1478:
	b	.L1280
.LVL1479:
.L1343:
.LBE1962:
.LBE1972:
	.loc 1 432 0
	mov	r4, r3
.LVL1480:
	b	.L1280
.LVL1481:
.L1300:
	mov	r4, fp
.LVL1482:
	b	.L1280
.L1346:
	.align	2
.L1345:
	.word	.LC12
	.word	.LC13
	.word	.LC8
	.word	.LC20
	.word	.LC21
	.word	.LC14
	.word	.LC15
	.word	.LC16
	.word	.LC17
	.word	.LC10
	.word	.LC18
	.word	.LC19
	.cfi_endproc
.LFE154:
	.size	xml_parse_doc, .-xml_parse_doc
	.section	.text.xml_parse,"ax",%progbits
	.align	1
	.p2align 2,,3
	.global	xml_parse
	.syntax unified
	.thumb
	.thumb_func
	.fpu softvfp
	.type	xml_parse, %function
xml_parse:
.LFB155:
	.loc 1 499 0
	.cfi_startproc
	@ args = 0, pretend = 0, frame = 0
	@ frame_needed = 0, uses_anonymous_args = 0
.LVL1483:
	push	{r4, r5, r6, r7, r8, lr}
	.cfi_def_cfa_offset 24
	.cfi_offset 4, -24
	.cfi_offset 5, -20
	.cfi_offset 6, -16
	.cfi_offset 7, -12
	.cfi_offset 8, -8
	.cfi_offset 14, -4
	.loc 1 504 0
	adds	r5, r0, r1
	cmp	r0, r5
	bcs	.L1349
	mov	r8, r0
.LVL1484:
.L1363:
.LBB1973:
.LBB1974:
	.loc 1 31 0
	ldrb	r3, [r0]	@ zero_extendqisi2
	mov	r7, r0
	cbnz	r3, .L1354
	b	.L1355
.LVL1485:
.L1350:
	ldrb	r3, [r7, #1]!	@ zero_extendqisi2
.LVL1486:
	cbz	r3, .L1370
.LVL1487:
.L1354:
	.loc 1 32 0
	cmp	r3, #60
	bne	.L1350
	mov	r2, r7
	ldr	r1, .L1372
.LVL1488:
.L1351:
	.loc 1 40 0
	ldrb	r4, [r2], #1	@ zero_extendqisi2
.LVL1489:
	cmp	r4, r3
	bne	.L1350
	.loc 1 37 0
	ldrb	r3, [r1, #1]!	@ zero_extendqisi2
	cmp	r3, #0
	bne	.L1351
.LVL1490:
.LBE1974:
.LBE1973:
	.loc 1 506 0
	movs	r1, #62
	mov	r0, r7
	bl	strchr
.LVL1491:
	adds	r0, r0, #1
.LVL1492:
	.loc 1 504 0
	cmp	r0, r5
	bcc	.L1363
.LVL1493:
.L1355:
.LBB1977:
.LBB1975:
	.loc 1 31 0
	mov	r0, r8
.LVL1494:
.L1364:
.LBE1975:
.LBE1977:
.LBB1978:
.LBB1979:
	ldrb	r3, [r0]	@ zero_extendqisi2
	mov	r6, r0
	cbnz	r3, .L1361
	b	.L1349
.LVL1495:
.L1357:
	ldrb	r3, [r6, #1]!	@ zero_extendqisi2
.LVL1496:
	cbz	r3, .L1371
.LVL1497:
.L1361:
	.loc 1 32 0
	cmp	r3, #60
	bne	.L1357
	mov	r2, r6
	ldr	r1, .L1372+4
.LVL1498:
.L1358:
	.loc 1 40 0
	ldrb	r4, [r2], #1	@ zero_extendqisi2
.LVL1499:
	cmp	r4, r3
	bne	.L1357
	.loc 1 37 0
	ldrb	r3, [r1, #1]!	@ zero_extendqisi2
	cmp	r3, #0
	bne	.L1358
.LVL1500:
.LBE1979:
.LBE1978:
	.loc 1 516 0
	movs	r1, #62
	mov	r0, r6
	bl	strchr
.LVL1501:
	adds	r0, r0, #1
.LVL1502:
	.loc 1 514 0
	cmp	r0, r5
	bcc	.L1364
.LVL1503:
.L1349:
	cmp	r6, r7
	mov	r0, r6
	it	cc
	movcc	r0, r7
.LVL1504:
	.loc 1 528 0
	movs	r2, #0
	subs	r1, r5, r0
	.loc 1 529 0
	pop	{r4, r5, r6, r7, r8, lr}
	.cfi_remember_state
	.cfi_restore 14
	.cfi_restore 8
	.cfi_restore 7
	.cfi_restore 6
	.cfi_restore 5
	.cfi_restore 4
	.cfi_def_cfa_offset 0
	.loc 1 528 0
	b	_xml_parse_doc
.LVL1505:
.L1370:
	.cfi_restore_state
.LBB1981:
.LBB1976:
	.loc 1 31 0
	mov	r7, r0
.LVL1506:
	b	.L1355
.LVL1507:
.L1371:
.LBE1976:
.LBE1981:
.LBB1982:
.LBB1980:
	mov	r6, r0
.LVL1508:
	b	.L1349
.L1373:
	.align	2
.L1372:
	.word	.LC22
	.word	.LC23
.LBE1980:
.LBE1982:
	.cfi_endproc
.LFE155:
	.size	xml_parse, .-xml_parse
	.section	.text.xml_new_element,"ax",%progbits
	.align	1
	.p2align 2,,3
	.global	xml_new_element
	.syntax unified
	.thumb
	.thumb_func
	.fpu softvfp
	.type	xml_new_element, %function
xml_new_element:
.LFB158:
	.loc 1 568 0
	.cfi_startproc
	@ args = 0, pretend = 0, frame = 0
	@ frame_needed = 0, uses_anonymous_args = 0
.LVL1509:
	push	{r4, r5, r6, r7, r8, lr}
	.cfi_def_cfa_offset 24
	.cfi_offset 4, -24
	.cfi_offset 5, -20
	.cfi_offset 6, -16
	.cfi_offset 7, -12
	.cfi_offset 8, -8
	.cfi_offset 14, -4
	.loc 1 568 0
	mov	r7, r1
	mov	r5, r2
	.loc 1 572 0
	mov	r6, r0
	cbz	r0, .L1375
	.loc 1 572 0 is_stmt 0 discriminator 1
	cbz	r2, .L1376
	.loc 1 573 0 is_stmt 1
	bl	strlen
.LVL1510:
	mov	r4, r0
	mov	r0, r5
	bl	strlen
.LVL1511:
	add	r0, r0, r4
.LVL1512:
.LBB1983:
.LBB1984:
	.loc 1 51 0
	adds	r0, r0, #10
.LVL1513:
	bl	pvPortMalloc
.LVL1514:
.LBE1984:
.LBE1983:
	.loc 1 574 0
	mov	r3, r5
	mov	r2, r6
	ldr	r1, .L1389
.LBB1986:
.LBB1985:
	.loc 1 51 0
	mov	r4, r0
.LVL1515:
.LBE1985:
.LBE1986:
	.loc 1 574 0
	bl	sprintf
.LVL1516:
.L1377:
	.loc 1 581 0
	mov	r2, r5
	mov	r1, r7
	mov	r0, r6
	mov	r3, r4
	bl	_xml_new_element
.LVL1517:
	mov	r5, r0
.LVL1518:
	.loc 1 583 0
	cbz	r4, .L1374
.LVL1519:
.LBB1987:
.LBB1988:
	.loc 1 56 0
	mov	r0, r4
.LVL1520:
	bl	vPortFree
.LVL1521:
.L1374:
.LBE1988:
.LBE1987:
	.loc 1 587 0
	mov	r0, r5
	pop	{r4, r5, r6, r7, r8, pc}
.LVL1522:
.L1375:
	.loc 1 576 0
	cbz	r2, .L1376
	.loc 1 577 0
	mov	r0, r2
.LVL1523:
	bl	strlen
.LVL1524:
.LBB1989:
.LBB1990:
	.loc 1 51 0
	adds	r0, r0, #9
.LVL1525:
	bl	pvPortMalloc
.LVL1526:
.LBE1990:
.LBE1989:
	.loc 1 578 0
	mov	r2, r5
	ldr	r1, .L1389+4
.LBB1992:
.LBB1991:
	.loc 1 51 0
	mov	r4, r0
.LVL1527:
.LBE1991:
.LBE1992:
	.loc 1 578 0
	bl	sprintf
.LVL1528:
	b	.L1377
.LVL1529:
.L1376:
	.loc 1 581 0
	movs	r3, #0
	mov	r1, r7
.LVL1530:
	mov	r0, r6
.LVL1531:
	.loc 1 587 0
	pop	{r4, r5, r6, r7, r8, lr}
	.cfi_restore 14
	.cfi_restore 8
	.cfi_restore 7
	.cfi_restore 6
	.cfi_restore 5
	.cfi_restore 4
	.cfi_def_cfa_offset 0
.LVL1532:
	.loc 1 581 0
	mov	r2, r3
.LVL1533:
	b	_xml_new_element
.LVL1534:
.L1390:
	.align	2
.L1389:
	.word	.LC20
	.word	.LC21
	.cfi_endproc
.LFE158:
	.size	xml_new_element, .-xml_new_element
	.section	.text.xml_new_text,"ax",%progbits
	.align	1
	.p2align 2,,3
	.global	xml_new_text
	.syntax unified
	.thumb
	.thumb_func
	.fpu softvfp
	.type	xml_new_text, %function
xml_new_text:
.LFB159:
	.loc 1 590 0
	.cfi_startproc
	@ args = 0, pretend = 0, frame = 0
	@ frame_needed = 0, uses_anonymous_args = 0
.LVL1535:
	push	{r3, r4, r5, lr}
	.cfi_def_cfa_offset 16
	.cfi_offset 3, -16
	.cfi_offset 4, -12
	.cfi_offset 5, -8
	.cfi_offset 14, -4
	.loc 1 590 0
	mov	r4, r0
	.loc 1 594 0
	bl	strlen
.LVL1536:
.LBB2001:
.LBB2002:
	.loc 1 51 0
	adds	r0, r0, #1
.LVL1537:
	bl	pvPortMalloc
.LVL1538:
.LBE2002:
.LBE2001:
	.loc 1 595 0
	mov	r1, r4
.LBB2004:
.LBB2003:
	.loc 1 51 0
	mov	r5, r0
.LBE2003:
.LBE2004:
	.loc 1 595 0
	bl	strcpy
.LVL1539:
.LBB2005:
.LBB2006:
.LBB2007:
.LBB2008:
	.loc 1 51 0
	movs	r0, #36
	bl	pvPortMalloc
.LVL1540:
	mov	r4, r0
.LVL1541:
.LBE2008:
.LBE2007:
	.loc 1 536 0
	movs	r2, #36
	movs	r1, #0
	bl	memset
.LVL1542:
.LBE2006:
.LBE2005:
	.loc 1 597 0
	str	r5, [r4, #4]
	.loc 1 600 0
	mov	r0, r4
	pop	{r3, r4, r5, pc}
	.cfi_endproc
.LFE159:
	.size	xml_new_text, .-xml_new_text
	.section	.text.xml_is_element,"ax",%progbits
	.align	1
	.p2align 2,,3
	.global	xml_is_element
	.syntax unified
	.thumb
	.thumb_func
	.fpu softvfp
	.type	xml_is_element, %function
xml_is_element:
.LFB160:
	.loc 1 603 0
	.cfi_startproc
	@ args = 0, pretend = 0, frame = 0
	@ frame_needed = 0, uses_anonymous_args = 0
	@ link register save eliminated.
.LVL1543:
	.loc 1 606 0
	ldr	r3, [r0]
	cbz	r3, .L1395
	.loc 1 606 0 discriminator 1
	ldr	r0, [r0, #4]
.LVL1544:
	clz	r0, r0
	lsrs	r0, r0, #5
	bx	lr
.LVL1545:
.L1395:
	mov	r0, r3
.LVL1546:
	.loc 1 610 0
	bx	lr
	.cfi_endproc
.LFE160:
	.size	xml_is_element, .-xml_is_element
	.section	.text.xml_is_text,"ax",%progbits
	.align	1
	.p2align 2,,3
	.global	xml_is_text
	.syntax unified
	.thumb
	.thumb_func
	.fpu softvfp
	.type	xml_is_text, %function
xml_is_text:
.LFB161:
	.loc 1 613 0
	.cfi_startproc
	@ args = 0, pretend = 0, frame = 0
	@ frame_needed = 0, uses_anonymous_args = 0
	@ link register save eliminated.
.LVL1547:
	.loc 1 616 0
	ldr	r3, [r0]
	cbz	r3, .L1399
	movs	r0, #0
.LVL1548:
	.loc 1 620 0
	bx	lr
.LVL1549:
.L1399:
	.loc 1 616 0 discriminator 1
	ldr	r0, [r0, #4]
.LVL1550:
	adds	r0, r0, #0
	it	ne
	movne	r0, #1
	bx	lr
	.cfi_endproc
.LFE161:
	.size	xml_is_text, .-xml_is_text
	.section	.text.xml_copy_tree,"ax",%progbits
	.align	1
	.p2align 2,,3
	.global	xml_copy_tree
	.syntax unified
	.thumb
	.thumb_func
	.fpu softvfp
	.type	xml_copy_tree, %function
xml_copy_tree:
.LFB163:
	.loc 1 645 0
	.cfi_startproc
	@ args = 0, pretend = 0, frame = 0
	@ frame_needed = 0, uses_anonymous_args = 0
.LVL1551:
	push	{r4, r5, r6, r7, r8, lr}
	.cfi_def_cfa_offset 24
	.cfi_offset 4, -24
	.cfi_offset 5, -20
	.cfi_offset 6, -16
	.cfi_offset 7, -12
	.cfi_offset 8, -8
	.cfi_offset 14, -4
.LBB2046:
.LBB2047:
	.loc 1 616 0
	ldr	r4, [r0]
	cmp	r4, #0
	beq	.L1435
.LVL1552:
.LBE2047:
.LBE2046:
.LBB2049:
.LBB2050:
	.loc 1 606 0
	ldr	r3, [r0, #4]
	cbz	r3, .L1404
.LBE2050:
.LBE2049:
	.loc 1 646 0
	movs	r7, #0
.LVL1553:
.L1400:
	.loc 1 663 0
	mov	r0, r7
	pop	{r4, r5, r6, r7, r8, pc}
.LVL1554:
.L1404:
.LBB2051:
	.loc 1 652 0
	ldr	r5, [r0, #24]
.LVL1555:
	.loc 1 654 0
	adds	r0, r0, #8
.LVL1556:
	mov	r1, r4
	ldm	r0, {r0, r2, r3}
.LVL1557:
	bl	_xml_new_element
.LVL1558:
	mov	r7, r0
.LVL1559:
	.loc 1 656 0
	cbnz	r5, .L1414
	b	.L1400
.LVL1560:
.L1405:
.LBB2052:
.LBB2053:
.LBB2054:
.LBB2055:
	.loc 1 606 0
	ldr	r3, [r5, #4]
	cmp	r3, #0
	beq	.L1436
.LVL1561:
.L1407:
.LBE2055:
.LBE2054:
.LBE2053:
.LBE2052:
	.loc 1 658 0
	ldr	r5, [r5, #32]
.LVL1562:
	.loc 1 656 0
	cmp	r5, #0
	beq	.L1400
.L1414:
.LVL1563:
.LBB2081:
.LBB2080:
.LBB2056:
.LBB2057:
	.loc 1 616 0
	ldr	r6, [r5]
	cmp	r6, #0
	bne	.L1405
	.loc 1 616 0
	ldr	r4, [r5, #4]
	cmp	r4, #0
	beq	.L1407
.LVL1564:
.LBE2057:
.LBE2056:
.LBB2058:
.LBB2059:
	.loc 1 594 0
	mov	r0, r4
	bl	strlen
.LVL1565:
.LBB2060:
.LBB2061:
	.loc 1 51 0
	adds	r0, r0, #1
.LVL1566:
	bl	pvPortMalloc
.LVL1567:
.LBE2061:
.LBE2060:
	.loc 1 595 0
	mov	r1, r4
.LBB2063:
.LBB2062:
	.loc 1 51 0
	mov	r8, r0
.LBE2062:
.LBE2063:
	.loc 1 595 0
	bl	strcpy
.LVL1568:
.LBB2064:
.LBB2065:
.LBB2066:
.LBB2067:
	.loc 1 51 0
	movs	r0, #36
	bl	pvPortMalloc
.LVL1569:
	mov	r4, r0
.LVL1570:
.LBE2067:
.LBE2066:
	.loc 1 536 0
	mov	r1, r6
.LBE2065:
.LBE2064:
	.loc 1 597 0
	mov	r6, r4
.LBB2069:
.LBB2068:
	.loc 1 536 0
	movs	r2, #36
	bl	memset
.LVL1571:
.LBE2068:
.LBE2069:
	.loc 1 597 0
	str	r8, [r4, #4]
.LVL1572:
.L1416:
.LBE2059:
.LBE2058:
.LBB2070:
.LBB2071:
.LBB2072:
	.loc 1 606 0
	ldr	r3, [r7]
	cmp	r3, #0
	beq	.L1407
	.loc 1 606 0
	ldr	r3, [r7, #4]
	cmp	r3, #0
	bne	.L1407
.LVL1573:
.LBE2072:
.LBE2071:
.LBB2073:
.LBB2074:
	.loc 1 704 0
	ldr	r2, [r7, #24]
	cbnz	r2, .L1412
	b	.L1437
.LVL1574:
.L1421:
.LBB2075:
	.loc 1 707 0
	mov	r2, r3
.LVL1575:
.L1412:
	ldr	r3, [r2, #32]
	cmp	r3, #0
	bne	.L1421
	.loc 1 710 0
	str	r6, [r2, #32]
	.loc 1 711 0
	str	r2, [r6, #28]
.LVL1576:
.L1413:
.LBE2075:
	.loc 1 717 0
	str	r7, [r6, #20]
	b	.L1407
.LVL1577:
.L1436:
.LBE2074:
.LBE2073:
.LBE2070:
.LBB2078:
	.loc 1 632 0
	add	r0, r5, #8
	mov	r1, r6
	ldm	r0, {r0, r2, r3}
	.loc 1 630 0
	ldr	r4, [r5, #24]
.LVL1578:
	.loc 1 632 0
	bl	_xml_new_element
.LVL1579:
	mov	r6, r0
.LVL1580:
	.loc 1 634 0
	cbz	r4, .L1418
.LVL1581:
.L1410:
	.loc 1 635 0
	mov	r0, r4
	mov	r1, r6
	bl	_xml_copy_tree
.LVL1582:
	.loc 1 636 0
	ldr	r4, [r4, #32]
.LVL1583:
	.loc 1 634 0
	cmp	r4, #0
	bne	.L1410
.L1418:
.LBE2078:
	.loc 1 640 0
	cmp	r6, #0
	bne	.L1416
	b	.L1407
.LVL1584:
.L1437:
.LBB2079:
.LBB2077:
.LBB2076:
	.loc 1 714 0
	str	r6, [r7, #24]
	b	.L1413
.LVL1585:
.L1435:
.LBE2076:
.LBE2077:
.LBE2079:
.LBE2080:
.LBE2081:
.LBE2051:
.LBB2082:
.LBB2048:
	.loc 1 616 0
	ldr	r7, [r0, #4]
	cmp	r7, #0
	beq	.L1400
.LVL1586:
.LBE2048:
.LBE2082:
.LBB2083:
.LBB2084:
	.loc 1 594 0
	mov	r0, r7
.LVL1587:
	bl	strlen
.LVL1588:
.LBB2085:
.LBB2086:
	.loc 1 51 0
	adds	r0, r0, #1
.LVL1589:
	bl	pvPortMalloc
.LVL1590:
.LBE2086:
.LBE2085:
	.loc 1 595 0
	mov	r1, r7
.LBB2088:
.LBB2087:
	.loc 1 51 0
	mov	r6, r0
.LBE2087:
.LBE2088:
	.loc 1 595 0
	bl	strcpy
.LVL1591:
.LBB2089:
.LBB2090:
.LBB2091:
.LBB2092:
	.loc 1 51 0
	movs	r0, #36
	bl	pvPortMalloc
.LVL1592:
	mov	r5, r0
.LVL1593:
.LBE2092:
.LBE2091:
.LBE2090:
.LBE2089:
.LBE2084:
.LBE2083:
	mov	r7, r5
.LVL1594:
.LBB2096:
.LBB2095:
.LBB2094:
.LBB2093:
	.loc 1 536 0
	mov	r1, r4
	movs	r2, #36
	bl	memset
.LVL1595:
.LBE2093:
.LBE2094:
	.loc 1 597 0
	str	r6, [r5, #4]
.LVL1596:
.LBE2095:
.LBE2096:
	.loc 1 663 0
	mov	r0, r7
	pop	{r4, r5, r6, r7, r8, pc}
	.cfi_endproc
.LFE163:
	.size	xml_copy_tree, .-xml_copy_tree
	.section	.text.xml_delete_tree,"ax",%progbits
	.align	1
	.p2align 2,,3
	.global	xml_delete_tree
	.syntax unified
	.thumb
	.thumb_func
	.fpu softvfp
	.type	xml_delete_tree, %function
xml_delete_tree:
.LFB164:
	.loc 1 666 0
	.cfi_startproc
	@ args = 0, pretend = 0, frame = 0
	@ frame_needed = 0, uses_anonymous_args = 0
.LVL1597:
	push	{r4, lr}
	.cfi_def_cfa_offset 8
	.cfi_offset 4, -8
	.cfi_offset 14, -4
	.loc 1 666 0
	mov	r4, r0
	.loc 1 667 0
	ldr	r0, [r0]
.LVL1598:
	cbz	r0, .L1439
.LVL1599:
.LBB2097:
.LBB2098:
	.loc 1 56 0
	bl	vPortFree
.LVL1600:
.L1439:
.LBE2098:
.LBE2097:
	.loc 1 670 0
	ldr	r0, [r4, #4]
	cbz	r0, .L1440
.LVL1601:
.LBB2099:
.LBB2100:
	.loc 1 56 0
	bl	vPortFree
.LVL1602:
.L1440:
.LBE2100:
.LBE2099:
	.loc 1 673 0
	ldr	r0, [r4, #8]
	cbz	r0, .L1441
.LVL1603:
.LBB2101:
.LBB2102:
	.loc 1 56 0
	bl	vPortFree
.LVL1604:
.L1441:
.LBE2102:
.LBE2101:
	.loc 1 676 0
	ldr	r0, [r4, #12]
	cbz	r0, .L1442
.LVL1605:
.LBB2103:
.LBB2104:
	.loc 1 56 0
	bl	vPortFree
.LVL1606:
.L1442:
.LBE2104:
.LBE2103:
	.loc 1 679 0
	ldr	r0, [r4, #16]
	cbz	r0, .L1476
.LVL1607:
.LBB2105:
.LBB2106:
	.loc 1 56 0
	bl	vPortFree
.LVL1608:
	b	.L1476
.L1447:
.LBE2106:
.LBE2105:
	.loc 1 683 0
	bl	xml_delete_tree
.LVL1609:
.L1476:
	.loc 1 682 0
	ldr	r0, [r4, #24]
	cmp	r0, #0
	bne	.L1447
	.loc 1 685 0
	ldr	r3, [r4, #28]
	cbz	r3, .L1480
	.loc 1 686 0
	ldr	r2, [r4, #32]
	str	r2, [r3, #32]
	.loc 1 688 0
	ldr	r2, [r4, #32]
	cbz	r2, .L1450
.L1477:
	.loc 1 695 0
	str	r3, [r2, #28]
.L1450:
.LVL1610:
.LBB2107:
.LBB2108:
	.loc 1 56 0
	mov	r0, r4
.LBE2108:
.LBE2107:
	.loc 1 699 0
	pop	{r4, lr}
	.cfi_remember_state
	.cfi_restore 14
	.cfi_restore 4
	.cfi_def_cfa_offset 0
.LVL1611:
.LBB2110:
.LBB2109:
	.loc 1 56 0
	b	vPortFree
.LVL1612:
.L1480:
	.cfi_restore_state
.LBE2109:
.LBE2110:
	.loc 1 691 0
	ldr	r1, [r4, #20]
	cmp	r1, #0
	beq	.L1450
	.loc 1 692 0
	ldr	r2, [r4, #32]
	str	r2, [r1, #24]
	.loc 1 694 0
	cmp	r2, #0
	bne	.L1477
	b	.L1450
	.cfi_endproc
.LFE164:
	.size	xml_delete_tree, .-xml_delete_tree
	.section	.text.xml_add_child,"ax",%progbits
	.align	1
	.p2align 2,,3
	.global	xml_add_child
	.syntax unified
	.thumb
	.thumb_func
	.fpu softvfp
	.type	xml_add_child, %function
xml_add_child:
.LFB165:
	.loc 1 702 0
	.cfi_startproc
	@ args = 0, pretend = 0, frame = 0
	@ frame_needed = 0, uses_anonymous_args = 0
	@ link register save eliminated.
.LVL1613:
.LBB2118:
.LBB2119:
	.loc 1 606 0
	ldr	r3, [r0]
	cbz	r3, .L1481
	.loc 1 606 0
	ldr	r3, [r0, #4]
	cbz	r3, .L1495
.L1481:
	bx	lr
.L1495:
.LVL1614:
.LBE2119:
.LBE2118:
.LBB2120:
.LBB2121:
	.loc 1 704 0
	ldr	r2, [r0, #24]
	cbnz	r2, .L1484
	b	.L1496
.LVL1615:
.L1488:
.LBB2122:
	.loc 1 707 0
	mov	r2, r3
.LVL1616:
.L1484:
	ldr	r3, [r2, #32]
	cmp	r3, #0
	bne	.L1488
	.loc 1 710 0
	str	r1, [r2, #32]
	.loc 1 711 0
	str	r2, [r1, #28]
.LVL1617:
.L1485:
.LBE2122:
	.loc 1 717 0
	str	r0, [r1, #20]
.LBE2121:
.LBE2120:
	.loc 1 719 0
	bx	lr
.L1496:
.LBB2124:
.LBB2123:
	.loc 1 714 0
	str	r1, [r0, #24]
	b	.L1485
.LBE2123:
.LBE2124:
	.cfi_endproc
.LFE165:
	.size	xml_add_child, .-xml_add_child
	.section	.text.xml_clear_child,"ax",%progbits
	.align	1
	.p2align 2,,3
	.global	xml_clear_child
	.syntax unified
	.thumb
	.thumb_func
	.fpu softvfp
	.type	xml_clear_child, %function
xml_clear_child:
.LFB166:
	.loc 1 722 0
	.cfi_startproc
	@ args = 0, pretend = 0, frame = 0
	@ frame_needed = 0, uses_anonymous_args = 0
.LVL1618:
	push	{r4, lr}
	.cfi_def_cfa_offset 8
	.cfi_offset 4, -8
	.cfi_offset 14, -4
	.loc 1 722 0
	mov	r4, r0
	.loc 1 723 0
	ldr	r0, [r0, #24]
.LVL1619:
	cbz	r0, .L1497
.L1499:
	.loc 1 724 0
	bl	xml_delete_tree
.LVL1620:
	.loc 1 723 0
	ldr	r0, [r4, #24]
	cmp	r0, #0
	bne	.L1499
.L1497:
	pop	{r4, pc}
	.cfi_endproc
.LFE166:
	.size	xml_clear_child, .-xml_clear_child
	.section	.text.xml_text_child,"ax",%progbits
	.align	1
	.p2align 2,,3
	.global	xml_text_child
	.syntax unified
	.thumb
	.thumb_func
	.fpu softvfp
	.type	xml_text_child, %function
xml_text_child:
.LFB167:
	.loc 1 728 0
	.cfi_startproc
	@ args = 0, pretend = 0, frame = 0
	@ frame_needed = 0, uses_anonymous_args = 0
	@ link register save eliminated.
.LVL1621:
	.loc 1 731 0
	ldr	r0, [r0, #24]
.LVL1622:
	cbz	r0, .L1503
.LVL1623:
.LBB2125:
.LBB2126:
	.loc 1 616 0
	ldr	r3, [r0]
	cbz	r3, .L1510
.LBE2126:
.LBE2125:
	.loc 1 729 0
	movs	r0, #0
.LVL1624:
.L1503:
	.loc 1 737 0
	bx	lr
.LVL1625:
.L1510:
.LBB2128:
.LBB2127:
	.loc 1 616 0
	ldr	r3, [r0, #4]
.LBE2127:
.LBE2128:
	.loc 1 729 0
	cmp	r3, #0
	it	eq
	moveq	r0, #0
.LVL1626:
	bx	lr
	.cfi_endproc
.LFE167:
	.size	xml_text_child, .-xml_text_child
	.section	.text.xml_set_text,"ax",%progbits
	.align	1
	.p2align 2,,3
	.global	xml_set_text
	.syntax unified
	.thumb
	.thumb_func
	.fpu softvfp
	.type	xml_set_text, %function
xml_set_text:
.LFB168:
	.loc 1 740 0
	.cfi_startproc
	@ args = 0, pretend = 0, frame = 0
	@ frame_needed = 0, uses_anonymous_args = 0
.LVL1627:
.LBB2129:
.LBB2130:
	.loc 1 616 0
	ldr	r3, [r0]
	cbz	r3, .L1518
.L1515:
	bx	lr
.L1518:
	.loc 1 616 0
	ldr	r3, [r0, #4]
	cmp	r3, #0
	beq	.L1515
.LVL1628:
.LBE2130:
.LBE2129:
	.loc 1 740 0
	push	{r4, r5, r6, lr}
	.cfi_def_cfa_offset 16
	.cfi_offset 4, -16
	.cfi_offset 5, -12
	.cfi_offset 6, -8
	.cfi_offset 14, -4
	mov	r4, r0
.LBB2131:
	.loc 1 742 0
	mov	r0, r1
.LVL1629:
	mov	r5, r1
	bl	strlen
.LVL1630:
.LBB2132:
.LBB2133:
	.loc 1 51 0
	adds	r0, r0, #1
.LVL1631:
	bl	pvPortMalloc
.LVL1632:
	mov	r6, r0
.LBE2133:
.LBE2132:
	.loc 1 743 0
	mov	r1, r5
	bl	strcpy
.LVL1633:
.LBB2134:
.LBB2135:
	.loc 1 56 0
	ldr	r0, [r4, #4]
	bl	vPortFree
.LVL1634:
.LBE2135:
.LBE2134:
	.loc 1 745 0
	str	r6, [r4, #4]
	pop	{r4, r5, r6, pc}
.LBE2131:
	.cfi_endproc
.LFE168:
	.size	xml_set_text, .-xml_set_text
	.section	.text.xml_find_element,"ax",%progbits
	.align	1
	.p2align 2,,3
	.global	xml_find_element
	.syntax unified
	.thumb
	.thumb_func
	.fpu softvfp
	.type	xml_find_element, %function
xml_find_element:
.LFB172:
	.loc 1 792 0
	.cfi_startproc
	@ args = 0, pretend = 0, frame = 8
	@ frame_needed = 0, uses_anonymous_args = 0
.LVL1635:
	push	{r4, r5, r6, r7, r8, r9, lr}
	.cfi_def_cfa_offset 28
	.cfi_offset 4, -28
	.cfi_offset 5, -24
	.cfi_offset 6, -20
	.cfi_offset 7, -16
	.cfi_offset 8, -12
	.cfi_offset 9, -8
	.cfi_offset 14, -4
	mov	r7, r0
	sub	sp, sp, #12
	.cfi_def_cfa_offset 40
.LBB2152:
.LBB2153:
	.loc 1 51 0
	movs	r0, #8
.LVL1636:
.LBE2153:
.LBE2152:
	.loc 1 792 0
	mov	r5, r1
.LBB2156:
.LBB2154:
	.loc 1 51 0
	bl	pvPortMalloc
.LVL1637:
.LBE2154:
.LBE2156:
	.loc 1 797 0
	movs	r3, #0
.LBB2157:
.LBB2158:
.LBB2159:
.LBB2160:
.LBB2161:
	.loc 1 606 0
	ldr	r8, [r7]
.LBE2161:
.LBE2160:
.LBE2159:
.LBE2158:
.LBE2157:
.LBB2172:
.LBB2155:
	.loc 1 51 0
	mov	r6, r0
.LVL1638:
.LBE2155:
.LBE2172:
	.loc 1 797 0
	str	r3, [r0]
.LVL1639:
.LBB2173:
.LBB2169:
	.loc 1 767 0
	str	r3, [sp, #4]
.LVL1640:
.LBB2166:
.LBB2163:
.LBB2162:
	.loc 1 606 0
	cmp	r8, #0
	beq	.L1535
	.loc 1 606 0
	ldr	r3, [r7, #4]
	cbz	r3, .L1552
.LVL1641:
.L1535:
.LBE2162:
.LBE2163:
.LBE2166:
.LBE2169:
.LBE2173:
	.loc 1 803 0
	movs	r3, #0
	mov	r9, r3
	str	r3, [r6, #4]
.L1525:
.LVL1642:
.LBB2174:
.LBB2175:
.LBB2176:
	.loc 1 606 0
	cmp	r8, #0
	beq	.L1540
	.loc 1 606 0
	ldr	r3, [r7, #4]
	cbz	r3, .L1553
.LVL1643:
.L1540:
.LBE2176:
.LBE2175:
.LBE2174:
	.loc 1 808 0
	mov	r0, r6
	add	sp, sp, #12
	.cfi_remember_state
	.cfi_def_cfa_offset 28
	@ sp needed
	pop	{r4, r5, r6, r7, r8, r9, pc}
.LVL1644:
.L1552:
	.cfi_restore_state
.LBB2179:
.LBB2170:
.LBB2167:
.LBB2164:
	.loc 1 754 0
	mov	r1, r5
	mov	r0, r8
	.loc 1 752 0
	ldr	r4, [r7, #24]
.LVL1645:
	.loc 1 754 0
	bl	strcmp
.LVL1646:
	cbz	r0, .L1530
	.loc 1 758 0
	cmp	r4, #0
	beq	.L1535
.L1523:
	.loc 1 759 0
	mov	r0, r4
	add	r2, sp, #4
.LVL1647:
	mov	r1, r5
	bl	_xml_element_count
.LVL1648:
	.loc 1 760 0
	ldr	r4, [r4, #32]
.LVL1649:
	.loc 1 758 0
	cmp	r4, #0
	bne	.L1523
.LVL1650:
.LBE2164:
.LBE2167:
	.loc 1 771 0
	ldr	r0, [sp, #4]
.LVL1651:
.LBE2170:
.LBE2179:
	.loc 1 800 0
	cbz	r0, .L1524
.L1534:
.LVL1652:
.LBB2180:
.LBB2181:
	.loc 1 51 0
	lsls	r0, r0, #2
.LVL1653:
	bl	pvPortMalloc
.LVL1654:
	ldr	r8, [r7]
.LBE2181:
.LBE2180:
	mov	r9, r0
	.loc 1 801 0
	str	r0, [r6, #4]
	b	.L1525
.LVL1655:
.L1553:
.LBB2182:
.LBB2177:
	.loc 1 779 0
	mov	r0, r8
	mov	r1, r5
	.loc 1 777 0
	ldr	r4, [r7, #24]
.LVL1656:
	.loc 1 779 0
	bl	strcmp
.LVL1657:
	cbz	r0, .L1532
.L1533:
	.loc 1 784 0
	cmp	r4, #0
	beq	.L1540
.L1529:
	.loc 1 785 0
	mov	r0, r4
	mov	r2, r6
	mov	r1, r5
	bl	_xml_find_element
.LVL1658:
	.loc 1 786 0
	ldr	r4, [r4, #32]
.LVL1659:
	.loc 1 784 0
	cmp	r4, #0
	bne	.L1529
.LBE2177:
.LBE2182:
	.loc 1 808 0
	mov	r0, r6
	add	sp, sp, #12
	.cfi_remember_state
	.cfi_def_cfa_offset 28
	@ sp needed
	pop	{r4, r5, r6, r7, r8, r9, pc}
.LVL1660:
.L1532:
	.cfi_restore_state
.LBB2183:
.LBB2178:
	.loc 1 780 0
	ldr	r3, [r6]
	.loc 1 781 0
	adds	r2, r3, #1
	.loc 1 780 0
	str	r7, [r9, r3, lsl #2]
	.loc 1 781 0
	str	r2, [r6]
	b	.L1533
.LVL1661:
.L1530:
.LBE2178:
.LBE2183:
.LBB2184:
.LBB2171:
.LBB2168:
.LBB2165:
	.loc 1 755 0
	movs	r0, #1
	str	r0, [sp, #4]
	.loc 1 758 0
	cmp	r4, #0
	bne	.L1523
	b	.L1534
.LVL1662:
.L1524:
	ldr	r8, [r7]
	b	.L1535
.LBE2165:
.LBE2168:
.LBE2171:
.LBE2184:
	.cfi_endproc
.LFE172:
	.size	xml_find_element, .-xml_find_element
	.section	.text.xml_find_path,"ax",%progbits
	.align	1
	.p2align 2,,3
	.global	xml_find_path
	.syntax unified
	.thumb
	.thumb_func
	.fpu softvfp
	.type	xml_find_path, %function
xml_find_path:
.LFB176:
	.loc 1 1010 0
	.cfi_startproc
	@ args = 0, pretend = 0, frame = 16
	@ frame_needed = 0, uses_anonymous_args = 0
.LVL1663:
	push	{r4, r5, r6, r7, r8, r9, r10, fp, lr}
	.cfi_def_cfa_offset 36
	.cfi_offset 4, -36
	.cfi_offset 5, -32
	.cfi_offset 6, -28
	.cfi_offset 7, -24
	.cfi_offset 8, -20
	.cfi_offset 9, -16
	.cfi_offset 10, -12
	.cfi_offset 11, -8
	.cfi_offset 14, -4
	mov	r4, r0
	sub	sp, sp, #20
	.cfi_def_cfa_offset 56
.LBB2214:
.LBB2215:
	.loc 1 51 0
	movs	r0, #8
.LVL1664:
.LBE2215:
.LBE2214:
	.loc 1 1010 0
	mov	r10, r1
.LBB2218:
.LBB2216:
	.loc 1 51 0
	bl	pvPortMalloc
.LVL1665:
.LBE2216:
.LBE2218:
	.loc 1 1015 0
	movs	r3, #0
.LBB2219:
.LBB2220:
.LBB2221:
.LBB2222:
.LBB2223:
	.loc 1 606 0
	ldr	r2, [r4]
.LBE2223:
.LBE2222:
.LBE2221:
.LBE2220:
.LBE2219:
.LBB2258:
.LBB2217:
	.loc 1 51 0
	mov	r6, r0
.LVL1666:
.LBE2217:
.LBE2258:
	.loc 1 1015 0
	str	r3, [r0]
.LVL1667:
.LBB2259:
.LBB2255:
	.loc 1 906 0
	str	r3, [sp, #12]
.LVL1668:
.LBB2252:
.LBB2225:
.LBB2224:
	.loc 1 606 0
	cbz	r2, .L1569
	.loc 1 606 0
	ldr	r5, [r4, #4]
	cbz	r5, .L1599
.LVL1669:
.L1569:
.LBE2224:
.LBE2225:
.LBE2252:
.LBE2255:
.LBE2259:
	.loc 1 1021 0
	movs	r3, #0
	str	r3, [r6, #4]
.L1570:
	.loc 1 1023 0
	mov	r0, r4
	mov	r1, r10
	mov	r2, r6
	bl	_xml_find_path
.LVL1670:
	.loc 1 1026 0
	mov	r0, r6
	add	sp, sp, #20
	.cfi_remember_state
	.cfi_def_cfa_offset 36
	@ sp needed
	pop	{r4, r5, r6, r7, r8, r9, r10, fp, pc}
.LVL1671:
.L1599:
	.cfi_restore_state
.LBB2260:
.LBB2256:
.LBB2253:
.LBB2226:
	.loc 1 815 0
	movs	r1, #47
	mov	r0, r10
	bl	strchr
.LVL1672:
	cmp	r0, #0
	beq	.L1569
.LVL1673:
.LBB2227:
	.loc 1 820 0
	add	fp, r0, #1
.LVL1674:
	.loc 1 821 0
	movs	r1, #58
	mov	r0, fp
	bl	strchr
.LVL1675:
	.loc 1 823 0
	movs	r1, #47
	.loc 1 821 0
	mov	r7, r0
.LVL1676:
	.loc 1 823 0
	mov	r0, fp
.LVL1677:
	bl	strchr
.LVL1678:
	mov	r8, r0
	cmp	r0, #0
	beq	.L1557
	.loc 1 824 0
	cbz	r7, .L1558
	cmp	r7, r0
	bcc	.L1600
.L1558:
.LVL1679:
	.loc 1 837 0
	sub	r5, r8, fp
.LVL1680:
.LBB2228:
.LBB2229:
	.loc 1 51 0
	adds	r0, r5, #1
.LVL1681:
	bl	pvPortMalloc
.LVL1682:
.LBE2229:
.LBE2228:
	.loc 1 839 0
	mov	r1, fp
	mov	r2, r5
.LBB2231:
.LBB2230:
	.loc 1 51 0
	mov	r7, r0
.LVL1683:
.LBE2230:
.LBE2231:
	.loc 1 839 0
	bl	memcpy
.LVL1684:
	.loc 1 840 0
	movs	r3, #0
	strb	r3, [r7, r5]
.LVL1685:
	.loc 1 849 0
	ldr	r0, [r4]
	mov	r1, r7
	bl	strcmp
.LVL1686:
	cbnz	r0, .L1562
	.loc 1 843 0
	ldr	r9, [r4, #8]
.LVL1687:
	.loc 1 854 0
	cmp	r9, #0
	bne	.L1562
.LBB2232:
	.loc 1 855 0
	ldr	r5, [r4, #24]
.LVL1688:
	.loc 1 857 0
	cbz	r5, .L1562
.LVL1689:
.L1564:
	.loc 1 858 0
	mov	r0, r5
	add	r2, sp, #12
.LVL1690:
	mov	r1, r8
	bl	_xml_path_count
.LVL1691:
	.loc 1 859 0
	ldr	r5, [r5, #32]
.LVL1692:
	.loc 1 857 0
	cmp	r5, #0
	bne	.L1564
.LVL1693:
.LBE2232:
	.loc 1 898 0
	cmp	r9, #0
	beq	.L1562
.LVL1694:
.L1575:
.LBB2233:
.LBB2234:
	.loc 1 56 0
	mov	r0, r9
	bl	vPortFree
.LVL1695:
.L1562:
.LBE2234:
.LBE2233:
.LBB2235:
.LBB2236:
	mov	r0, r7
	bl	vPortFree
.LVL1696:
.LBE2236:
.LBE2235:
.LBE2227:
.LBE2226:
.LBE2253:
	.loc 1 910 0
	ldr	r0, [sp, #12]
.LVL1697:
.LBE2256:
.LBE2260:
	.loc 1 1018 0
	cmp	r0, #0
	beq	.L1569
.LVL1698:
.LBB2261:
.LBB2262:
	.loc 1 51 0
	lsls	r0, r0, #2
.LVL1699:
	bl	pvPortMalloc
.LVL1700:
.LBE2262:
.LBE2261:
	.loc 1 1019 0
	str	r0, [r6, #4]
	b	.L1570
.LVL1701:
.L1600:
.LBB2263:
.LBB2257:
.LBB2254:
.LBB2251:
.LBB2250:
	.loc 1 825 0
	sub	r3, r7, fp
.LVL1702:
.LBB2237:
.LBB2238:
	.loc 1 51 0
	adds	r0, r3, #1
.LVL1703:
	str	r3, [sp]
	bl	pvPortMalloc
.LVL1704:
	mov	r9, r0
.LVL1705:
.LBE2238:
.LBE2237:
	.loc 1 830 0
	adds	r3, r7, #1
	.loc 1 827 0
	mov	r1, fp
	ldr	r2, [sp]
	.loc 1 830 0
	sub	fp, r8, r3
.LVL1706:
	str	r3, [sp, #4]
	.loc 1 827 0
	bl	memcpy
.LVL1707:
	.loc 1 828 0
	ldr	r3, [sp]
.LBB2239:
.LBB2240:
	.loc 1 51 0
	add	r0, fp, #1
.LVL1708:
.LBE2240:
.LBE2239:
	.loc 1 828 0
	strb	r5, [r9, r3]
.LBB2242:
.LBB2241:
	.loc 1 51 0
	bl	pvPortMalloc
.LVL1709:
	mov	r7, r0
.LVL1710:
.LBE2241:
.LBE2242:
	.loc 1 832 0
	ldr	r3, [sp, #4]
	mov	r2, fp
	mov	r1, r3
	bl	memcpy
.LVL1711:
	.loc 1 833 0
	strb	r5, [r7, fp]
.LVL1712:
	.loc 1 844 0
	ldr	r0, [r4, #8]
	cmp	r0, #0
	beq	.L1575
	mov	r1, r9
	bl	strcmp
.LVL1713:
	.loc 1 849 0
	mov	r1, r7
	.loc 1 844 0
	mov	r5, r0
.LVL1714:
	.loc 1 849 0
	ldr	r0, [r4]
.LVL1715:
	bl	strcmp
.LVL1716:
	cmp	r0, #0
	bne	.L1575
.LVL1717:
	.loc 1 854 0
	cmp	r5, #0
	bne	.L1575
.LBB2243:
	.loc 1 855 0
	ldr	r5, [r4, #24]
.LVL1718:
	.loc 1 857 0
	cmp	r5, #0
	bne	.L1564
	b	.L1575
.LVL1719:
.L1557:
.LBE2243:
	.loc 1 864 0
	cbz	r7, .L1566
	.loc 1 865 0
	sub	r5, r7, fp
.LVL1720:
.LBB2244:
.LBB2245:
	.loc 1 51 0
	adds	r0, r5, #1
.LVL1721:
	bl	pvPortMalloc
.LVL1722:
	mov	r9, r0
.LVL1723:
.LBE2245:
.LBE2244:
	.loc 1 867 0
	mov	r2, r5
	mov	r1, fp
	bl	memcpy
.LVL1724:
	.loc 1 868 0
	strb	r8, [r9, r5]
	.loc 1 870 0
	mov	r0, r10
	bl	strlen
.LVL1725:
	add	fp, r7, #1
.LVL1726:
	sub	r5, fp, r10
.LVL1727:
	subs	r5, r0, r5
.LVL1728:
.LBB2246:
.LBB2247:
	.loc 1 51 0
	adds	r0, r5, #1
.LVL1729:
	bl	pvPortMalloc
.LVL1730:
	mov	r7, r0
.LVL1731:
.LBE2247:
.LBE2246:
	.loc 1 872 0
	mov	r2, r5
	mov	r1, fp
	bl	memcpy
.LVL1732:
	.loc 1 873 0
	strb	r8, [r7, r5]
.LVL1733:
	.loc 1 884 0
	ldr	r0, [r4, #8]
	cmp	r0, #0
	beq	.L1575
	mov	r1, r9
	bl	strcmp
.LVL1734:
	.loc 1 889 0
	mov	r1, r7
	.loc 1 884 0
	mov	r5, r0
.LVL1735:
	.loc 1 889 0
	ldr	r0, [r4]
.LVL1736:
	bl	strcmp
.LVL1737:
	cmp	r0, #0
	bne	.L1575
.LVL1738:
	.loc 1 894 0
	cmp	r5, #0
	bne	.L1575
.LVL1739:
.L1573:
	.loc 1 895 0
	ldr	r3, [sp, #12]
	adds	r3, r3, #1
	str	r3, [sp, #12]
.LVL1740:
	.loc 1 898 0
	cmp	r9, #0
	bne	.L1575
	b	.L1562
.LVL1741:
.L1566:
	.loc 1 877 0
	mov	r0, r10
.LVL1742:
	bl	strlen
.LVL1743:
	sub	r5, fp, r10
	subs	r5, r0, r5
.LVL1744:
.LBB2248:
.LBB2249:
	.loc 1 51 0
	adds	r0, r5, #1
.LVL1745:
	bl	pvPortMalloc
.LVL1746:
	mov	r8, r0
.LVL1747:
.LBE2249:
.LBE2248:
	.loc 1 879 0
	mov	r1, fp
	mov	r2, r5
	bl	memcpy
.LVL1748:
	.loc 1 880 0
	strb	r7, [r8, r5]
.LVL1749:
	.loc 1 889 0
	ldr	r0, [r4]
	mov	r1, r8
	.loc 1 883 0
	ldr	r9, [r4, #8]
.LVL1750:
	.loc 1 889 0
	bl	strcmp
.LVL1751:
	cbnz	r0, .L1597
.LVL1752:
	.loc 1 894 0
	mov	r7, r8
.LVL1753:
	cmp	r9, #0
	beq	.L1573
.LVL1754:
.L1597:
	mov	r7, r8
	b	.L1562
.LBE2250:
.LBE2251:
.LBE2254:
.LBE2257:
.LBE2263:
	.cfi_endproc
.LFE176:
	.size	xml_find_path, .-xml_find_path
	.section	.text.xml_delete_set,"ax",%progbits
	.align	1
	.p2align 2,,3
	.global	xml_delete_set
	.syntax unified
	.thumb
	.thumb_func
	.fpu softvfp
	.type	xml_delete_set, %function
xml_delete_set:
.LFB177:
	.loc 1 1029 0
	.cfi_startproc
	@ args = 0, pretend = 0, frame = 0
	@ frame_needed = 0, uses_anonymous_args = 0
.LVL1755:
	push	{r4, lr}
	.cfi_def_cfa_offset 8
	.cfi_offset 4, -8
	.cfi_offset 14, -4
	.loc 1 1029 0
	mov	r4, r0
	.loc 1 1030 0
	ldr	r0, [r0, #4]
.LVL1756:
	cbz	r0, .L1602
.LVL1757:
.LBB2264:
.LBB2265:
	.loc 1 56 0
	bl	vPortFree
.LVL1758:
.L1602:
.LBE2265:
.LBE2264:
.LBB2266:
.LBB2267:
	mov	r0, r4
.LBE2267:
.LBE2266:
	.loc 1 1034 0
	pop	{r4, lr}
	.cfi_restore 14
	.cfi_restore 4
	.cfi_def_cfa_offset 0
.LVL1759:
.LBB2269:
.LBB2268:
	.loc 1 56 0
	b	vPortFree
.LVL1760:
.LBE2268:
.LBE2269:
	.cfi_endproc
.LFE177:
	.size	xml_delete_set, .-xml_delete_set
	.section	.text.xml_dump_tree,"ax",%progbits
	.align	1
	.p2align 2,,3
	.global	xml_dump_tree
	.syntax unified
	.thumb
	.thumb_func
	.fpu softvfp
	.type	xml_dump_tree, %function
xml_dump_tree:
.LFB180:
	.loc 1 1177 0
	.cfi_startproc
	@ args = 0, pretend = 0, frame = 0
	@ frame_needed = 0, uses_anonymous_args = 0
.LVL1761:
	.loc 1 1181 0
	movs	r2, #0
	.loc 1 1177 0
	push	{r3, r4, r5, r6, r7, lr}
	.cfi_def_cfa_offset 24
	.cfi_offset 3, -24
	.cfi_offset 4, -20
	.cfi_offset 5, -16
	.cfi_offset 6, -12
	.cfi_offset 7, -8
	.cfi_offset 14, -4
	.loc 1 1181 0
	mov	r1, r2
	.loc 1 1177 0
	mov	r6, r0
	.loc 1 1181 0
	bl	xml_tree_size
.LVL1762:
	.loc 1 1182 0
	adds	r4, r0, #1
.LVL1763:
.LBB2283:
.LBB2284:
	.loc 1 51 0
	mov	r0, r4
.LVL1764:
	bl	pvPortMalloc
.LVL1765:
.LBE2284:
.LBE2283:
	.loc 1 1183 0
	mov	r2, r4
	movs	r1, #0
.LBB2286:
.LBB2285:
	.loc 1 51 0
	mov	r5, r0
.LVL1766:
.LBE2285:
.LBE2286:
	.loc 1 1183 0
	bl	memset
.LVL1767:
.LBB2287:
.LBB2288:
.LBB2289:
.LBB2290:
	.loc 1 616 0
	ldr	r3, [r6]
	cmp	r3, #0
	beq	.L1633
.LVL1768:
.LBE2290:
.LBE2289:
.LBB2292:
.LBB2293:
	.loc 1 606 0
	ldr	r3, [r6, #4]
	cbz	r3, .L1634
.LVL1769:
.L1623:
.LBE2293:
.LBE2292:
.LBE2288:
.LBE2287:
	.loc 1 1187 0
	mov	r0, r5
	pop	{r3, r4, r5, r6, r7, pc}
.LVL1770:
.L1634:
.LBB2302:
.LBB2298:
.LBB2294:
	.loc 1 1103 0
	ldr	r3, [r6, #8]
	.loc 1 1100 0
	ldr	r4, [r6, #24]
.LVL1771:
	.loc 1 1103 0
	cmp	r3, #0
	beq	.L1635
	ldr	r3, [r6, #16]
	.loc 1 1104 0
	mov	r0, r5
	.loc 1 1103 0
	cmp	r3, #0
	beq	.L1612
.LVL1772:
	.loc 1 1104 0
	bl	strlen
.LVL1773:
	mov	r3, r0
	ldr	r2, .L1638
	adds	r0, r0, #1
	ldrh	r2, [r2]	@ unaligned
	.loc 1 1105 0
	add	r0, r0, r5
	.loc 1 1104 0
	strh	r2, [r5, r3]	@ unaligned
	.loc 1 1105 0
	ldr	r1, [r6, #8]
	bl	stpcpy
.LVL1774:
	mov	r3, r0
	.loc 1 1106 0
	ldr	r2, .L1638+4
	.loc 1 1107 0
	adds	r0, r0, #1
	.loc 1 1106 0
	ldrh	r2, [r2]	@ unaligned
	.loc 1 1110 0
	ldr	r7, .L1638+8
	.loc 1 1106 0
	strh	r2, [r3]	@ unaligned
	.loc 1 1107 0
	ldr	r1, [r6]
	bl	stpcpy
.LVL1775:
	.loc 1 1108 0
	ldr	r2, .L1638+12
	.loc 1 1107 0
	mov	r3, r0
	.loc 1 1108 0
	ldrh	r2, [r2]	@ unaligned
	.loc 1 1109 0
	adds	r0, r0, #1
.L1627:
	.loc 1 1108 0
	strh	r2, [r3]	@ unaligned
	.loc 1 1109 0
	ldr	r1, [r6, #16]
	bl	stpcpy
.LVL1776:
	.loc 1 1110 0
	ldrh	r3, [r7]	@ unaligned
	strh	r3, [r0]	@ unaligned
.L1628:
.LVL1777:
	.loc 1 1132 0
	cbz	r4, .L1636
.L1618:
	.loc 1 1145 0
	movs	r3, #0
	mov	r0, r4
	mov	r1, r5
	mov	r2, r3
	bl	_xml_dump_tree
.LVL1778:
	.loc 1 1146 0
	ldr	r4, [r4, #32]
.LVL1779:
	.loc 1 1132 0
	cmp	r4, #0
	bne	.L1618
.L1636:
	.loc 1 1161 0
	ldr	r3, [r6, #8]
	cmp	r3, #0
	beq	.L1637
	.loc 1 1162 0
	mov	r0, r5
	bl	strlen
.LVL1780:
	ldr	r3, .L1638+16
	adds	r2, r5, r0
	ldrh	r1, [r3]	@ unaligned
	ldrb	r3, [r3, #2]	@ zero_extendqisi2
	strh	r1, [r5, r0]	@ unaligned
	strb	r3, [r2, #2]
	adds	r0, r0, #2
	.loc 1 1163 0
	ldr	r1, [r6, #8]
	add	r0, r0, r5
	bl	stpcpy
.LVL1781:
	mov	r3, r0
	.loc 1 1164 0
	ldr	r2, .L1638+4
	.loc 1 1165 0
	adds	r0, r0, #1
	.loc 1 1164 0
	ldrh	r2, [r2]	@ unaligned
	strh	r2, [r3]	@ unaligned
	.loc 1 1165 0
	ldr	r1, [r6]
	bl	stpcpy
.LVL1782:
	.loc 1 1166 0
	ldrh	r3, [r7]	@ unaligned
	strh	r3, [r0]	@ unaligned
.LBE2294:
.LBE2298:
.LBE2302:
	.loc 1 1187 0
	mov	r0, r5
	pop	{r3, r4, r5, r6, r7, pc}
.LVL1783:
.L1633:
.LBB2303:
.LBB2299:
.LBB2295:
.LBB2291:
	.loc 1 616 0
	ldr	r1, [r6, #4]
	cmp	r1, #0
	beq	.L1623
.LVL1784:
.LBE2291:
.LBE2295:
	.loc 1 1097 0
	mov	r0, r5
	bl	strcat
.LVL1785:
.LBE2299:
.LBE2303:
	.loc 1 1187 0
	mov	r0, r5
	pop	{r3, r4, r5, r6, r7, pc}
.LVL1786:
.L1612:
.LBB2304:
.LBB2300:
.LBB2296:
	.loc 1 1113 0
	bl	strlen
.LVL1787:
	mov	r3, r0
	ldr	r2, .L1638
	adds	r0, r0, #1
	ldrh	r2, [r2]	@ unaligned
	.loc 1 1114 0
	add	r0, r0, r5
	.loc 1 1113 0
	strh	r2, [r5, r3]	@ unaligned
	.loc 1 1114 0
	ldr	r1, [r6, #8]
	bl	stpcpy
.LVL1788:
	mov	r3, r0
	.loc 1 1115 0
	ldr	r2, .L1638+4
	.loc 1 1116 0
	adds	r0, r0, #1
	.loc 1 1115 0
	ldrh	r2, [r2]	@ unaligned
	.loc 1 1117 0
	ldr	r7, .L1638+8
	.loc 1 1115 0
	strh	r2, [r3]	@ unaligned
	.loc 1 1116 0
	ldr	r1, [r6]
	bl	stpcpy
.LVL1789:
	.loc 1 1117 0
	ldrh	r3, [r7]	@ unaligned
	strh	r3, [r0]	@ unaligned
	b	.L1628
.LVL1790:
.L1637:
	.loc 1 1169 0
	mov	r0, r5
	bl	strlen
.LVL1791:
	ldr	r3, .L1638+16
	adds	r2, r5, r0
	ldrh	r1, [r3]	@ unaligned
	ldrb	r3, [r3, #2]	@ zero_extendqisi2
	strh	r1, [r5, r0]	@ unaligned
	strb	r3, [r2, #2]
	adds	r0, r0, #2
	.loc 1 1170 0
	ldr	r1, [r6]
	add	r0, r0, r5
	bl	stpcpy
.LVL1792:
	.loc 1 1171 0
	ldrh	r3, [r7]	@ unaligned
	strh	r3, [r0]	@ unaligned
.LBE2296:
.LBE2300:
.LBE2304:
	.loc 1 1187 0
	mov	r0, r5
	pop	{r3, r4, r5, r6, r7, pc}
.LVL1793:
.L1635:
.LBB2305:
.LBB2301:
.LBB2297:
	.loc 1 1119 0
	ldr	r3, [r6, #16]
	.loc 1 1120 0
	mov	r0, r5
	.loc 1 1119 0
	cbz	r3, .L1617
.LVL1794:
	.loc 1 1120 0
	bl	strlen
.LVL1795:
	mov	r3, r0
	ldr	r2, .L1638
	adds	r0, r0, #1
	ldrh	r2, [r2]	@ unaligned
	.loc 1 1121 0
	add	r0, r0, r5
	.loc 1 1120 0
	strh	r2, [r5, r3]	@ unaligned
	.loc 1 1121 0
	ldr	r1, [r6]
	bl	stpcpy
.LVL1796:
	.loc 1 1122 0
	ldr	r2, .L1638+12
	.loc 1 1121 0
	mov	r3, r0
	.loc 1 1122 0
	ldrh	r2, [r2]	@ unaligned
	.loc 1 1123 0
	adds	r0, r0, #1
	.loc 1 1124 0
	ldr	r7, .L1638+8
	b	.L1627
.LVL1797:
.L1617:
	.loc 1 1127 0
	bl	strlen
.LVL1798:
	mov	r3, r0
	ldr	r2, .L1638
	adds	r0, r0, #1
	ldrh	r2, [r2]	@ unaligned
	.loc 1 1128 0
	add	r0, r0, r5
	.loc 1 1127 0
	strh	r2, [r5, r3]	@ unaligned
	.loc 1 1128 0
	ldr	r1, [r6]
	bl	stpcpy
.LVL1799:
	.loc 1 1129 0
	ldr	r7, .L1638+8
	ldrh	r3, [r7]	@ unaligned
	strh	r3, [r0]	@ unaligned
	b	.L1628
.L1639:
	.align	2
.L1638:
	.word	.LC0
	.word	.LC1
	.word	.LC3
	.word	.LC2
	.word	.LC5
.LBE2297:
.LBE2301:
.LBE2305:
	.cfi_endproc
.LFE180:
	.size	xml_dump_tree, .-xml_dump_tree
	.section	.text.xml_dump_tree_ex,"ax",%progbits
	.align	1
	.p2align 2,,3
	.global	xml_dump_tree_ex
	.syntax unified
	.thumb
	.thumb_func
	.fpu softvfp
	.type	xml_dump_tree_ex, %function
xml_dump_tree_ex:
.LFB181:
	.loc 1 1190 0
	.cfi_startproc
	@ args = 0, pretend = 0, frame = 0
	@ frame_needed = 0, uses_anonymous_args = 0
.LVL1800:
	cmp	r3, #10
	push	{r3, r4, r5, r6, r7, r8, r9, lr}
	.cfi_def_cfa_offset 32
	.cfi_offset 3, -32
	.cfi_offset 4, -28
	.cfi_offset 5, -24
	.cfi_offset 6, -20
	.cfi_offset 7, -16
	.cfi_offset 8, -12
	.cfi_offset 9, -8
	.cfi_offset 14, -4
	it	ge
	movge	r3, #10
.LVL1801:
	.loc 1 1190 0
	mov	r5, r1
	mov	r6, r2
	.loc 1 1198 0
	movs	r1, #1
.LVL1802:
	mov	r2, r3
.LVL1803:
	mov	r7, r3
.LVL1804:
	.loc 1 1190 0
	mov	r8, r0
	.loc 1 1198 0
	bl	xml_tree_size
.LVL1805:
	mov	r9, r0
.LVL1806:
	.loc 1 1200 0
	cbz	r5, .L1641
	.loc 1 1201 0 discriminator 1
	mov	r0, r5
.LVL1807:
	.loc 1 1200 0 discriminator 1
	cbnz	r6, .L1646
	.loc 1 1207 0
	bl	strlen
.LVL1808:
	add	r9, r9, #1
.LVL1809:
.LBB2306:
.LBB2307:
	.loc 1 51 0
	add	r0, r0, r9
.LVL1810:
	bl	pvPortMalloc
.LVL1811:
	mov	r4, r0
.LBE2307:
.LBE2306:
	.loc 1 1208 0
	mov	r0, r5
	bl	strlen
.LVL1812:
	mov	r1, r6
	add	r2, r0, r9
	mov	r0, r4
	bl	memset
.LVL1813:
	.loc 1 1209 0
	mov	r1, r5
	mov	r0, r4
	bl	strcpy
.LVL1814:
.L1645:
	.loc 1 1210 0
	mov	r0, r5
	bl	strlen
.LVL1815:
	mov	r3, r7
	adds	r1, r4, r0
	mov	r2, r6
	mov	r0, r8
	bl	_xml_dump_tree
.LVL1816:
	mov	r0, r4
	pop	{r3, r4, r5, r6, r7, r8, r9, pc}
.LVL1817:
.L1641:
	.loc 1 1213 0
	add	r9, r0, #1
.LVL1818:
.LBB2308:
.LBB2309:
	.loc 1 51 0
	mov	r0, r9
.LVL1819:
	bl	pvPortMalloc
.LVL1820:
	mov	r4, r0
.LVL1821:
.LBE2309:
.LBE2308:
	.loc 1 1214 0
	mov	r2, r9
	mov	r1, r5
	bl	memset
.LVL1822:
	.loc 1 1215 0
	mov	r0, r8
	mov	r3, r7
	mov	r2, r6
	mov	r1, r4
	bl	_xml_dump_tree
.LVL1823:
	mov	r0, r4
.LVL1824:
	.loc 1 1219 0
	pop	{r3, r4, r5, r6, r7, r8, r9, pc}
.LVL1825:
.L1646:
	.loc 1 1201 0
	bl	strlen
.LVL1826:
	add	r9, r9, #2
.LVL1827:
.LBB2310:
.LBB2311:
	.loc 1 51 0
	add	r0, r0, r9
.LVL1828:
	bl	pvPortMalloc
.LVL1829:
	mov	r4, r0
.LBE2311:
.LBE2310:
	.loc 1 1202 0
	mov	r0, r5
	bl	strlen
.LVL1830:
	movs	r1, #0
	add	r2, r0, r9
	mov	r0, r4
	bl	memset
.LVL1831:
	.loc 1 1203 0
	mov	r2, r5
	mov	r0, r4
	ldr	r1, .L1647
	bl	sprintf
.LVL1832:
	b	.L1645
.L1648:
	.align	2
.L1647:
	.word	.LC24
	.cfi_endproc
.LFE181:
	.size	xml_dump_tree_ex, .-xml_dump_tree_ex
	.section	.text.xml_set_attribute,"ax",%progbits
	.align	1
	.p2align 2,,3
	.global	xml_set_attribute
	.syntax unified
	.thumb
	.thumb_func
	.fpu softvfp
	.type	xml_set_attribute, %function
xml_set_attribute:
.LFB182:
	.loc 1 1222 0
	.cfi_startproc
	@ args = 0, pretend = 0, frame = 0
	@ frame_needed = 0, uses_anonymous_args = 0
.LVL1833:
	push	{r4, r5, r6, r7, r8, r9, r10, fp, lr}
	.cfi_def_cfa_offset 36
	.cfi_offset 4, -36
	.cfi_offset 5, -32
	.cfi_offset 6, -28
	.cfi_offset 7, -24
	.cfi_offset 8, -20
	.cfi_offset 9, -16
	.cfi_offset 10, -12
	.cfi_offset 11, -8
	.cfi_offset 14, -4
	mov	r4, r0
	.loc 1 1225 0
	ldr	r0, [r0, #8]
.LVL1834:
	.loc 1 1222 0
	sub	sp, sp, #12
	.cfi_def_cfa_offset 48
	.loc 1 1222 0
	mov	r6, r2
	mov	r8, r1
	.loc 1 1225 0
	cmp	r0, #0
	beq	.L1650
	.loc 1 1226 0
	bl	strlen
.LVL1835:
.LBB2397:
.LBB2398:
	.loc 1 51 0
	adds	r0, r0, #7
.LVL1836:
	bl	pvPortMalloc
.LVL1837:
	mov	r5, r0
.LBE2398:
.LBE2397:
	.loc 1 1227 0
	ldr	r1, .L1860
	ldr	r2, [r4, #8]
	bl	sprintf
.LVL1838:
	.loc 1 1229 0
	mov	r1, r8
	mov	r0, r5
	bl	strcmp
.LVL1839:
	cmp	r0, #0
	beq	.L1852
.L1651:
.LVL1840:
.LBB2399:
.LBB2400:
	.loc 1 56 0
	mov	r0, r5
	bl	vPortFree
.LVL1841:
.L1653:
.LBE2400:
.LBE2399:
	.loc 1 1248 0
	mov	r0, r8
	bl	strlen
.LVL1842:
	mov	r5, r0
	mov	r0, r6
	bl	strlen
.LVL1843:
	add	r0, r0, r5
.LVL1844:
.LBB2401:
.LBB2402:
	.loc 1 51 0
	adds	r0, r0, #4
.LVL1845:
	bl	pvPortMalloc
.LVL1846:
.LBE2402:
.LBE2401:
	.loc 1 1250 0
	movs	r1, #34
.LBB2404:
.LBB2403:
	.loc 1 51 0
	mov	r5, r0
.LBE2403:
.LBE2404:
	.loc 1 1250 0
	mov	r0, r6
	bl	strchr
.LVL1847:
	.loc 1 1251 0
	mov	r3, r6
	mov	r2, r8
	.loc 1 1250 0
	cmp	r0, #0
	beq	.L1655
.LVL1848:
	.loc 1 1251 0
	ldr	r1, .L1860+4
	mov	r0, r5
	bl	sprintf
.LVL1849:
.L1656:
	.loc 1 1255 0
	ldr	r3, [r4, #16]
	cmp	r3, #0
	beq	.L1657
.LVL1850:
.LBB2405:
	.loc 1 1259 0
	mov	r0, r8
	bl	strlen
.LVL1851:
.LBB2406:
.LBB2407:
	.loc 1 51 0
	adds	r0, r0, #4
.LVL1852:
	bl	pvPortMalloc
.LVL1853:
.LBE2407:
.LBE2406:
	.loc 1 1260 0
	mov	r2, r8
	ldr	r1, .L1860+8
.LBB2409:
.LBB2408:
	.loc 1 51 0
	mov	r6, r0
.LVL1854:
.LBE2408:
.LBE2409:
	.loc 1 1260 0
	bl	sprintf
.LVL1855:
	.loc 1 1261 0
	mov	r0, r8
	bl	strlen
.LVL1856:
.LBB2410:
.LBB2411:
	.loc 1 51 0
	adds	r0, r0, #4
.LVL1857:
	bl	pvPortMalloc
.LVL1858:
.LBE2411:
.LBE2410:
	.loc 1 1262 0
	mov	r2, r8
	ldr	r1, .L1860+12
.LBB2413:
.LBB2412:
	.loc 1 51 0
	mov	r7, r0
.LBE2412:
.LBE2413:
	.loc 1 1262 0
	bl	sprintf
.LVL1859:
.LBB2414:
.LBB2415:
	.loc 1 28 0
	ldrb	r0, [r6]	@ zero_extendqisi2
.LBE2415:
.LBE2414:
	.loc 1 1264 0
	ldr	r8, [r4, #16]
.LVL1860:
.LBB2418:
.LBB2416:
	.loc 1 28 0
	cmp	r0, #0
	bne	.L1853
.LVL1861:
.LBE2416:
.LBE2418:
	.loc 1 1264 0
	cmp	r8, #0
	beq	.L1659
.LBB2419:
.LBB2420:
	.loc 1 66 0
	mov	r9, r0
.LBE2420:
.LBE2419:
	.loc 1 1264 0
	mov	r10, r8
.LVL1862:
.L1665:
	.loc 1 1270 0
	mov	r0, r6
	bl	strlen
.LVL1863:
	movs	r1, #39
	add	r0, r0, r10
	bl	strchr
.LVL1864:
	mov	fp, r0
	.loc 1 1271 0
	mov	r0, r8
	bl	strlen
.LVL1865:
	add	r0, r0, r8
	.loc 1 1270 0
	add	r8, fp, #1
	.loc 1 1271 0
	sub	r0, r0, r8
.LVL1866:
.LBB2430:
.LBB2431:
	.loc 1 65 0
	cmp	r8, #0
	beq	.L1683
	cmp	r0, #0
	beq	.L1683
.LVL1867:
	.loc 1 68 0
	add	r1, r8, r0
	cmp	r8, r1
	bcs	.L1684
	.loc 1 69 0
	ldrb	r3, [fp, #1]	@ zero_extendqisi2
	cmp	r3, #32
	it	eq
	addeq	r3, fp, #2
	beq	.L1687
	b	.L1763
.LVL1868:
.L1688:
	ldrb	r2, [r8]	@ zero_extendqisi2
	cmp	r2, #32
	bne	.L1763
.L1687:
.LVL1869:
	.loc 1 68 0
	cmp	r1, r3
	mov	r8, r3
.LVL1870:
	add	r3, r3, #1
.LVL1871:
	bne	.L1688
.L1684:
	.loc 1 71 0
	cmp	r1, r8
	beq	.L1683
.L1763:
	.loc 1 74 0
	add	r10, fp, r0
.LVL1872:
	cmp	r10, r8
	bcc	.L1694
	.loc 1 75 0
	ldrb	r3, [fp, r0]	@ zero_extendqisi2
	cmp	r3, #32
	bne	.L1690
	add	r3, r10, #-1
	add	r1, r8, #-1
	b	.L1692
.L1693:
	ldrb	r2, [r10]	@ zero_extendqisi2
	cmp	r2, #32
	bne	.L1690
.L1692:
.LVL1873:
	.loc 1 74 0
	cmp	r1, r3
	mov	r10, r3
.LVL1874:
	add	r3, r3, #-1
.LVL1875:
	bne	.L1693
.L1694:
	.loc 1 84 0
	add	r10, r10, #1
.LVL1876:
	sub	r10, r10, r8
.LVL1877:
.LBB2432:
.LBB2433:
	.loc 1 51 0
	add	r0, r10, #1
.LVL1878:
	bl	pvPortMalloc
.LVL1879:
.LBE2433:
.LBE2432:
	.loc 1 86 0
	mov	r2, r10
	mov	r1, r8
	bl	memcpy
.LVL1880:
	.loc 1 87 0
	movs	r2, #0
	mov	r8, r0
.LVL1881:
	strb	r2, [r0, r10]
.LVL1882:
.L1695:
.LBE2431:
.LBE2430:
	.loc 1 1295 0
	cmp	r9, #0
	beq	.L1708
	.loc 1 1296 0
	mov	r0, r9
	bl	strlen
.LVL1883:
	mov	r10, r0
	mov	r0, r5
	bl	strlen
.LVL1884:
	mov	fp, r0
	mov	r0, r8
	bl	strlen
.LVL1885:
	add	r10, r10, fp
.LVL1886:
	add	r10, r10, #3
.LBB2435:
.LBB2436:
	.loc 1 51 0
	add	r0, r0, r10
	bl	pvPortMalloc
.LVL1887:
.LBE2436:
.LBE2435:
	.loc 1 1297 0
	str	r8, [sp]
	mov	r3, r5
	mov	r2, r9
	ldr	r1, .L1860+16
.LBB2438:
.LBB2437:
	.loc 1 51 0
	mov	r10, r0
.LBE2437:
.LBE2438:
	.loc 1 1297 0
	bl	sprintf
.LVL1888:
.L1756:
.LBB2439:
.LBB2440:
	.loc 1 56 0
	mov	r0, r6
	bl	vPortFree
.LVL1889:
.LBE2440:
.LBE2439:
.LBB2442:
.LBB2443:
	mov	r0, r7
	bl	vPortFree
.LVL1890:
.LBE2443:
.LBE2442:
.LBB2445:
.LBB2446:
	mov	r0, r9
	bl	vPortFree
.LVL1891:
.L1761:
.LBE2446:
.LBE2445:
	.loc 1 1319 0
	cmp	r8, #0
	beq	.L1757
.LVL1892:
.LBB2447:
.LBB2448:
	.loc 1 56 0
	mov	r0, r8
	bl	vPortFree
.LVL1893:
.L1757:
.LBE2448:
.LBE2447:
.LBB2449:
.LBB2450:
	mov	r0, r5
	bl	vPortFree
.LVL1894:
.LBE2450:
.LBE2449:
.LBB2451:
.LBB2452:
	ldr	r0, [r4, #16]
	bl	vPortFree
.LVL1895:
.LBE2452:
.LBE2451:
	.loc 1 1322 0
	str	r10, [r4, #16]
.LBE2405:
	.loc 1 1327 0
	add	sp, sp, #12
	.cfi_remember_state
	.cfi_def_cfa_offset 36
	@ sp needed
	pop	{r4, r5, r6, r7, r8, r9, r10, fp, pc}
.LVL1896:
.L1853:
	.cfi_restore_state
.LBB2528:
.LBB2453:
.LBB2417:
	.loc 1 31 0
	ldrb	lr, [r8]	@ zero_extendqisi2
	mov	r2, lr
	cmp	lr, #0
	beq	.L1659
	mov	r10, r8
	b	.L1664
.LVL1897:
.L1660:
	ldrb	r2, [r10, #1]!	@ zero_extendqisi2
.LVL1898:
	cmp	r2, #0
	beq	.L1659
.LVL1899:
.L1664:
	.loc 1 32 0
	cmp	r0, r2
	bne	.L1660
	mov	r1, r6
	mov	r2, r10
	mov	r3, r0
.L1661:
.LVL1900:
	.loc 1 40 0
	ldrb	ip, [r2], #1	@ zero_extendqisi2
.LVL1901:
	cmp	ip, r3
	bne	.L1660
	.loc 1 37 0
	ldrb	r3, [r1, #1]!	@ zero_extendqisi2
	cmp	r3, #0
	bne	.L1661
.LVL1902:
.LBE2417:
.LBE2453:
.LBB2454:
.LBB2427:
	.loc 1 65 0
	subs	r1, r10, r8
.LVL1903:
	beq	.L1773
.LVL1904:
	.loc 1 68 0
	cmp	r10, r8
	bls	.L1771
	.loc 1 69 0
	cmp	lr, #32
	it	eq
	addeq	r3, r8, #1
	beq	.L1675
	b	.L1854
.LVL1905:
.L1676:
	ldrb	r2, [fp]	@ zero_extendqisi2
	cmp	r2, #32
	bne	.L1762
.LVL1906:
.L1675:
	.loc 1 68 0
	cmp	r3, r10
	mov	fp, r3
.LVL1907:
	add	r3, r3, #1
.LVL1908:
	bne	.L1676
.L1672:
	.loc 1 71 0
	cmp	r10, fp
	beq	.L1773
.L1762:
	.loc 1 74 0
	subs	r3, r1, #1
	add	r9, r8, r3
.LVL1909:
	cmp	r9, fp
	bcc	.L1682
	.loc 1 75 0
	ldrb	r3, [r8, r3]	@ zero_extendqisi2
	cmp	r3, #32
	bne	.L1678
	add	r3, r9, #-1
	add	r1, fp, #-1
.LVL1910:
	b	.L1680
.L1681:
	ldrb	r2, [r9]	@ zero_extendqisi2
	cmp	r2, #32
	bne	.L1678
.L1680:
.LVL1911:
	.loc 1 74 0
	cmp	r3, r1
	mov	r9, r3
.LVL1912:
	add	r3, r3, #-1
.LVL1913:
	bne	.L1681
.L1682:
	.loc 1 84 0
	add	r8, r9, #1
.LVL1914:
	sub	r8, r8, fp
.LVL1915:
.LBB2421:
.LBB2422:
	.loc 1 51 0
	add	r0, r8, #1
.LVL1916:
	bl	pvPortMalloc
.LVL1917:
.LBE2422:
.LBE2421:
	.loc 1 86 0
	mov	r2, r8
	mov	r1, fp
.LBB2424:
.LBB2423:
	.loc 1 51 0
	mov	r9, r0
.LVL1918:
.LBE2423:
.LBE2424:
	.loc 1 86 0
	bl	memcpy
.LVL1919:
	.loc 1 87 0
	movs	r2, #0
	strb	r2, [r9, r8]
	ldr	r8, [r4, #16]
.LVL1920:
	b	.L1665
.LVL1921:
.L1852:
.LBE2427:
.LBE2454:
.LBE2528:
	.loc 1 1230 0
	ldr	r0, [r4, #12]
	cbz	r0, .L1652
.LVL1922:
.LBB2529:
.LBB2530:
	.loc 1 56 0 discriminator 1
	bl	vPortFree
.LVL1923:
.L1652:
.LBE2530:
.LBE2529:
	.loc 1 1231 0
	mov	r0, r6
	bl	strlen
.LVL1924:
.LBB2531:
.LBB2532:
	.loc 1 51 0
	adds	r0, r0, #1
.LVL1925:
	bl	pvPortMalloc
.LVL1926:
.LBE2532:
.LBE2531:
	.loc 1 1232 0
	mov	r1, r6
	.loc 1 1231 0
	str	r0, [r4, #12]
	.loc 1 1232 0
	bl	strcpy
.LVL1927:
	b	.L1651
.L1657:
	.loc 1 1325 0
	str	r5, [r4, #16]
	.loc 1 1327 0
	add	sp, sp, #12
	.cfi_remember_state
	.cfi_def_cfa_offset 36
	@ sp needed
	pop	{r4, r5, r6, r7, r8, r9, r10, fp, pc}
.LVL1928:
.L1650:
	.cfi_restore_state
	.loc 1 1240 0
	ldr	r0, .L1860+20
	bl	strcmp
.LVL1929:
	cmp	r0, #0
	bne	.L1653
	.loc 1 1241 0
	ldr	r0, [r4, #12]
	cbz	r0, .L1654
.LVL1930:
.LBB2533:
.LBB2534:
	.loc 1 56 0 discriminator 1
	bl	vPortFree
.LVL1931:
.L1654:
.LBE2534:
.LBE2533:
	.loc 1 1242 0
	mov	r0, r6
	bl	strlen
.LVL1932:
.LBB2535:
.LBB2536:
	.loc 1 51 0
	adds	r0, r0, #1
.LVL1933:
	bl	pvPortMalloc
.LVL1934:
.LBE2536:
.LBE2535:
	.loc 1 1243 0
	mov	r1, r6
	.loc 1 1242 0
	str	r0, [r4, #12]
	.loc 1 1243 0
	bl	strcpy
.LVL1935:
	b	.L1653
.LVL1936:
.L1690:
.LBB2537:
.LBB2455:
.LBB2434:
	.loc 1 77 0
	cmp	r10, r8
	bne	.L1694
.LVL1937:
.L1847:
.LBE2434:
.LBE2455:
.LBB2456:
.LBB2457:
.LBB2458:
.LBB2459:
	.loc 1 51 0
	movs	r0, #2
	bl	pvPortMalloc
.LVL1938:
.LBE2459:
.LBE2458:
	.loc 1 81 0
	movs	r2, #0
	ldrb	r3, [r10]	@ zero_extendqisi2
	mov	r8, r0
	strb	r2, [r0, #1]
	.loc 1 80 0
	strb	r3, [r0]
	b	.L1695
.LVL1939:
.L1678:
.LBE2457:
.LBE2456:
.LBB2464:
.LBB2428:
	.loc 1 77 0
	cmp	r9, fp
	bne	.L1682
.LVL1940:
.LBB2425:
.LBB2426:
	.loc 1 51 0
	movs	r0, #2
	bl	pvPortMalloc
.LVL1941:
.LBE2426:
.LBE2425:
	.loc 1 81 0
	movs	r2, #0
	ldrb	r3, [r9]	@ zero_extendqisi2
	strb	r2, [r0, #1]
	.loc 1 80 0
	strb	r3, [r0]
	.loc 1 81 0
	mov	r9, r0
.LVL1942:
	ldr	r8, [r4, #16]
.LVL1943:
	b	.L1665
.LVL1944:
.L1703:
.LBE2428:
.LBE2464:
.LBB2465:
.LBB2466:
	.loc 1 77 0
	cmp	r10, r9
	bne	.L1707
.LVL1945:
.LBB2467:
.LBB2468:
	.loc 1 51 0
	movs	r0, #2
.LVL1946:
	bl	pvPortMalloc
.LVL1947:
.LBE2468:
.LBE2467:
	.loc 1 81 0
	movs	r2, #0
	mov	r8, r0
	ldrb	r3, [r10]	@ zero_extendqisi2
	strb	r2, [r0, #1]
	.loc 1 80 0
	strb	r3, [r0]
.LVL1948:
.L1708:
.LBE2466:
.LBE2465:
	.loc 1 1304 0
	mov	r0, r5
	bl	strlen
.LVL1949:
	mov	r9, r0
	mov	r0, r8
	bl	strlen
.LVL1950:
	add	r0, r0, r9
.LVL1951:
.LBB2471:
.LBB2472:
	.loc 1 51 0
	adds	r0, r0, #2
.LVL1952:
	bl	pvPortMalloc
.LVL1953:
.LBE2472:
.LBE2471:
	.loc 1 1305 0
	mov	r3, r8
	mov	r2, r5
	ldr	r1, .L1860+24
.LBB2474:
.LBB2473:
	.loc 1 51 0
	mov	r10, r0
.LBE2473:
.LBE2474:
	.loc 1 1305 0
	bl	sprintf
.LVL1954:
.L1768:
.LBB2475:
.LBB2441:
	.loc 1 56 0
	mov	r0, r6
	bl	vPortFree
.LVL1955:
.LBE2441:
.LBE2475:
.LBB2476:
.LBB2444:
	mov	r0, r7
	bl	vPortFree
.LVL1956:
	b	.L1761
.LVL1957:
.L1655:
.LBE2444:
.LBE2476:
.LBE2537:
	.loc 1 1253 0
	ldr	r1, .L1860+28
	mov	r0, r5
	bl	sprintf
.LVL1958:
	b	.L1656
.LVL1959:
.L1659:
.LBB2538:
.LBB2477:
.LBB2478:
	.loc 1 28 0 discriminator 1
	ldrb	r9, [r6, #1]	@ zero_extendqisi2
	cmp	r9, #0
	beq	.L1666
	.loc 1 31 0
	ldrb	lr, [r8]	@ zero_extendqisi2
	cmp	lr, #0
	beq	.L1667
	mov	ip, r8
	mov	r3, lr
	b	.L1671
.L1861:
	.align	2
.L1860:
	.word	.LC25
	.word	.LC27
	.word	.LC29
	.word	.LC30
	.word	.LC31
	.word	.LC26
	.word	.LC32
	.word	.LC28
.LVL1960:
.L1668:
	ldrb	r3, [ip, #1]!	@ zero_extendqisi2
.LVL1961:
	cbz	r3, .L1667
.LVL1962:
.L1671:
	.loc 1 32 0
	cmp	r3, r9
	bne	.L1668
	mov	r2, r6
	mov	r1, ip
	b	.L1670
.LVL1963:
.L1855:
	.loc 1 40 0
	ldrb	r0, [r1], #1	@ zero_extendqisi2
.LVL1964:
	cmp	r0, r3
	bne	.L1668
.LVL1965:
.L1670:
	.loc 1 37 0
	ldrb	r3, [r2, #1]!	@ zero_extendqisi2
.LVL1966:
	cmp	r3, #0
	bne	.L1855
.LVL1967:
.LBE2478:
.LBE2477:
	.loc 1 1264 0
	cmp	ip, r8
	beq	.L1666
.L1667:
.LVL1968:
.LBB2479:
.LBB2480:
	.loc 1 28 0
	ldrb	r3, [r7]	@ zero_extendqisi2
	cmp	r3, #0
	bne	.L1856
.LBE2480:
.LBE2479:
.LBB2483:
.LBB2484:
	.loc 1 66 0
	mov	r9, r3
.LBE2484:
.LBE2483:
.LBB2494:
.LBB2481:
	.loc 1 28 0
	mov	r10, r8
.LVL1969:
.L1709:
.LBE2481:
.LBE2494:
	.loc 1 1285 0
	mov	r0, r7
	bl	strlen
.LVL1970:
	movs	r1, #34
	add	r0, r0, r10
	bl	strchr
.LVL1971:
	mov	fp, r0
	.loc 1 1286 0
	mov	r0, r8
	bl	strlen
.LVL1972:
	.loc 1 1285 0
	add	r10, fp, #1
	.loc 1 1286 0
	add	r0, r0, r8
	sub	r0, r0, r10
.LVL1973:
.LBB2495:
.LBB2462:
	.loc 1 65 0
	cmp	r10, #0
	beq	.L1683
	cmp	r0, #0
	beq	.L1683
.LVL1974:
	.loc 1 68 0
	add	r1, r10, r0
	cmp	r10, r1
	bcs	.L1734
	.loc 1 69 0
	ldrb	r3, [fp, #1]	@ zero_extendqisi2
	cmp	r3, #32
	it	eq
	addeq	r3, fp, #2
	beq	.L1737
	b	.L1766
.LVL1975:
.L1738:
	ldrb	r2, [r10]	@ zero_extendqisi2
	cmp	r2, #32
	bne	.L1766
.L1737:
.LVL1976:
	.loc 1 68 0
	cmp	r1, r3
	mov	r10, r3
.LVL1977:
	add	r3, r3, #1
.LVL1978:
	bne	.L1738
.L1734:
	.loc 1 71 0
	cmp	r1, r10
	beq	.L1683
.L1766:
	.loc 1 74 0
	add	r2, fp, r0
.LVL1979:
	cmp	r2, r10
	bcc	.L1744
	.loc 1 75 0
	ldrb	r3, [fp, r0]	@ zero_extendqisi2
	cmp	r3, #32
	bne	.L1740
	subs	r3, r2, #1
	add	r0, r10, #-1
.LVL1980:
	b	.L1742
.L1743:
	ldrb	r1, [r2]	@ zero_extendqisi2
	cmp	r1, #32
	bne	.L1740
.L1742:
.LVL1981:
	.loc 1 74 0
	cmp	r3, r0
	mov	r2, r3
.LVL1982:
	add	r3, r3, #-1
.LVL1983:
	bne	.L1743
.L1744:
	.loc 1 84 0
	adds	r2, r2, #1
.LVL1984:
	sub	fp, r2, r10
.LVL1985:
.LBB2460:
.LBB2461:
	.loc 1 51 0
	add	r0, fp, #1
.LVL1986:
	bl	pvPortMalloc
.LVL1987:
.LBE2461:
.LBE2460:
	.loc 1 86 0
	mov	r2, fp
	mov	r1, r10
	bl	memcpy
.LVL1988:
	.loc 1 87 0
	movs	r2, #0
	mov	r8, r0
	strb	r2, [r0, fp]
	b	.L1695
.LVL1989:
.L1666:
.LBE2462:
.LBE2495:
	.loc 1 1275 0
	mov	r0, r6
	bl	strlen
.LVL1990:
	subs	r0, r0, #1
	movs	r1, #39
	add	r0, r0, r8
	bl	strchr
.LVL1991:
	mov	fp, r0
	.loc 1 1276 0
	mov	r0, r8
	bl	strlen
.LVL1992:
	.loc 1 1275 0
	add	r9, fp, #1
	.loc 1 1276 0
	add	r0, r0, r8
	sub	r0, r0, r9
.LVL1993:
.LBB2496:
.LBB2469:
	.loc 1 65 0
	cmp	r9, #0
	beq	.L1696
	cbz	r0, .L1696
.LVL1994:
	.loc 1 68 0
	add	r1, r9, r0
	cmp	r9, r1
	bcs	.L1697
	.loc 1 69 0
	ldrb	r3, [fp, #1]	@ zero_extendqisi2
	cmp	r3, #32
	it	eq
	addeq	r3, fp, #2
	beq	.L1700
	b	.L1764
.LVL1995:
.L1701:
	ldrb	r2, [r9]	@ zero_extendqisi2
	cmp	r2, #32
	bne	.L1764
.L1700:
.LVL1996:
	.loc 1 68 0
	cmp	r3, r1
	mov	r9, r3
.LVL1997:
	add	r3, r3, #1
.LVL1998:
	bne	.L1701
.L1697:
	.loc 1 71 0
	cmp	r9, r1
	bne	.L1764
.LVL1999:
.L1696:
.LBE2469:
.LBE2496:
	.loc 1 1308 0
	mov	r0, r5
	bl	strlen
.LVL2000:
.LBB2497:
.LBB2498:
	.loc 1 51 0
	adds	r0, r0, #1
.LVL2001:
	bl	pvPortMalloc
.LVL2002:
.LBE2498:
.LBE2497:
	.loc 1 1309 0
	mov	r1, r5
.LBB2500:
.LBB2499:
	.loc 1 51 0
	mov	r10, r0
.LBE2499:
.LBE2500:
	mov	r8, #0
	.loc 1 1309 0
	bl	strcpy
.LVL2003:
	b	.L1768
.LVL2004:
.L1764:
.LBB2501:
.LBB2470:
	.loc 1 74 0
	add	r10, fp, r0
.LVL2005:
	cmp	r10, r9
	bcc	.L1707
	.loc 1 75 0
	ldrb	r3, [fp, r0]	@ zero_extendqisi2
	cmp	r3, #32
	bne	.L1703
	add	r3, r10, #-1
	add	r1, r9, #-1
	b	.L1705
.L1706:
	ldrb	r2, [r10]	@ zero_extendqisi2
	cmp	r2, #32
	bne	.L1703
.L1705:
.LVL2006:
	.loc 1 74 0
	cmp	r3, r1
	mov	r10, r3
.LVL2007:
	add	r3, r3, #-1
.LVL2008:
	bne	.L1706
.L1707:
	.loc 1 84 0
	add	r10, r10, #1
.LVL2009:
	sub	r10, r10, r9
.LVL2010:
.L1848:
.LBE2470:
.LBE2501:
.LBB2502:
.LBB2503:
.LBB2504:
.LBB2505:
	.loc 1 51 0
	add	r0, r10, #1
.LVL2011:
	bl	pvPortMalloc
.LVL2012:
.LBE2505:
.LBE2504:
	.loc 1 86 0
	mov	r2, r10
	mov	r1, r9
	bl	memcpy
.LVL2013:
	.loc 1 87 0
	movs	r2, #0
	mov	r8, r0
	strb	r2, [r0, r10]
	b	.L1708
.LVL2014:
.L1683:
.LBE2503:
.LBE2502:
	.loc 1 1295 0
	cmp	r9, #0
	beq	.L1696
	.loc 1 1300 0
	mov	r0, r9
	bl	strlen
.LVL2015:
	mov	r8, r0
	mov	r0, r5
	bl	strlen
.LVL2016:
	add	r0, r0, r8
.LVL2017:
.LBB2509:
.LBB2510:
	.loc 1 51 0
	adds	r0, r0, #2
.LVL2018:
	bl	pvPortMalloc
.LVL2019:
.LBE2510:
.LBE2509:
	.loc 1 1301 0
	mov	r3, r5
	mov	r2, r9
	ldr	r1, .L1862
.LBB2512:
.LBB2511:
	.loc 1 51 0
	mov	r10, r0
.LBE2511:
.LBE2512:
	mov	r8, #0
	.loc 1 1301 0
	bl	sprintf
.LVL2020:
	b	.L1756
.LVL2021:
.L1856:
.LBB2513:
.LBB2482:
	.loc 1 31 0
	cmp	lr, #0
	beq	.L1710
	mov	fp, r8
	mov	r2, lr
	b	.L1715
.LVL2022:
.L1711:
	ldrb	r2, [fp, #1]!	@ zero_extendqisi2
.LVL2023:
	cmp	r2, #0
	beq	.L1857
.LVL2024:
.L1715:
	.loc 1 32 0
	cmp	r2, r3
	bne	.L1711
	mov	ip, r7
	mov	r1, fp
.L1712:
.LVL2025:
	.loc 1 40 0
	ldrb	r10, [r1], #1	@ zero_extendqisi2
.LVL2026:
	cmp	r10, r2
	bne	.L1711
	.loc 1 37 0
	ldrb	r2, [ip, #1]!	@ zero_extendqisi2
	cmp	r2, #0
	bne	.L1712
.LVL2027:
.LBE2482:
.LBE2513:
.LBB2514:
.LBB2491:
	.loc 1 65 0
	subs	r1, fp, r8
.LVL2028:
	beq	.L1775
.LVL2029:
	.loc 1 68 0
	cmp	fp, r8
	bls	.L1776
	.loc 1 69 0
	cmp	lr, #32
	it	eq
	addeq	r3, r8, #1
	beq	.L1726
	b	.L1858
.LVL2030:
.L1727:
	ldrb	r2, [r10]	@ zero_extendqisi2
	cmp	r2, #32
	bne	.L1765
.LVL2031:
.L1726:
	.loc 1 68 0
	cmp	fp, r3
	mov	r10, r3
.LVL2032:
	add	r3, r3, #1
.LVL2033:
	bne	.L1727
.L1723:
	.loc 1 71 0
	cmp	fp, r10
	beq	.L1778
.L1765:
	.loc 1 74 0
	subs	r3, r1, #1
	add	r2, r8, r3
.LVL2034:
	cmp	r2, r10
	bcc	.L1733
	.loc 1 75 0
	ldrb	r3, [r8, r3]	@ zero_extendqisi2
	cmp	r3, #32
	bne	.L1729
	subs	r3, r2, #1
	add	r0, r10, #-1
	b	.L1731
.LVL2035:
.L1732:
	ldrb	r1, [r2]	@ zero_extendqisi2
	cmp	r1, #32
	bne	.L1729
.L1731:
.LVL2036:
	.loc 1 74 0
	cmp	r0, r3
	mov	r2, r3
.LVL2037:
	add	r3, r3, #-1
.LVL2038:
	bne	.L1732
.L1733:
	.loc 1 84 0
	adds	r2, r2, #1
.LVL2039:
	sub	r8, r2, r10
.LVL2040:
.LBB2485:
.LBB2486:
	.loc 1 51 0
	add	r0, r8, #1
.LVL2041:
	bl	pvPortMalloc
.LVL2042:
.LBE2486:
.LBE2485:
	.loc 1 86 0
	mov	r2, r8
	mov	r1, r10
.LBB2488:
.LBB2487:
	.loc 1 51 0
	mov	r9, r0
.LVL2043:
.LBE2487:
.LBE2488:
	.loc 1 86 0
	bl	memcpy
.LVL2044:
	.loc 1 87 0
	movs	r2, #0
	strb	r2, [r9, r8]
	mov	r10, fp
.LVL2045:
	ldr	r8, [r4, #16]
.LVL2046:
	b	.L1709
.LVL2047:
.L1740:
.LBE2491:
.LBE2514:
.LBB2515:
.LBB2463:
	.loc 1 77 0
	cmp	r10, r2
	bne	.L1744
	b	.L1847
.LVL2048:
.L1729:
.LBE2463:
.LBE2515:
.LBB2516:
.LBB2492:
	cmp	r10, r2
	bne	.L1733
.LVL2049:
.LBB2489:
.LBB2490:
	.loc 1 51 0
	movs	r0, #2
	bl	pvPortMalloc
.LVL2050:
.LBE2490:
.LBE2489:
	.loc 1 81 0
	movs	r2, #0
	ldrb	r3, [r10]	@ zero_extendqisi2
	strb	r2, [r0, #1]
	.loc 1 80 0
	strb	r3, [r0]
	.loc 1 81 0
	mov	r10, fp
.LVL2051:
	mov	r9, r0
	ldr	r8, [r4, #16]
.LVL2052:
	b	.L1709
.LVL2053:
.L1771:
.LBE2492:
.LBE2516:
.LBB2517:
.LBB2429:
	.loc 1 68 0
	mov	fp, r8
	b	.L1672
.L1854:
	.loc 1 69 0
	mov	fp, r8
	b	.L1762
.LVL2054:
.L1773:
	.loc 1 72 0
	mov	r9, #0
	b	.L1665
.LVL2055:
.L1857:
.LBE2429:
.LBE2517:
.LBB2518:
.LBB2519:
	.loc 1 28 0
	ldrb	r9, [r7, #1]	@ zero_extendqisi2
	cmp	r9, #0
	beq	.L1722
	mov	ip, r8
	b	.L1720
.LVL2056:
.L1717:
	.loc 1 31 0
	ldrb	lr, [ip, #1]!	@ zero_extendqisi2
.LVL2057:
	cmp	lr, #0
	beq	.L1721
.LVL2058:
.L1720:
	.loc 1 32 0
	cmp	lr, r9
	bne	.L1717
	mov	r2, r7
	mov	r1, ip
	b	.L1719
.LVL2059:
.L1859:
	.loc 1 40 0
	ldrb	r0, [r1], #1	@ zero_extendqisi2
.LVL2060:
	cmp	r0, r3
	bne	.L1717
.LVL2061:
.L1719:
	.loc 1 37 0
	ldrb	r3, [r2, #1]!	@ zero_extendqisi2
.LVL2062:
	cmp	r3, #0
	bne	.L1859
.LVL2063:
.LBE2519:
.LBE2518:
	.loc 1 1279 0
	cmp	r8, ip
	beq	.L1722
.L1721:
.LVL2064:
	.loc 1 1312 0
	mov	r0, r8
	bl	strlen
.LVL2065:
	mov	r8, r0
	mov	r0, r5
	bl	strlen
.LVL2066:
	add	r0, r0, r8
.LVL2067:
.LBB2521:
.LBB2522:
	.loc 1 51 0
	adds	r0, r0, #2
.LVL2068:
	bl	pvPortMalloc
.LVL2069:
.LBE2522:
.LBE2521:
	.loc 1 1313 0
	mov	r3, r5
	ldr	r2, [r4, #16]
	ldr	r1, .L1862
.LBB2524:
.LBB2523:
	.loc 1 51 0
	mov	r10, r0
.LBE2523:
.LBE2524:
	.loc 1 1256 0
	mov	r8, #0
	.loc 1 1313 0
	bl	sprintf
.LVL2070:
	b	.L1768
.LVL2071:
.L1710:
.LBB2525:
.LBB2520:
	.loc 1 28 0
	ldrb	r3, [r7, #1]	@ zero_extendqisi2
	cmp	r3, #0
	bne	.L1721
.LVL2072:
.L1722:
.LBE2520:
.LBE2525:
	.loc 1 1290 0
	mov	r0, r7
	bl	strlen
.LVL2073:
	subs	r0, r0, #1
	movs	r1, #34
	add	r0, r0, r8
	bl	strchr
.LVL2074:
	mov	r10, r0
	.loc 1 1291 0
	mov	r0, r8
	bl	strlen
.LVL2075:
	.loc 1 1290 0
	add	r9, r10, #1
	.loc 1 1291 0
	add	r0, r0, r8
	sub	r0, r0, r9
.LVL2076:
.LBB2526:
.LBB2508:
	.loc 1 65 0
	cmp	r9, #0
	beq	.L1696
	cmp	r0, #0
	beq	.L1696
.LVL2077:
	.loc 1 68 0
	add	r1, r9, r0
	cmp	r9, r1
	bcs	.L1745
	.loc 1 69 0
	ldrb	r3, [r10, #1]	@ zero_extendqisi2
	cmp	r3, #32
	it	eq
	addeq	r3, r10, #2
	beq	.L1748
	b	.L1767
.LVL2078:
.L1749:
	ldrb	r2, [r9]	@ zero_extendqisi2
	cmp	r2, #32
	bne	.L1767
.L1748:
.LVL2079:
	.loc 1 68 0
	cmp	r1, r3
	mov	r9, r3
.LVL2080:
	add	r3, r3, #1
.LVL2081:
	bne	.L1749
.L1745:
	.loc 1 71 0
	cmp	r9, r1
	beq	.L1696
.L1767:
	.loc 1 74 0
	add	r2, r10, r0
.LVL2082:
	cmp	r2, r9
	bcc	.L1755
	.loc 1 75 0
	ldrb	r3, [r10, r0]	@ zero_extendqisi2
	cmp	r3, #32
	bne	.L1751
	subs	r3, r2, #1
	add	r0, r9, #-1
.LVL2083:
	b	.L1753
.L1754:
	ldrb	r1, [r2]	@ zero_extendqisi2
	cmp	r1, #32
	bne	.L1751
.L1753:
.LVL2084:
	.loc 1 74 0
	cmp	r0, r3
	mov	r2, r3
.LVL2085:
	add	r3, r3, #-1
.LVL2086:
	bne	.L1754
.L1755:
	.loc 1 84 0
	adds	r2, r2, #1
.LVL2087:
	sub	r10, r2, r9
.LVL2088:
	b	.L1848
.LVL2089:
.L1751:
	.loc 1 77 0
	cmp	r9, r2
	bne	.L1755
.LVL2090:
.LBB2506:
.LBB2507:
	.loc 1 51 0
	movs	r0, #2
	bl	pvPortMalloc
.LVL2091:
.LBE2507:
.LBE2506:
	.loc 1 81 0
	movs	r2, #0
	ldrb	r3, [r9]	@ zero_extendqisi2
	mov	r8, r0
	strb	r2, [r0, #1]
	.loc 1 80 0
	strb	r3, [r0]
	b	.L1708
.LVL2092:
.L1776:
.LBE2508:
.LBE2526:
.LBB2527:
.LBB2493:
	.loc 1 68 0
	mov	r10, r8
	b	.L1723
.L1858:
	.loc 1 69 0
	mov	r10, r8
	b	.L1765
.LVL2093:
.L1778:
	.loc 1 72 0
	mov	r9, #0
	b	.L1709
.LVL2094:
.L1775:
	.loc 1 65 0
	mov	r10, fp
	.loc 1 66 0
	mov	r9, r2
	b	.L1709
.L1863:
	.align	2
.L1862:
	.word	.LC32
.LBE2493:
.LBE2527:
.LBE2538:
	.cfi_endproc
.LFE182:
	.size	xml_set_attribute, .-xml_set_attribute
	.section	.text.xml_get_attribute,"ax",%progbits
	.align	1
	.p2align 2,,3
	.global	xml_get_attribute
	.syntax unified
	.thumb
	.thumb_func
	.fpu softvfp
	.type	xml_get_attribute, %function
xml_get_attribute:
.LFB183:
	.loc 1 1330 0
	.cfi_startproc
	@ args = 0, pretend = 0, frame = 0
	@ frame_needed = 0, uses_anonymous_args = 0
.LVL2095:
	push	{r4, r5, r6, r7, r8, lr}
	.cfi_def_cfa_offset 24
	.cfi_offset 4, -24
	.cfi_offset 5, -20
	.cfi_offset 6, -16
	.cfi_offset 7, -12
	.cfi_offset 8, -8
	.cfi_offset 14, -4
	.loc 1 1333 0
	ldr	r4, [r0, #16]
	cbz	r4, .L1864
	mov	r5, r0
.LBB2539:
	.loc 1 1338 0
	mov	r0, r1
.LVL2096:
	mov	r4, r1
	bl	strlen
.LVL2097:
.LBB2540:
.LBB2541:
	.loc 1 51 0
	adds	r0, r0, #4
.LVL2098:
	bl	pvPortMalloc
.LVL2099:
.LBE2541:
.LBE2540:
	.loc 1 1339 0
	mov	r2, r4
	ldr	r1, .L1949
.LBB2543:
.LBB2542:
	.loc 1 51 0
	mov	r6, r0
.LBE2542:
.LBE2543:
	.loc 1 1339 0
	bl	sprintf
.LVL2100:
	.loc 1 1340 0
	mov	r0, r4
	bl	strlen
.LVL2101:
.LBB2544:
.LBB2545:
	.loc 1 51 0
	adds	r0, r0, #4
.LVL2102:
	bl	pvPortMalloc
.LVL2103:
.LBE2545:
.LBE2544:
	.loc 1 1341 0
	mov	r2, r4
	ldr	r1, .L1949+4
.LBB2547:
.LBB2546:
	.loc 1 51 0
	mov	r7, r0
.LBE2546:
.LBE2547:
	.loc 1 1341 0
	bl	sprintf
.LVL2104:
.LBB2548:
.LBB2549:
	.loc 1 28 0
	ldrb	r0, [r6]	@ zero_extendqisi2
.LBE2549:
.LBE2548:
	.loc 1 1343 0
	ldr	r8, [r5, #16]
.LVL2105:
.LBB2552:
.LBB2550:
	.loc 1 28 0
	cbnz	r0, .L1941
.LVL2106:
.LBE2550:
.LBE2552:
	.loc 1 1343 0
	cmp	r8, #0
	beq	.L1942
.LVL2107:
.L1869:
	.loc 1 1346 0
	mov	r0, r6
	bl	strlen
.LVL2108:
	add	r8, r8, r0
.LVL2109:
.L1879:
	.loc 1 1350 0
	movs	r1, #39
.L1938:
	.loc 1 1363 0
	mov	r0, r8
	bl	strchr
.LVL2110:
	.loc 1 1364 0
	sub	r5, r0, r8
.LVL2111:
.LBB2553:
.LBB2554:
	.loc 1 51 0
	adds	r0, r5, #1
.LVL2112:
	bl	pvPortMalloc
.LVL2113:
.LBE2554:
.LBE2553:
	.loc 1 1366 0
	mov	r2, r5
	mov	r1, r8
	bl	memcpy
.LVL2114:
	.loc 1 1367 0
	movs	r2, #0
	mov	r4, r0
	strb	r2, [r0, r5]
.LVL2115:
.L1880:
.LBB2555:
.LBB2556:
	.loc 1 56 0
	mov	r0, r6
	bl	vPortFree
.LVL2116:
.LBE2556:
.LBE2555:
.LBB2557:
.LBB2558:
	mov	r0, r7
	bl	vPortFree
.LVL2117:
.L1864:
.LBE2558:
.LBE2557:
.LBE2539:
	.loc 1 1375 0
	mov	r0, r4
	pop	{r4, r5, r6, r7, r8, pc}
.LVL2118:
.L1941:
.LBB2586:
.LBB2559:
.LBB2551:
	.loc 1 31 0
	ldrb	r1, [r8]	@ zero_extendqisi2
	cmp	r1, #0
	beq	.L1867
	mov	ip, r8
	mov	r3, r1
	b	.L1871
.LVL2119:
.L1868:
	ldrb	r3, [ip, #1]!	@ zero_extendqisi2
.LVL2120:
	cbz	r3, .L1943
.LVL2121:
.L1871:
	.loc 1 32 0
	cmp	r0, r3
	bne	.L1868
	mov	r4, ip
	subs	r2, r6, #1
	b	.L1870
.LVL2122:
.L1944:
	.loc 1 40 0
	ldrb	r5, [r4], #1	@ zero_extendqisi2
.LVL2123:
	cmp	r5, r3
	bne	.L1868
.LVL2124:
.L1870:
	.loc 1 37 0
	ldrb	r3, [r2, #1]!	@ zero_extendqisi2
.LVL2125:
	cmp	r3, #0
	bne	.L1944
	mov	r8, ip
	b	.L1869
.LVL2126:
.L1943:
.LBE2551:
.LBE2559:
.LBB2560:
.LBB2561:
	.loc 1 28 0
	ldrb	ip, [r6, #1]	@ zero_extendqisi2
	cmp	ip, #0
	beq	.L1873
.LBE2561:
.LBE2560:
	.loc 1 1344 0
	add	lr, r6, #1
.LVL2127:
.L1895:
	.loc 1 1343 0
	mov	r5, r8
	mov	r3, r1
	b	.L1877
.LVL2128:
.L1874:
.LBB2567:
.LBB2562:
	.loc 1 31 0
	ldrb	r3, [r5, #1]!	@ zero_extendqisi2
.LVL2129:
	cmp	r3, #0
	beq	.L1945
.LVL2130:
.L1877:
	.loc 1 32 0
	cmp	r3, ip
	bne	.L1874
	mov	r0, r5
	add	r2, lr, #-1
	b	.L1876
.LVL2131:
.L1946:
	.loc 1 40 0
	ldrb	r4, [r0], #1	@ zero_extendqisi2
.LVL2132:
	cmp	r4, r3
	bne	.L1874
.LVL2133:
.L1876:
	.loc 1 37 0
	ldrb	r3, [r2, #1]!	@ zero_extendqisi2
.LVL2134:
	cmp	r3, #0
	bne	.L1946
.LVL2135:
.L1875:
.LBE2562:
.LBE2567:
	.loc 1 1343 0
	cmp	r8, r5
	beq	.L1873
.L1878:
.LVL2136:
.LBB2568:
.LBB2569:
	.loc 1 28 0
	ldrb	ip, [r7]	@ zero_extendqisi2
	cmp	ip, #0
	beq	.L1881
	.loc 1 31 0
	cmp	r1, #0
	beq	.L1882
	mov	r5, r8
	mov	r3, r1
	b	.L1887
.LVL2137:
.L1883:
	ldrb	r3, [r5, #1]!	@ zero_extendqisi2
.LVL2138:
	cmp	r3, #0
	beq	.L1947
.LVL2139:
.L1887:
	.loc 1 32 0
	cmp	ip, r3
	bne	.L1883
	mov	r0, r7
	mov	r2, r5
	mov	r3, ip
.L1884:
.LVL2140:
	.loc 1 40 0
	ldrb	r4, [r2], #1	@ zero_extendqisi2
.LVL2141:
	cmp	r4, r3
	bne	.L1883
	.loc 1 37 0
	ldrb	r3, [r0, #1]!	@ zero_extendqisi2
	cmp	r3, #0
	bne	.L1884
	mov	r8, r5
.LVL2142:
.L1885:
.LBE2569:
.LBE2568:
	.loc 1 1359 0
	mov	r0, r7
	bl	strlen
.LVL2143:
	add	r8, r8, r0
.LVL2144:
.L1894:
	.loc 1 1363 0
	movs	r1, #34
	b	.L1938
.LVL2145:
.L1867:
.LBB2571:
.LBB2563:
	.loc 1 28 0
	ldrb	r3, [r6, #1]	@ zero_extendqisi2
	cmp	r3, #0
	bne	.L1878
.LVL2146:
.L1873:
.LBE2563:
.LBE2571:
	.loc 1 1348 0
	mov	r0, r6
	bl	strlen
.LVL2147:
	subs	r0, r0, #1
	add	r8, r8, r0
.LVL2148:
	b	.L1879
.LVL2149:
.L1881:
	.loc 1 1356 0
	cmp	r8, #0
	bne	.L1885
.LBB2572:
.LBB2573:
	.loc 1 28 0 discriminator 1
	ldrb	r5, [r7, #1]	@ zero_extendqisi2
.LBE2573:
.LBE2572:
	.loc 1 1357 0 discriminator 1
	add	ip, r7, #1
.LVL2150:
.LBB2578:
.LBB2574:
	.loc 1 28 0 discriminator 1
	cbz	r5, .L1889
	.loc 1 31 0
	cbz	r1, .L1889
.LVL2151:
.L1896:
.LBE2574:
.LBE2578:
.LBB2579:
.LBB2570:
	.loc 1 32 0
	mov	r4, r8
	b	.L1893
.LVL2152:
.L1890:
.LBE2570:
.LBE2579:
.LBB2580:
.LBB2575:
	.loc 1 31 0
	ldrb	r1, [r4, #1]!	@ zero_extendqisi2
.LVL2153:
	cbz	r1, .L1891
.LVL2154:
.L1893:
	.loc 1 32 0
	cmp	r5, r1
	bne	.L1890
	mov	r1, r4
	add	r2, ip, #-1
	b	.L1892
.LVL2155:
.L1948:
	.loc 1 40 0
	ldrb	r0, [r1], #1	@ zero_extendqisi2
.LVL2156:
	cmp	r0, r3
	bne	.L1890
.LVL2157:
.L1892:
	.loc 1 37 0
	ldrb	r3, [r2, #1]!	@ zero_extendqisi2
.LVL2158:
	cmp	r3, #0
	bne	.L1948
	mov	r1, r4
.LVL2159:
.L1891:
.LBE2575:
.LBE2580:
	.loc 1 1356 0
	cmp	r8, r1
	beq	.L1889
.LBE2586:
	.loc 1 1331 0
	movs	r4, #0
	b	.L1880
.LVL2160:
.L1942:
.LBB2587:
.LBB2581:
.LBB2564:
	.loc 1 28 0 discriminator 1
	ldrb	ip, [r6, #1]	@ zero_extendqisi2
.LBE2564:
.LBE2581:
	.loc 1 1344 0 discriminator 1
	add	lr, r6, #1
.LVL2161:
.LBB2582:
.LBB2565:
	.loc 1 28 0 discriminator 1
	cmp	ip, #0
	beq	.L1873
	.loc 1 31 0
	ldrb	r1, [r8]	@ zero_extendqisi2
	cmp	r1, #0
	bne	.L1895
	b	.L1873
.LVL2162:
.L1882:
.LBE2565:
.LBE2582:
.LBB2583:
.LBB2576:
	.loc 1 28 0
	ldrb	r3, [r7, #1]	@ zero_extendqisi2
	cmp	r3, #0
	bne	.L1891
.LVL2163:
.L1889:
.LBE2576:
.LBE2583:
	.loc 1 1361 0
	mov	r0, r7
	bl	strlen
.LVL2164:
	subs	r0, r0, #1
	add	r8, r8, r0
.LVL2165:
	b	.L1894
.LVL2166:
.L1945:
.LBB2584:
.LBB2566:
	.loc 1 46 0
	mov	r5, r3
.LVL2167:
	b	.L1875
.LVL2168:
.L1947:
.LBE2566:
.LBE2584:
.LBB2585:
.LBB2577:
	.loc 1 28 0
	ldrb	r5, [r7, #1]	@ zero_extendqisi2
	cmp	r5, #0
	beq	.L1889
.LBE2577:
.LBE2585:
	.loc 1 1357 0
	add	ip, r7, #1
.LVL2169:
	b	.L1896
.L1950:
	.align	2
.L1949:
	.word	.LC29
	.word	.LC30
.LBE2587:
	.cfi_endproc
.LFE183:
	.size	xml_get_attribute, .-xml_get_attribute
	.section	.rodata._parse_tag.str1.4,"aMS",%progbits,1
	.align	2
.LC6:
	.ascii	" xmlns\000"
	.space	1
.LC7:
	.ascii	" xmlns:%s\000"
	.section	.rodata._xml_dump_tree.str1.4,"aMS",%progbits,1
	.align	2
.LC0:
	.ascii	"<\000"
	.space	2
.LC1:
	.ascii	":\000"
	.space	2
.LC2:
	.ascii	" \000"
	.space	2
.LC3:
	.ascii	">\000"
	.space	2
.LC4:
	.ascii	"\012\000"
	.space	2
.LC5:
	.ascii	"</\000"
	.section	.rodata.xml_doc_name.str1.4,"aMS",%progbits,1
	.align	2
.LC8:
	.ascii	"</%s:%s>\000"
	.space	3
.LC9:
	.ascii	"</%s:%s \000"
	.space	3
.LC10:
	.ascii	"</%s>\000"
	.space	2
.LC11:
	.ascii	"</%s \000"
	.section	.rodata.xml_dump_tree_ex.str1.4,"aMS",%progbits,1
	.align	2
.LC24:
	.ascii	"%s\012\000"
	.section	.rodata.xml_parse.str1.4,"aMS",%progbits,1
	.align	2
.LC22:
	.ascii	"<?\000"
	.space	1
.LC23:
	.ascii	"<!\000"
	.section	.rodata.xml_parse_doc.str1.4,"aMS",%progbits,1
	.align	2
.LC12:
	.ascii	"<%s:%s xmlns:%s=\"%s\">\000"
	.space	2
.LC13:
	.ascii	"<%s:%s xmlns:%s=\"%s\"/>\000"
	.space	1
.LC14:
	.ascii	"<%s:%s>\000"
.LC15:
	.ascii	"<%s:%s/>\000"
	.space	3
.LC16:
	.ascii	"<%s xmlns=\"%s\">\000"
.LC17:
	.ascii	"<%s xmlns=\"%s\"/>\000"
	.space	3
.LC18:
	.ascii	"<%s>\000"
	.space	3
.LC19:
	.ascii	"<%s/>\000"
	.space	2
.LC20:
	.ascii	"xmlns:%s=\"%s\"\000"
	.space	2
.LC21:
	.ascii	"xmlns=\"%s\"\000"
	.section	.rodata.xml_set_attribute.str1.4,"aMS",%progbits,1
	.align	2
.LC25:
	.ascii	"xmlns:%s\000"
	.space	3
.LC26:
	.ascii	"xmlns\000"
	.space	2
.LC27:
	.ascii	"%s='%s'\000"
.LC28:
	.ascii	"%s=\"%s\"\000"
.LC29:
	.ascii	" %s='\000"
	.space	2
.LC30:
	.ascii	" %s=\"\000"
	.space	2
.LC31:
	.ascii	"%s %s %s\000"
	.space	3
.LC32:
	.ascii	"%s %s\000"
	.text
.Letext0:
	.file 2 "/cygdrive/d/PUYA/HE3/sdk-ameba-v7.1d/tools/arm-none-eabi-gcc/asdk/cygwin/newlib/arm-none-eabi/include/machine/_default_types.h"
	.file 3 "/cygdrive/d/PUYA/HE3/sdk-ameba-v7.1d/tools/arm-none-eabi-gcc/asdk/cygwin/newlib/lib/gcc/arm-none-eabi/6.5.0/include/stddef.h"
	.file 4 "/cygdrive/d/PUYA/HE3/sdk-ameba-v7.1d/tools/arm-none-eabi-gcc/asdk/cygwin/newlib/arm-none-eabi/include/sys/lock.h"
	.file 5 "/cygdrive/d/PUYA/HE3/sdk-ameba-v7.1d/tools/arm-none-eabi-gcc/asdk/cygwin/newlib/arm-none-eabi/include/sys/_types.h"
	.file 6 "/cygdrive/d/PUYA/HE3/sdk-ameba-v7.1d/tools/arm-none-eabi-gcc/asdk/cygwin/newlib/arm-none-eabi/include/sys/reent.h"
	.file 7 "<built-in>"
	.file 8 "/cygdrive/d/PUYA/HE3/sdk-ameba-v7.1d/tools/arm-none-eabi-gcc/asdk/cygwin/newlib/arm-none-eabi/include/sys/_stdint.h"
	.file 9 "/cygdrive/d/PUYA/HE3/sdk-ameba-v7.1d/tools/arm-none-eabi-gcc/asdk/cygwin/newlib/arm-none-eabi/include/time.h"
	.file 10 "/cygdrive/d/PUYA/HE3/sdk-ameba-v7.1d/tools/arm-none-eabi-gcc/asdk/cygwin/newlib/lib/gcc/arm-none-eabi/6.5.0/include/stdarg.h"
	.file 11 "/cygdrive/d/PUYA/HE3/sdk-ameba-v7.1d/tools/arm-none-eabi-gcc/asdk/cygwin/newlib/arm-none-eabi/include/stdio.h"
	.file 12 "/cygdrive/d/PUYA/HE3/sdk-ameba-v7.1d/tools/arm-none-eabi-gcc/asdk/cygwin/newlib/arm-none-eabi/include/stdlib.h"
	.file 13 "../../../component/soc/realtek/8710c/cmsis/rtl8710c/include/basic_types.h"
	.file 14 "../inc/FreeRTOSConfig.h"
	.file 15 "../../../component/soc/realtek/8710c/app/rtl_printf/include/log_buf.h"
	.file 16 "../../../component/soc/realtek/8710c/app/stdio_port/stdio_port.h"
	.file 17 "../../../component/soc/realtek/8710c/app/rtl_printf/include/printf_entry.h"
	.file 18 "../../../component/soc/realtek/8710c/app/rtl_printf/include/rt_printf.h"
	.file 19 "../../../component/soc/realtek/8710c/misc/utilities/include/utility.h"
	.file 20 "../../../component/common/utilities/xml.h"
	.file 21 "../../../component/os/freertos/freertos_v10.0.1/Source/include/portable.h"
	.file 22 "/cygdrive/d/PUYA/HE3/sdk-ameba-v7.1d/tools/arm-none-eabi-gcc/asdk/cygwin/newlib/arm-none-eabi/include/string.h"